Address   Size      Name    Subname  Module

00401000 0000006a .text             HotlineTasks.cp(??0CMyTask@@QAE@PBE@Z)
00401070 0000002d .text             HotlineTasks.cp(??1CMyTask@@UAE@XZ)
004010a0 00000013 .text             HotlineTasks.cp(?Process@CMyTask@@UAEXXZ)
004010c0 00000015 .text             HotlineTasks.cp(?QueueUnder@CMyTask@@UAE_NXZ)
004010e0 0000001a .text             HotlineTasks.cp(?GetShortDesc@CMyTask@@UAEKPAEK@Z)
00401100 0000002c .text             HotlineTasks.cp(?ShowProgress@CMyTask@@IAEXKKPBE@Z)
00401130 00000034 .text             HotlineTasks.cp(?Finish@CMyTask@@IAEXXZ)
00401170 00000026 .text             HotlineTasks.cp(?CheckServerError@CMyTask@@IAEXKPAVTFieldDataObj@@@Z)
004011a0 00000047 .text             HotlineTasks.cp(??0CMyTransactTask@@QAE@PBE@Z)
004011f0 00000021 .text             HotlineTasks.cp(??1StFieldData@@QAE@XZ)
00401220 00000040 .text             HotlineTasks.cp(??1CMyTransactTask@@UAE@XZ)
00401260 00000030 .text             HotlineTasks.cp(?NewSendSession@CMyTransactTask@@IAEPAVTTransactSessionObj@@G@Z)
00401290 00000044 .text             HotlineTasks.cp(??0CMyDummyTask@@QAE@PBE_N@Z)
004012e0 00000019 .text             HotlineTasks.cp(?IsLoginTask@CMyDummyTask@@QAE_NXZ)
00401300 0000001b .text             HotlineTasks.cp(?FinishDummyTask@CMyDummyTask@@QAEXXZ)
00401320 00000042 .text             HotlineTasks.cp(??0CMyConnectTask@@QAE@XZ)
00401370 00000035 .text             HotlineTasks.cp(?GetShortDesc@CMyConnectTask@@UAEKPAEK@Z)
004013b0 00000049 .text             HotlineTasks.cp(??1CMyConnectTask@@UAE@XZ)
00401400 0000016f .text             HotlineTasks.cp(?Process@CMyConnectTask@@UAEXXZ)
00401570 00000064 .text             HotlineTasks.cp(??0CMyGetOldNewsTask@@QAE@XZ)
004015e0 00000074 .text             HotlineTasks.cp(?GetShortDesc@CMyGetOldNewsTask@@UAEKPAEK@Z)
00401660 000002ae .text             HotlineTasks.cp(?Process@CMyGetOldNewsTask@@UAEXXZ)
00401910 00000021 .text             HotlineTasks.cp(??1StHandleLocker@@QAE@XZ)
00401940 000001c0 .text             HotlineTasks.cp(??0CMyGetFileListTask@@QAE@PBXK_N@Z)
00401b00 0000003c .text             HotlineTasks.cp(??1CMyGetFileListTask@@UAE@XZ)
00401b40 0000003d .text             HotlineTasks.cp(?IsThisPathData@CMyGetFileListTask@@QAE_NPBXK@Z)
00401b80 00000051 .text             HotlineTasks.cp(?GetShortDesc@CMyGetFileListTask@@UAEKPAEK@Z)
00401be0 0000013d .text             HotlineTasks.cp(?Process@CMyGetFileListTask@@UAEXXZ)
00401d20 00000067 .text             HotlineTasks.cp(??0CMyStartupGetFileListTask@@QAE@PBXKPAE@Z)
00401d90 000006f5 .text             HotlineTasks.cp(?Process@CMyStartupGetFileListTask@@UAEXXZ)
00402490 000001ba .text             HotlineTasks.cp(??0CMyGetNewsCatListTask@@QAE@PBXK_N@Z)
00402650 0000003c .text             HotlineTasks.cp(??1CMyGetNewsCatListTask@@UAE@XZ)
00402690 00000051 .text             HotlineTasks.cp(?GetShortDesc@CMyGetNewsCatListTask@@UAEKPAEK@Z)
004026f0 0000013d .text             HotlineTasks.cp(?Process@CMyGetNewsCatListTask@@UAEXXZ)
00402830 00000067 .text             HotlineTasks.cp(??0CMyStartupGetNewsCatListTask@@QAE@PBXKPAE@Z)
004028a0 000006e2 .text             HotlineTasks.cp(?Process@CMyStartupGetNewsCatListTask@@UAEXXZ)
00402f90 0000011a .text             HotlineTasks.cp(??0CMyNewNewsFldrTask@@QAE@PBXKPBE@Z)
004030b0 00000031 .text             HotlineTasks.cp(?GetShortDesc@CMyNewNewsFldrTask@@UAEKPAEK@Z)
004030f0 0000008c .text             HotlineTasks.cp(?Process@CMyNewNewsFldrTask@@UAEXXZ)
00403180 0000011a .text             HotlineTasks.cp(??0CMyNewNewsCatTask@@QAE@PBXKPBE@Z)
004032a0 00000031 .text             HotlineTasks.cp(?GetShortDesc@CMyNewNewsCatTask@@UAEKPAEK@Z)
004032e0 0000008c .text             HotlineTasks.cp(?Process@CMyNewNewsCatTask@@UAEXXZ)
00403370 00000203 .text             HotlineTasks.cp(??0CMyDeleteNewsFldrItemTask@@QAE@PBEGPBXK@Z)
00403580 00000058 .text             HotlineTasks.cp(??_ECMyNewsArticleTreeWin@@UAE@I@Z)
004035e0 00000076 .text             HotlineTasks.cp(??_ECMyItemsWin@@UAE@I@Z)
00403660 0000003c .text             HotlineTasks.cp(??1CMyItemsWin@@UAE@XZ)
004036a0 00000031 .text             HotlineTasks.cp(?GetShortDesc@CMyDeleteNewsFldrItemTask@@UAEKPAEK@Z)
004036e0 0000008c .text             HotlineTasks.cp(?Process@CMyDeleteNewsFldrItemTask@@UAEXXZ)
00403770 0000019e .text             HotlineTasks.cp(??0CMyGetNewsArtListTask@@QAE@PBXK@Z)
00403910 0000003c .text             HotlineTasks.cp(??1CMyGetNewsArtListTask@@UAE@XZ)
00403950 00000051 .text             HotlineTasks.cp(?GetShortDesc@CMyGetNewsArtListTask@@UAEKPAEK@Z)
004039b0 000000c9 .text             HotlineTasks.cp(?Process@CMyGetNewsArtListTask@@UAEXXZ)
00403a80 000002a5 .text             HotlineTasks.cp(??0CMyGetNewsArticleDataTask@@QAE@PBXKKPBEPBDK@Z)
00403d30 0000003c .text             HotlineTasks.cp(??1CMyGetNewsArticleDataTask@@UAE@XZ)
00403d70 00000277 .text             HotlineTasks.cp(?GetShortDesc@CMyGetNewsArticleDataTask@@UAEKPAEK@Z)
00403ff0 0000004a .text             HotlineTasks.cp(?GetThisNewsArticle@CMyGetNewsArticleDataTask@@QAE_NPBXKK@Z)
00404040 000000cf .text             HotlineTasks.cp(?Process@CMyGetNewsArticleDataTask@@UAEXXZ)
00404110 00000078 .text             HotlineTasks.cp(??0CMyOldPostNewsTask@@QAE@PBXK@Z)
00404190 0000008c .text             HotlineTasks.cp(?Process@CMyOldPostNewsTask@@UAEXXZ)
00404220 00000177 .text             HotlineTasks.cp(??0CMyNewsDeleteArticTask@@QAE@PBXKKPAE_N@Z)
004043a0 00000058 .text             HotlineTasks.cp(??_ECMyNewsArticTextWin@@UAE@I@Z)
00404400 00000031 .text             HotlineTasks.cp(?GetShortDesc@CMyNewsDeleteArticTask@@UAEKPAEK@Z)
00404440 0000008c .text             HotlineTasks.cp(?Process@CMyNewsDeleteArticTask@@UAEXXZ)
004044d0 00000187 .text             HotlineTasks.cp(??0CMyPostNewsTextArticle@@QAE@PBXKKPBEK1K@Z)
00404660 00000031 .text             HotlineTasks.cp(?GetShortDesc@CMyPostNewsTextArticle@@UAEKPAEK@Z)
004046a0 0000008c .text             HotlineTasks.cp(?Process@CMyPostNewsTextArticle@@UAEXXZ)
00404730 000000d6 .text             HotlineTasks.cp(??0CMySendPrivMsgTask@@QAE@GPBXKG0K@Z)
00404810 00000092 .text             HotlineTasks.cp(?GetShortDesc@CMySendPrivMsgTask@@UAEKPAEK@Z)
004048b0 0000008c .text             HotlineTasks.cp(?Process@CMySendPrivMsgTask@@UAEXXZ)
00404940 0000007b .text             HotlineTasks.cp(??0CMyBroadcastTask@@QAE@PBXK@Z)
004049c0 0000007e .text             HotlineTasks.cp(?GetShortDesc@CMyBroadcastTask@@UAEKPAEK@Z)
00404a40 0000008c .text             HotlineTasks.cp(?Process@CMyBroadcastTask@@UAEXXZ)
00404ad0 00000051 .text             HotlineTasks.cp(??0CMyKeepConnectionAliveTask@@QAE@XZ)
00404b30 00000058 .text             HotlineTasks.cp(?Process@CMyKeepConnectionAliveTask@@UAEXXZ)
00404b90 00000070 .text             HotlineTasks.cp(??0CMyGetOnlineUsersTask@@QAE@PAE@Z)
00404c00 00000082 .text             HotlineTasks.cp(?GetShortDesc@CMyGetOnlineUsersTask@@UAEKPAEK@Z)
00404c90 000000bd .text             HotlineTasks.cp(?Process@CMyGetOnlineUsersTask@@UAEXXZ)
00404d50 00000195 .text             HotlineTasks.cp(??0CMyLoginTask@@QAE@PBE0@Z)
00404ef0 00000035 .text             HotlineTasks.cp(?GetShortDesc@CMyLoginTask@@UAEKPAEK@Z)
00404f30 00000227 .text             HotlineTasks.cp(?Process@CMyLoginTask@@UAEXXZ)
00405160 0000008c .text             HotlineTasks.cp(??0CMyAgreedTask@@QAE@XZ)
004051f0 0000003e .text             HotlineTasks.cp(??1CMyAgreedTask@@UAE@XZ)
00405230 00000060 .text             HotlineTasks.cp(?GetShortDesc@CMyAgreedTask@@UAEKPAEK@Z)
00405290 000000df .text             HotlineTasks.cp(?Process@CMyAgreedTask@@UAEXXZ)
00405370 000001d4 .text             HotlineTasks.cp(??0CMyGetBannerTimeTask@@QAE@PAEPAVTHdlObj@@K_N@Z)
00405550 00000021 .text             HotlineTasks.cp(??1StHttpTransact@@QAE@XZ)
00405580 00000076 .text             HotlineTasks.cp(??1CMyGetBannerTimeTask@@UAE@XZ)
00405600 0000004b .text             HotlineTasks.cp(?FinishTimerProc@CMyGetBannerTimeTask@@KAXPAX0KPBXK@Z)
00405650 0000001b .text             HotlineTasks.cp(?FinishBannerTask@CMyGetBannerTimeTask@@MAEXXZ)
00405670 0000012c .text             HotlineTasks.cp(?Process@CMyGetBannerTimeTask@@UAEXXZ)
004057a0 00000015 .text             HotlineTasks.cp(?IsLoginTask@CMyGetBannerTimeTask@@QAE_NXZ)
004057c0 0000005f .text             HotlineTasks.cp(??0CMyGetBannerTask@@QAE@PAEPAVTHdlObj@@K_N@Z)
00405820 00000278 .text             HotlineTasks.cp(?Process@CMyGetBannerTask@@UAEXXZ)
00405aa0 00000038 .text             HotlineTasks.cp(?FinishBannerTask@CMyGetBannerTask@@MAEXXZ)
00405ae0 0000027a .text             HotlineTasks.cp(?SearchImageTag@CMyGetBannerTask@@IAE_NPAXK@Z)
00405d60 00000346 .text             HotlineTasks.cp(?CheckURL@CMyGetBannerTask@@IAE_NPAE_N@Z)
004060b0 00000189 .text             HotlineTasks.cp(??0CMyLaunchUrlTask@@QAE@PAVTHdlObj@@@Z)
00406240 0000004e .text             HotlineTasks.cp(??1CMyLaunchUrlTask@@UAE@XZ)
00406290 00000047 .text             HotlineTasks.cp(?FinishTimerProc@CMyLaunchUrlTask@@KAXPAX0KPBXK@Z)
004062e0 0000017c .text             HotlineTasks.cp(?Process@CMyLaunchUrlTask@@UAEXXZ)
00406460 00000128 .text             HotlineTasks.cp(??0CMyDownloadTask@@QAE@PBXKPBE1_N@Z)
00406590 00000095 .text             HotlineTasks.cp(??1CMyDownloadTask@@UAE@XZ)
00406630 00000122 .text             HotlineTasks.cp(?ShowWaitingCount@CMyDownloadTask@@UAE_NKK@Z)
00406760 00000020 .text             HotlineTasks.cp(?QueueUnder@CMyDownloadTask@@UAE_NXZ)
00406780 00000031 .text             HotlineTasks.cp(?Start@CMyDownloadTask@@QAEXXZ)
004067c0 0000006c .text             HotlineTasks.cp(?StartWaitingTimer@CMyDownloadTask@@IAEXXZ)
00406830 0000002f .text             HotlineTasks.cp(?StopWaitingTimer@CMyDownloadTask@@IAEXXZ)
00406860 0000005d .text             HotlineTasks.cp(?SendWaitingData@CMyDownloadTask@@IAEXXZ)
004068c0 00000013 .text             HotlineTasks.cp(?WaitingTimerProc@CMyDownloadTask@@KAXPAX0KPBXK@Z)
004068e0 00000382 .text             HotlineTasks.cp(??0CMyDownloadFileTask@@QAE@PBXKPBE1PAVTFSRefObj@@_N333PA_N4@Z)
00406c70 000000f8 .text             HotlineTasks.cp(??1CMyDownloadFileTask@@UAE@XZ)
00406d70 00000058 .text             HotlineTasks.cp(?ShowWaitingCount@CMyDownloadFileTask@@UAE_NKK@Z)
00406dd0 00000051 .text             HotlineTasks.cp(?GetShortDesc@CMyDownloadFileTask@@UAEKPAEK@Z)
00406e30 00000821 .text             HotlineTasks.cp(?Process@CMyDownloadFileTask@@UAEXXZ)
00407660 000001e3 .text             HotlineTasks.cp(??0CMyViewFileTask@@QAE@PBXKPBE1KK_N2@Z)
00407850 000000a3 .text             HotlineTasks.cp(??1CMyViewFileTask@@UAE@XZ)
00407900 00000058 .text             HotlineTasks.cp(??_ECMyViewFileWin@@UAE@I@Z)
00407960 00000077 .text             HotlineTasks.cp(?ShowWaitingCount@CMyViewFileTask@@UAE_NKK@Z)
004079e0 00000020 .text             HotlineTasks.cp(?EndViewFileWin@CMyViewFileTask@@QAEXXZ)
00407a00 00000251 .text             HotlineTasks.cp(?MakeViewFileWindow@CMyViewFileTask@@IAE_NXZ)
00407c60 00000029 .text             HotlineTasks.cp(?IsTextFile@CMyViewFileTask@@IAE_NXZ)
00407c90 00000059 .text             HotlineTasks.cp(?IsImageFile@CMyViewFileTask@@IAE_NXZ)
00407cf0 00000031 .text             HotlineTasks.cp(?IsQuickTimeFile@CMyViewFileTask@@IAE_NXZ)
00407d30 000000d3 .text             HotlineTasks.cp(?StartQuickTime@CMyViewFileTask@@IAE_NXZ)
00407e10 00000051 .text             HotlineTasks.cp(?GetShortDesc@CMyViewFileTask@@UAEKPAEK@Z)
00407e70 0000057a .text             HotlineTasks.cp(?Process@CMyViewFileTask@@UAEXXZ)
004083f0 00000031 .text             HotlineTasks.cp(?CanKillTask@CMyViewFileTask@@UAE_NXZ)
00408430 00000037 .text             HotlineTasks.cp(?TryKillTask@CMyViewFileTask@@UAEXXZ)
00408470 00000035 .text             HotlineTasks.cp(?SetProgress@CMyViewFileTask@@QAEXKK@Z)
004084b0 000002b4 .text             HotlineTasks.cp(?ShowFileProgress@CMyViewFileTask@@QAEXXZ)
00408770 000002ae .text             HotlineTasks.cp(??0CMyDownloadFldrTask@@QAE@PBXKPBEPAVTFSRefObj@@_N33PA_N4@Z)
00408a20 00000114 .text             HotlineTasks.cp(??1CMyDownloadFldrTask@@UAE@XZ)
00408b40 00000058 .text             HotlineTasks.cp(?ShowWaitingCount@CMyDownloadFldrTask@@UAE_NKK@Z)
00408ba0 00000051 .text             HotlineTasks.cp(?GetShortDesc@CMyDownloadFldrTask@@UAEKPAEK@Z)
00408c00 00001011 .text             HotlineTasks.cp(?Process@CMyDownloadFldrTask@@UAEXXZ)
00409c20 00000021 .text             HotlineTasks.cp(??1StPtr@@QAE@XZ)
00409c50 000000db .text             HotlineTasks.cp(??0CMyDownloadBannerTask@@QAE@KPAE@Z)
00409d30 00000052 .text             HotlineTasks.cp(??1CMyDownloadBannerTask@@UAE@XZ)
00409d90 00000342 .text             HotlineTasks.cp(?Process@CMyDownloadBannerTask@@UAEXXZ)
0040a0e0 00000067 .text             HotlineTasks.cp(??0CMyKillDownloadTask@@QAE@K@Z)
0040a150 0000007e .text             HotlineTasks.cp(?Process@CMyKillDownloadTask@@UAEXXZ)
0040a1d0 000000d8 .text             HotlineTasks.cp(??0CMyUploadTask@@QAE@PAVTFSRefObj@@_N@Z)
0040a2b0 00000053 .text             HotlineTasks.cp(??1CMyUploadTask@@UAE@XZ)
0040a310 00000020 .text             HotlineTasks.cp(?QueueUnder@CMyUploadTask@@UAE_NXZ)
0040a330 00000031 .text             HotlineTasks.cp(?Start@CMyUploadTask@@QAEXXZ)
0040a370 00000236 .text             HotlineTasks.cp(??0CMyUploadFileTask@@QAE@PBXKPAVTFSRefObj@@_N2@Z)
0040a5b0 00000027 .text             HotlineTasks.cp(??1CMyUploadFileTask@@UAE@XZ)
0040a5e0 00000051 .text             HotlineTasks.cp(?GetShortDesc@CMyUploadFileTask@@UAEKPAEK@Z)
0040a640 000008b9 .text             HotlineTasks.cp(?Process@CMyUploadFileTask@@UAEXXZ)
0040af00 00000352 .text             HotlineTasks.cp(??0CMyUploadFldrTask@@QAE@PBXKPAVTFSRefObj@@_N2@Z)
0040b260 00000054 .text             HotlineTasks.cp(??1CMyUploadFldrTask@@UAE@XZ)
0040b2c0 00000051 .text             HotlineTasks.cp(?GetShortDesc@CMyUploadFldrTask@@UAEKPAEK@Z)
0040b320 00000f29 .text             HotlineTasks.cp(?Process@CMyUploadFldrTask@@UAEXXZ)
0040c250 00000054 .text             HotlineTasks.cp(??0CMyOpenUserListTask@@QAE@XZ)
0040c2b0 00000087 .text             HotlineTasks.cp(?GetShortDesc@CMyOpenUserListTask@@UAEKPAEK@Z)
0040c340 000000bd .text             HotlineTasks.cp(?Process@CMyOpenUserListTask@@UAEXXZ)
0040c400 0000007a .text             HotlineTasks.cp(??0CMySetUserListTask@@QAE@PAVTFieldDataObj@@@Z)
0040c480 00000092 .text             HotlineTasks.cp(?GetShortDesc@CMySetUserListTask@@UAEKPAEK@Z)
0040c520 0000008c .text             HotlineTasks.cp(?Process@CMySetUserListTask@@UAEXXZ)
0040c5b0 000001ea .text             HotlineTasks.cp(??0CMyNewUserTask@@QAE@PBE00ABUSMyUserAccess@@@Z)
0040c7a0 00000051 .text             HotlineTasks.cp(?GetShortDesc@CMyNewUserTask@@UAEKPAEK@Z)
0040c800 0000008c .text             HotlineTasks.cp(?Process@CMyNewUserTask@@UAEXXZ)
0040c890 00000143 .text             HotlineTasks.cp(??0CMyDeleteUserTask@@QAE@PBE@Z)
0040c9e0 00000051 .text             HotlineTasks.cp(?GetShortDesc@CMyDeleteUserTask@@UAEKPAEK@Z)
0040ca40 0000008c .text             HotlineTasks.cp(?Process@CMyDeleteUserTask@@UAEXXZ)
0040cad0 000001fc .text             HotlineTasks.cp(??0CMySetUserTask@@QAE@PBE00ABUSMyUserAccess@@@Z)
0040ccd0 00000051 .text             HotlineTasks.cp(?GetShortDesc@CMySetUserTask@@UAEKPAEK@Z)
0040cd30 0000008c .text             HotlineTasks.cp(?Process@CMySetUserTask@@UAEXXZ)
0040cdc0 000000e3 .text             HotlineTasks.cp(??0CMyOpenUserTask@@QAE@PBE@Z)
0040ceb0 00000051 .text             HotlineTasks.cp(?GetShortDesc@CMyOpenUserTask@@UAEKPAEK@Z)
0040cf10 000000bd .text             HotlineTasks.cp(?Process@CMyOpenUserTask@@UAEXXZ)
0040cfd0 00000131 .text             HotlineTasks.cp(??0CMyDisconnectUserTask@@QAE@GPBEE@Z)
0040d110 00000051 .text             HotlineTasks.cp(?GetShortDesc@CMyDisconnectUserTask@@UAEKPAEK@Z)
0040d170 0000008c .text             HotlineTasks.cp(?Process@CMyDisconnectUserTask@@UAEXXZ)
0040d200 0000010a .text             HotlineTasks.cp(??0CMyGetClientInfoTask@@QAE@GPBE@Z)
0040d310 00000051 .text             HotlineTasks.cp(?GetShortDesc@CMyGetClientInfoTask@@UAEKPAEK@Z)
0040d370 000000b1 .text             HotlineTasks.cp(?Process@CMyGetClientInfoTask@@UAEXXZ)
0040d430 00000128 .text             HotlineTasks.cp(??0CMyDeleteFileTask@@QAE@PBXKPBE_N@Z)
0040d560 00000051 .text             HotlineTasks.cp(?GetShortDesc@CMyDeleteFileTask@@UAEKPAEK@Z)
0040d5c0 0000008c .text             HotlineTasks.cp(?Process@CMyDeleteFileTask@@UAEXXZ)
0040d650 0000011a .text             HotlineTasks.cp(??0CMyNewFolderTask@@QAE@PBXKPBE@Z)
0040d770 00000051 .text             HotlineTasks.cp(?GetShortDesc@CMyNewFolderTask@@UAEKPAEK@Z)
0040d7d0 0000008c .text             HotlineTasks.cp(?Process@CMyNewFolderTask@@UAEXXZ)
0040d860 000001d3 .text             HotlineTasks.cp(??0CMyGetTrackServListTask@@QAE@PBE0G00@Z)
0040da40 0000008f .text             HotlineTasks.cp(??1CMyGetTrackServListTask@@UAE@XZ)
0040dad0 0000001d .text             HotlineTasks.cp(?GetTrackerID@CMyGetTrackServListTask@@QAEGXZ)
0040daf0 00000051 .text             HotlineTasks.cp(?GetShortDesc@CMyGetTrackServListTask@@UAEKPAEK@Z)
0040db50 0000061f .text             HotlineTasks.cp(?Process@CMyGetTrackServListTask@@UAEXXZ)
0040e170 0000018f .text             HotlineTasks.cp(??0CMyGetFileInfoTask@@QAE@PBXKPBE@Z)
0040e300 00000033 .text             HotlineTasks.cp(??1CMyGetFileInfoTask@@UAE@XZ)
0040e340 00000051 .text             HotlineTasks.cp(?GetShortDesc@CMyGetFileInfoTask@@UAEKPAEK@Z)
0040e3a0 00000603 .text             HotlineTasks.cp(?Process@CMyGetFileInfoTask@@UAEXXZ)
0040e9b0 00000058 .text             HotlineTasks.cp(??_ECMyFileInfoWin@@UAE@I@Z)
0040ea10 00000184 .text             HotlineTasks.cp(??0CMySetFileInfoTask@@QAE@PBXKPBE11@Z)
0040eba0 00000051 .text             HotlineTasks.cp(?GetShortDesc@CMySetFileInfoTask@@UAEKPAEK@Z)
0040ec00 0000008c .text             HotlineTasks.cp(?Process@CMySetFileInfoTask@@UAEXXZ)
0040ec90 0000014e .text             HotlineTasks.cp(??0CMyMoveFileTask@@QAE@PBEPBXK1K@Z)
0040ede0 00000051 .text             HotlineTasks.cp(?GetShortDesc@CMyMoveFileTask@@UAEKPAEK@Z)
0040ee40 0000008c .text             HotlineTasks.cp(?Process@CMyMoveFileTask@@UAEXXZ)
0040eed0 00000137 .text             HotlineTasks.cp(??0CMyMakeFileAliasTask@@QAE@PBEPBXK1K@Z)
0040f010 00000051 .text             HotlineTasks.cp(?GetShortDesc@CMyMakeFileAliasTask@@UAEKPAEK@Z)
0040f070 0000008c .text             HotlineTasks.cp(?Process@CMyMakeFileAliasTask@@UAEXXZ)
0040f100 00000086 .text             HotlineTasks.cp(??0CMyInviteNewChatTask@@QAE@PBKK@Z)
0040f190 0000007e .text             HotlineTasks.cp(?GetShortDesc@CMyInviteNewChatTask@@UAEKPAEK@Z)
0040f210 000002dd .text             HotlineTasks.cp(?Process@CMyInviteNewChatTask@@UAEXXZ)
0040f4f0 00000058 .text             HotlineTasks.cp(??_ECMyPrivateChatWin@@UAE@I@Z)
0040f550 00000070 .text             HotlineTasks.cp(??0CMyJoinChatTask@@QAE@K@Z)
0040f5c0 0000007e .text             HotlineTasks.cp(?GetShortDesc@CMyJoinChatTask@@UAEKPAEK@Z)
0040f640 0000018d .text             HotlineTasks.cp(?Process@CMyJoinChatTask@@UAEXXZ)
0040f7d0 00000061 .text             HotlineTasks.cp(??_ECMyJoinChatTask@@UAE@I@Z)
0040f840 00000027 .text             HotlineTasks.cp(??1CMyJoinChatTask@@UAE@XZ)
0040f870 00000015 .text             HotlineTasks.cp(?CanKillTask@CMyTask@@UAE_NXZ)
0040f890 00000013 .text             HotlineTasks.cp(?TryKillTask@CMyTask@@UAEXXZ)
0040f8b0 00000061 .text             HotlineTasks.cp(??_ECMyInviteNewChatTask@@UAE@I@Z)
0040f920 00000027 .text             HotlineTasks.cp(??1CMyInviteNewChatTask@@UAE@XZ)
0040f950 00000061 .text             HotlineTasks.cp(??_ECMyMakeFileAliasTask@@UAE@I@Z)
0040f9c0 00000027 .text             HotlineTasks.cp(??1CMyMakeFileAliasTask@@UAE@XZ)
0040f9f0 00000061 .text             HotlineTasks.cp(??_ECMyMoveFileTask@@UAE@I@Z)
0040fa60 00000027 .text             HotlineTasks.cp(??1CMyMoveFileTask@@UAE@XZ)
0040fa90 00000061 .text             HotlineTasks.cp(??_ECMySetFileInfoTask@@UAE@I@Z)
0040fb00 00000027 .text             HotlineTasks.cp(??1CMySetFileInfoTask@@UAE@XZ)
0040fb30 00000058 .text             HotlineTasks.cp(??_ECMyGetFileInfoTask@@UAE@I@Z)
0040fb90 00000058 .text             HotlineTasks.cp(??_ECMyGetTrackServListTask@@UAE@I@Z)
0040fbf0 00000061 .text             HotlineTasks.cp(??_ECMyNewFolderTask@@UAE@I@Z)
0040fc60 00000027 .text             HotlineTasks.cp(??1CMyNewFolderTask@@UAE@XZ)
0040fc90 00000061 .text             HotlineTasks.cp(??_ECMyDeleteFileTask@@UAE@I@Z)
0040fd00 00000027 .text             HotlineTasks.cp(??1CMyDeleteFileTask@@UAE@XZ)
0040fd30 00000061 .text             HotlineTasks.cp(??_ECMyGetClientInfoTask@@UAE@I@Z)
0040fda0 00000027 .text             HotlineTasks.cp(??1CMyGetClientInfoTask@@UAE@XZ)
0040fdd0 00000061 .text             HotlineTasks.cp(??_ECMyDisconnectUserTask@@UAE@I@Z)
0040fe40 00000027 .text             HotlineTasks.cp(??1CMyDisconnectUserTask@@UAE@XZ)
0040fe70 00000061 .text             HotlineTasks.cp(??_ECMyOpenUserTask@@UAE@I@Z)
0040fee0 00000027 .text             HotlineTasks.cp(??1CMyOpenUserTask@@UAE@XZ)
0040ff10 00000061 .text             HotlineTasks.cp(??_ECMySetUserTask@@UAE@I@Z)
0040ff80 00000027 .text             HotlineTasks.cp(??1CMySetUserTask@@UAE@XZ)
0040ffb0 00000061 .text             HotlineTasks.cp(??_ECMyDeleteUserTask@@UAE@I@Z)
00410020 00000027 .text             HotlineTasks.cp(??1CMyDeleteUserTask@@UAE@XZ)
00410050 00000061 .text             HotlineTasks.cp(??_ECMyNewUserTask@@UAE@I@Z)
004100c0 00000027 .text             HotlineTasks.cp(??1CMyNewUserTask@@UAE@XZ)
004100f0 00000061 .text             HotlineTasks.cp(??_ECMySetUserListTask@@UAE@I@Z)
00410160 00000027 .text             HotlineTasks.cp(??1CMySetUserListTask@@UAE@XZ)
00410190 00000061 .text             HotlineTasks.cp(??_ECMyOpenUserListTask@@UAE@I@Z)
00410200 00000027 .text             HotlineTasks.cp(??1CMyOpenUserListTask@@UAE@XZ)
00410230 00000058 .text             HotlineTasks.cp(??_ECMyUploadFldrTask@@UAE@I@Z)
00410290 00000058 .text             HotlineTasks.cp(??_ECMyUploadFileTask@@UAE@I@Z)
004102f0 00000058 .text             HotlineTasks.cp(??_ECMyUploadTask@@UAE@I@Z)
00410350 00000061 .text             HotlineTasks.cp(??_ECMyKillDownloadTask@@UAE@I@Z)
004103c0 00000027 .text             HotlineTasks.cp(??1CMyKillDownloadTask@@UAE@XZ)
004103f0 00000058 .text             HotlineTasks.cp(??_ECMyDownloadBannerTask@@UAE@I@Z)
00410450 00000058 .text             HotlineTasks.cp(??_ECMyDownloadFldrTask@@UAE@I@Z)
004104b0 00000058 .text             HotlineTasks.cp(??_ECMyViewFileTask@@UAE@I@Z)
00410510 00000058 .text             HotlineTasks.cp(??_ECMyDownloadFileTask@@UAE@I@Z)
00410570 00000058 .text             HotlineTasks.cp(??_ECMyDownloadTask@@UAE@I@Z)
004105d0 00000058 .text             HotlineTasks.cp(??_ECMyLaunchUrlTask@@UAE@I@Z)
00410630 00000061 .text             HotlineTasks.cp(??_ECMyGetBannerTask@@UAE@I@Z)
004106a0 00000027 .text             HotlineTasks.cp(??1CMyGetBannerTask@@UAE@XZ)
004106d0 00000058 .text             HotlineTasks.cp(??_ECMyGetBannerTimeTask@@UAE@I@Z)
00410730 00000058 .text             HotlineTasks.cp(??_ECMyAgreedTask@@UAE@I@Z)
00410790 00000061 .text             HotlineTasks.cp(??_ECMyLoginTask@@UAE@I@Z)
00410800 00000027 .text             HotlineTasks.cp(??1CMyLoginTask@@UAE@XZ)
00410830 00000061 .text             HotlineTasks.cp(??_ECMyGetOnlineUsersTask@@UAE@I@Z)
004108a0 00000027 .text             HotlineTasks.cp(??1CMyGetOnlineUsersTask@@UAE@XZ)
004108d0 00000061 .text             HotlineTasks.cp(??_ECMyKeepConnectionAliveTask@@UAE@I@Z)
00410940 00000027 .text             HotlineTasks.cp(??1CMyKeepConnectionAliveTask@@UAE@XZ)
00410970 00000061 .text             HotlineTasks.cp(??_ECMyBroadcastTask@@UAE@I@Z)
004109e0 00000027 .text             HotlineTasks.cp(??1CMyBroadcastTask@@UAE@XZ)
00410a10 00000061 .text             HotlineTasks.cp(??_ECMySendPrivMsgTask@@UAE@I@Z)
00410a80 00000027 .text             HotlineTasks.cp(??1CMySendPrivMsgTask@@UAE@XZ)
00410ab0 00000061 .text             HotlineTasks.cp(??_ECMyPostNewsTextArticle@@UAE@I@Z)
00410b20 00000027 .text             HotlineTasks.cp(??1CMyPostNewsTextArticle@@UAE@XZ)
00410b50 00000061 .text             HotlineTasks.cp(??_ECMyNewsDeleteArticTask@@UAE@I@Z)
00410bc0 00000027 .text             HotlineTasks.cp(??1CMyNewsDeleteArticTask@@UAE@XZ)
00410bf0 00000061 .text             HotlineTasks.cp(??_ECMyOldPostNewsTask@@UAE@I@Z)
00410c60 00000027 .text             HotlineTasks.cp(??1CMyOldPostNewsTask@@UAE@XZ)
00410c90 00000058 .text             HotlineTasks.cp(??_ECMyGetNewsArticleDataTask@@UAE@I@Z)
00410cf0 00000058 .text             HotlineTasks.cp(??_ECMyGetNewsArtListTask@@UAE@I@Z)
00410d50 00000061 .text             HotlineTasks.cp(??_ECMyDeleteNewsFldrItemTask@@UAE@I@Z)
00410dc0 00000027 .text             HotlineTasks.cp(??1CMyDeleteNewsFldrItemTask@@UAE@XZ)
00410df0 00000061 .text             HotlineTasks.cp(??_ECMyNewNewsCatTask@@UAE@I@Z)
00410e60 00000027 .text             HotlineTasks.cp(??1CMyNewNewsCatTask@@UAE@XZ)
00410e90 00000061 .text             HotlineTasks.cp(??_ECMyNewNewsFldrTask@@UAE@I@Z)
00410f00 00000027 .text             HotlineTasks.cp(??1CMyNewNewsFldrTask@@UAE@XZ)
00410f30 00000061 .text             HotlineTasks.cp(??_ECMyStartupGetNewsCatListTask@@UAE@I@Z)
00410fa0 00000027 .text             HotlineTasks.cp(??1CMyStartupGetNewsCatListTask@@UAE@XZ)
00410fd0 00000058 .text             HotlineTasks.cp(??_ECMyGetNewsCatListTask@@UAE@I@Z)
00411030 00000061 .text             HotlineTasks.cp(??_ECMyStartupGetFileListTask@@UAE@I@Z)
004110a0 00000027 .text             HotlineTasks.cp(??1CMyStartupGetFileListTask@@UAE@XZ)
004110d0 00000058 .text             HotlineTasks.cp(??_ECMyGetFileListTask@@UAE@I@Z)
00411130 00000061 .text             HotlineTasks.cp(??_ECMyGetOldNewsTask@@UAE@I@Z)
004111a0 00000027 .text             HotlineTasks.cp(??1CMyGetOldNewsTask@@UAE@XZ)
004111d0 00000058 .text             HotlineTasks.cp(??_ECMyConnectTask@@UAE@I@Z)
00411230 00000061 .text             HotlineTasks.cp(??_ECMyDummyTask@@UAE@I@Z)
004112a0 00000027 .text             HotlineTasks.cp(??1CMyDummyTask@@UAE@XZ)
004112d0 00000058 .text             HotlineTasks.cp(??_ECMyTransactTask@@UAE@I@Z)
00411330 00000058 .text             HotlineTasks.cp(??_ECMyTask@@UAE@I@Z)
00411390 00000008 .text             HotlineTasks.cp(@20@??_ECMyItemsWin@@UAE@I@Z)
004113a0 00000053 .text             HotlineViews.cp(??0CMyIconPickView@@QAE@PAVCViewHandler@@ABVSRect@@@Z)
00411400 00000033 .text             HotlineViews.cp(??1CMyIconPickView@@UAE@XZ)
00411440 0000005e .text             HotlineViews.cp(?SetIcon@CMyIconPickView@@QAEXF@Z)
004114a0 0000004c .text             HotlineViews.cp(?SetMark@CMyIconPickView@@QAEX_N@Z)
004114f0 00000373 .text             HotlineViews.cp(?Draw@CMyIconPickView@@UAEXPAVTImageObj@@ABVSRect@@K@Z)
00411870 00000063 .text             HotlineViews.cp(?MouseDown@CMyIconPickView@@UAEXABUSMouseMsgData@@@Z)
004118e0 00000444 .text             HotlineViews.cp(??0CMyOptIconTab@@QAE@ABVSPoint@@@Z)
00411d30 0000003a .text             HotlineViews.cp(?SetText@CMyOptIconTab@@QAEXPBE@Z)
00411d70 00000092 .text             HotlineViews.cp(?SetIconID@CMyOptIconTab@@QAEXF@Z)
00411e10 00000051 .text             HotlineViews.cp(?GetIconID@CMyOptIconTab@@QAEFXZ)
00411e70 0000002f .text             HotlineViews.cp(??0CMyAccessCheckBoxView@@QAE@PAVCViewHandler@@ABVSRect@@@Z)
00411ea0 0000007e .text             HotlineViews.cp(??0CMyListStatusView@@QAE@PAVCViewHandler@@ABVSRect@@@Z)
00411f20 0000005d .text             HotlineViews.cp(??1CTabbedListView@@UAE@XZ)
00411f80 000000c6 .text             HotlineViews.cp(??1CMyListStatusView@@UAE@XZ)
00412050 00000084 .text             HotlineViews.cp(?SetStatus@CMyListStatusView@@QAEXK@Z)
004120e0 000000b5 .text             HotlineViews.cp(?SetStatus@CMyListStatusView@@QAEXPBE@Z)
004121a0 000000a4 .text             HotlineViews.cp(?GetFullHeight@CMyListStatusView@@UBEKXZ)
00412250 00000149 .text             HotlineViews.cp(?Draw@CMyListStatusView@@UAEXPAVTImageObj@@ABVSRect@@K@Z)
004123a0 000000ac .text             HotlineViews.cp(??0CMyFileListView@@QAE@PAVCViewHandler@@ABVSRect@@_N@Z)
00412450 0000001e .text             HotlineViews.cp(??1?$CPtrList@VTFSRefObj@@@@QAE@XZ)
00412470 0000001e .text             HotlineViews.cp(??1?$CPtrList@USMyFileItem@@@@QAE@XZ)
00412490 00000067 .text             HotlineViews.cp(??1CMyFileListView@@UAE@XZ)
00412500 00000077 .text             HotlineViews.cp(?SetTabs@CMyFileListView@@QAEXEE@Z)
00412580 0000001e .text             HotlineViews.cp(??1?$CPtrList@E@@QAE@XZ)
004125a0 00000039 .text             HotlineViews.cp(?GetTabs@CMyFileListView@@QAEXAAE0@Z)
004125e0 0000001c .text             HotlineViews.cp(?GetItemCount@CMyFileListView@@UBEKXZ)
00412600 000002ec .text             HotlineViews.cp(?AddListFromFields@CMyFileListView@@QAE_NPAVTFieldDataObj@@@Z)
004128f0 000000d8 .text             HotlineViews.cp(?SelectNames@CMyFileListView@@QAEKPBE@Z)
004129d0 0000014d .text             HotlineViews.cp(?SearchNames@CMyFileListView@@QAEKPBE@Z)
00412b20 0000016f .text             HotlineViews.cp(?GetSelectedItemName@CMyFileListView@@QAE_NPAEPAK1PBUSMouseMsgData@@@Z)
00412c90 000000a7 .text             HotlineViews.cp(?DeleteAll@CMyFileListView@@QAEXXZ)
00412d40 000001b7 .text             HotlineViews.cp(?HasPartialFile@CMyFileListView@@QAE_NPBE_N@Z)
00412f00 00000051 .text             HotlineViews.cp(?GetItemToUpload@CMyFileListView@@QAEPAVTFSRefObj@@XZ)
00412f60 0000007e .text             HotlineViews.cp(?ClearUploadList@CMyFileListView@@QAEXXZ)
00412fe0 0000004e .text             HotlineViews.cp(?DragEnter@CMyFileListView@@UAEXABUSDragMsgData@@@Z)
00413030 0000004e .text             HotlineViews.cp(?DragMove@CMyFileListView@@UAEXABUSDragMsgData@@@Z)
00413080 000002b2 .text             HotlineViews.cp(?Drop@CMyFileListView@@UAE_NABUSDragMsgData@@@Z)
00413340 0000007a .text             HotlineViews.cp(?SetItemSelect@CMyFileListView@@UAEXK_N@Z)
004133c0 00000580 .text             HotlineViews.cp(?ItemDraw@CMyFileListView@@MAEXKPAVTImageObj@@ABVSRect@@ABV?$CPtrList@VSRect@@@@K@Z)
00413940 0000009d .text             HotlineViews.cp(?CompareNames@CMyFileListView@@KAJPAX00@Z)
004139e0 000000f1 .text             HotlineViews.cp(??0CMyFileTreeView@@QAE@PAVCViewHandler@@ABVSRect@@PAPAVTPtrObj@@PAK_N@Z)
00413ae0 0000005c .text             HotlineViews.cp(??1CMyFileTreeView@@UAE@XZ)
00413b40 00000079 .text             HotlineViews.cp(?SetTabs@CMyFileTreeView@@QAEXEE@Z)
00413bc0 0000003f .text             HotlineViews.cp(?GetTabs@CMyFileTreeView@@QAEXAAE0@Z)
00413c00 000003c3 .text             HotlineViews.cp(?AddListFromFields@CMyFileTreeView@@QAE_NPBXKPAVTFieldDataObj@@@Z)
00413fd0 00000098 .text             HotlineViews.cp(?SelectNames@CMyFileTreeView@@QAEKPBE@Z)
00414070 00000126 .text             HotlineViews.cp(?SelectChildNames@CMyFileTreeView@@QAEKPBE@Z)
004141a0 0000010f .text             HotlineViews.cp(?SearchNames@CMyFileTreeView@@QAEKPBE@Z)
004142b0 00000088 .text             HotlineViews.cp(?RefreshSelectedFolderPath@CMyFileTreeView@@QAEPAXAAK@Z)
00414340 00000035 .text             HotlineViews.cp(?GetSelectedFolderPath@CMyFileTreeView@@QAEPAXAAK@Z)
00414380 00000068 .text             HotlineViews.cp(?GetSelectedParentFolderPath@CMyFileTreeView@@QAEPAXAAK@Z)
004143f0 000000b6 .text             HotlineViews.cp(?GetDropFolderPath@CMyFileTreeView@@QAE_NPAPAXAAK@Z)
004144b0 0000014c .text             HotlineViews.cp(?GetSelectedItemName@CMyFileTreeView@@QAE_NPAEPAK1PBUSMouseMsgData@@@Z)
00414600 000000a6 .text             HotlineViews.cp(?DeletePath@CMyFileTreeView@@QAEXPBXK@Z)
004146b0 00000056 .text             HotlineViews.cp(?DeleteAll@CMyFileTreeView@@QAEXXZ)
00414710 000001d7 .text             HotlineViews.cp(?HasPartialFile@CMyFileTreeView@@QAE_NPBEPBXK_N@Z)
004148f0 00000051 .text             HotlineViews.cp(?GetItemToUpload@CMyFileTreeView@@QAEPAVTFSRefObj@@XZ)
00414950 0000007e .text             HotlineViews.cp(?ClearUploadList@CMyFileTreeView@@QAEXXZ)
004149d0 00000094 .text             HotlineViews.cp(?DragEnter@CMyFileTreeView@@UAEXABUSDragMsgData@@@Z)
00414a70 00000087 .text             HotlineViews.cp(?DragMove@CMyFileTreeView@@UAEXABUSDragMsgData@@@Z)
00414b00 0000005c .text             HotlineViews.cp(?DragLeave@CMyFileTreeView@@UAEXABUSDragMsgData@@@Z)
00414b60 000002b2 .text             HotlineViews.cp(?Drop@CMyFileTreeView@@UAE_NABUSDragMsgData@@@Z)
00414e20 00000074 .text             HotlineViews.cp(?KeyDown@CMyFileTreeView@@UAE_NABUSKeyMsgData@@@Z)
00414ea0 000000b9 .text             HotlineViews.cp(?SelectionChanged@CMyFileTreeView@@UAEXKPAUSMyFileItem@@_N@Z)
00414f60 000000fd .text             HotlineViews.cp(?DisclosureChanged@CMyFileTreeView@@UAEXKPAUSMyFileItem@@E@Z)
00415060 0000024b .text             HotlineViews.cp(?GetFolderIndex@CMyFileTreeView@@IAE_NPBXKAAK@Z)
004152b0 0000031f .text             HotlineViews.cp(?GetFolderPath@CMyFileTreeView@@IAEPAXAAK0@Z)
004155d0 00000156 .text             HotlineViews.cp(?SetDropFolderIndex@CMyFileTreeView@@IAEXABUSDragMsgData@@@Z)
00415730 0000050f .text             HotlineViews.cp(?ItemDraw@CMyFileTreeView@@MAEXKKPAUSMyFileItem@@PAUSTreeViewItem@@PAVTImageObj@@ABV?$CPtrList@VSRect@@@@K@Z)
00415c40 000000b4 .text             HotlineViews.cp(?CompareNames@CMyFileTreeView@@KAJPAX00@Z)
00415d00 00000269 .text             HotlineViews.cp(?HotlineFileTypeToIcon@@YAFK@Z)
00415f70 00000060 .text             HotlineViews.cp(??0CMyTaskListView@@QAE@PAVCViewHandler@@ABVSRect@@@Z)
00415fd0 0000003f .text             HotlineViews.cp(??1CListView@@UAE@XZ)
00416010 000000d3 .text             HotlineViews.cp(??1CMyTaskListView@@UAE@XZ)
004160f0 00000019 .text             HotlineViews.cp(?GetItemCount@CMyTaskListView@@UBEKXZ)
00416110 000000fa .text             HotlineViews.cp(?AddTask@CMyTaskListView@@QAEXPAVCMyTask@@PBE@Z)
00416210 00000072 .text             HotlineViews.cp(?RemoveTask@CMyTaskListView@@QAEXPAVCMyTask@@@Z)
00416290 000000d4 .text             HotlineViews.cp(?SetTaskProgress@CMyTaskListView@@QAEXPAVCMyTask@@KKPBE@Z)
00416370 00000036 .text             HotlineViews.cp(?SetItemSelect@CMyTaskListView@@UAEXK_N@Z)
004163b0 00000034 .text             HotlineViews.cp(?ItemsRemoved@CMyTaskListView@@UAEXKK@Z)
004163f0 00000072 .text             HotlineViews.cp(?ShowFinishedBar@CMyTaskListView@@QAEXPAVCMyTask@@@Z)
00416470 0000009d .text             HotlineViews.cp(?TaskToInfo@CMyTaskListView@@IAEPAUSMyTaskNameInfo@@PAVCMyTask@@PAK@Z)
00416510 00000084 .text             HotlineViews.cp(?GetSelectedTask@CMyTaskListView@@QAEPAVCMyTask@@XZ)
004165a0 00000090 .text             HotlineViews.cp(?GetFullHeight@CMyTaskListView@@UBEKXZ)
00416630 00000039 .text             HotlineViews.cp(?Draw@CMyTaskListView@@UAEXPAVTImageObj@@ABVSRect@@K@Z)
00416670 0000026e .text             HotlineViews.cp(?ItemDraw@CMyTaskListView@@MAEXKPAVTImageObj@@ABVSRect@@1K@Z)
004168e0 00000118 .text             HotlineViews.cp(??0CMyUserListView@@QAE@PAVCViewHandler@@ABVSRect@@@Z)
00416a00 0000001e .text             HotlineViews.cp(??1?$CPtrList@USMyUserListItem@CMyUserListView@@@@QAE@XZ)
00416a20 00000118 .text             HotlineViews.cp(??1CMyUserListView@@UAE@XZ)
00416b40 00000077 .text             HotlineViews.cp(?SetTabs@CMyUserListView@@QAEXEE@Z)
00416bc0 00000039 .text             HotlineViews.cp(?GetTabs@CMyUserListView@@QAEXAAE0@Z)
00416c00 0000001c .text             HotlineViews.cp(?GetItemCount@CMyUserListView@@UBEKXZ)
00416c20 00000262 .text             HotlineViews.cp(?AddListFromFields@CMyUserListView@@QAEXPAVTFieldDataObj@@@Z)
00416e90 0000017a .text             HotlineViews.cp(?UpdateUser@CMyUserListView@@QAE_NGFGPBXKPAE@Z)
00417010 000000a9 .text             HotlineViews.cp(?AddUser@CMyUserListView@@QAEXGFGPBXK@Z)
004170c0 00000105 .text             HotlineViews.cp(?DeleteUserByID@CMyUserListView@@QAE_NGPAE@Z)
004171d0 000000b6 .text             HotlineViews.cp(?GetUserByID@CMyUserListView@@QAE_NGPAE@Z)
00417290 000000b4 .text             HotlineViews.cp(?DeleteAll@CMyUserListView@@QAEXXZ)
00417350 000000cd .text             HotlineViews.cp(?GetSelectedUserID@CMyUserListView@@QAEGPAE@Z)
00417420 0000004e .text             HotlineViews.cp(?DragEnter@CMyUserListView@@UAEXABUSDragMsgData@@@Z)
00417470 0000004e .text             HotlineViews.cp(?DragMove@CMyUserListView@@UAEXABUSDragMsgData@@@Z)
004174c0 0000068c .text             HotlineViews.cp(?ItemDraw@CMyUserListView@@MAEXKPAVTImageObj@@ABVSRect@@ABV?$CPtrList@VSRect@@@@K@Z)
00417b50 00000184 .text             HotlineViews.cp(?SearchNames@CMyUserListView@@QAEKPBE@Z)
00417ce0 00000040 .text             HotlineViews.cp(??0CMySubjectView@@QAE@PAVCViewHandler@@ABVSRect@@@Z)
00417d20 00000033 .text             HotlineViews.cp(??1CMySubjectView@@UAE@XZ)
00417d60 00000065 .text             HotlineViews.cp(?SetText@CMySubjectView@@QAEXPBXK@Z)
00417dd0 0000017a .text             HotlineViews.cp(?Draw@CMySubjectView@@UAEXPAVTImageObj@@ABVSRect@@K@Z)
00417f50 0000006a .text             HotlineViews.cp(?MouseDown@CMySubjectView@@UAEXABUSMouseMsgData@@@Z)
00417fc0 00000082 .text             HotlineViews.cp(?MouseUp@CMySubjectView@@UAEXABUSMouseMsgData@@@Z)
00418050 000000b4 .text             HotlineViews.cp(?MouseEnter@CMySubjectView@@UAEXABUSMouseMsgData@@@Z)
00418110 0000004b .text             HotlineViews.cp(?MouseLeave@CMySubjectView@@UAEXABUSMouseMsgData@@@Z)
00418160 00000032 .text             HotlineViews.cp(??0CMyClickPicView@@QAE@PAVCViewHandler@@ABVSRect@@J@Z)
004181a0 0000002c .text             HotlineViews.cp(??1CPictureView@@UAE@XZ)
004181d0 00000027 .text             HotlineViews.cp(?MouseUp@CMyClickPicView@@UAEXABUSMouseMsgData@@@Z)
00418200 000001cb .text             HotlineViews.cp(?MakeClickPicWin@@YAPAVCWindow@@ABVSRect@@JPBE@Z)
004183d0 00000094 .text             HotlineViews.cp(??0CMyConnectedInfoView@@QAE@PAVCViewHandler@@ABVSRect@@PBEPAVTFontDescObj@@@Z)
00418470 0000005f .text             HotlineViews.cp(??1CMyConnectedInfoView@@UAE@XZ)
004184d0 00000080 .text             HotlineViews.cp(?SetText@CMyConnectedInfoView@@QAEXPBE@Z)
00418550 0000004d .text             HotlineViews.cp(?SetAltText@CMyConnectedInfoView@@QAEXPBE@Z)
004185a0 00000082 .text             HotlineViews.cp(?ShowAltText@CMyConnectedInfoView@@QAEXXZ)
00418630 00000069 .text             HotlineViews.cp(?Timer@CMyConnectedInfoView@@UAEXPAVTTimerObj@@@Z)
004186a0 00000032 .text             HotlineViews.cp(?MouseDown@CMyConnectedInfoView@@UAEXABUSMouseMsgData@@@Z)
004186e0 000000f6 .text             HotlineViews.cp(?Draw@CMyConnectedInfoView@@UAEXPAVTImageObj@@ABVSRect@@K@Z)
004187e0 00000032 .text             HotlineViews.cp(??0CMyImageView@@QAE@PAVCViewHandler@@ABVSRect@@PAVCDecompressImage@@@Z)
00418820 0000004a .text             HotlineViews.cp(?LaunchURL@CMyImageView@@UAE_NXZ)
00418870 00000032 .text             HotlineViews.cp(??0CMyAnimatedGifView@@QAE@PAVCViewHandler@@ABVSRect@@PAVCDecompressGif@@@Z)
004188b0 0000004a .text             HotlineViews.cp(?LaunchURL@CMyAnimatedGifView@@UAE_NXZ)
00418900 00000043 .text             HotlineViews.cp(??0CMyQuickTimeView@@QAE@PAVCViewHandler@@ABVSRect@@GG@Z)
00418950 0000001e .text             HotlineViews.cp(?SetSaveFileWin@CMyQuickTimeView@@QAEXPAVCMySaveFileWin@@@Z)
00418970 0000002d .text             HotlineViews.cp(?SaveMovieAs@CMyQuickTimeView@@UAE_NXZ)
004189a0 0000004a .text             HotlineViews.cp(?LaunchURL@CMyQuickTimeView@@UAE_NXZ)
004189f0 00000061 .text             HotlineViews.cp(??_ECMyQuickTimeView@@UAE@I@Z)
00418a60 00000027 .text             HotlineViews.cp(??1CMyQuickTimeView@@UAE@XZ)
00418a90 00000061 .text             HotlineViews.cp(??_ECMyAnimatedGifView@@UAE@I@Z)
00418b00 00000027 .text             HotlineViews.cp(??1CMyAnimatedGifView@@UAE@XZ)
00418b30 00000061 .text             HotlineViews.cp(??_ECMyImageView@@UAE@I@Z)
00418ba0 00000027 .text             HotlineViews.cp(??1CMyImageView@@UAE@XZ)
00418bd0 00000013 .text             HotlineViews.cp(?PlayImage@CImageView@@UAEXXZ)
00418bf0 00000013 .text             HotlineViews.cp(?StopImage@CImageView@@UAEXXZ)
00418c10 00000058 .text             HotlineViews.cp(??_ECMyConnectedInfoView@@UAE@I@Z)
00418c70 0000005e .text             HotlineViews.cp(??_ECPictureView@@UAE@I@Z)
00418cd0 00000084 .text             HotlineViews.cp(??_ECMyClickPicView@@UAE@I@Z)
00418d60 0000004a .text             HotlineViews.cp(??1CMyClickPicView@@UAE@XZ)
00418db0 00000058 .text             HotlineViews.cp(??_ECMySubjectView@@UAE@I@Z)
00418e10 00000058 .text             HotlineViews.cp(??_ECMyUserListView@@UAE@I@Z)
00418e70 00000058 .text             HotlineViews.cp(??_ECMyTaskListView@@UAE@I@Z)
00418ed0 00000018 .text             HotlineViews.cp(?GetTabHeight@CItemsView@@MBEKXZ)
00418ef0 00000058 .text             HotlineViews.cp(??_ECMyFileTreeView@@UAE@I@Z)
00418f50 00000058 .text             HotlineViews.cp(??_ECMyFileListView@@UAE@I@Z)
00418fb0 0000004d .text             HotlineViews.cp(??_ECItemsView@@UAE@I@Z)
00419000 0000001b .text             HotlineViews.cp(??1CItemsView@@UAE@XZ)
00419020 0000005a .text             HotlineViews.cp(??_ECSelectableItemsView@@UAE@I@Z)
00419080 00000028 .text             HotlineViews.cp(??1CSelectableItemsView@@UAE@XZ)
004190b0 00000071 .text             HotlineViews.cp(??_ECListView@@UAE@I@Z)
00419130 0000008f .text             HotlineViews.cp(??_ECTabbedListView@@UAE@I@Z)
004191c0 00000058 .text             HotlineViews.cp(??_ECMyListStatusView@@UAE@I@Z)
00419220 00000061 .text             HotlineViews.cp(??_ECMyAccessCheckBoxView@@UAE@I@Z)
00419290 00000027 .text             HotlineViews.cp(??1CMyAccessCheckBoxView@@UAE@XZ)
004192c0 0000006b .text             HotlineViews.cp(??_ECMyOptIconTab@@UAE@I@Z)
00419330 00000031 .text             HotlineViews.cp(??1CMyOptIconTab@@UAE@XZ)
00419370 00000058 .text             HotlineViews.cp(??_ECMyIconPickView@@UAE@I@Z)
004193d0 00000094 .text             HotlineViews.cp(?GetFullHeight@?$CMyTreeStatusView@USMyFileItem@@@@UBEKXZ)
00419470 0000013d .text             HotlineViews.cp(?Draw@?$CMyTreeStatusView@USMyFileItem@@@@UAEXPAVTImageObj@@ABVSRect@@K@Z)
004195b0 0000003a .text             HotlineViews.cp(?SetBounds@?$CTabbedTreeView@USMyFileItem@@@@UAE_NABVSRect@@@Z)
004195f0 00000054 .text             HotlineViews.cp(?MouseDown@?$CTabbedTreeView@USMyFileItem@@@@UAEXABUSMouseMsgData@@@Z)
00419650 00000054 .text             HotlineViews.cp(?MouseUp@?$CTabbedTreeView@USMyFileItem@@@@UAEXABUSMouseMsgData@@@Z)
004196b0 00000031 .text             HotlineViews.cp(?MouseMove@?$CTabbedTreeView@USMyFileItem@@@@UAEXABUSMouseMsgData@@@Z)
004196f0 00000031 .text             HotlineViews.cp(?MouseLeave@?$CTabbedTreeView@USMyFileItem@@@@UAEXABUSMouseMsgData@@@Z)
00419730 0000004c .text             HotlineViews.cp(?ItemMouseDown@?$CTabbedTreeView@USMyFileItem@@@@MAEXKABUSMouseMsgData@@@Z)
00419780 0000004c .text             HotlineViews.cp(?ItemMouseUp@?$CTabbedTreeView@USMyFileItem@@@@MAEXKABUSMouseMsgData@@@Z)
004197d0 0000004c .text             HotlineViews.cp(?ItemMouseEnter@?$CTabbedTreeView@USMyFileItem@@@@MAEXKABUSMouseMsgData@@@Z)
00419820 0000004c .text             HotlineViews.cp(?ItemMouseMove@?$CTabbedTreeView@USMyFileItem@@@@MAEXKABUSMouseMsgData@@@Z)
00419870 0000004c .text             HotlineViews.cp(?ItemMouseLeave@?$CTabbedTreeView@USMyFileItem@@@@MAEXKABUSMouseMsgData@@@Z)
004198c0 0000002e .text             HotlineViews.cp(?RefreshTabView@?$CTabbedTreeView@USMyFileItem@@@@MAEXXZ)
004198f0 00000044 .text             HotlineViews.cp(?GetTabViewBounds@?$CTabbedTreeView@USMyFileItem@@@@MAEXAAVSRect@@@Z)
00419940 00000071 .text             HotlineViews.cp(?GetTabViewScrollPos@?$CTabbedTreeView@USMyFileItem@@@@MAEXAAK0@Z)
004199c0 0000001d .text             HotlineViews.cp(?GetTabHeight@?$CTabbedTreeView@USMyFileItem@@@@MBEKXZ)
004199e0 000000e8 .text             HotlineViews.cp(?AddTreeItem@?$CTreeView@USMyFileItem@@@@QAEKKPAUSMyFileItem@@_N@Z)
00419ad0 0000012d .text             HotlineViews.cp(?RemoveChildTree@?$CTreeView@USMyFileItem@@@@QAE_NK@Z)
00419c00 000000be .text             HotlineViews.cp(?ClearTree@?$CTreeView@USMyFileItem@@@@QAEXXZ)
00419cc0 0000003f .text             HotlineViews.cp(?GetTreeItem@?$CTreeView@USMyFileItem@@@@QBEPAUSMyFileItem@@K@Z)
00419d00 00000025 .text             HotlineViews.cp(?GetTreeItemLevel@?$CTreeView@USMyFileItem@@@@QBEKK@Z)
00419d30 00000042 .text             HotlineViews.cp(?GetParentTreeItem@?$CTreeView@USMyFileItem@@@@QBEPAUSMyFileItem@@KPAK@Z)
00419d80 00000025 .text             HotlineViews.cp(?GetParentTreeIndex@?$CTreeView@USMyFileItem@@@@QBEKK@Z)
00419db0 00000020 .text             HotlineViews.cp(?GetTreeCount@?$CTreeView@USMyFileItem@@@@QBEKXZ)
00419dd0 00000025 .text             HotlineViews.cp(?GetChildTreeCount@?$CTreeView@USMyFileItem@@@@QBEKK@Z)
00419e00 0000004e .text             HotlineViews.cp(?GetNextTreeItem@?$CTreeView@USMyFileItem@@@@QBE_NAAPAUSMyFileItem@@AAK_N@Z)
00419e50 00000055 .text             HotlineViews.cp(?GetNextVisibleTreeItem@?$CTreeView@USMyFileItem@@@@QBE_NAAPAUSMyFileItem@@AAK@Z)
00419eb0 0000009b .text             HotlineViews.cp(?SelectTreeItem@?$CTreeView@USMyFileItem@@@@QAE_NK_N@Z)
00419f50 00000058 .text             HotlineViews.cp(?GetFirstSelectedTreeItem@?$CTreeView@USMyFileItem@@@@QBEKXZ)
00419fb0 00000040 .text             HotlineViews.cp(?RefreshTreeItem@?$CTreeView@USMyFileItem@@@@QAE_NK@Z)
00419ff0 00000045 .text             HotlineViews.cp(?MakeTreeItemVisibleInList@?$CTreeView@USMyFileItem@@@@QAE_NKG@Z)
0041a040 0000008e .text             HotlineViews.cp(?DeselectAllTreeItems@?$CTreeView@USMyFileItem@@@@QAEXXZ)
0041a0d0 00000109 .text             HotlineViews.cp(?Collapse@?$CTreeView@USMyFileItem@@@@IAEXKKPAUSTreeViewItem@@@Z)
0041a1e0 000000b2 .text             HotlineViews.cp(?Disclose@?$CTreeView@USMyFileItem@@@@QAE_NK@Z)
0041a2a0 000000dd .text             HotlineViews.cp(?Disclose@?$CTreeView@USMyFileItem@@@@IAEXKAAKPAUSTreeViewItem@@@Z)
0041a380 000000f6 .text             HotlineViews.cp(?SetDisclosure@?$CTreeView@USMyFileItem@@@@QAE_NKE@Z)
0041a480 0000003c .text             HotlineViews.cp(?GetDisclosure@?$CTreeView@USMyFileItem@@@@QAEEK@Z)
0041a4c0 0000003c .text             HotlineViews.cp(?GetFullSize@?$CTreeView@USMyFileItem@@@@UBEXAAK0@Z)
0041a500 0000006a .text             HotlineViews.cp(?GetFullHeight@?$CTreeView@USMyFileItem@@@@UBEKXZ)
0041a570 0000001f .text             HotlineViews.cp(?GetFullWidth@?$CTreeView@USMyFileItem@@@@UBEKXZ)
0041a590 0000007a .text             HotlineViews.cp(?Sort@?$CTreeView@USMyFileItem@@@@QAEXKP6AJPAX00@Z0@Z)
0041a610 000000ec .text             HotlineViews.cp(?GetTreeItemRect@?$CTreeView@USMyFileItem@@@@UBE_NKAAVSRect@@@Z)
0041a700 00000050 .text             HotlineViews.cp(?GetSelectedTreeItemsRect@?$CTreeView@USMyFileItem@@@@UBE_NAAVSRect@@@Z)
0041a750 00000040 .text             HotlineViews.cp(?PointToTreeItem@?$CTreeView@USMyFileItem@@@@UBEKABVSPoint@@@Z)
0041a790 00000161 .text             HotlineViews.cp(?Draw@?$CTreeView@USMyFileItem@@@@UAEXPAVTImageObj@@ABVSRect@@K@Z)
0041a900 00000020 .text             HotlineViews.cp(?DragEnter@?$CTreeView@USMyFileItem@@@@UAEXABUSDragMsgData@@@Z)
0041a920 00000020 .text             HotlineViews.cp(?DragLeave@?$CTreeView@USMyFileItem@@@@UAEXABUSDragMsgData@@@Z)
0041a940 00000210 .text             HotlineViews.cp(?MouseDown@?$CTreeView@USMyFileItem@@@@UAEXABUSMouseMsgData@@@Z)
0041ab50 000001aa .text             HotlineViews.cp(?KeyDown@?$CTreeView@USMyFileItem@@@@UAE_NABUSKeyMsgData@@@Z)
0041ad00 00000015 .text             HotlineViews.cp(?VisibilityChanged@?$CTreeView@USMyFileItem@@@@UAEXKPAUSMyFileItem@@_N@Z)
0041ad20 00000015 .text             HotlineViews.cp(?SelectionChanged@?$CTreeView@USMyFileItem@@@@UAEXKPAUSMyFileItem@@_N@Z)
0041ad40 00000015 .text             HotlineViews.cp(?DisclosureChanged@?$CTreeView@USMyFileItem@@@@UAEXKPAUSMyFileItem@@E@Z)
0041ad60 0000003c .text             HotlineViews.cp(?IsValidItem@?$CTreeView@USMyFileItem@@@@MBE_NK@Z)
0041ada0 00000036 .text             HotlineViews.cp(?GetNextItem@?$CTreeView@USMyFileItem@@@@MBE_NAAK@Z)
0041ade0 00000073 .text             HotlineViews.cp(?GetPrevItem@?$CTreeView@USMyFileItem@@@@MBE_NAAK@Z)
0041ae60 00000019 .text             HotlineViews.cp(?GetItemCount@?$CTreeView@USMyFileItem@@@@MBEKXZ)
0041ae80 00000081 .text             HotlineViews.cp(?SetItemSelect@?$CTreeView@USMyFileItem@@@@MAEXK_N@Z)
0041af10 0000003b .text             HotlineViews.cp(?IsItemSelected@?$CTreeView@USMyFileItem@@@@MBE_NK@Z)
0041af50 00000026 .text             HotlineViews.cp(?GetFirstSelectedItem@?$CTreeView@USMyFileItem@@@@MBEKXZ)
0041af80 00000026 .text             HotlineViews.cp(?GetLastSelectedItem@?$CTreeView@USMyFileItem@@@@MBEKXZ)
0041afb0 00000122 .text             HotlineViews.cp(?SetItemRangeSelect@?$CTreeView@USMyFileItem@@@@MAEXKK_N@Z)
0041b0e0 00000073 .text             HotlineViews.cp(?GetItemRect@?$CTreeView@USMyFileItem@@@@MBEXKAAVSRect@@@Z)
0041b160 000000ee .text             HotlineViews.cp(?GetSelectedItemsRect@?$CTreeView@USMyFileItem@@@@MBEXAAVSRect@@@Z)
0041b250 00000090 .text             HotlineViews.cp(?PointToItem@?$CTreeView@USMyFileItem@@@@MBEKABVSPoint@@@Z)
0041b2e0 00000316 .text             HotlineViews.cp(?ItemDraw@?$CTreeView@USMyFileItem@@@@MAEXKPAVTImageObj@@ABVSRect@@1K@Z)
0041b600 00000015 .text             HotlineViews.cp(?ItemDraw@?$CTreeView@USMyFileItem@@@@MAEXKKPAUSMyFileItem@@PAUSTreeViewItem@@PAVTImageObj@@ABVSRect@@3K@Z)
0041b620 00000046 .text             HotlineViews.cp(?ItemMouseDown@?$CTreeView@USMyFileItem@@@@MAEXKABUSMouseMsgData@@@Z)
0041b670 00000046 .text             HotlineViews.cp(?ItemMouseUp@?$CTreeView@USMyFileItem@@@@MAEXKABUSMouseMsgData@@@Z)
0041b6c0 00000046 .text             HotlineViews.cp(?ItemMouseEnter@?$CTreeView@USMyFileItem@@@@MAEXKABUSMouseMsgData@@@Z)
0041b710 00000046 .text             HotlineViews.cp(?ItemMouseMove@?$CTreeView@USMyFileItem@@@@MAEXKABUSMouseMsgData@@@Z)
0041b760 00000046 .text             HotlineViews.cp(?ItemMouseLeave@?$CTreeView@USMyFileItem@@@@MAEXKABUSMouseMsgData@@@Z)
0041b7b0 00000015 .text             HotlineViews.cp(?TreeItemMouseDown@?$CTreeView@USMyFileItem@@@@MAEXKABUSMouseMsgData@@@Z)
0041b7d0 00000015 .text             HotlineViews.cp(?TreeItemMouseUp@?$CTreeView@USMyFileItem@@@@MAEXKABUSMouseMsgData@@@Z)
0041b7f0 00000015 .text             HotlineViews.cp(?TreeItemMouseEnter@?$CTreeView@USMyFileItem@@@@MAEXKABUSMouseMsgData@@@Z)
0041b810 00000015 .text             HotlineViews.cp(?TreeItemMouseMove@?$CTreeView@USMyFileItem@@@@MAEXKABUSMouseMsgData@@@Z)
0041b830 00000015 .text             HotlineViews.cp(?TreeItemMouseLeave@?$CTreeView@USMyFileItem@@@@MAEXKABUSMouseMsgData@@@Z)
0041b850 0000006f .text             HotlineViews.cp(?GetListItem@?$CTreeView@USMyFileItem@@@@IBEPAUSTreeViewItem@@KPAK@Z)
0041b8c0 00000047 .text             HotlineViews.cp(?ConvertListToTree@?$CTreeView@USMyFileItem@@@@IBEKK@Z)
0041b910 0000006c .text             HotlineViews.cp(?ConvertTreeToList@?$CTreeView@USMyFileItem@@@@IBEKK@Z)
0041b980 00000095 .text             HotlineViews.cp(?ItemsInserted@?$CTreeView@USMyFileItem@@@@MAEXKK@Z)
0041ba20 00000095 .text             HotlineViews.cp(?ItemsRemoved@?$CTreeView@USMyFileItem@@@@MAEXKK@Z)
0041bac0 0000004a .text             HotlineViews.cp(?CompareItemsProc@?$CTreeView@USMyFileItem@@@@KAJPAX00@Z)
0041bb10 00000135 .text             HotlineViews.cp(?ComposeListIndex@?$CTreeView@USMyFileItem@@@@IAEXXZ)
0041bc50 000001d9 .text             HotlineViews.cp(?AddItem@?$CPtrTree@USTreeViewItem@@@@QAEKKPAUSTreeViewItem@@@Z)
0041be30 00000168 .text             HotlineViews.cp(?RemoveChildTree@?$CPtrTree@USTreeViewItem@@@@QAE_NK@Z)
0041bfa0 0000004d .text             HotlineViews.cp(?Clear@?$CPtrTree@USTreeViewItem@@@@QAEXXZ)
0041bff0 0000004a .text             HotlineViews.cp(?GetItem@?$CPtrTree@USTreeViewItem@@@@QBEPAUSTreeViewItem@@K@Z)
0041c040 000000b7 .text             HotlineViews.cp(?GetParentItem@?$CPtrTree@USTreeViewItem@@@@QBEPAUSTreeViewItem@@KPAK@Z)
0041c100 0000009d .text             HotlineViews.cp(?GetParentIndex@?$CPtrTree@USTreeViewItem@@@@QBEKK@Z)
0041c1a0 0000004a .text             HotlineViews.cp(?GetItemLevel@?$CPtrTree@USTreeViewItem@@@@QBEKK@Z)
0041c1f0 00000019 .text             HotlineViews.cp(?GetTreeCount@?$CPtrTree@USTreeViewItem@@@@QBEKXZ)
0041c210 00000058 .text             HotlineViews.cp(?GetChildTreeCount@?$CPtrTree@USTreeViewItem@@@@QBEKK@Z)
0041c270 00000108 .text             HotlineViews.cp(?GetNext@?$CPtrTree@USTreeViewItem@@@@QBE_NAAPAUSTreeViewItem@@AAK_N@Z)
0041c380 00000259 .text             HotlineViews.cp(?Sort@?$CPtrTree@USTreeViewItem@@@@QAEXKP6AJPAX00@Z0@Z)
0041c5e0 000001be .text             HotlineViews.cp(?ItemDraw@?$CTabbedTreeView@USMyFileItem@@@@MAEXKKPAUSMyFileItem@@PAUSTreeViewItem@@PAVTImageObj@@ABVSRect@@3K@Z)
0041c7a0 00000095 .text             HotlineViews.cp(??1?$CMyTreeStatusView@USMyFileItem@@@@UAE@XZ)
0041c840 00000081 .text             HotlineViews.cp(??0?$CMyTreeStatusView@USMyFileItem@@@@QAE@PAVCViewHandler@@ABVSRect@@@Z)
0041c8d0 0000004c .text             HotlineViews.cp(??1?$CTabbedTreeView@USMyFileItem@@@@UAE@XZ)
0041c920 00000086 .text             HotlineViews.cp(??_E?$CTabbedTreeView@USMyFileItem@@@@UAE@I@Z)
0041c9b0 00000058 .text             HotlineViews.cp(??_E?$CMyTreeStatusView@USMyFileItem@@@@UAE@I@Z)
0041ca10 0000005f .text             HotlineViews.cp(??0?$CTabbedTreeView@USMyFileItem@@@@QAE@PAVCViewHandler@@ABVSRect@@KK_N@Z)
0041ca70 00000015 .text             HotlineViews.cp(?ItemDraw@?$CTabbedTreeView@USMyFileItem@@@@MAEXKKPAUSMyFileItem@@PAUSTreeViewItem@@PAVTImageObj@@ABV?$CPtrList@VSRect@@@@K@Z)
0041ca90 000000a5 .text             HotlineViews.cp(??0?$CTreeView@USMyFileItem@@@@QAE@PAVCViewHandler@@ABVSRect@@KK@Z)
0041cb40 000000ca .text             HotlineViews.cp(??1?$CTreeView@USMyFileItem@@@@UAE@XZ)
0041cc10 00000062 .text             HotlineViews.cp(?GetLastSelectedTreeItem@?$CTreeView@USMyFileItem@@@@QBEKXZ)
0041cc80 000000bd .text             HotlineViews.cp(?CollapseAllTreeItems@?$CTreeView@USMyFileItem@@@@QAEXXZ)
0041cd40 000000b4 .text             HotlineViews.cp(?DiscloseAllTreeItems@?$CTreeView@USMyFileItem@@@@QAEXXZ)
0041ce00 0000003d .text             HotlineViews.cp(??0?$CPtrTree@USTreeViewItem@@@@QAE@XZ)
0041ce40 00000029 .text             HotlineViews.cp(??1?$CPtrTree@USTreeViewItem@@@@QAE@XZ)
0041ce70 0000010e .text             HotlineViews.cp(?GetPrev@?$CPtrTree@USTreeViewItem@@@@QBE_NAAPAUSTreeViewItem@@AAK_N@Z)
0041cf80 00000058 .text             HotlineViews.cp(??_E?$CTreeView@USMyFileItem@@@@UAE@I@Z)
0041cfe0 00000027 .text             HotlineViews.cp
0041d010 0000000b .text             HotlineViews.cp(@132@??_E?$CMyTreeStatusView@USMyFileItem@@@@UAE@I@Z)
0041d020 0000000b .text             HotlineViews.cp(@132@??_E?$CTabbedTreeView@USMyFileItem@@@@UAE@I@Z)
0041d030 00000008 .text             HotlineViews.cp(@44@?HandleGetParentWindow@CContainerView@@MAEPAVCWindow@@XZ)
0041d040 00000008 .text             HotlineViews.cp(@44@?HandleGetCaptureMouseView@CContainerView@@MAEPAVCView@@XZ)
0041d050 00000008 .text             HotlineViews.cp(@44@?HandleGetOrigin@CContainerView@@MAEXAAVSPoint@@@Z)
0041d060 00000008 .text             HotlineViews.cp(@44@?HandleReleaseMouse@CContainerView@@MAEXPAVCView@@@Z)
0041d070 00000008 .text             HotlineViews.cp(@44@?HandleCaptureMouse@CContainerView@@MAEXPAVCView@@@Z)
0041d080 00000008 .text             HotlineViews.cp(@44@?HandleGetVisibleRect@CContainerView@@MAEXPAVCView@@AAVSRect@@@Z)
0041d090 00000008 .text             HotlineViews.cp(@44@?HandleGetScreenDelta@CContainerView@@MAEXPAVCView@@AAJ1@Z)
0041d0a0 00000008 .text             HotlineViews.cp(@44@?HandleHit@CContainerView@@MAEXPAVCView@@ABUSHitMsgData@@@Z)
0041d0b0 00000008 .text             HotlineViews.cp(@44@?HandleRefresh@CContainerView@@MAEXPAVCView@@ABVSRect@@@Z)
0041d0c0 00000008 .text             HotlineViews.cp(@44@?HandleRemove@CContainerView@@MAEXPAVCView@@@Z)
0041d0d0 00000008 .text             HotlineViews.cp(@44@?HandleInstall@CContainerView@@MAEXPAVCView@@@Z)
0041d0e0 00000008 .text             HotlineViews.cp(@44@??_ECMyOptIconTab@@UAE@I@Z)
0041d0f0 00000008 .text             HotlineViews.cp(@100@??_ECMyListStatusView@@UAE@I@Z)
0041d100 00000008 .text             HotlineViews.cp(@100@??_ECTabbedListView@@UAE@I@Z)
0041d110 00000008 .text             HotlineViews.cp(@100@??_ECMyFileListView@@UAE@I@Z)
0041d120 0000000b .text             HotlineViews.cp(@132@?GetTabViewScrollPos@?$CTabbedTreeView@USMyFileItem@@@@MAEXAAK0@Z)
0041d130 0000000b .text             HotlineViews.cp(@132@?GetTabViewBounds@?$CTabbedTreeView@USMyFileItem@@@@MAEXAAVSRect@@@Z)
0041d140 0000000b .text             HotlineViews.cp(@132@?RefreshTabView@?$CTabbedTreeView@USMyFileItem@@@@MAEXXZ)
0041d150 0000000b .text             HotlineViews.cp(@132@??_ECMyFileTreeView@@UAE@I@Z)
0041d160 00000008 .text             HotlineViews.cp(@100@?GetTabViewScrollPos@CTabbedListView@@MAEXAAK0@Z)
0041d170 00000008 .text             HotlineViews.cp(@100@?GetTabViewBounds@CTabbedListView@@MAEXAAVSRect@@@Z)
0041d180 00000008 .text             HotlineViews.cp(@100@?RefreshTabView@CTabbedListView@@MAEXXZ)
0041d190 00000008 .text             HotlineViews.cp(@100@??_ECMyUserListView@@UAE@I@Z)
0041d1a0 00000366 .text             HotlineWindows.cp(??0CMyOptionsWin@@QAE@XZ)
0041d510 000009ee .text             HotlineWindows.cp(?MakeGeneralTab@CMyOptionsWin@@IAEPAVCContainerView@@XZ)
0041df00 00000047 .text             HotlineWindows.cp(??_ECContainerView@@UAE@I@Z)
0041df50 00000f36 .text             HotlineWindows.cp(?MakeDisplayTab@CMyOptionsWin@@IAEPAVCContainerView@@XZ)
0041ee90 0000035e .text             HotlineWindows.cp(?MakeSoundTab@CMyOptionsWin@@IAEPAVCContainerView@@XZ)
0041f1f0 000004b1 .text             HotlineWindows.cp(?MakeAdvancedTab@CMyOptionsWin@@IAEPAVCContainerView@@XZ)
0041f6b0 0000063a .text             HotlineWindows.cp(?SetInfo@CMyOptionsWin@@QAEXPBE0ABUSMyOptions@@@Z)
0041fcf0 00000764 .text             HotlineWindows.cp(?GetInfo@CMyOptionsWin@@QAEXPAE0AAUSMyOptions@@@Z)
00420460 0000004c .text             HotlineWindows.cp(?ShowHideDateTime@CMyOptionsWin@@QAEXXZ)
004204b0 0000004c .text             HotlineWindows.cp(?ShowHideAutomaticResponse@CMyOptionsWin@@QAEXXZ)
00420500 00000064 .text             HotlineWindows.cp(?UpdateSoundChecks@CMyOptionsWin@@QAEXXZ)
00420570 000006d6 .text             HotlineWindows.cp(??0CMyLoginWin@@QAE@XZ)
00420c50 0000010f .text             HotlineWindows.cp(?SetInfo@CMyLoginWin@@QAEXPBE00@Z)
00420d60 00000089 .text             HotlineWindows.cp(?GetInfo@CMyLoginWin@@QAEXPAE00@Z)
00420df0 00000082 .text             HotlineWindows.cp(?UpdateButtons@CMyLoginWin@@QAEXXZ)
00420e80 00000107 .text             HotlineWindows.cp(??0CMyItemsWin@@QAE@PAVCWindow@@ABVSRect@@PAVTPtrObj@@KK@Z)
00420f90 0000004c .text             HotlineWindows.cp(??0CMyItemsListWin@@QAE@PAVCWindow@@ABVSRect@@PAVTPtrObj@@KK@Z)
00420fe0 0000002c .text             HotlineWindows.cp(?SetStatus@CMyItemsListWin@@UAEXK@Z)
00421010 000000a4 .text             HotlineWindows.cp(?FindWindowByPath@CMyItemsListWin@@SAPAV1@AAVCVoidPtrList@@PBXKK@Z)
004210c0 0000008b .text             HotlineWindows.cp(?UserZoom@CMyItemsListWin@@UAEXABUSMouseMsgData@@@Z)
00421150 00000843 .text             HotlineWindows.cp(??0CMyFileWin@@QAE@PAVCContainerView@@ABVSRect@@@Z)
004219a0 0000007a .text             HotlineWindows.cp(?GetFileContent@CMyFileWin@@QAEXPBXK@Z)
00421a20 000000b1 .text             HotlineWindows.cp(?SearchCacheFileList@CMyFileWin@@QAEXPBXK@Z)
00421ae0 00000373 .text             HotlineWindows.cp(?SetFileAccess@CMyFileWin@@QAEXPBEPBXKK_N@Z)
00421e60 0000003f .text             HotlineWindows.cp(?DoOpenParent@CMyFileWin@@UAEXG@Z)
00421ea0 0000010f .text             HotlineWindows.cp(?DoDownload@CMyFileWin@@UAEXG@Z)
00421fb0 000000d6 .text             HotlineWindows.cp(?DoView@CMyFileWin@@UAEXG@Z)
00422090 00000021 .text             HotlineWindows.cp(?DoGetInfo@CMyFileWin@@UAEXXZ)
004220c0 000000b9 .text             HotlineWindows.cp(?DoDelete@CMyFileWin@@UAEXXZ)
00422180 0000036f .text             HotlineWindows.cp(?HandleDrag@CMyFileWin@@UAEXPAVCDragAndDroppable@@ABUSMouseMsgData@@@Z)
004224f0 0000002a .text             HotlineWindows.cp(??1?$scopekiller@VTDragObj@@@@QAE@XZ)
00422520 000000b6 .text             HotlineWindows.cp(?HandleSetDragAction@CMyFileWin@@UAEXPAVCDragAndDroppable@@ABUSDragMsgData@@@Z)
004225e0 00000017 .text             HotlineWindows.cp(?HandleDrop@CMyFileWin@@UAE_NPAVCDragAndDroppable@@ABUSDragMsgData@@@Z)
00422600 000004dc .text             HotlineWindows.cp(?DownloadDragSendProc@CMyFileWin@@KAXPAVTDragObj@@KKPAXPA_N2@Z)
00422ae0 00000021 .text             HotlineWindows.cp(??1StFileSysRef@@QAE@XZ)
00422b10 0000002a .text             HotlineWindows.cp(??1?$scopekiller@VTFSRefObj@@@@QAE@XZ)
00422b40 00000070 .text             HotlineWindows.cp(?File_KeyDown@CMyFileWin@@IAE_NABUSKeyMsgData@@@Z)
00422bb0 00000285 .text             HotlineWindows.cp(??0CMyFileListWin@@QAE@PAVCWindow@@PAVTPtrObj@@KK@Z)
00422e40 00000034 .text             HotlineWindows.cp(??1CMyFileWin@@UAE@XZ)
00422e80 0000004f .text             HotlineWindows.cp(??1CMyItemsListWin@@UAE@XZ)
00422ed0 000000b2 .text             HotlineWindows.cp(??1CMyFileListWin@@UAE@XZ)
00422f90 0000003b .text             HotlineWindows.cp(?HasPartialFile@CMyFileListWin@@UAE_NPBEPBXK_N@Z)
00422fd0 00000020 .text             HotlineWindows.cp(?GetItemToUpload@CMyFileListWin@@UAEPAVTFSRefObj@@XZ)
00422ff0 0000001e .text             HotlineWindows.cp(?ClearUploadList@CMyFileListWin@@UAEXXZ)
00423010 00000044 .text             HotlineWindows.cp(?GetContent@CMyFileListWin@@UAEXXZ)
00423060 000000bc .text             HotlineWindows.cp(?SetContent@CMyFileListWin@@UAEXPBXKPAVTFieldDataObj@@_N@Z)
00423120 00000082 .text             HotlineWindows.cp(?SetAccess@CMyFileListWin@@UAEXXZ)
004231b0 000000b1 .text             HotlineWindows.cp(?SetBoundsInfo@CMyFileListWin@@UAEXXZ)
00423270 00000064 .text             HotlineWindows.cp(?GetBoundsInfo@CMyFileListWin@@UAEXXZ)
004232e0 0000002e .text             HotlineWindows.cp(?GetSelectedItemName@CMyFileListWin@@UAE_NPAEPAK1PBUSMouseMsgData@@@Z)
00423310 00000032 .text             HotlineWindows.cp(?GetSelectedParentFolderPath@CMyFileListWin@@UAEPAXAAKPA_N@Z)
00423350 0000005e .text             HotlineWindows.cp(?DoUpload@CMyFileListWin@@UAEXG@Z)
004233b0 00000059 .text             HotlineWindows.cp(?DoUploadFromDrop@CMyFileListWin@@UAEX_N@Z)
00423410 0000004c .text             HotlineWindows.cp(?DoNewFolder@CMyFileListWin@@UAEXXZ)
00423460 00000068 .text             HotlineWindows.cp(?DoRefresh@CMyFileListWin@@UAEXG@Z)
004234d0 0000005c .text             HotlineWindows.cp(?DoMove@CMyFileListWin@@UAEXGPBEPBXK_N@Z)
00423530 000000d1 .text             HotlineWindows.cp(?DoDoubleClick@CMyFileListWin@@UAEXG_N@Z)
00423610 0000005e .text             HotlineWindows.cp(?KeyDown@CMyFileListWin@@UAEXABUSKeyMsgData@@@Z)
00423670 0000007f .text             HotlineWindows.cp(?SearchText@CMyFileListWin@@MAEXPBE@Z)
004236f0 00000293 .text             HotlineWindows.cp(??0CMyFileTreeWin@@QAE@PAVCWindow@@PAVTPtrObj@@KK@Z)
00423990 0000004f .text             HotlineWindows.cp(??1?$CMyItemsTreeWin@USMyFileItem@@@@UAE@XZ)
004239e0 000000b2 .text             HotlineWindows.cp(??1CMyFileTreeWin@@UAE@XZ)
00423aa0 00000041 .text             HotlineWindows.cp(?HasPartialFile@CMyFileTreeWin@@UAE_NPBEPBXK_N@Z)
00423af0 00000020 .text             HotlineWindows.cp(?GetItemToUpload@CMyFileTreeWin@@UAEPAVTFSRefObj@@XZ)
00423b10 0000001e .text             HotlineWindows.cp(?ClearUploadList@CMyFileTreeWin@@UAEXXZ)
00423b30 00000044 .text             HotlineWindows.cp(?GetContent@CMyFileTreeWin@@UAEXXZ)
00423b80 000000c8 .text             HotlineWindows.cp(?SetContent@CMyFileTreeWin@@UAEXPBXKPAVTFieldDataObj@@_N@Z)
00423c50 000000aa .text             HotlineWindows.cp(?SetAccess@CMyFileTreeWin@@UAEXXZ)
00423d00 000000b1 .text             HotlineWindows.cp(?SetBoundsInfo@CMyFileTreeWin@@UAEXXZ)
00423dc0 00000064 .text             HotlineWindows.cp(?GetBoundsInfo@CMyFileTreeWin@@UAEXXZ)
00423e30 0000002e .text             HotlineWindows.cp(?GetSelectedItemName@CMyFileTreeWin@@UAE_NPAEPAK1PBUSMouseMsgData@@@Z)
00423e60 00000031 .text             HotlineWindows.cp(?GetSelectedParentFolderPath@CMyFileTreeWin@@UAEPAXAAKPA_N@Z)
00423ea0 00000025 .text             HotlineWindows.cp(?GetSelectedFolderPath@CMyFileTreeWin@@QAEPAXAAK@Z)
00423ed0 00000059 .text             HotlineWindows.cp(?DoUpload@CMyFileTreeWin@@UAEXG@Z)
00423f30 00000079 .text             HotlineWindows.cp(?DoUploadFromDrop@CMyFileTreeWin@@UAEX_N@Z)
00423fb0 00000047 .text             HotlineWindows.cp(?DoNewFolder@CMyFileTreeWin@@UAEXXZ)
00424000 00000086 .text             HotlineWindows.cp(?DoRefresh@CMyFileTreeWin@@UAEXG@Z)
00424090 00000064 .text             HotlineWindows.cp(?DoMove@CMyFileTreeWin@@UAEXGPBEPBXK_N@Z)
00424100 000000dd .text             HotlineWindows.cp(?DoDoubleClick@CMyFileTreeWin@@UAEXG_N@Z)
004241e0 00000036 .text             HotlineWindows.cp(?KeyDown@CMyFileTreeWin@@UAEXABUSKeyMsgData@@@Z)
00424220 0000006c .text             HotlineWindows.cp(?SearchText@CMyFileTreeWin@@MAEXPBE@Z)
00424290 00000494 .text             HotlineWindows.cp(??0CMyFileExplWin@@QAE@PAVCWindow@@PAVTPtrObj@@KK@Z)
00424730 000000be .text             HotlineWindows.cp(??1CMyFileExplWin@@UAE@XZ)
004247f0 0000003b .text             HotlineWindows.cp(?HasPartialFile@CMyFileExplWin@@UAE_NPBEPBXK_N@Z)
00424830 0000003e .text             HotlineWindows.cp(?GetItemToUpload@CMyFileExplWin@@UAEPAVTFSRefObj@@XZ)
00424870 0000002b .text             HotlineWindows.cp(?ClearUploadList@CMyFileExplWin@@UAEXXZ)
004248a0 00000060 .text             HotlineWindows.cp(?GetContent@CMyFileExplWin@@UAEXXZ)
00424900 00000101 .text             HotlineWindows.cp(?GetContentFileList@CMyFileExplWin@@QAEXXZ)
00424a10 00000047 .text             HotlineWindows.cp(?GetContentFileListTimer@CMyFileExplWin@@QAEXXZ)
00424a60 00000144 .text             HotlineWindows.cp(?SetContent@CMyFileExplWin@@UAEXPBXKPAVTFieldDataObj@@_N@Z)
00424bb0 000000b6 .text             HotlineWindows.cp(?SetAccess@CMyFileExplWin@@UAEXXZ)
00424c70 000000f1 .text             HotlineWindows.cp(?SetBoundsInfo@CMyFileExplWin@@UAEXXZ)
00424d70 0000009c .text             HotlineWindows.cp(?GetBoundsInfo@CMyFileExplWin@@UAEXXZ)
00424e10 0000006e .text             HotlineWindows.cp(?GetSelectedItemName@CMyFileExplWin@@UAE_NPAEPAK1PBUSMouseMsgData@@@Z)
00424e80 0000006f .text             HotlineWindows.cp(?GetSelectedParentFolderPath@CMyFileExplWin@@UAEPAXAAKPA_N@Z)
00424ef0 000000af .text             HotlineWindows.cp(?GetSelectedFolderPath@CMyFileExplWin@@QAEPAXAAK@Z)
00424fa0 00000059 .text             HotlineWindows.cp(?DoUpload@CMyFileExplWin@@UAEXG@Z)
00425000 00000094 .text             HotlineWindows.cp(?DoUploadFromDrop@CMyFileExplWin@@UAEX_N@Z)
004250a0 0000004b .text             HotlineWindows.cp(?DoNewFolder@CMyFileExplWin@@UAEXXZ)
004250f0 000000ac .text             HotlineWindows.cp(?DoRefresh@CMyFileExplWin@@UAEXG@Z)
004251a0 00000090 .text             HotlineWindows.cp(?DoMove@CMyFileExplWin@@UAEXGPBEPBXK_N@Z)
00425230 00000101 .text             HotlineWindows.cp(?DoDoubleClick@CMyFileExplWin@@UAEXG_N@Z)
00425340 00000036 .text             HotlineWindows.cp(?KeyDown@CMyFileExplWin@@UAEXABUSKeyMsgData@@@Z)
00425380 0000002f .text             HotlineWindows.cp(?Timer@CMyFileExplWin@@UAEXPAVTTimerObj@@@Z)
004253b0 000000ef .text             HotlineWindows.cp(?SearchText@CMyFileExplWin@@MAEXPBE@Z)
004254a0 00000855 .text             HotlineWindows.cp(??0CMyUserListWin@@QAE@PAVCWindow@@@Z)
00425d00 00000047 .text             HotlineWindows.cp(??1CMyUserListWin@@UAE@XZ)
00425d50 00000110 .text             HotlineWindows.cp(?KeyDown@CMyUserListWin@@UAEXABUSKeyMsgData@@@Z)
00425e60 0000002f .text             HotlineWindows.cp(?Timer@CMyUserListWin@@UAEXPAVTTimerObj@@@Z)
00425e90 000000eb .text             HotlineWindows.cp(?SearchUser@CMyUserListWin@@IAEXXZ)
00425f80 00000077 .text             HotlineWindows.cp(?UserZoom@CMyUserListWin@@UAEXABUSMouseMsgData@@@Z)
00426000 00000211 .text             HotlineWindows.cp(?HandleDrag@CMyUserListWin@@UAEXPAVCDragAndDroppable@@ABUSMouseMsgData@@@Z)
00426220 00000021 .text             HotlineWindows.cp(??1StDrag@@QAE@XZ)
00426250 00000041 .text             HotlineWindows.cp(?DoPrivateChat@CMyUserListWin@@UAEXXZ)
004262a0 0000004f .text             HotlineWindows.cp(?DoPrivateMsg@CMyUserListWin@@UAEXXZ)
004262f0 0000004f .text             HotlineWindows.cp(?DoGetInfo@CMyUserListWin@@UAEXXZ)
00426340 0000011f .text             HotlineWindows.cp(?SetAccess@CMyUserListWin@@QAEXXZ)
00426460 0000006d .text             HotlineWindows.cp(?DisableIcons@CMyUserListWin@@QAEXXZ)
004264d0 000002cb .text             HotlineWindows.cp(??0CMyEnterMsgWin@@QAE@XZ)
004267a0 0000050e .text             HotlineWindows.cp(??0CMySendPrivMsgWin@@QAE@XZ)
00426cb0 000000ab .text             HotlineWindows.cp(?SetQuotHandle@CMySendPrivMsgWin@@QAEXPAVTHdlObj@@@Z)
00426d60 00000323 .text             HotlineWindows.cp(??0CMyCouldNotSendPrivMsgWin@@QAE@PBEPAVTHdlObj@@@Z)
00427090 00000033 .text             HotlineWindows.cp(??1CMyCouldNotSendPrivMsgWin@@UAE@XZ)
004270d0 0000004a .text             HotlineWindows.cp(?Timer@CMyCouldNotSendPrivMsgWin@@UAEXPAVTTimerObj@@@Z)
00427120 0000040c .text             HotlineWindows.cp(??0CMyBroadcastWin@@QAE@XZ)
00427530 000007a2 .text             HotlineWindows.cp(??0CMyPrivMsgWin@@QAE@PAVCWindow@@_N@Z)
00427ce0 00000040 .text             HotlineWindows.cp(??1CMyPrivMsgWin@@UAE@XZ)
00427d20 000000d9 .text             HotlineWindows.cp(?SetTextHandle@CMyPrivMsgWin@@QAEXPAVTHdlObj@@@Z)
00427e00 00000148 .text             HotlineWindows.cp(?SetQuotHandle@CMyPrivMsgWin@@QAEXPAVTHdlObj@@@Z)
00427f50 00000093 .text             HotlineWindows.cp(?SetAccess@CMyPrivMsgWin@@QAEXXZ)
00427ff0 00000026 .text             HotlineWindows.cp(?DoPrivateChat@CMyPrivMsgWin@@UAEXXZ)
00428020 0000002d .text             HotlineWindows.cp(?DoGetInfo@CMyPrivMsgWin@@UAEXXZ)
00428050 00000097 .text             HotlineWindows.cp(?KeyDown@CMyPrivMsgWin@@UAEXABUSKeyMsgData@@@Z)
004280f0 0000004d .text             HotlineWindows.cp(?Timer@CMyPrivMsgWin@@UAEXPAVTTimerObj@@@Z)
00428140 00000264 .text             HotlineWindows.cp(??0CMyOldNewsWin@@QAE@PAVCWindow@@@Z)
004283b0 0000004d .text             HotlineWindows.cp(?SetTextColor@CMyOldNewsWin@@QAEXABUSMyColorInfo@@@Z)
00428400 00000054 .text             HotlineWindows.cp(??0CMySaveFileWin@@QAE@PAVCWindow@@ABVSRect@@@Z)
00428460 0000003a .text             HotlineWindows.cp(??1CMySaveFileWin@@UAE@XZ)
004284a0 00000091 .text             HotlineWindows.cp(?SaveFileAs@CMySaveFileWin@@QAE_NXZ)
00428540 00000082 .text             HotlineWindows.cp(?IsThisFile@CMySaveFileWin@@QAE_NPBXKPBE@Z)
004285d0 00000048 .text             HotlineWindows.cp(?KeyDown@CMySaveFileWin@@UAEXABUSKeyMsgData@@@Z)
00428620 00000088 .text             HotlineWindows.cp(?SetPathData@CMySaveFileWin@@IAEXPBXK@Z)
004286b0 00000050 .text             HotlineWindows.cp(?ClearPathData@CMySaveFileWin@@IAEXXZ)
00428700 00000036 .text             HotlineWindows.cp(?SetTempFile@CMySaveFileWin@@IAE_NPBEKK@Z)
00428740 00000087 .text             HotlineWindows.cp(?SetTempData@CMySaveFileWin@@IAE_NPAVTHdlObj@@@Z)
004287d0 00000156 .text             HotlineWindows.cp(??0CMyViewFileWin@@QAE@PAVCWindow@@@Z)
00428930 000000a8 .text             HotlineWindows.cp(??1CMyViewFileWin@@UAE@XZ)
004289e0 00000046 .text             HotlineWindows.cp(?KeyUp@CMyViewFileWin@@UAEXABUSKeyMsgData@@@Z)
00428a30 00000a7d .text             HotlineWindows.cp(?SetViewFileWin@CMyViewFileWin@@QAE_NPAVCMyViewFileTask@@PBXKPBEKKKKK_N@Z)
004294b0 00000033 .text             HotlineWindows.cp(?StopStreamMovie@CMyViewFileWin@@QAE_NXZ)
004294f0 00000098 .text             HotlineWindows.cp(?ProgressMovieProc@CMyViewFileWin@@SAXPAEKK@Z)
00429590 0000029d .text             HotlineWindows.cp(?InsertText@CMyViewFileWin@@QAEXPBXK@Z)
00429830 00000344 .text             HotlineWindows.cp(?InsertImage@CMyViewFileWin@@QAEXPBXK@Z)
00429b80 00000047 .text             HotlineWindows.cp(??_ECDecompressImage@@UAE@I@Z)
00429bd0 00000062 .text             HotlineWindows.cp(?SetTextColor@CMyViewFileWin@@QAEXABUSMyColorInfo@@@Z)
00429c40 00000020 .text             HotlineWindows.cp(?EndViewFileTask@CMyViewFileWin@@QAEXXZ)
00429c60 00000025 .text             HotlineWindows.cp(?IsEndViewFileTask@CMyViewFileWin@@QAE_NXZ)
00429c90 00000050 .text             HotlineWindows.cp(?CanCloseViewFileWin@CMyViewFileWin@@QAE_NXZ)
00429ce0 0000006c .text             HotlineWindows.cp(?SetMustCloseFlag@CMyViewFileWin@@QAEXXZ)
00429d50 0000001c .text             HotlineWindows.cp(?GetMustCloseFlag@CMyViewFileWin@@QAE_NXZ)
00429d70 000001ee .text             HotlineWindows.cp(?SetWindowSize@CMyViewFileWin@@IAEXABVSRect@@@Z)
00429f60 00000121 .text             HotlineWindows.cp(?ClearViews@CMyViewFileWin@@IAEXXZ)
0042a090 00000047 .text             HotlineWindows.cp(??_ECScrollerView@@UAE@I@Z)
0042a0e0 00000047 .text             HotlineWindows.cp(??_ECImageView@@UAE@I@Z)
0042a130 00000047 .text             HotlineWindows.cp(??_ECTextView@@UAE@I@Z)
0042a180 00000097 .text             HotlineWindows.cp(?ClearData@CMyViewFileWin@@IAEXXZ)
0042a220 00000097 .text             HotlineWindows.cp(??0CMyServerInfoWin@@QAE@PAVCWindow@@@Z)
0042a2c0 0000006a .text             HotlineWindows.cp(??1CMyServerInfoWin@@UAE@XZ)
0042a330 00000046 .text             HotlineWindows.cp(?KeyUp@CMyServerInfoWin@@UAEXABUSKeyMsgData@@@Z)
0042a380 0000027b .text             HotlineWindows.cp(?SetServerInfoWin@CMyServerInfoWin@@QAE_NPBEPAVTHdlObj@@K00@Z)
0042a600 00000326 .text             HotlineWindows.cp(?IsThisServer@CMyServerInfoWin@@QAE_NPBEPAVTHdlObj@@K00@Z)
0042a930 00000351 .text             HotlineWindows.cp(?MakeImageView@CMyServerInfoWin@@QAEPAVCImageView@@PAVTHdlObj@@KPBE1@Z)
0042ac90 0000015d .text             HotlineWindows.cp(?MakeQuickTimeView@CMyServerInfoWin@@QAEPAVCMyQuickTimeView@@PAVTHdlObj@@KPBE1@Z)
0042adf0 000000b1 .text             HotlineWindows.cp(?SetWindowSize@CMyServerInfoWin@@IAEXABVSRect@@@Z)
0042aeb0 00000454 .text             HotlineWindows.cp(??0CMyPublicChatWin@@QAE@PAVCWindow@@@Z)
0042b310 0000006f .text             HotlineWindows.cp(?KeyDown@CMyPublicChatWin@@UAEXABUSKeyMsgData@@@Z)
0042b380 00000085 .text             HotlineWindows.cp(?SetTextColor@CMyPublicChatWin@@QAEXABUSMyColorInfo@@@Z)
0042b410 00000a48 .text             HotlineWindows.cp(??0CMyPrivateChatWin@@QAE@PAVCWindow@@@Z)
0042be60 00000053 .text             HotlineWindows.cp(??1CMyPrivateChatWin@@UAE@XZ)
0042bec0 00000041 .text             HotlineWindows.cp(?DoPrivateChat@CMyPrivateChatWin@@UAEXXZ)
0042bf10 0000004f .text             HotlineWindows.cp(?DoPrivateMsg@CMyPrivateChatWin@@UAEXXZ)
0042bf60 0000004f .text             HotlineWindows.cp(?DoGetInfo@CMyPrivateChatWin@@UAEXXZ)
0042bfb0 000000b4 .text             HotlineWindows.cp(?KeyDown@CMyPrivateChatWin@@UAEXABUSKeyMsgData@@@Z)
0042c070 00000020 .text             HotlineWindows.cp(?UserZoom@CMyPrivateChatWin@@UAEXABUSMouseMsgData@@@Z)
0042c090 00000085 .text             HotlineWindows.cp(?SetTextColor@CMyPrivateChatWin@@QAEXABUSMyColorInfo@@@Z)
0042c120 000000d9 .text             HotlineWindows.cp(?SetAccess@CMyPrivateChatWin@@QAEXXZ)
0042c200 000000c2 .text             HotlineWindows.cp(?SetSubject@CMyPrivateChatWin@@QAEXPBE@Z)
0042c2d0 00000211 .text             HotlineWindows.cp(?HandleDrag@CMyPrivateChatWin@@UAEXPAVCDragAndDroppable@@ABUSMouseMsgData@@@Z)
0042c4f0 00000072 .text             HotlineWindows.cp(?HandleSetDragAction@CMyPrivateChatWin@@UAEXPAVCDragAndDroppable@@ABUSDragMsgData@@@Z)
0042c570 0000005a .text             HotlineWindows.cp(?DragEnter@CMyPrivateChatWin@@UAEXABUSDragMsgData@@@Z)
0042c5d0 0000005a .text             HotlineWindows.cp(?DragMove@CMyPrivateChatWin@@UAEXABUSDragMsgData@@@Z)
0042c630 00000077 .text             HotlineWindows.cp(?HandleDrop@CMyPrivateChatWin@@UAE_NPAVCDragAndDroppable@@ABUSDragMsgData@@@Z)
0042c6b0 0000022f .text             HotlineWindows.cp(??0CMySecretWin@@QAE@XZ)
0042c8e0 00000053 .text             HotlineWindows.cp(?GetInfo@CMySecretWin@@QAEXPAE0@Z)
0042c940 00000070 .text             HotlineWindows.cp(??0CMyBannerWin@@QAE@ABVSRect@@GGGPAVCWindow@@@Z)
0042c9b0 0000004e .text             HotlineWindows.cp(??1CMyBannerWin@@UAE@XZ)
0042ca00 00000047 .text             HotlineWindows.cp(??_ECQuickTimeView@@UAE@I@Z)
0042ca50 00000818 .text             HotlineWindows.cp(?SetBanner@CMyBannerWin@@QAE_NPAVTHdlObj@@KPBE1G@Z)
0042d270 0000029e .text             HotlineWindows.cp(?MakeImageView@CMyBannerWin@@IAEPAVCImageView@@PAVCContainerView@@PAVTHdlObj@@KPBE2@Z)
0042d510 00000103 .text             HotlineWindows.cp(?MakeQuickTimeView@CMyBannerWin@@IAEPAVCQuickTimeView@@PAVCContainerView@@PAVTHdlObj@@KPBE2@Z)
0042d620 000000c8 .text             HotlineWindows.cp(?ClearViews@CMyBannerWin@@IAEXXZ)
0042d6f0 000000e2 .text             HotlineWindows.cp(??0CMyAgreementWin@@QAE@XZ)
0042d7e0 0000024f .text             HotlineWindows.cp(?SetBannerHdl@CMyAgreementWin@@QAE_NPAVTHdlObj@@KPBE1@Z)
0042da30 000007bb .text             HotlineWindows.cp(?SetTextHdl@CMyAgreementWin@@QAEXPAVTHdlObj@@@Z)
0042e1f0 00000047 .text             HotlineWindows.cp(??_ECButtonView@@UAE@I@Z)
0042e240 000000bf .text             HotlineWindows.cp(??0CMyToolbar@@QAE@XZ)
0042e300 00000154 .text             HotlineWindows.cp(?SetAccess@CMyToolbar@@UAEXXZ)
0042e460 00000209 .text             HotlineWindows.cp(?UpdateInfoBar@CMyToolbar@@QAEXXZ)
0042e670 00000b13 .text             HotlineWindows.cp(??0CMyBannerToolbarWin@@QAE@XZ)
0042f190 00000034 .text             HotlineWindows.cp(??1CMyBannerToolbarWin@@UAE@XZ)
0042f1d0 00000023 .text             HotlineWindows.cp(?SetBounds@CMyBannerToolbarWin@@MAEXABVSRect@@@Z)
0042f200 000000d2 .text             HotlineWindows.cp(?SetBannerHdl@CMyBannerToolbarWin@@QAE_NPAVTHdlObj@@KPBE1@Z)
0042f2e0 00000390 .text             HotlineWindows.cp(?SetViewsPosition@CMyBannerToolbarWin@@QAEXXZ)
0042f670 0000001b .text             HotlineWindows.cp(?SetAccess@CMyBannerToolbarWin@@UAEXXZ)
0042f690 00000130 .text             HotlineWindows.cp(?CheckToolbarState@CMyBannerToolbarWin@@UAEXXZ)
0042f7c0 0000002f .text             HotlineWindows.cp(?StateChanged@CMyBannerToolbarWin@@UAEXXZ)
0042f7f0 000001b9 .text             HotlineWindows.cp(?CalculateNewBounds@CMyBannerToolbarWin@@IAEXPBVSRect@@@Z)
0042f9b0 000000ce .text             HotlineWindows.cp(?SetIconButton@CMyBannerToolbarWin@@IAEXPAVCIconButtonView@@AAVSRect@@@Z)
0042fa80 00000cd2 .text             HotlineWindows.cp(??0CMyEditUserWin@@QAE@PAVCWindow@@_N@Z)
00430760 0000007b .text             HotlineWindows.cp(?SetAccess@CMyEditUserWin@@QAEXABUSMyUserAccess@@@Z)
004307e0 000000b9 .text             HotlineWindows.cp(?GetAccess@CMyEditUserWin@@QAEXAAUSMyUserAccess@@@Z)
004308a0 0000009f .text             HotlineWindows.cp(?SetInfo@CMyEditUserWin@@QAEXPBE00@Z)
00430940 00000181 .text             HotlineWindows.cp(?GetInfo@CMyEditUserWin@@QAE_NPAE00@Z)
00430ad0 00000555 .text             HotlineWindows.cp(??0CMyTasksWin@@QAE@PAVCWindow@@@Z)
00431030 00000239 .text             HotlineWindows.cp(?UpdateButtons@CMyTasksWin@@QAEXXZ)
00431270 00000077 .text             HotlineWindows.cp(?UserZoom@CMyTasksWin@@UAEXABUSMouseMsgData@@@Z)
004312f0 0000044a .text             HotlineWindows.cp(??0CMyOpenUserWin@@QAE@XZ)
00431740 00000050 .text             HotlineWindows.cp(?UpdateOpenButton@CMyOpenUserWin@@QAEXXZ)
00431790 00000368 .text             HotlineWindows.cp(??0CMyNewFolderWin@@QAE@PBE@Z)
00431b00 00000050 .text             HotlineWindows.cp(?UpdateCreateButton@CMyNewFolderWin@@QAEXXZ)
00431b50 000002c0 .text             HotlineWindows.cp(??0CMyChatInviteWin@@QAE@PAVCWindow@@@Z)
00431e10 000002c9 .text             HotlineWindows.cp(??0CMyChatSubjectWin@@QAE@XZ)
004320e0 000006cb .text             HotlineWindows.cp(??0CMyUserInfoWin@@QAE@PAVCWindow@@@Z)
004327b0 00000047 .text             HotlineWindows.cp(??1CMyUserInfoWin@@UAE@XZ)
00432800 000001bf .text             HotlineWindows.cp(?SetContent@CMyUserInfoWin@@QAEXGPBEPAVTFieldDataObj@@@Z)
004329c0 00000143 .text             HotlineWindows.cp(?SetAccess@CMyUserInfoWin@@QAEXXZ)
00432b10 00000122 .text             HotlineWindows.cp(?GetAccountName@CMyUserInfoWin@@QAEKPAXK@Z)
00432c40 00000026 .text             HotlineWindows.cp(?DoPrivateChat@CMyUserInfoWin@@UAEXXZ)
00432c70 0000002d .text             HotlineWindows.cp(?DoPrivateMsg@CMyUserInfoWin@@UAEXXZ)
00432ca0 0000046d .text             HotlineWindows.cp(??0CMyFileInfoWin@@QAE@PAVCWindow@@_N@Z)
00433110 00000033 .text             HotlineWindows.cp(??1CMyFileInfoWin@@UAE@XZ)
00433150 0000007c .text             HotlineWindows.cp(?SetInfo@CMyFileInfoWin@@QAEXPBE00F@Z)
004331d0 00000065 .text             HotlineWindows.cp(?GetInfo@CMyFileInfoWin@@QAEXPAE0@Z)
00433240 00000461 .text             HotlineWindows.cp(??0CMyConfirmDisconnectWin@@QAE@PBEK@Z)
004336b0 000004fc .text             HotlineWindows.cp(??0CMyConfirmQuitWin@@QAE@PBEK@Z)
00433bb0 000002c8 .text             HotlineWindows.cp(??0CMyWaitDisconnectWin@@QAE@XZ)
00433e80 00000033 .text             HotlineWindows.cp(??1CMyWaitDisconnectWin@@UAE@XZ)
00433ec0 0000002f .text             HotlineWindows.cp(?Timer@CMyWaitDisconnectWin@@UAEXPAVTTimerObj@@@Z)
00433ef0 000000ff .text             HotlineWindows.cp(?CheckTasksStatus@CMyWaitDisconnectWin@@IAEXXZ)
00433ff0 000002c8 .text             HotlineWindows.cp(??0CMyWaitQuitWin@@QAE@XZ)
004342c0 00000033 .text             HotlineWindows.cp(??1CMyWaitQuitWin@@UAE@XZ)
00434300 0000002f .text             HotlineWindows.cp(?Timer@CMyWaitQuitWin@@UAEXPAVTTimerObj@@@Z)
00434330 000000ff .text             HotlineWindows.cp(?CheckTasksStatus@CMyWaitQuitWin@@IAEXXZ)
00434430 00000058 .text             HotlineWindows.cp(??_ECMyWaitQuitWin@@UAE@I@Z)
00434490 00000058 .text             HotlineWindows.cp(??_ECMyWaitDisconnectWin@@UAE@I@Z)
004344f0 00000061 .text             HotlineWindows.cp(??_ECMyConfirmQuitWin@@UAE@I@Z)
00434560 00000027 .text             HotlineWindows.cp(??1CMyConfirmQuitWin@@UAE@XZ)
00434590 00000061 .text             HotlineWindows.cp(??_ECMyConfirmDisconnectWin@@UAE@I@Z)
00434600 00000027 .text             HotlineWindows.cp(??1CMyConfirmDisconnectWin@@UAE@XZ)
00434630 00000058 .text             HotlineWindows.cp(??_ECMyUserInfoWin@@UAE@I@Z)
00434690 00000013 .text             HotlineWindows.cp(?DoGetInfo@CMyUserInfoWin@@UAEXXZ)
004346b0 00000061 .text             HotlineWindows.cp(??_ECMyChatSubjectWin@@UAE@I@Z)
00434720 00000027 .text             HotlineWindows.cp(??1CMyChatSubjectWin@@UAE@XZ)
00434750 00000061 .text             HotlineWindows.cp(??_ECMyChatInviteWin@@UAE@I@Z)
004347c0 00000027 .text             HotlineWindows.cp(??1CMyChatInviteWin@@UAE@XZ)
004347f0 00000061 .text             HotlineWindows.cp(??_ECMyNewFolderWin@@UAE@I@Z)
00434860 00000027 .text             HotlineWindows.cp(??1CMyNewFolderWin@@UAE@XZ)
00434890 00000061 .text             HotlineWindows.cp(??_ECMyOpenUserWin@@UAE@I@Z)
00434900 00000027 .text             HotlineWindows.cp(??1CMyOpenUserWin@@UAE@XZ)
00434930 00000061 .text             HotlineWindows.cp(??_ECMyTasksWin@@UAE@I@Z)
004349a0 00000027 .text             HotlineWindows.cp(??1CMyTasksWin@@UAE@XZ)
004349d0 00000061 .text             HotlineWindows.cp(??_ECMyEditUserWin@@UAE@I@Z)
00434a40 00000027 .text             HotlineWindows.cp(??1CMyEditUserWin@@UAE@XZ)
00434a70 00000058 .text             HotlineWindows.cp(??_ECMyBannerToolbarWin@@UAE@I@Z)
00434ad0 00000061 .text             HotlineWindows.cp(??_ECMyAgreementWin@@UAE@I@Z)
00434b40 00000027 .text             HotlineWindows.cp(??1CMyAgreementWin@@UAE@XZ)
00434b70 00000058 .text             HotlineWindows.cp(??_ECMyBannerWin@@UAE@I@Z)
00434bd0 00000061 .text             HotlineWindows.cp(??_ECMySecretWin@@UAE@I@Z)
00434c40 00000027 .text             HotlineWindows.cp(??1CMySecretWin@@UAE@XZ)
00434c70 00000061 .text             HotlineWindows.cp(??_ECMyPublicChatWin@@UAE@I@Z)
00434ce0 00000027 .text             HotlineWindows.cp(??1CMyPublicChatWin@@UAE@XZ)
00434d10 00000058 .text             HotlineWindows.cp(??_ECMyServerInfoWin@@UAE@I@Z)
00434d70 00000058 .text             HotlineWindows.cp(??_ECMySaveFileWin@@UAE@I@Z)
00434dd0 00000061 .text             HotlineWindows.cp(??_ECMyOldNewsWin@@UAE@I@Z)
00434e40 00000027 .text             HotlineWindows.cp(??1CMyOldNewsWin@@UAE@XZ)
00434e70 00000058 .text             HotlineWindows.cp(??_ECMyPrivMsgWin@@UAE@I@Z)
00434ed0 00000013 .text             HotlineWindows.cp(?DoPrivateMsg@CMyPrivMsgWin@@UAEXXZ)
00434ef0 00000061 .text             HotlineWindows.cp(??_ECMyBroadcastWin@@UAE@I@Z)
00434f60 00000027 .text             HotlineWindows.cp(??1CMyBroadcastWin@@UAE@XZ)
00434f90 00000058 .text             HotlineWindows.cp(??_ECMyCouldNotSendPrivMsgWin@@UAE@I@Z)
00434ff0 00000061 .text             HotlineWindows.cp(??_ECMySendPrivMsgWin@@UAE@I@Z)
00435060 00000027 .text             HotlineWindows.cp(??1CMySendPrivMsgWin@@UAE@XZ)
00435090 00000061 .text             HotlineWindows.cp(??_ECMyEnterMsgWin@@UAE@I@Z)
00435100 00000027 .text             HotlineWindows.cp(??1CMyEnterMsgWin@@UAE@XZ)
00435130 00000058 .text             HotlineWindows.cp(??_ECMyUserListWin@@UAE@I@Z)
00435190 00000058 .text             HotlineWindows.cp(??_ECMyFileExplWin@@UAE@I@Z)
004351f0 00000089 .text             HotlineWindows.cp(??_E?$CMyItemsTreeWin@USMyFileItem@@@@UAE@I@Z)
00435280 00000058 .text             HotlineWindows.cp(??_ECMyFileTreeWin@@UAE@I@Z)
004352e0 00000058 .text             HotlineWindows.cp(??_ECMyFileListWin@@UAE@I@Z)
00435340 0000006e .text             HotlineWindows.cp(??_ECMyFileWin@@UAE@I@Z)
004353b0 00000089 .text             HotlineWindows.cp(??_ECMyItemsListWin@@UAE@I@Z)
00435440 00000061 .text             HotlineWindows.cp(??_ECMyLoginWin@@UAE@I@Z)
004354b0 00000027 .text             HotlineWindows.cp(??1CMyLoginWin@@UAE@XZ)
004354e0 00000061 .text             HotlineWindows.cp(??_ECMyOptionsWin@@UAE@I@Z)
00435550 00000027 .text             HotlineWindows.cp(??1CMyOptionsWin@@UAE@XZ)
00435580 0000004c .text             HotlineWindows.cp(??0?$CMyItemsTreeWin@USMyFileItem@@@@QAE@PAVCWindow@@ABVSRect@@PAVTPtrObj@@KK@Z)
004355d0 0000002c .text             HotlineWindows.cp(?SetStatus@?$CMyItemsTreeWin@USMyFileItem@@@@UAEXK@Z)
00435600 0000008b .text             HotlineWindows.cp(?UserZoom@?$CMyItemsTreeWin@USMyFileItem@@@@UAEXABUSMouseMsgData@@@Z)
00435690 0000007d .text             HotlineWindows.cp(?SetStatus@?$CMyTreeStatusView@USMyFileItem@@@@QAEXK@Z)
00435710 0000000f .text             HotlineWindows.cp
00435720 00000008 .text             HotlineWindows.cp(@20@??_ECMyItemsListWin@@UAE@I@Z)
00435730 00000008 .text             HotlineWindows.cp(@4@??_ECMyFileWin@@UAE@I@Z)
00435740 00000008 .text             HotlineWindows.cp(@20@??_ECMyFileListWin@@UAE@I@Z)
00435750 00000008 .text             HotlineWindows.cp(@52@?SearchText@CMyFileListWin@@MAEXPBE@Z)
00435760 00000008 .text             HotlineWindows.cp(@52@??_ECMyFileListWin@@UAE@I@Z)
00435770 00000008 .text             HotlineWindows.cp(@48@??_ECMyFileListWin@@UAE@I@Z)
00435780 00000008 .text             HotlineWindows.cp(@48@?DoDoubleClick@CMyFileListWin@@UAEXG_N@Z)
00435790 00000008 .text             HotlineWindows.cp(@48@?DoMove@CMyFileListWin@@UAEXGPBEPBXK_N@Z)
004357a0 00000008 .text             HotlineWindows.cp(@48@?DoRefresh@CMyFileListWin@@UAEXG@Z)
004357b0 00000008 .text             HotlineWindows.cp(@48@?DoNewFolder@CMyFileListWin@@UAEXXZ)
004357c0 00000008 .text             HotlineWindows.cp(@48@?DoUploadFromDrop@CMyFileListWin@@UAEX_N@Z)
004357d0 00000008 .text             HotlineWindows.cp(@48@?DoUpload@CMyFileListWin@@UAEXG@Z)
004357e0 00000008 .text             HotlineWindows.cp(@48@?GetSelectedParentFolderPath@CMyFileListWin@@UAEPAXAAKPA_N@Z)
004357f0 00000008 .text             HotlineWindows.cp(@48@?GetSelectedItemName@CMyFileListWin@@UAE_NPAEPAK1PBUSMouseMsgData@@@Z)
00435800 00000008 .text             HotlineWindows.cp(@48@?SetContent@CMyFileListWin@@UAEXPBXKPAVTFieldDataObj@@_N@Z)
00435810 00000008 .text             HotlineWindows.cp(@48@?ClearUploadList@CMyFileListWin@@UAEXXZ)
00435820 00000008 .text             HotlineWindows.cp(@48@?GetItemToUpload@CMyFileListWin@@UAEPAVTFSRefObj@@XZ)
00435830 00000008 .text             HotlineWindows.cp(@48@?HasPartialFile@CMyFileListWin@@UAE_NPBEPBXK_N@Z)
00435840 00000008 .text             HotlineWindows.cp(@20@??_ECMyFileTreeWin@@UAE@I@Z)
00435850 00000008 .text             HotlineWindows.cp(@52@?SearchText@CMyFileTreeWin@@MAEXPBE@Z)
00435860 00000008 .text             HotlineWindows.cp(@52@??_ECMyFileTreeWin@@UAE@I@Z)
00435870 00000008 .text             HotlineWindows.cp(@48@??_ECMyFileTreeWin@@UAE@I@Z)
00435880 00000008 .text             HotlineWindows.cp(@48@?DoDoubleClick@CMyFileTreeWin@@UAEXG_N@Z)
00435890 00000008 .text             HotlineWindows.cp(@48@?DoMove@CMyFileTreeWin@@UAEXGPBEPBXK_N@Z)
004358a0 00000008 .text             HotlineWindows.cp(@48@?DoRefresh@CMyFileTreeWin@@UAEXG@Z)
004358b0 00000008 .text             HotlineWindows.cp(@48@?DoNewFolder@CMyFileTreeWin@@UAEXXZ)
004358c0 00000008 .text             HotlineWindows.cp(@48@?DoUploadFromDrop@CMyFileTreeWin@@UAEX_N@Z)
004358d0 00000008 .text             HotlineWindows.cp(@48@?DoUpload@CMyFileTreeWin@@UAEXG@Z)
004358e0 00000008 .text             HotlineWindows.cp(@48@?GetSelectedParentFolderPath@CMyFileTreeWin@@UAEPAXAAKPA_N@Z)
004358f0 00000008 .text             HotlineWindows.cp(@48@?GetSelectedItemName@CMyFileTreeWin@@UAE_NPAEPAK1PBUSMouseMsgData@@@Z)
00435900 00000008 .text             HotlineWindows.cp(@48@?SetContent@CMyFileTreeWin@@UAEXPBXKPAVTFieldDataObj@@_N@Z)
00435910 00000008 .text             HotlineWindows.cp(@48@?ClearUploadList@CMyFileTreeWin@@UAEXXZ)
00435920 00000008 .text             HotlineWindows.cp(@48@?GetItemToUpload@CMyFileTreeWin@@UAEPAVTFSRefObj@@XZ)
00435930 00000008 .text             HotlineWindows.cp(@48@?HasPartialFile@CMyFileTreeWin@@UAE_NPBEPBXK_N@Z)
00435940 00000008 .text             HotlineWindows.cp(@20@??_E?$CMyItemsTreeWin@USMyFileItem@@@@UAE@I@Z)
00435950 00000008 .text             HotlineWindows.cp(@20@??_ECMyFileExplWin@@UAE@I@Z)
00435960 00000008 .text             HotlineWindows.cp(@52@?SearchText@CMyFileExplWin@@MAEXPBE@Z)
00435970 00000008 .text             HotlineWindows.cp(@52@??_ECMyFileExplWin@@UAE@I@Z)
00435980 00000008 .text             HotlineWindows.cp(@48@??_ECMyFileExplWin@@UAE@I@Z)
00435990 00000008 .text             HotlineWindows.cp(@48@?DoDoubleClick@CMyFileExplWin@@UAEXG_N@Z)
004359a0 00000008 .text             HotlineWindows.cp(@48@?DoMove@CMyFileExplWin@@UAEXGPBEPBXK_N@Z)
004359b0 00000008 .text             HotlineWindows.cp(@48@?DoRefresh@CMyFileExplWin@@UAEXG@Z)
004359c0 00000008 .text             HotlineWindows.cp(@48@?DoNewFolder@CMyFileExplWin@@UAEXXZ)
004359d0 00000008 .text             HotlineWindows.cp(@48@?DoUploadFromDrop@CMyFileExplWin@@UAEX_N@Z)
004359e0 00000008 .text             HotlineWindows.cp(@48@?DoUpload@CMyFileExplWin@@UAEXG@Z)
004359f0 00000008 .text             HotlineWindows.cp(@48@?GetSelectedParentFolderPath@CMyFileExplWin@@UAEPAXAAKPA_N@Z)
00435a00 00000008 .text             HotlineWindows.cp(@48@?GetSelectedItemName@CMyFileExplWin@@UAE_NPAEPAK1PBUSMouseMsgData@@@Z)
00435a10 00000008 .text             HotlineWindows.cp(@48@?SetContent@CMyFileExplWin@@UAEXPBXKPAVTFieldDataObj@@_N@Z)
00435a20 00000008 .text             HotlineWindows.cp(@48@?ClearUploadList@CMyFileExplWin@@UAEXXZ)
00435a30 00000008 .text             HotlineWindows.cp(@48@?GetItemToUpload@CMyFileExplWin@@UAEPAVTFSRefObj@@XZ)
00435a40 00000008 .text             HotlineWindows.cp(@48@?HasPartialFile@CMyFileExplWin@@UAE_NPBEPBXK_N@Z)
00435a50 00000008 .text             HotlineWindows.cp(@20@?HandleDrag@CMyUserListWin@@UAEXPAVCDragAndDroppable@@ABUSMouseMsgData@@@Z)
00435a60 00000008 .text             HotlineWindows.cp(@24@?DoGetInfo@CMyUserListWin@@UAEXXZ)
00435a70 00000008 .text             HotlineWindows.cp(@24@?DoPrivateMsg@CMyUserListWin@@UAEXXZ)
00435a80 00000008 .text             HotlineWindows.cp(@24@?DoPrivateChat@CMyUserListWin@@UAEXXZ)
00435a90 00000008 .text             HotlineWindows.cp(@20@?DoGetInfo@CMyPrivMsgWin@@UAEXXZ)
00435aa0 00000008 .text             HotlineWindows.cp(@20@?DoPrivateMsg@CMyPrivMsgWin@@UAEXXZ)
00435ab0 00000008 .text             HotlineWindows.cp(@20@?DoPrivateChat@CMyPrivMsgWin@@UAEXXZ)
00435ac0 00000008 .text             HotlineWindows.cp(@20@?HandleDrop@CMyPrivateChatWin@@UAE_NPAVCDragAndDroppable@@ABUSDragMsgData@@@Z)
00435ad0 00000008 .text             HotlineWindows.cp(@20@?HandleSetDragAction@CMyPrivateChatWin@@UAEXPAVCDragAndDroppable@@ABUSDragMsgData@@@Z)
00435ae0 00000008 .text             HotlineWindows.cp(@20@?HandleDrag@CMyPrivateChatWin@@UAEXPAVCDragAndDroppable@@ABUSMouseMsgData@@@Z)
00435af0 00000008 .text             HotlineWindows.cp(@24@?DoGetInfo@CMyPrivateChatWin@@UAEXXZ)
00435b00 00000008 .text             HotlineWindows.cp(@24@?DoPrivateMsg@CMyPrivateChatWin@@UAEXXZ)
00435b10 00000008 .text             HotlineWindows.cp(@24@?DoPrivateChat@CMyPrivateChatWin@@UAEXXZ)
00435b20 00000008 .text             HotlineWindows.cp(@68@?StateChanged@CMyBannerToolbarWin@@UAEXXZ)
00435b30 00000008 .text             HotlineWindows.cp(@68@?SetBounds@CMyBannerToolbarWin@@MAEXABVSRect@@@Z)
00435b40 00000008 .text             HotlineWindows.cp(@68@??_ECMyBannerToolbarWin@@UAE@I@Z)
00435b50 00000008 .text             HotlineWindows.cp(@20@?DoGetInfo@CMyUserInfoWin@@UAEXXZ)
00435b60 00000008 .text             HotlineWindows.cp(@20@?DoPrivateMsg@CMyUserInfoWin@@UAEXXZ)
00435b70 00000008 .text             HotlineWindows.cp(@20@?DoPrivateChat@CMyUserInfoWin@@UAEXXZ)
00435b80 000000e3 .text             HotlineTracker.cp(??0CMyServerTreeView@@QAE@PAVCViewHandler@@ABVSRect@@PAVCMyServerWindow@@@Z)
00435c70 0000004c .text             HotlineTracker.cp(??1?$CTabbedTreeView@USMyServerInfo@@@@UAE@XZ)
00435cc0 00000074 .text             HotlineTracker.cp(??1CMyServerTreeView@@UAE@XZ)
00435d40 0000008d .text             HotlineTracker.cp(?SetTabs@CMyServerTreeView@@QAEXEEE@Z)
00435dd0 0000003f .text             HotlineTracker.cp(?SetTabs@CMyServerTreeView@@QAEXGG@Z)
00435e10 00000041 .text             HotlineTracker.cp(?GetTabs@CMyServerTreeView@@QAEXAAG0@Z)
00435e60 00000066 .text             HotlineTracker.cp(?AddTracker@CMyServerTreeView@@QAEKPAUSMyServerInfo@@@Z)
00435ed0 00000067 .text             HotlineTracker.cp(?AddServer@CMyServerTreeView@@QAEKKPAUSMyServerInfo@@@Z)
00435f40 00000045 .text             HotlineTracker.cp(?RefreshTrackers@CMyServerTreeView@@QAEXXZ)
00435f90 0000003a .text             HotlineTracker.cp(?RefreshTracker@CMyServerTreeView@@QAEXK@Z)
00435fd0 00000092 .text             HotlineTracker.cp(?GetSelectedTrackerID@CMyServerTreeView@@QAEKPA_N@Z)
00436070 00000074 .text             HotlineTracker.cp(?GetSelectedBookmarkName@CMyServerTreeView@@QAEPBEXZ)
004360f0 0000008b .text             HotlineTracker.cp(?GetSelectedServInfo@CMyServerTreeView@@QAEPAUSMyServerInfo@@AA_N@Z)
00436180 00000111 .text             HotlineTracker.cp(?GetSelectedServInfo@CMyServerTreeView@@QAE_NAA_NPAE1@Z)
004362a0 0000001d .text             HotlineTracker.cp(?GetTotalServerCount@CMyServerTreeView@@QAEKXZ)
004362c0 00000063 .text             HotlineTracker.cp(?SetTrackerDisclosure@CMyServerTreeView@@QAE_NGE@Z)
00436330 0000005e .text             HotlineTracker.cp(?GetTrackerDisclosure@CMyServerTreeView@@QAEEG@Z)
00436390 00000057 .text             HotlineTracker.cp(?GetTrackerIndex@CMyServerTreeView@@QAEKG@Z)
004363f0 0000004c .text             HotlineTracker.cp(?RemoveServers@CMyServerTreeView@@QAEXXZ)
00436440 00000072 .text             HotlineTracker.cp(?RemoveTracker@CMyServerTreeView@@QAEXG_N@Z)
004364c0 0000008c .text             HotlineTracker.cp(?SetStatusMsg@CMyServerTreeView@@QAEXGPBE@Z)
00436550 00000092 .text             HotlineTracker.cp(?SelectionChanged@CMyServerTreeView@@UAEXKPAUSMyServerInfo@@_N@Z)
004365f0 00000049 .text             HotlineTracker.cp(?DisclosureChanged@CMyServerTreeView@@UAEXKPAUSMyServerInfo@@E@Z)
00436640 00000478 .text             HotlineTracker.cp(?ItemDraw@CMyServerTreeView@@MAEXKKPAUSMyServerInfo@@PAUSTreeViewItem@@PAVTImageObj@@ABV?$CPtrList@VSRect@@@@K@Z)
00436ac0 000007c7 .text             HotlineTracker.cp(??0CMyServerWindow@@QAE@PAVCWindow@@@Z)
00437290 00000090 .text             HotlineTracker.cp(?UserZoom@CMyServerWindow@@UAEXABUSMouseMsgData@@@Z)
00437320 00000ab9 .text             HotlineTracker.cp(??0CMyTrackServWindow@@QAE@PAVCWindow@@@Z)
00437de0 000000d3 .text             HotlineTracker.cp(?Disclose@CMyTrackServWindow@@QAEXXZ)
00437ec0 00000095 .text             HotlineTracker.cp(??0CMyTracker@@QAE@PAVCWindow@@@Z)
00437f60 0000001e .text             HotlineTracker.cp(??1?$CPtrList@USMyTrackerInfo@@@@QAE@XZ)
00437f80 00000128 .text             HotlineTracker.cp(??1CMyTracker@@QAE@XZ)
004380b0 00000061 .text             HotlineTracker.cp(??_ECMyServerWindow@@UAE@I@Z)
00438120 00000027 .text             HotlineTracker.cp(??1CMyServerWindow@@UAE@XZ)
00438150 00000077 .text             HotlineTracker.cp(?ShowServersWindow@CMyTracker@@QAEXXZ)
004381d0 00000080 .text             HotlineTracker.cp(?CloseWindow@CMyTracker@@QAE_NPAVCWindow@@@Z)
00438250 00000047 .text             HotlineTracker.cp(??_ECWindow@@UAE@I@Z)
004382a0 00000080 .text             HotlineTracker.cp(?KeyCommand@CMyTracker@@QAE_NKABUSKeyMsgData@@@Z)
00438320 00000525 .text             HotlineTracker.cp(?WindowHit@CMyTracker@@QAE_NPAVCWindow@@ABUSHitMsgData@@@Z)
00438850 00000010 .text             HotlineTracker.cp(?TimerProc@CMyTracker@@KAXPAX0KPBXK@Z)
00438860 0000001d .text             HotlineTracker.cp(?Timer@CMyTracker@@QAEXPAVTTimerObj@@@Z)
00438880 00000028 .text             HotlineTracker.cp(?GetTabs@CMyTracker@@QAEXAAG0@Z)
004388b0 000000b3 .text             HotlineTracker.cp(?AddTrackerInList@CMyTracker@@QAEXPAE0000FG@Z)
00438970 000000dc .text             HotlineTracker.cp(?AddBookmarksInTree@CMyTracker@@QAEXXZ)
00438a50 0000004d .text             HotlineTracker.cp(?AddTrackersInTree@CMyTracker@@QAEXXZ)
00438aa0 0000015f .text             HotlineTracker.cp(?AddTrackerInTree@CMyTracker@@QAEXPAUSMyTrackerInfo@@@Z)
00438c00 0000018e .text             HotlineTracker.cp(?AddListFromData@CMyTracker@@QAEKGPBEK@Z)
00438d90 0000029f .text             HotlineTracker.cp(?AddServerInTree@CMyTracker@@QAEXKKPAE0KGGG@Z)
00439030 00000086 .text             HotlineTracker.cp(?UpdateServersCount@CMyTracker@@QAEXK@Z)
004390c0 000000a4 .text             HotlineTracker.cp(?UpdateTrackerInList@CMyTracker@@QAEXGPAE0000F@Z)
00439170 00000195 .text             HotlineTracker.cp(?UpdateTrackerInTree@CMyTracker@@QAEXPAUSMyTrackerInfo@@@Z)
00439310 000001ad .text             HotlineTracker.cp(?EditSelectedTracker@CMyTracker@@QAE_NXZ)
004394c0 00000096 .text             HotlineTracker.cp(?RemoveTrackerInList@CMyTracker@@QAEXG@Z)
00439560 00000159 .text             HotlineTracker.cp(?RemoveTrackersInTree@CMyTracker@@QAEXXZ)
004396c0 00000186 .text             HotlineTracker.cp(?RemoveTrackerInTree@CMyTracker@@QAEXG_N@Z)
00439850 0000011f .text             HotlineTracker.cp(?RemoveSelectedItem@CMyTracker@@QAEXXZ)
00439970 00000028 .text             HotlineTracker.cp(?SetStatusMsg@CMyTracker@@QAEXGPBE@Z)
004399a0 00000151 .text             HotlineTracker.cp(?SetServerCountLabel@CMyTracker@@QAEXXZ)
00439b00 00000062 .text             HotlineTracker.cp(?FilterServerList@CMyTracker@@QAEXXZ)
00439b70 00000284 .text             HotlineTracker.cp(?FilterServer@CMyTracker@@QAEFPAEPAUSMyServerInfo@@@Z)
00439e00 00000580 .text             HotlineTracker.cp(?FilterServerList@CMyTracker@@QAEXPAE@Z)
0043a380 000003e2 .text             HotlineTracker.cp(?RefreshBookmarks@CMyTracker@@QAE_NXZ)
0043a770 000001c9 .text             HotlineTracker.cp(?RefreshTrackers@CMyTracker@@QAEXXZ)
0043a940 000001d2 .text             HotlineTracker.cp(?RefreshTrackers@CMyTracker@@QAEXG@Z)
0043ab20 0000017c .text             HotlineTracker.cp(?RefreshTracker@CMyTracker@@QAEXG@Z)
0043aca0 000000b9 .text             HotlineTracker.cp(?SetDefaultTracker@CMyTracker@@QAEXXZ)
0043ad60 00000013 .text             HotlineTracker.cp(?ExpandDefaultTracker@CMyTracker@@QAEXXZ)
0043ad80 000000cc .text             HotlineTracker.cp(?GetSelectedServInfo@CMyTracker@@QAE_NPAE000@Z)
0043ae50 0000005a .text             HotlineTracker.cp(?GetTrackerIndex@CMyTracker@@QAEKG@Z)
0043aeb0 00000077 .text             HotlineTracker.cp(?GetTrackerInfoByID@CMyTracker@@QAEPAUSMyTrackerInfo@@G@Z)
0043af30 00000353 .text             HotlineTracker.cp(?WritePrefs@CMyTracker@@QAEKPAVTFSRefObj@@K@Z)
0043b290 0000041a .text             HotlineTracker.cp(?ReadPrefs@CMyTracker@@QAEKPAVTFSRefObj@@KGG@Z)
0043b6b0 00000061 .text             HotlineTracker.cp(??_ECMyTrackServWindow@@UAE@I@Z)
0043b720 00000027 .text             HotlineTracker.cp(??1CMyTrackServWindow@@UAE@XZ)
0043b750 00000086 .text             HotlineTracker.cp(??_E?$CTabbedTreeView@USMyServerInfo@@@@UAE@I@Z)
0043b7e0 00000058 .text             HotlineTracker.cp(??_ECMyServerTreeView@@UAE@I@Z)
0043b840 0000005f .text             HotlineTracker.cp(??0?$CTabbedTreeView@USMyServerInfo@@@@QAE@PAVCViewHandler@@ABVSRect@@KK_N@Z)
0043b8a0 0000003a .text             HotlineTracker.cp(?SetBounds@?$CTabbedTreeView@USMyServerInfo@@@@UAE_NABVSRect@@@Z)
0043b8e0 00000054 .text             HotlineTracker.cp(?MouseDown@?$CTabbedTreeView@USMyServerInfo@@@@UAEXABUSMouseMsgData@@@Z)
0043b940 00000054 .text             HotlineTracker.cp(?MouseUp@?$CTabbedTreeView@USMyServerInfo@@@@UAEXABUSMouseMsgData@@@Z)
0043b9a0 00000031 .text             HotlineTracker.cp(?MouseMove@?$CTabbedTreeView@USMyServerInfo@@@@UAEXABUSMouseMsgData@@@Z)
0043b9e0 00000031 .text             HotlineTracker.cp(?MouseLeave@?$CTabbedTreeView@USMyServerInfo@@@@UAEXABUSMouseMsgData@@@Z)
0043ba20 00000015 .text             HotlineTracker.cp(?ItemDraw@?$CTabbedTreeView@USMyServerInfo@@@@MAEXKKPAUSMyServerInfo@@PAUSTreeViewItem@@PAVTImageObj@@ABV?$CPtrList@VSRect@@@@K@Z)
0043ba40 0000004c .text             HotlineTracker.cp(?ItemMouseDown@?$CTabbedTreeView@USMyServerInfo@@@@MAEXKABUSMouseMsgData@@@Z)
0043ba90 0000004c .text             HotlineTracker.cp(?ItemMouseUp@?$CTabbedTreeView@USMyServerInfo@@@@MAEXKABUSMouseMsgData@@@Z)
0043bae0 0000004c .text             HotlineTracker.cp(?ItemMouseEnter@?$CTabbedTreeView@USMyServerInfo@@@@MAEXKABUSMouseMsgData@@@Z)
0043bb30 0000004c .text             HotlineTracker.cp(?ItemMouseMove@?$CTabbedTreeView@USMyServerInfo@@@@MAEXKABUSMouseMsgData@@@Z)
0043bb80 0000004c .text             HotlineTracker.cp(?ItemMouseLeave@?$CTabbedTreeView@USMyServerInfo@@@@MAEXKABUSMouseMsgData@@@Z)
0043bbd0 0000002e .text             HotlineTracker.cp(?RefreshTabView@?$CTabbedTreeView@USMyServerInfo@@@@MAEXXZ)
0043bc00 00000044 .text             HotlineTracker.cp(?GetTabViewBounds@?$CTabbedTreeView@USMyServerInfo@@@@MAEXAAVSRect@@@Z)
0043bc50 00000071 .text             HotlineTracker.cp(?GetTabViewScrollPos@?$CTabbedTreeView@USMyServerInfo@@@@MAEXAAK0@Z)
0043bcd0 0000001d .text             HotlineTracker.cp(?GetTabHeight@?$CTabbedTreeView@USMyServerInfo@@@@MBEKXZ)
0043bcf0 000000e8 .text             HotlineTracker.cp(?AddTreeItem@?$CTreeView@USMyServerInfo@@@@QAEKKPAUSMyServerInfo@@_N@Z)
0043bde0 0000018f .text             HotlineTracker.cp(?RemoveTreeItem@?$CTreeView@USMyServerInfo@@@@QAEPAUSMyServerInfo@@K_N@Z)
0043bf70 0000012d .text             HotlineTracker.cp(?RemoveChildTree@?$CTreeView@USMyServerInfo@@@@QAE_NK@Z)
0043c0a0 000000be .text             HotlineTracker.cp(?ClearTree@?$CTreeView@USMyServerInfo@@@@QAEXXZ)
0043c160 0000003f .text             HotlineTracker.cp(?GetTreeItem@?$CTreeView@USMyServerInfo@@@@QBEPAUSMyServerInfo@@K@Z)
0043c1a0 00000025 .text             HotlineTracker.cp(?GetTreeItemLevel@?$CTreeView@USMyServerInfo@@@@QBEKK@Z)
0043c1d0 00000042 .text             HotlineTracker.cp(?GetParentTreeItem@?$CTreeView@USMyServerInfo@@@@QBEPAUSMyServerInfo@@KPAK@Z)
0043c220 00000025 .text             HotlineTracker.cp(?GetParentTreeIndex@?$CTreeView@USMyServerInfo@@@@QBEKK@Z)
0043c250 00000020 .text             HotlineTracker.cp(?GetTreeCount@?$CTreeView@USMyServerInfo@@@@QBEKXZ)
0043c270 00000020 .text             HotlineTracker.cp(?GetRootCount@?$CTreeView@USMyServerInfo@@@@QBEKXZ)
0043c290 00000025 .text             HotlineTracker.cp(?GetChildTreeCount@?$CTreeView@USMyServerInfo@@@@QBEKK@Z)
0043c2c0 0000004e .text             HotlineTracker.cp(?GetNextTreeItem@?$CTreeView@USMyServerInfo@@@@QBE_NAAPAUSMyServerInfo@@AAK_N@Z)
0043c310 00000058 .text             HotlineTracker.cp(?GetFirstSelectedTreeItem@?$CTreeView@USMyServerInfo@@@@QBEKXZ)
0043c370 00000040 .text             HotlineTracker.cp(?RefreshTreeItem@?$CTreeView@USMyServerInfo@@@@QAE_NK@Z)
0043c3b0 0000008e .text             HotlineTracker.cp(?DeselectAllTreeItems@?$CTreeView@USMyServerInfo@@@@QAEXXZ)
0043c440 000000f6 .text             HotlineTracker.cp(?SetDisclosure@?$CTreeView@USMyServerInfo@@@@QAE_NKE@Z)
0043c540 0000003c .text             HotlineTracker.cp(?GetDisclosure@?$CTreeView@USMyServerInfo@@@@QAEEK@Z)
0043c580 0000003c .text             HotlineTracker.cp(?GetFullSize@?$CTreeView@USMyServerInfo@@@@UBEXAAK0@Z)
0043c5c0 0000006a .text             HotlineTracker.cp(?GetFullHeight@?$CTreeView@USMyServerInfo@@@@UBEKXZ)
0043c630 0000001f .text             HotlineTracker.cp(?GetFullWidth@?$CTreeView@USMyServerInfo@@@@UBEKXZ)
0043c650 000000ec .text             HotlineTracker.cp(?GetTreeItemRect@?$CTreeView@USMyServerInfo@@@@UBE_NKAAVSRect@@@Z)
0043c740 00000050 .text             HotlineTracker.cp(?GetSelectedTreeItemsRect@?$CTreeView@USMyServerInfo@@@@UBE_NAAVSRect@@@Z)
0043c790 00000040 .text             HotlineTracker.cp(?PointToTreeItem@?$CTreeView@USMyServerInfo@@@@UBEKABVSPoint@@@Z)
0043c7d0 00000161 .text             HotlineTracker.cp(?Draw@?$CTreeView@USMyServerInfo@@@@UAEXPAVTImageObj@@ABVSRect@@K@Z)
0043c940 00000020 .text             HotlineTracker.cp(?DragEnter@?$CTreeView@USMyServerInfo@@@@UAEXABUSDragMsgData@@@Z)
0043c960 00000020 .text             HotlineTracker.cp(?DragLeave@?$CTreeView@USMyServerInfo@@@@UAEXABUSDragMsgData@@@Z)
0043c980 00000210 .text             HotlineTracker.cp(?MouseDown@?$CTreeView@USMyServerInfo@@@@UAEXABUSMouseMsgData@@@Z)
0043cb90 000001aa .text             HotlineTracker.cp(?KeyDown@?$CTreeView@USMyServerInfo@@@@UAE_NABUSKeyMsgData@@@Z)
0043cd40 00000015 .text             HotlineTracker.cp(?VisibilityChanged@?$CTreeView@USMyServerInfo@@@@UAEXKPAUSMyServerInfo@@_N@Z)
0043cd60 00000015 .text             HotlineTracker.cp(?SelectionChanged@?$CTreeView@USMyServerInfo@@@@UAEXKPAUSMyServerInfo@@_N@Z)
0043cd80 00000015 .text             HotlineTracker.cp(?DisclosureChanged@?$CTreeView@USMyServerInfo@@@@UAEXKPAUSMyServerInfo@@E@Z)
0043cda0 0000003c .text             HotlineTracker.cp(?IsValidItem@?$CTreeView@USMyServerInfo@@@@MBE_NK@Z)
0043cde0 00000036 .text             HotlineTracker.cp(?GetNextItem@?$CTreeView@USMyServerInfo@@@@MBE_NAAK@Z)
0043ce20 00000073 .text             HotlineTracker.cp(?GetPrevItem@?$CTreeView@USMyServerInfo@@@@MBE_NAAK@Z)
0043cea0 00000019 .text             HotlineTracker.cp(?GetItemCount@?$CTreeView@USMyServerInfo@@@@MBEKXZ)
0043cec0 00000081 .text             HotlineTracker.cp(?SetItemSelect@?$CTreeView@USMyServerInfo@@@@MAEXK_N@Z)
0043cf50 0000003b .text             HotlineTracker.cp(?IsItemSelected@?$CTreeView@USMyServerInfo@@@@MBE_NK@Z)
0043cf90 00000026 .text             HotlineTracker.cp(?GetFirstSelectedItem@?$CTreeView@USMyServerInfo@@@@MBEKXZ)
0043cfc0 00000026 .text             HotlineTracker.cp(?GetLastSelectedItem@?$CTreeView@USMyServerInfo@@@@MBEKXZ)
0043cff0 00000122 .text             HotlineTracker.cp(?SetItemRangeSelect@?$CTreeView@USMyServerInfo@@@@MAEXKK_N@Z)
0043d120 00000073 .text             HotlineTracker.cp(?GetItemRect@?$CTreeView@USMyServerInfo@@@@MBEXKAAVSRect@@@Z)
0043d1a0 000000ee .text             HotlineTracker.cp(?GetSelectedItemsRect@?$CTreeView@USMyServerInfo@@@@MBEXAAVSRect@@@Z)
0043d290 00000090 .text             HotlineTracker.cp(?PointToItem@?$CTreeView@USMyServerInfo@@@@MBEKABVSPoint@@@Z)
0043d320 00000316 .text             HotlineTracker.cp(?ItemDraw@?$CTreeView@USMyServerInfo@@@@MAEXKPAVTImageObj@@ABVSRect@@1K@Z)
0043d640 00000015 .text             HotlineTracker.cp(?ItemDraw@?$CTreeView@USMyServerInfo@@@@MAEXKKPAUSMyServerInfo@@PAUSTreeViewItem@@PAVTImageObj@@ABVSRect@@3K@Z)
0043d660 00000046 .text             HotlineTracker.cp(?ItemMouseDown@?$CTreeView@USMyServerInfo@@@@MAEXKABUSMouseMsgData@@@Z)
0043d6b0 00000046 .text             HotlineTracker.cp(?ItemMouseUp@?$CTreeView@USMyServerInfo@@@@MAEXKABUSMouseMsgData@@@Z)
0043d700 00000046 .text             HotlineTracker.cp(?ItemMouseEnter@?$CTreeView@USMyServerInfo@@@@MAEXKABUSMouseMsgData@@@Z)
0043d750 00000046 .text             HotlineTracker.cp(?ItemMouseMove@?$CTreeView@USMyServerInfo@@@@MAEXKABUSMouseMsgData@@@Z)
0043d7a0 00000046 .text             HotlineTracker.cp(?ItemMouseLeave@?$CTreeView@USMyServerInfo@@@@MAEXKABUSMouseMsgData@@@Z)
0043d7f0 00000015 .text             HotlineTracker.cp(?TreeItemMouseDown@?$CTreeView@USMyServerInfo@@@@MAEXKABUSMouseMsgData@@@Z)
0043d810 00000015 .text             HotlineTracker.cp(?TreeItemMouseUp@?$CTreeView@USMyServerInfo@@@@MAEXKABUSMouseMsgData@@@Z)
0043d830 00000015 .text             HotlineTracker.cp(?TreeItemMouseEnter@?$CTreeView@USMyServerInfo@@@@MAEXKABUSMouseMsgData@@@Z)
0043d850 00000015 .text             HotlineTracker.cp(?TreeItemMouseMove@?$CTreeView@USMyServerInfo@@@@MAEXKABUSMouseMsgData@@@Z)
0043d870 00000015 .text             HotlineTracker.cp(?TreeItemMouseLeave@?$CTreeView@USMyServerInfo@@@@MAEXKABUSMouseMsgData@@@Z)
0043d890 0000006f .text             HotlineTracker.cp(?GetListItem@?$CTreeView@USMyServerInfo@@@@IBEPAUSTreeViewItem@@KPAK@Z)
0043d900 00000047 .text             HotlineTracker.cp(?ConvertListToTree@?$CTreeView@USMyServerInfo@@@@IBEKK@Z)
0043d950 0000006c .text             HotlineTracker.cp(?ConvertTreeToList@?$CTreeView@USMyServerInfo@@@@IBEKK@Z)
0043d9c0 00000095 .text             HotlineTracker.cp(?ItemsInserted@?$CTreeView@USMyServerInfo@@@@MAEXKK@Z)
0043da60 00000095 .text             HotlineTracker.cp(?ItemsRemoved@?$CTreeView@USMyServerInfo@@@@MAEXKK@Z)
0043db00 00000135 .text             HotlineTracker.cp(?ComposeListIndex@?$CTreeView@USMyServerInfo@@@@IAEXXZ)
0043dc40 0000003d .text             HotlineTracker.cp(??0?$CPtrTree@USMyServerInfo@@@@QAE@XZ)
0043dc80 00000029 .text             HotlineTracker.cp(??1?$CPtrTree@USMyServerInfo@@@@QAE@XZ)
0043dcb0 000001d9 .text             HotlineTracker.cp(?AddItem@?$CPtrTree@USMyServerInfo@@@@QAEKKPAUSMyServerInfo@@@Z)
0043de90 00000291 .text             HotlineTracker.cp(?RemoveItem@?$CPtrTree@USMyServerInfo@@@@QAEPAUSMyServerInfo@@K_N@Z)
0043e130 00000168 .text             HotlineTracker.cp(?RemoveChildTree@?$CPtrTree@USMyServerInfo@@@@QAE_NK@Z)
0043e2a0 0000004d .text             HotlineTracker.cp(?Clear@?$CPtrTree@USMyServerInfo@@@@QAEXXZ)
0043e2f0 0000004a .text             HotlineTracker.cp(?GetItem@?$CPtrTree@USMyServerInfo@@@@QBEPAUSMyServerInfo@@K@Z)
0043e340 0000004a .text             HotlineTracker.cp(?GetItemLevel@?$CPtrTree@USMyServerInfo@@@@QBEKK@Z)
0043e390 00000019 .text             HotlineTracker.cp(?GetTreeCount@?$CPtrTree@USMyServerInfo@@@@QBEKXZ)
0043e3b0 00000019 .text             HotlineTracker.cp(?GetRootCount@?$CPtrTree@USMyServerInfo@@@@QBEKXZ)
0043e3d0 00000058 .text             HotlineTracker.cp(?GetChildTreeCount@?$CPtrTree@USMyServerInfo@@@@QBEKK@Z)
0043e430 00000108 .text             HotlineTracker.cp(?GetNext@?$CPtrTree@USMyServerInfo@@@@QBE_NAAPAUSMyServerInfo@@AAK_N@Z)
0043e540 00000291 .text             HotlineTracker.cp(?RemoveItem@?$CPtrTree@USTreeViewItem@@@@QAEPAUSTreeViewItem@@K_N@Z)
0043e7e0 00000019 .text             HotlineTracker.cp(?GetRootCount@?$CPtrTree@USTreeViewItem@@@@QBEKXZ)
0043e800 000000ca .text             HotlineTracker.cp(??1?$CTreeView@USMyServerInfo@@@@UAE@XZ)
0043e8d0 000000a5 .text             HotlineTracker.cp(??0?$CTreeView@USMyServerInfo@@@@QAE@PAVCViewHandler@@ABVSRect@@KK@Z)
0043e980 000001be .text             HotlineTracker.cp(?ItemDraw@?$CTabbedTreeView@USMyServerInfo@@@@MAEXKKPAUSMyServerInfo@@PAUSTreeViewItem@@PAVTImageObj@@ABVSRect@@3K@Z)
0043eb40 00000058 .text             HotlineTracker.cp(??_E?$CTreeView@USMyServerInfo@@@@UAE@I@Z)
0043eba0 00000062 .text             HotlineTracker.cp(?GetLastSelectedTreeItem@?$CTreeView@USMyServerInfo@@@@QBEKXZ)
0043ec10 00000109 .text             HotlineTracker.cp(?Collapse@?$CTreeView@USMyServerInfo@@@@IAEXKKPAUSTreeViewItem@@@Z)
0043ed20 000000dd .text             HotlineTracker.cp(?Disclose@?$CTreeView@USMyServerInfo@@@@IAEXKAAKPAUSTreeViewItem@@@Z)
0043ee00 000000bd .text             HotlineTracker.cp(?CollapseAllTreeItems@?$CTreeView@USMyServerInfo@@@@QAEXXZ)
0043eec0 000000b4 .text             HotlineTracker.cp(?DiscloseAllTreeItems@?$CTreeView@USMyServerInfo@@@@QAEXXZ)
0043ef80 0000000b .text             HotlineTracker.cp(@132@??_ECMyServerTreeView@@UAE@I@Z)
0043ef90 0000000b .text             HotlineTracker.cp(@132@?GetTabViewScrollPos@?$CTabbedTreeView@USMyServerInfo@@@@MAEXAAK0@Z)
0043efa0 0000000b .text             HotlineTracker.cp(@132@?GetTabViewBounds@?$CTabbedTreeView@USMyServerInfo@@@@MAEXAAVSRect@@@Z)
0043efb0 0000000b .text             HotlineTracker.cp(@132@?RefreshTabView@?$CTabbedTreeView@USMyServerInfo@@@@MAEXXZ)
0043efc0 0000000b .text             HotlineTracker.cp(@132@??_E?$CTabbedTreeView@USMyServerInfo@@@@UAE@I@Z)
0043efd0 00000068 .text             HotlineNews.cp(?_LookUpNewsMimeFlav@@YAKPBE@Z)
0043f040 00000107 .text             HotlineNews.cp(??0CMyNewsArticleTreeView@@QAE@PAVCViewHandler@@ABVSRect@@PAVCNZReadList@@@Z)
0043f150 00000046 .text             HotlineNews.cp(??1CMyNewsArticleTreeView@@UAE@XZ)
0043f1a0 000000b5 .text             HotlineNews.cp(?SetTabs@CMyNewsArticleTreeView@@QAEXEEEEE@Z)
0043f260 0000007e .text             HotlineNews.cp(?GetTabs@CMyNewsArticleTreeView@@QAEXAAE0000@Z)
0043f2e0 00000555 .text             HotlineNews.cp(?SetItemsFromData@CMyNewsArticleTreeView@@QAE_NPBEK@Z)
0043f840 0000010f .text             HotlineNews.cp(?SearchNames@CMyNewsArticleTreeView@@QAEKPBE@Z)
0043f950 0000004b .text             HotlineNews.cp(?DeleteAll@CMyNewsArticleTreeView@@QAEXXZ)
0043f9a0 00000086 .text             HotlineNews.cp(?AddListFromFields@CMyNewsArticleTreeView@@QAE_NPAVTFieldDataObj@@@Z)
0043fa30 0000007c .text             HotlineNews.cp(?GetSelectedItemNameAndID@CMyNewsArticleTreeView@@QAEKPAE@Z)
0043fab0 0000008f .text             HotlineNews.cp(?ReadSelectedItemNameAndID@CMyNewsArticleTreeView@@QAEKPAE@Z)
0043fb40 0000007c .text             HotlineNews.cp(?SetSelectedItem@CMyNewsArticleTreeView@@QAEXK@Z)
0043fbc0 00000095 .text             HotlineNews.cp(?SetCurrentItem@CMyNewsArticleTreeView@@QAEXK@Z)
0043fc60 00000068 .text             HotlineNews.cp(?KeyDown@CMyNewsArticleTreeView@@UAE_NABUSKeyMsgData@@@Z)
0043fcd0 00000072 .text             HotlineNews.cp(?SelectionChanged@CMyNewsArticleTreeView@@UAEXKPAUSMyNewsArticle@@_N@Z)
0043fd50 000004dd .text             HotlineNews.cp(?ItemDraw@CMyNewsArticleTreeView@@MAEXKKPAUSMyNewsArticle@@PAUSTreeViewItem@@PAVTImageObj@@ABV?$CPtrList@VSRect@@@@K@Z)
00440230 000000a0 .text             HotlineNews.cp(?TreeItemMouseDown@CMyNewsArticleTreeView@@MAEXKABUSMouseMsgData@@@Z)
004402d0 00000541 .text             HotlineNews.cp(??0CMyNewsArticleTreeWin@@QAE@PAVCWindow@@PAVCNZReadList@@PAVTPtrObj@@KK@Z)
00440820 0000004f .text             HotlineNews.cp(??1?$CMyItemsTreeWin@USMyNewsArticle@@@@UAE@XZ)
00440870 00000091 .text             HotlineNews.cp(??1CMyNewsArticleTreeWin@@UAE@XZ)
00440910 00000082 .text             HotlineNews.cp(?GetContent@CMyNewsArticleTreeWin@@UAEXXZ)
004409a0 000000b8 .text             HotlineNews.cp(?SetContent@CMyNewsArticleTreeWin@@QAEXPBXKPAVTFieldDataObj@@_N@Z)
00440a60 000000bc .text             HotlineNews.cp(?SetAccess@CMyNewsArticleTreeWin@@UAEXXZ)
00440b20 000000db .text             HotlineNews.cp(?SetBoundsInfo@CMyNewsArticleTreeWin@@UAEXXZ)
00440c00 00000085 .text             HotlineNews.cp(?GetBoundsInfo@CMyNewsArticleTreeWin@@UAEXXZ)
00440c90 000000c8 .text             HotlineNews.cp(?DoNewArticle@CMyNewsArticleTreeWin@@QAEXXZ)
00440d60 00000173 .text             HotlineNews.cp(?DoOpenArticle@CMyNewsArticleTreeWin@@QAEXXZ)
00440ee0 00000065 .text             HotlineNews.cp(?DoRefresh@CMyNewsArticleTreeWin@@QAEXXZ)
00440f50 0000009e .text             HotlineNews.cp(?DoDelete@CMyNewsArticleTreeWin@@QAEXXZ)
00440ff0 00000036 .text             HotlineNews.cp(?KeyDown@CMyNewsArticleTreeWin@@UAEXABUSKeyMsgData@@@Z)
00441030 00000082 .text             HotlineNews.cp(?SearchText@CMyNewsArticleTreeWin@@MAEXPBE@Z)
004410c0 00000091 .text             HotlineNews.cp(??0CMyNewsCategoryListView@@QAE@PAVCViewHandler@@ABVSRect@@@Z)
00441160 0000001e .text             HotlineNews.cp(??1?$CPtrList@USNewsCatItm@@@@QAE@XZ)
00441180 00000051 .text             HotlineNews.cp(??1CMyNewsCategoryListView@@UAE@XZ)
004411e0 00000077 .text             HotlineNews.cp(?SetTabs@CMyNewsCategoryListView@@QAEXEE@Z)
00441260 00000039 .text             HotlineNews.cp(?GetTabs@CMyNewsCategoryListView@@QAEXAAE0@Z)
004412a0 00000562 .text             HotlineNews.cp(?AddListFromFields@CMyNewsCategoryListView@@QAE_NPAVTFieldDataObj@@@Z)
00441810 000000d8 .text             HotlineNews.cp(?SelectNames@CMyNewsCategoryListView@@QAEKPBE@Z)
004418f0 00000157 .text             HotlineNews.cp(?SearchNames@CMyNewsCategoryListView@@QAEKPBE@Z)
00441a50 000000f6 .text             HotlineNews.cp(?GetSelectedItemName@CMyNewsCategoryListView@@QAEGPAEPAUSGUID@@@Z)
00441b50 000000ae .text             HotlineNews.cp(?DeleteAll@CMyNewsCategoryListView@@QAEXXZ)
00441c00 0000001c .text             HotlineNews.cp(?GetItemCount@CMyNewsCategoryListView@@UBEKXZ)
00441c20 0000004b .text             HotlineNews.cp(?SetItemSelect@CMyNewsCategoryListView@@UAEXK_N@Z)
00441c70 000003ba .text             HotlineNews.cp(?ItemDraw@CMyNewsCategoryListView@@MAEXKPAVTImageObj@@ABVSRect@@ABV?$CPtrList@VSRect@@@@K@Z)
00442030 0000009d .text             HotlineNews.cp(?CompareNames@CMyNewsCategoryListView@@KAJPAX00@Z)
004420d0 000000c7 .text             HotlineNews.cp(??0CMyNewsCategoryTreeView@@QAE@PAVCViewHandler@@ABVSRect@@PAPAVTPtrObj@@PAK_N@Z)
004421a0 00000046 .text             HotlineNews.cp(??1CMyNewsCategoryTreeView@@UAE@XZ)
004421f0 00000079 .text             HotlineNews.cp(?SetTabs@CMyNewsCategoryTreeView@@QAEXEE@Z)
00442270 0000003f .text             HotlineNews.cp(?GetTabs@CMyNewsCategoryTreeView@@QAEXAAE0@Z)
004422b0 000005d8 .text             HotlineNews.cp(?AddListFromFields@CMyNewsCategoryTreeView@@QAE_NPBXKPAVTFieldDataObj@@@Z)
00442890 00000098 .text             HotlineNews.cp(?SelectNames@CMyNewsCategoryTreeView@@QAEKPBE@Z)
00442930 0000010f .text             HotlineNews.cp(?SearchNames@CMyNewsCategoryTreeView@@QAEKPBE@Z)
00442a40 000000c9 .text             HotlineNews.cp(?RefreshSelectedBundlePath@CMyNewsCategoryTreeView@@QAEPAXAAKPA_N@Z)
00442b10 00000035 .text             HotlineNews.cp(?GetSelectedBundlePath@CMyNewsCategoryTreeView@@QAEPAXAAK@Z)
00442b50 00000064 .text             HotlineNews.cp(?GetSelectedParentBundlePath@CMyNewsCategoryTreeView@@QAEPAXAAK@Z)
00442bc0 000000b0 .text             HotlineNews.cp(?GetSelectedCategoryPath@CMyNewsCategoryTreeView@@QAEPAXAAKPAUSGUID@@@Z)
00442c70 000000b3 .text             HotlineNews.cp(?GetSelectedItemName@CMyNewsCategoryTreeView@@QAEGPAEPAUSGUID@@@Z)
00442d30 000000a6 .text             HotlineNews.cp(?DeletePath@CMyNewsCategoryTreeView@@QAEXPBXK@Z)
00442de0 00000056 .text             HotlineNews.cp(?DeleteAll@CMyNewsCategoryTreeView@@QAEXXZ)
00442e40 00000074 .text             HotlineNews.cp(?KeyDown@CMyNewsCategoryTreeView@@UAE_NABUSKeyMsgData@@@Z)
00442ec0 000000b9 .text             HotlineNews.cp(?SelectionChanged@CMyNewsCategoryTreeView@@UAEXKPAUSNewsCatItm@@_N@Z)
00442f80 000000fd .text             HotlineNews.cp(?DisclosureChanged@CMyNewsCategoryTreeView@@UAEXKPAUSNewsCatItm@@E@Z)
00443080 0000021e .text             HotlineNews.cp(?GetBundleIndex@CMyNewsCategoryTreeView@@IAE_NPBXKAAK@Z)
004432a0 0000031b .text             HotlineNews.cp(?GetBundlePath@CMyNewsCategoryTreeView@@IAEPAXAAK0@Z)
004435c0 000002a6 .text             HotlineNews.cp(?ItemDraw@CMyNewsCategoryTreeView@@MAEXKKPAUSNewsCatItm@@PAUSTreeViewItem@@PAVTImageObj@@ABV?$CPtrList@VSRect@@@@K@Z)
00443870 000000b4 .text             HotlineNews.cp(?CompareNames@CMyNewsCategoryTreeView@@KAJPAX00@Z)
00443930 00000071 .text             HotlineNews.cp(??0CMyNewsCategoryWin@@QAE@PAVCContainerView@@ABVSRect@@@Z)
004439b0 00000402 .text             HotlineNews.cp(?BuildButtons@CMyNewsCategoryWin@@QAEXABVSRect@@PAVCContainerView@@@Z)
00443dc0 0000007a .text             HotlineNews.cp(?GetNewsContent@CMyNewsCategoryWin@@QAEXPBXK@Z)
00443e40 00000140 .text             HotlineNews.cp(?SetNewsAccess@CMyNewsCategoryWin@@QAEXPBEPBXKG@Z)
00443f80 0000003f .text             HotlineNews.cp(?DoOpenParent@CMyNewsCategoryWin@@UAEXG@Z)
00443fc0 000000e1 .text             HotlineNews.cp(?DoDoubleClick@CMyNewsCategoryWin@@UAEXG@Z)
004440b0 00000025 .text             HotlineNews.cp(?News_KeyDown@CMyNewsCategoryWin@@IAE_NABUSKeyMsgData@@@Z)
004440e0 000002b3 .text             HotlineNews.cp(??0CMyNewsCategoryListWin@@QAE@PAVCWindow@@PAVTPtrObj@@KK@Z)
004443a0 00000034 .text             HotlineNews.cp(??1CMyNewsCategoryWin@@UAE@XZ)
004443e0 000000b2 .text             HotlineNews.cp(??1CMyNewsCategoryListWin@@UAE@XZ)
004444a0 00000044 .text             HotlineNews.cp(?GetContent@CMyNewsCategoryListWin@@UAEXXZ)
004444f0 000000bc .text             HotlineNews.cp(?SetContent@CMyNewsCategoryListWin@@UAEXPBXKPAVTFieldDataObj@@_N@Z)
004445b0 00000073 .text             HotlineNews.cp(?SetAccess@CMyNewsCategoryListWin@@UAEXXZ)
00444630 000000b1 .text             HotlineNews.cp(?SetBoundsInfo@CMyNewsCategoryListWin@@UAEXXZ)
004446f0 00000064 .text             HotlineNews.cp(?GetBoundsInfo@CMyNewsCategoryListWin@@UAEXXZ)
00444760 00000028 .text             HotlineNews.cp(?GetSelectedItemName@CMyNewsCategoryListWin@@UAEGPAEPAUSGUID@@@Z)
00444790 00000032 .text             HotlineNews.cp(?GetSelectedParentBundlePath@CMyNewsCategoryListWin@@UAEPAXAAKPA_N@Z)
004447d0 0000004c .text             HotlineNews.cp(?DoNewCategory@CMyNewsCategoryListWin@@UAEXXZ)
00444820 0000004c .text             HotlineNews.cp(?DoNewFolder@CMyNewsCategoryListWin@@UAEXXZ)
00444870 00000068 .text             HotlineNews.cp(?DoRefresh@CMyNewsCategoryListWin@@UAEXG@Z)
004448e0 000000b1 .text             HotlineNews.cp(?DoDelete@CMyNewsCategoryListWin@@UAEXXZ)
004449a0 00000036 .text             HotlineNews.cp(?KeyDown@CMyNewsCategoryListWin@@UAEXABUSKeyMsgData@@@Z)
004449e0 0000007f .text             HotlineNews.cp(?SearchText@CMyNewsCategoryListWin@@MAEXPBE@Z)
00444a60 000002c3 .text             HotlineNews.cp(??0CMyNewsCategoryTreeWin@@QAE@PAVCWindow@@PAVTPtrObj@@KK@Z)
00444d30 0000004f .text             HotlineNews.cp(??1?$CMyItemsTreeWin@USNewsCatItm@@@@UAE@XZ)
00444d80 000000b2 .text             HotlineNews.cp(??1CMyNewsCategoryTreeWin@@UAE@XZ)
00444e40 00000044 .text             HotlineNews.cp(?GetContent@CMyNewsCategoryTreeWin@@UAEXXZ)
00444e90 000000c8 .text             HotlineNews.cp(?SetContent@CMyNewsCategoryTreeWin@@UAEXPBXKPAVTFieldDataObj@@_N@Z)
00444f60 0000009b .text             HotlineNews.cp(?SetAccess@CMyNewsCategoryTreeWin@@UAEXXZ)
00445000 000000b1 .text             HotlineNews.cp(?SetBoundsInfo@CMyNewsCategoryTreeWin@@UAEXXZ)
004450c0 00000064 .text             HotlineNews.cp(?GetBoundsInfo@CMyNewsCategoryTreeWin@@UAEXXZ)
00445130 00000028 .text             HotlineNews.cp(?GetSelectedItemName@CMyNewsCategoryTreeWin@@UAEGPAEPAUSGUID@@@Z)
00445160 00000031 .text             HotlineNews.cp(?GetSelectedParentBundlePath@CMyNewsCategoryTreeWin@@UAEPAXAAKPA_N@Z)
004451a0 00000025 .text             HotlineNews.cp(?GetSelectedBundlePath@CMyNewsCategoryTreeWin@@QAEPAXAAK@Z)
004451d0 00000047 .text             HotlineNews.cp(?DoNewCategory@CMyNewsCategoryTreeWin@@UAEXXZ)
00445220 00000047 .text             HotlineNews.cp(?DoNewFolder@CMyNewsCategoryTreeWin@@UAEXXZ)
00445270 00000088 .text             HotlineNews.cp(?DoRefresh@CMyNewsCategoryTreeWin@@UAEXG@Z)
00445300 000000bd .text             HotlineNews.cp(?DoDelete@CMyNewsCategoryTreeWin@@UAEXXZ)
004453c0 00000036 .text             HotlineNews.cp(?KeyDown@CMyNewsCategoryTreeWin@@UAEXABUSKeyMsgData@@@Z)
00445400 0000006c .text             HotlineNews.cp(?SearchText@CMyNewsCategoryTreeWin@@MAEXPBE@Z)
00445470 00000990 .text             HotlineNews.cp(??0CMyNewsCategoryExplWin@@QAE@PAVCWindow@@PAVTPtrObj@@KK@Z)
00445e00 000000ca .text             HotlineNews.cp(??1CMyNewsCategoryExplWin@@UAE@XZ)
00445ed0 00000084 .text             HotlineNews.cp(?GetContent@CMyNewsCategoryExplWin@@UAEXXZ)
00445f60 00000184 .text             HotlineNews.cp(?GetContentArticleList@CMyNewsCategoryExplWin@@QAEXXZ)
004460f0 00000047 .text             HotlineNews.cp(?GetContentArticleListTimer@CMyNewsCategoryExplWin@@QAEXXZ)
00446140 000000be .text             HotlineNews.cp(?GetContentArticleText@CMyNewsCategoryExplWin@@QAEXXZ)
00446200 00000047 .text             HotlineNews.cp(?GetContentArticleTextTimer@CMyNewsCategoryExplWin@@QAEXXZ)
00446250 000000c8 .text             HotlineNews.cp(?SetContent@CMyNewsCategoryExplWin@@UAEXPBXKPAVTFieldDataObj@@_N@Z)
00446320 00000119 .text             HotlineNews.cp(?SetContentArticleList@CMyNewsCategoryExplWin@@QAEXPBXKPAVTFieldDataObj@@_N@Z)
00446440 00000205 .text             HotlineNews.cp(?SetContentArticleText@CMyNewsCategoryExplWin@@QAEXPBXKKPAVTFieldDataObj@@@Z)
00446650 000000a2 .text             HotlineNews.cp(?SetCurrentArticle@CMyNewsCategoryExplWin@@QAEXPBXKKK@Z)
00446700 000000a2 .text             HotlineNews.cp(?SelectArticle@CMyNewsCategoryExplWin@@QAEXPBXKK@Z)
004467b0 0000004d .text             HotlineNews.cp(?SetTextColor@CMyNewsCategoryExplWin@@QAEXABUSMyColorInfo@@@Z)
00446800 000001af .text             HotlineNews.cp(?SetAccess@CMyNewsCategoryExplWin@@UAEXXZ)
004469b0 00000134 .text             HotlineNews.cp(?SetBoundsInfo@CMyNewsCategoryExplWin@@UAEXXZ)
00446af0 000000d4 .text             HotlineNews.cp(?GetBoundsInfo@CMyNewsCategoryExplWin@@UAEXXZ)
00446bd0 00000028 .text             HotlineNews.cp(?GetSelectedItemName@CMyNewsCategoryExplWin@@UAEGPAEPAUSGUID@@@Z)
00446c00 00000028 .text             HotlineNews.cp(?GetSelectedCategoryPath@CMyNewsCategoryExplWin@@QAEPAXAAKPAUSGUID@@@Z)
00446c30 00000031 .text             HotlineNews.cp(?GetSelectedParentBundlePath@CMyNewsCategoryExplWin@@UAEPAXAAKPA_N@Z)
00446c70 00000025 .text             HotlineNews.cp(?GetSelectedBundlePath@CMyNewsCategoryExplWin@@QAEPAXAAK@Z)
00446ca0 0000009e .text             HotlineNews.cp(?DoNewArticle@CMyNewsCategoryExplWin@@QAEXXZ)
00446d40 0000012b .text             HotlineNews.cp(?DoOpenArticle@CMyNewsCategoryExplWin@@QAEXXZ)
00446e70 000000dd .text             HotlineNews.cp(?DoReplyArticle@CMyNewsCategoryExplWin@@QAEXXZ)
00446f50 00000047 .text             HotlineNews.cp(?DoNewCategory@CMyNewsCategoryExplWin@@UAEXXZ)
00446fa0 00000047 .text             HotlineNews.cp(?DoNewFolder@CMyNewsCategoryExplWin@@UAEXXZ)
00446ff0 000000f7 .text             HotlineNews.cp(?DoRefresh@CMyNewsCategoryExplWin@@UAEXG@Z)
004470f0 00000162 .text             HotlineNews.cp(?DoDelete@CMyNewsCategoryExplWin@@UAEXXZ)
00447260 0000005c .text             HotlineNews.cp(?KeyDown@CMyNewsCategoryExplWin@@UAEXABUSKeyMsgData@@@Z)
004472c0 0000003d .text             HotlineNews.cp(?Timer@CMyNewsCategoryExplWin@@UAEXPAVTTimerObj@@@Z)
00447300 000000dc .text             HotlineNews.cp(?SearchText@CMyNewsCategoryExplWin@@MAEXPBE@Z)
004473e0 00000e2a .text             HotlineNews.cp(??0CMyNewsArticTextWin@@QAE@PAVCWindow@@PAVCNZReadList@@_NKPAVTPtrObj@@KKK@Z)
00448210 00000054 .text             HotlineNews.cp(??1CMyNewsArticTextWin@@UAE@XZ)
00448270 000000ce .text             HotlineNews.cp(?CanClose@CMyNewsArticTextWin@@QAE_NXZ)
00448340 00000132 .text             HotlineNews.cp(?KeyDown@CMyNewsArticTextWin@@UAEXABUSKeyMsgData@@@Z)
00448480 000000fd .text             HotlineNews.cp(?DoReplyArticle@CMyNewsArticTextWin@@QAEXXZ)
00448580 000000c1 .text             HotlineNews.cp(?FindWindowByPathAndID@CMyNewsArticTextWin@@SAPAV1@KPBXKK@Z)
00448650 0000006f .text             HotlineNews.cp(?TitleChanged@CMyNewsArticTextWin@@QAEXXZ)
004486c0 00000068 .text             HotlineNews.cp(?StateChanged@CMyNewsArticTextWin@@UAEXXZ)
00448730 00000321 .text             HotlineNews.cp(?SetContentsFromFields@CMyNewsArticTextWin@@QAEXPAVTFieldDataObj@@@Z)
00448a60 00000089 .text             HotlineNews.cp(?SetMyTitle@CMyNewsArticTextWin@@QAEXPBE@Z)
00448af0 00000065 .text             HotlineNews.cp(?SetAccess@CMyNewsArticTextWin@@QAEXXZ)
00448b60 0000006c .text             HotlineNews.cp(?SetArticID@CMyNewsArticTextWin@@QAEXK@Z)
00448bd0 0000003d .text             HotlineNews.cp(?SetPrevArticID@CMyNewsArticTextWin@@QAEXK@Z)
00448c10 0000003d .text             HotlineNews.cp(?SetNextArticID@CMyNewsArticTextWin@@QAEXK@Z)
00448c50 0000003d .text             HotlineNews.cp(?SetParentID@CMyNewsArticTextWin@@QAEXK@Z)
00448c90 0000003d .text             HotlineNews.cp(?SetFirstChildID@CMyNewsArticTextWin@@QAEXK@Z)
00448cd0 0000004d .text             HotlineNews.cp(?SetTextColor@CMyNewsArticTextWin@@QAEXABUSMyColorInfo@@@Z)
00448d20 00000438 .text             HotlineNews.cp(??0CMyNewNewsCatWin@@QAE@XZ)
00449160 00000050 .text             HotlineNews.cp(?UpdateCreateButton@CMyNewNewsCatWin@@QAEXXZ)
004491b0 00000061 .text             HotlineNews.cp(??_ECMyNewNewsCatWin@@UAE@I@Z)
00449220 00000027 .text             HotlineNews.cp(??1CMyNewNewsCatWin@@UAE@XZ)
00449250 00000058 .text             HotlineNews.cp(??_ECMyNewsCategoryExplWin@@UAE@I@Z)
004492b0 00000089 .text             HotlineNews.cp(??_E?$CMyItemsTreeWin@USNewsCatItm@@@@UAE@I@Z)
00449340 00000058 .text             HotlineNews.cp(??_ECMyNewsCategoryTreeWin@@UAE@I@Z)
004493a0 00000058 .text             HotlineNews.cp(??_ECMyNewsCategoryListWin@@UAE@I@Z)
00449400 0000006e .text             HotlineNews.cp(??_ECMyNewsCategoryWin@@UAE@I@Z)
00449470 00000058 .text             HotlineNews.cp(??_ECMyNewsCategoryTreeView@@UAE@I@Z)
004494d0 00000058 .text             HotlineNews.cp(??_ECMyNewsCategoryListView@@UAE@I@Z)
00449530 00000089 .text             HotlineNews.cp(??_E?$CMyItemsTreeWin@USMyNewsArticle@@@@UAE@I@Z)
004495c0 00000058 .text             HotlineNews.cp(??_ECMyNewsArticleTreeView@@UAE@I@Z)
00449620 0000004c .text             HotlineNews.cp(??0?$CMyItemsTreeWin@USNewsCatItm@@@@QAE@PAVCWindow@@ABVSRect@@PAVTPtrObj@@KK@Z)
00449670 0000002c .text             HotlineNews.cp(?SetStatus@?$CMyItemsTreeWin@USNewsCatItm@@@@UAEXK@Z)
004496a0 0000008b .text             HotlineNews.cp(?UserZoom@?$CMyItemsTreeWin@USNewsCatItm@@@@UAEXABUSMouseMsgData@@@Z)
00449730 0000004c .text             HotlineNews.cp(??0?$CMyItemsTreeWin@USMyNewsArticle@@@@QAE@PAVCWindow@@ABVSRect@@PAVTPtrObj@@KK@Z)
00449780 0000002c .text             HotlineNews.cp(?SetStatus@?$CMyItemsTreeWin@USMyNewsArticle@@@@UAEXK@Z)
004497b0 0000008b .text             HotlineNews.cp(?UserZoom@?$CMyItemsTreeWin@USMyNewsArticle@@@@UAEXABUSMouseMsgData@@@Z)
00449840 0000007d .text             HotlineNews.cp(?SetStatus@?$CMyTreeStatusView@USNewsCatItm@@@@QAEXK@Z)
004498c0 00000094 .text             HotlineNews.cp(?GetFullHeight@?$CMyTreeStatusView@USNewsCatItm@@@@UBEKXZ)
00449960 0000013d .text             HotlineNews.cp(?Draw@?$CMyTreeStatusView@USNewsCatItm@@@@UAEXPAVTImageObj@@ABVSRect@@K@Z)
00449aa0 0000007d .text             HotlineNews.cp(?SetStatus@?$CMyTreeStatusView@USMyNewsArticle@@@@QAEXK@Z)
00449b20 00000094 .text             HotlineNews.cp(?GetFullHeight@?$CMyTreeStatusView@USMyNewsArticle@@@@UBEKXZ)
00449bc0 0000013d .text             HotlineNews.cp(?Draw@?$CMyTreeStatusView@USMyNewsArticle@@@@UAEXPAVTImageObj@@ABVSRect@@K@Z)
00449d00 0000003a .text             HotlineNews.cp(?SetBounds@?$CTabbedTreeView@USNewsCatItm@@@@UAE_NABVSRect@@@Z)
00449d40 00000054 .text             HotlineNews.cp(?MouseDown@?$CTabbedTreeView@USNewsCatItm@@@@UAEXABUSMouseMsgData@@@Z)
00449da0 00000054 .text             HotlineNews.cp(?MouseUp@?$CTabbedTreeView@USNewsCatItm@@@@UAEXABUSMouseMsgData@@@Z)
00449e00 00000031 .text             HotlineNews.cp(?MouseMove@?$CTabbedTreeView@USNewsCatItm@@@@UAEXABUSMouseMsgData@@@Z)
00449e40 00000031 .text             HotlineNews.cp(?MouseLeave@?$CTabbedTreeView@USNewsCatItm@@@@UAEXABUSMouseMsgData@@@Z)
00449e80 0000004c .text             HotlineNews.cp(?ItemMouseDown@?$CTabbedTreeView@USNewsCatItm@@@@MAEXKABUSMouseMsgData@@@Z)
00449ed0 0000004c .text             HotlineNews.cp(?ItemMouseUp@?$CTabbedTreeView@USNewsCatItm@@@@MAEXKABUSMouseMsgData@@@Z)
00449f20 0000004c .text             HotlineNews.cp(?ItemMouseEnter@?$CTabbedTreeView@USNewsCatItm@@@@MAEXKABUSMouseMsgData@@@Z)
00449f70 0000004c .text             HotlineNews.cp(?ItemMouseMove@?$CTabbedTreeView@USNewsCatItm@@@@MAEXKABUSMouseMsgData@@@Z)
00449fc0 0000004c .text             HotlineNews.cp(?ItemMouseLeave@?$CTabbedTreeView@USNewsCatItm@@@@MAEXKABUSMouseMsgData@@@Z)
0044a010 0000002e .text             HotlineNews.cp(?RefreshTabView@?$CTabbedTreeView@USNewsCatItm@@@@MAEXXZ)
0044a040 00000044 .text             HotlineNews.cp(?GetTabViewBounds@?$CTabbedTreeView@USNewsCatItm@@@@MAEXAAVSRect@@@Z)
0044a090 00000071 .text             HotlineNews.cp(?GetTabViewScrollPos@?$CTabbedTreeView@USNewsCatItm@@@@MAEXAAK0@Z)
0044a110 0000001d .text             HotlineNews.cp(?GetTabHeight@?$CTabbedTreeView@USNewsCatItm@@@@MBEKXZ)
0044a130 0000003a .text             HotlineNews.cp(?SetBounds@?$CTabbedTreeView@USMyNewsArticle@@@@UAE_NABVSRect@@@Z)
0044a170 00000054 .text             HotlineNews.cp(?MouseDown@?$CTabbedTreeView@USMyNewsArticle@@@@UAEXABUSMouseMsgData@@@Z)
0044a1d0 00000054 .text             HotlineNews.cp(?MouseUp@?$CTabbedTreeView@USMyNewsArticle@@@@UAEXABUSMouseMsgData@@@Z)
0044a230 00000031 .text             HotlineNews.cp(?MouseMove@?$CTabbedTreeView@USMyNewsArticle@@@@UAEXABUSMouseMsgData@@@Z)
0044a270 00000031 .text             HotlineNews.cp(?MouseLeave@?$CTabbedTreeView@USMyNewsArticle@@@@UAEXABUSMouseMsgData@@@Z)
0044a2b0 0000004c .text             HotlineNews.cp(?ItemMouseDown@?$CTabbedTreeView@USMyNewsArticle@@@@MAEXKABUSMouseMsgData@@@Z)
0044a300 0000004c .text             HotlineNews.cp(?ItemMouseUp@?$CTabbedTreeView@USMyNewsArticle@@@@MAEXKABUSMouseMsgData@@@Z)
0044a350 0000004c .text             HotlineNews.cp(?ItemMouseEnter@?$CTabbedTreeView@USMyNewsArticle@@@@MAEXKABUSMouseMsgData@@@Z)
0044a3a0 0000004c .text             HotlineNews.cp(?ItemMouseMove@?$CTabbedTreeView@USMyNewsArticle@@@@MAEXKABUSMouseMsgData@@@Z)
0044a3f0 0000004c .text             HotlineNews.cp(?ItemMouseLeave@?$CTabbedTreeView@USMyNewsArticle@@@@MAEXKABUSMouseMsgData@@@Z)
0044a440 0000002e .text             HotlineNews.cp(?RefreshTabView@?$CTabbedTreeView@USMyNewsArticle@@@@MAEXXZ)
0044a470 00000044 .text             HotlineNews.cp(?GetTabViewBounds@?$CTabbedTreeView@USMyNewsArticle@@@@MAEXAAVSRect@@@Z)
0044a4c0 00000071 .text             HotlineNews.cp(?GetTabViewScrollPos@?$CTabbedTreeView@USMyNewsArticle@@@@MAEXAAK0@Z)
0044a540 0000001d .text             HotlineNews.cp(?GetTabHeight@?$CTabbedTreeView@USMyNewsArticle@@@@MBEKXZ)
0044a560 000000e8 .text             HotlineNews.cp(?AddTreeItem@?$CTreeView@USNewsCatItm@@@@QAEKKPAUSNewsCatItm@@_N@Z)
0044a650 0000012d .text             HotlineNews.cp(?RemoveChildTree@?$CTreeView@USNewsCatItm@@@@QAE_NK@Z)
0044a780 000000be .text             HotlineNews.cp(?ClearTree@?$CTreeView@USNewsCatItm@@@@QAEXXZ)
0044a840 0000003f .text             HotlineNews.cp(?GetTreeItem@?$CTreeView@USNewsCatItm@@@@QBEPAUSNewsCatItm@@K@Z)
0044a880 00000025 .text             HotlineNews.cp(?GetTreeItemLevel@?$CTreeView@USNewsCatItm@@@@QBEKK@Z)
0044a8b0 00000042 .text             HotlineNews.cp(?GetParentTreeItem@?$CTreeView@USNewsCatItm@@@@QBEPAUSNewsCatItm@@KPAK@Z)
0044a900 00000025 .text             HotlineNews.cp(?GetParentTreeIndex@?$CTreeView@USNewsCatItm@@@@QBEKK@Z)
0044a930 00000020 .text             HotlineNews.cp(?GetTreeCount@?$CTreeView@USNewsCatItm@@@@QBEKXZ)
0044a950 00000025 .text             HotlineNews.cp(?GetChildTreeCount@?$CTreeView@USNewsCatItm@@@@QBEKK@Z)
0044a980 0000004e .text             HotlineNews.cp(?GetNextTreeItem@?$CTreeView@USNewsCatItm@@@@QBE_NAAPAUSNewsCatItm@@AAK_N@Z)
0044a9d0 00000055 .text             HotlineNews.cp(?GetNextVisibleTreeItem@?$CTreeView@USNewsCatItm@@@@QBE_NAAPAUSNewsCatItm@@AAK@Z)
0044aa30 0000009b .text             HotlineNews.cp(?SelectTreeItem@?$CTreeView@USNewsCatItm@@@@QAE_NK_N@Z)
0044aad0 00000058 .text             HotlineNews.cp(?GetFirstSelectedTreeItem@?$CTreeView@USNewsCatItm@@@@QBEKXZ)
0044ab30 00000045 .text             HotlineNews.cp(?MakeTreeItemVisibleInList@?$CTreeView@USNewsCatItm@@@@QAE_NKG@Z)
0044ab80 0000008e .text             HotlineNews.cp(?DeselectAllTreeItems@?$CTreeView@USNewsCatItm@@@@QAEXXZ)
0044ac10 00000109 .text             HotlineNews.cp(?Collapse@?$CTreeView@USNewsCatItm@@@@IAEXKKPAUSTreeViewItem@@@Z)
0044ad20 000000dd .text             HotlineNews.cp(?Disclose@?$CTreeView@USNewsCatItm@@@@IAEXKAAKPAUSTreeViewItem@@@Z)
0044ae00 000000f6 .text             HotlineNews.cp(?SetDisclosure@?$CTreeView@USNewsCatItm@@@@QAE_NKE@Z)
0044af00 0000003c .text             HotlineNews.cp(?GetDisclosure@?$CTreeView@USNewsCatItm@@@@QAEEK@Z)
0044af40 0000003c .text             HotlineNews.cp(?GetFullSize@?$CTreeView@USNewsCatItm@@@@UBEXAAK0@Z)
0044af80 0000006a .text             HotlineNews.cp(?GetFullHeight@?$CTreeView@USNewsCatItm@@@@UBEKXZ)
0044aff0 0000001f .text             HotlineNews.cp(?GetFullWidth@?$CTreeView@USNewsCatItm@@@@UBEKXZ)
0044b010 0000007a .text             HotlineNews.cp(?Sort@?$CTreeView@USNewsCatItm@@@@QAEXKP6AJPAX00@Z0@Z)
0044b090 000000ec .text             HotlineNews.cp(?GetTreeItemRect@?$CTreeView@USNewsCatItm@@@@UBE_NKAAVSRect@@@Z)
0044b180 00000050 .text             HotlineNews.cp(?GetSelectedTreeItemsRect@?$CTreeView@USNewsCatItm@@@@UBE_NAAVSRect@@@Z)
0044b1d0 00000040 .text             HotlineNews.cp(?PointToTreeItem@?$CTreeView@USNewsCatItm@@@@UBEKABVSPoint@@@Z)
0044b210 00000161 .text             HotlineNews.cp(?Draw@?$CTreeView@USNewsCatItm@@@@UAEXPAVTImageObj@@ABVSRect@@K@Z)
0044b380 00000020 .text             HotlineNews.cp(?DragEnter@?$CTreeView@USNewsCatItm@@@@UAEXABUSDragMsgData@@@Z)
0044b3a0 00000020 .text             HotlineNews.cp(?DragLeave@?$CTreeView@USNewsCatItm@@@@UAEXABUSDragMsgData@@@Z)
0044b3c0 00000210 .text             HotlineNews.cp(?MouseDown@?$CTreeView@USNewsCatItm@@@@UAEXABUSMouseMsgData@@@Z)
0044b5d0 000001aa .text             HotlineNews.cp(?KeyDown@?$CTreeView@USNewsCatItm@@@@UAE_NABUSKeyMsgData@@@Z)
0044b780 00000015 .text             HotlineNews.cp(?VisibilityChanged@?$CTreeView@USNewsCatItm@@@@UAEXKPAUSNewsCatItm@@_N@Z)
0044b7a0 00000015 .text             HotlineNews.cp(?SelectionChanged@?$CTreeView@USNewsCatItm@@@@UAEXKPAUSNewsCatItm@@_N@Z)
0044b7c0 00000015 .text             HotlineNews.cp(?DisclosureChanged@?$CTreeView@USNewsCatItm@@@@UAEXKPAUSNewsCatItm@@E@Z)
0044b7e0 0000003c .text             HotlineNews.cp(?IsValidItem@?$CTreeView@USNewsCatItm@@@@MBE_NK@Z)
0044b820 00000036 .text             HotlineNews.cp(?GetNextItem@?$CTreeView@USNewsCatItm@@@@MBE_NAAK@Z)
0044b860 00000073 .text             HotlineNews.cp(?GetPrevItem@?$CTreeView@USNewsCatItm@@@@MBE_NAAK@Z)
0044b8e0 00000019 .text             HotlineNews.cp(?GetItemCount@?$CTreeView@USNewsCatItm@@@@MBEKXZ)
0044b900 00000081 .text             HotlineNews.cp(?SetItemSelect@?$CTreeView@USNewsCatItm@@@@MAEXK_N@Z)
0044b990 0000003b .text             HotlineNews.cp(?IsItemSelected@?$CTreeView@USNewsCatItm@@@@MBE_NK@Z)
0044b9d0 00000026 .text             HotlineNews.cp(?GetFirstSelectedItem@?$CTreeView@USNewsCatItm@@@@MBEKXZ)
0044ba00 00000026 .text             HotlineNews.cp(?GetLastSelectedItem@?$CTreeView@USNewsCatItm@@@@MBEKXZ)
0044ba30 00000122 .text             HotlineNews.cp(?SetItemRangeSelect@?$CTreeView@USNewsCatItm@@@@MAEXKK_N@Z)
0044bb60 00000073 .text             HotlineNews.cp(?GetItemRect@?$CTreeView@USNewsCatItm@@@@MBEXKAAVSRect@@@Z)
0044bbe0 000000ee .text             HotlineNews.cp(?GetSelectedItemsRect@?$CTreeView@USNewsCatItm@@@@MBEXAAVSRect@@@Z)
0044bcd0 00000090 .text             HotlineNews.cp(?PointToItem@?$CTreeView@USNewsCatItm@@@@MBEKABVSPoint@@@Z)
0044bd60 00000316 .text             HotlineNews.cp(?ItemDraw@?$CTreeView@USNewsCatItm@@@@MAEXKPAVTImageObj@@ABVSRect@@1K@Z)
0044c080 00000015 .text             HotlineNews.cp(?ItemDraw@?$CTreeView@USNewsCatItm@@@@MAEXKKPAUSNewsCatItm@@PAUSTreeViewItem@@PAVTImageObj@@ABVSRect@@3K@Z)
0044c0a0 00000046 .text             HotlineNews.cp(?ItemMouseDown@?$CTreeView@USNewsCatItm@@@@MAEXKABUSMouseMsgData@@@Z)
0044c0f0 00000046 .text             HotlineNews.cp(?ItemMouseUp@?$CTreeView@USNewsCatItm@@@@MAEXKABUSMouseMsgData@@@Z)
0044c140 00000046 .text             HotlineNews.cp(?ItemMouseEnter@?$CTreeView@USNewsCatItm@@@@MAEXKABUSMouseMsgData@@@Z)
0044c190 00000046 .text             HotlineNews.cp(?ItemMouseMove@?$CTreeView@USNewsCatItm@@@@MAEXKABUSMouseMsgData@@@Z)
0044c1e0 00000046 .text             HotlineNews.cp(?ItemMouseLeave@?$CTreeView@USNewsCatItm@@@@MAEXKABUSMouseMsgData@@@Z)
0044c230 00000015 .text             HotlineNews.cp(?TreeItemMouseDown@?$CTreeView@USNewsCatItm@@@@MAEXKABUSMouseMsgData@@@Z)
0044c250 00000015 .text             HotlineNews.cp(?TreeItemMouseUp@?$CTreeView@USNewsCatItm@@@@MAEXKABUSMouseMsgData@@@Z)
0044c270 00000015 .text             HotlineNews.cp(?TreeItemMouseEnter@?$CTreeView@USNewsCatItm@@@@MAEXKABUSMouseMsgData@@@Z)
0044c290 00000015 .text             HotlineNews.cp(?TreeItemMouseMove@?$CTreeView@USNewsCatItm@@@@MAEXKABUSMouseMsgData@@@Z)
0044c2b0 00000015 .text             HotlineNews.cp(?TreeItemMouseLeave@?$CTreeView@USNewsCatItm@@@@MAEXKABUSMouseMsgData@@@Z)
0044c2d0 0000006f .text             HotlineNews.cp(?GetListItem@?$CTreeView@USNewsCatItm@@@@IBEPAUSTreeViewItem@@KPAK@Z)
0044c340 00000047 .text             HotlineNews.cp(?ConvertListToTree@?$CTreeView@USNewsCatItm@@@@IBEKK@Z)
0044c390 0000006c .text             HotlineNews.cp(?ConvertTreeToList@?$CTreeView@USNewsCatItm@@@@IBEKK@Z)
0044c400 00000095 .text             HotlineNews.cp(?ItemsInserted@?$CTreeView@USNewsCatItm@@@@MAEXKK@Z)
0044c4a0 00000095 .text             HotlineNews.cp(?ItemsRemoved@?$CTreeView@USNewsCatItm@@@@MAEXKK@Z)
0044c540 0000004a .text             HotlineNews.cp(?CompareItemsProc@?$CTreeView@USNewsCatItm@@@@KAJPAX00@Z)
0044c590 00000135 .text             HotlineNews.cp(?ComposeListIndex@?$CTreeView@USNewsCatItm@@@@IAEXXZ)
0044c6d0 000000e8 .text             HotlineNews.cp(?AddTreeItem@?$CTreeView@USMyNewsArticle@@@@QAEKKPAUSMyNewsArticle@@_N@Z)
0044c7c0 000000be .text             HotlineNews.cp(?ClearTree@?$CTreeView@USMyNewsArticle@@@@QAEXXZ)
0044c880 0000003f .text             HotlineNews.cp(?GetTreeItem@?$CTreeView@USMyNewsArticle@@@@QBEPAUSMyNewsArticle@@K@Z)
0044c8c0 00000025 .text             HotlineNews.cp(?GetTreeItemLevel@?$CTreeView@USMyNewsArticle@@@@QBEKK@Z)
0044c8f0 00000020 .text             HotlineNews.cp(?GetTreeCount@?$CTreeView@USMyNewsArticle@@@@QBEKXZ)
0044c910 00000025 .text             HotlineNews.cp(?GetChildTreeCount@?$CTreeView@USMyNewsArticle@@@@QBEKK@Z)
0044c940 0000004e .text             HotlineNews.cp(?GetNextTreeItem@?$CTreeView@USMyNewsArticle@@@@QBE_NAAPAUSMyNewsArticle@@AAK_N@Z)
0044c990 00000055 .text             HotlineNews.cp(?GetNextVisibleTreeItem@?$CTreeView@USMyNewsArticle@@@@QBE_NAAPAUSMyNewsArticle@@AAK@Z)
0044c9f0 0000009b .text             HotlineNews.cp(?SelectTreeItem@?$CTreeView@USMyNewsArticle@@@@QAE_NK_N@Z)
0044ca90 00000058 .text             HotlineNews.cp(?GetFirstSelectedTreeItem@?$CTreeView@USMyNewsArticle@@@@QBEKXZ)
0044caf0 00000073 .text             HotlineNews.cp(?MakeTreeItemVisible@?$CTreeView@USMyNewsArticle@@@@QAE_NK@Z)
0044cb70 00000045 .text             HotlineNews.cp(?MakeTreeItemVisibleInList@?$CTreeView@USMyNewsArticle@@@@QAE_NKG@Z)
0044cbc0 0000008e .text             HotlineNews.cp(?DeselectAllTreeItems@?$CTreeView@USMyNewsArticle@@@@QAEXXZ)
0044cc50 000000f6 .text             HotlineNews.cp(?SetDisclosure@?$CTreeView@USMyNewsArticle@@@@QAE_NKE@Z)
0044cd50 0000003c .text             HotlineNews.cp(?GetFullSize@?$CTreeView@USMyNewsArticle@@@@UBEXAAK0@Z)
0044cd90 0000006a .text             HotlineNews.cp(?GetFullHeight@?$CTreeView@USMyNewsArticle@@@@UBEKXZ)
0044ce00 0000001f .text             HotlineNews.cp(?GetFullWidth@?$CTreeView@USMyNewsArticle@@@@UBEKXZ)
0044ce20 000000ec .text             HotlineNews.cp(?GetTreeItemRect@?$CTreeView@USMyNewsArticle@@@@UBE_NKAAVSRect@@@Z)
0044cf10 00000050 .text             HotlineNews.cp(?GetSelectedTreeItemsRect@?$CTreeView@USMyNewsArticle@@@@UBE_NAAVSRect@@@Z)
0044cf60 00000040 .text             HotlineNews.cp(?PointToTreeItem@?$CTreeView@USMyNewsArticle@@@@UBEKABVSPoint@@@Z)
0044cfa0 00000161 .text             HotlineNews.cp(?Draw@?$CTreeView@USMyNewsArticle@@@@UAEXPAVTImageObj@@ABVSRect@@K@Z)
0044d110 00000020 .text             HotlineNews.cp(?DragEnter@?$CTreeView@USMyNewsArticle@@@@UAEXABUSDragMsgData@@@Z)
0044d130 00000020 .text             HotlineNews.cp(?DragLeave@?$CTreeView@USMyNewsArticle@@@@UAEXABUSDragMsgData@@@Z)
0044d150 00000210 .text             HotlineNews.cp(?MouseDown@?$CTreeView@USMyNewsArticle@@@@UAEXABUSMouseMsgData@@@Z)
0044d360 000001aa .text             HotlineNews.cp(?KeyDown@?$CTreeView@USMyNewsArticle@@@@UAE_NABUSKeyMsgData@@@Z)
0044d510 00000015 .text             HotlineNews.cp(?VisibilityChanged@?$CTreeView@USMyNewsArticle@@@@UAEXKPAUSMyNewsArticle@@_N@Z)
0044d530 00000015 .text             HotlineNews.cp(?SelectionChanged@?$CTreeView@USMyNewsArticle@@@@UAEXKPAUSMyNewsArticle@@_N@Z)
0044d550 00000015 .text             HotlineNews.cp(?DisclosureChanged@?$CTreeView@USMyNewsArticle@@@@UAEXKPAUSMyNewsArticle@@E@Z)
0044d570 0000003c .text             HotlineNews.cp(?IsValidItem@?$CTreeView@USMyNewsArticle@@@@MBE_NK@Z)
0044d5b0 00000036 .text             HotlineNews.cp(?GetNextItem@?$CTreeView@USMyNewsArticle@@@@MBE_NAAK@Z)
0044d5f0 00000073 .text             HotlineNews.cp(?GetPrevItem@?$CTreeView@USMyNewsArticle@@@@MBE_NAAK@Z)
0044d670 00000019 .text             HotlineNews.cp(?GetItemCount@?$CTreeView@USMyNewsArticle@@@@MBEKXZ)
0044d690 00000081 .text             HotlineNews.cp(?SetItemSelect@?$CTreeView@USMyNewsArticle@@@@MAEXK_N@Z)
0044d720 0000003b .text             HotlineNews.cp(?IsItemSelected@?$CTreeView@USMyNewsArticle@@@@MBE_NK@Z)
0044d760 00000026 .text             HotlineNews.cp(?GetFirstSelectedItem@?$CTreeView@USMyNewsArticle@@@@MBEKXZ)
0044d790 00000026 .text             HotlineNews.cp(?GetLastSelectedItem@?$CTreeView@USMyNewsArticle@@@@MBEKXZ)
0044d7c0 00000122 .text             HotlineNews.cp(?SetItemRangeSelect@?$CTreeView@USMyNewsArticle@@@@MAEXKK_N@Z)
0044d8f0 00000073 .text             HotlineNews.cp(?GetItemRect@?$CTreeView@USMyNewsArticle@@@@MBEXKAAVSRect@@@Z)
0044d970 000000ee .text             HotlineNews.cp(?GetSelectedItemsRect@?$CTreeView@USMyNewsArticle@@@@MBEXAAVSRect@@@Z)
0044da60 00000090 .text             HotlineNews.cp(?PointToItem@?$CTreeView@USMyNewsArticle@@@@MBEKABVSPoint@@@Z)
0044daf0 00000316 .text             HotlineNews.cp(?ItemDraw@?$CTreeView@USMyNewsArticle@@@@MAEXKPAVTImageObj@@ABVSRect@@1K@Z)
0044de10 00000015 .text             HotlineNews.cp(?ItemDraw@?$CTreeView@USMyNewsArticle@@@@MAEXKKPAUSMyNewsArticle@@PAUSTreeViewItem@@PAVTImageObj@@ABVSRect@@3K@Z)
0044de30 00000046 .text             HotlineNews.cp(?ItemMouseDown@?$CTreeView@USMyNewsArticle@@@@MAEXKABUSMouseMsgData@@@Z)
0044de80 00000046 .text             HotlineNews.cp(?ItemMouseUp@?$CTreeView@USMyNewsArticle@@@@MAEXKABUSMouseMsgData@@@Z)
0044ded0 00000046 .text             HotlineNews.cp(?ItemMouseEnter@?$CTreeView@USMyNewsArticle@@@@MAEXKABUSMouseMsgData@@@Z)
0044df20 00000046 .text             HotlineNews.cp(?ItemMouseMove@?$CTreeView@USMyNewsArticle@@@@MAEXKABUSMouseMsgData@@@Z)
0044df70 00000046 .text             HotlineNews.cp(?ItemMouseLeave@?$CTreeView@USMyNewsArticle@@@@MAEXKABUSMouseMsgData@@@Z)
0044dfc0 00000015 .text             HotlineNews.cp(?TreeItemMouseDown@?$CTreeView@USMyNewsArticle@@@@MAEXKABUSMouseMsgData@@@Z)
0044dfe0 00000015 .text             HotlineNews.cp(?TreeItemMouseUp@?$CTreeView@USMyNewsArticle@@@@MAEXKABUSMouseMsgData@@@Z)
0044e000 00000015 .text             HotlineNews.cp(?TreeItemMouseEnter@?$CTreeView@USMyNewsArticle@@@@MAEXKABUSMouseMsgData@@@Z)
0044e020 00000015 .text             HotlineNews.cp(?TreeItemMouseMove@?$CTreeView@USMyNewsArticle@@@@MAEXKABUSMouseMsgData@@@Z)
0044e040 00000015 .text             HotlineNews.cp(?TreeItemMouseLeave@?$CTreeView@USMyNewsArticle@@@@MAEXKABUSMouseMsgData@@@Z)
0044e060 0000006f .text             HotlineNews.cp(?GetListItem@?$CTreeView@USMyNewsArticle@@@@IBEPAUSTreeViewItem@@KPAK@Z)
0044e0d0 00000047 .text             HotlineNews.cp(?ConvertListToTree@?$CTreeView@USMyNewsArticle@@@@IBEKK@Z)
0044e120 0000006c .text             HotlineNews.cp(?ConvertTreeToList@?$CTreeView@USMyNewsArticle@@@@IBEKK@Z)
0044e190 00000095 .text             HotlineNews.cp(?ItemsInserted@?$CTreeView@USMyNewsArticle@@@@MAEXKK@Z)
0044e230 00000095 .text             HotlineNews.cp(?ItemsRemoved@?$CTreeView@USMyNewsArticle@@@@MAEXKK@Z)
0044e2d0 00000135 .text             HotlineNews.cp(?ComposeListIndex@?$CTreeView@USMyNewsArticle@@@@IAEXXZ)
0044e410 000001be .text             HotlineNews.cp(?ItemDraw@?$CTabbedTreeView@USMyNewsArticle@@@@MAEXKKPAUSMyNewsArticle@@PAUSTreeViewItem@@PAVTImageObj@@ABVSRect@@3K@Z)
0044e5d0 000001be .text             HotlineNews.cp(?ItemDraw@?$CTabbedTreeView@USNewsCatItm@@@@MAEXKKPAUSNewsCatItm@@PAUSTreeViewItem@@PAVTImageObj@@ABVSRect@@3K@Z)
0044e790 00000095 .text             HotlineNews.cp(??1?$CMyTreeStatusView@USMyNewsArticle@@@@UAE@XZ)
0044e830 00000081 .text             HotlineNews.cp(??0?$CMyTreeStatusView@USMyNewsArticle@@@@QAE@PAVCViewHandler@@ABVSRect@@@Z)
0044e8c0 0000004c .text             HotlineNews.cp(??1?$CTabbedTreeView@USMyNewsArticle@@@@UAE@XZ)
0044e910 00000095 .text             HotlineNews.cp(??1?$CMyTreeStatusView@USNewsCatItm@@@@UAE@XZ)
0044e9b0 00000081 .text             HotlineNews.cp(??0?$CMyTreeStatusView@USNewsCatItm@@@@QAE@PAVCViewHandler@@ABVSRect@@@Z)
0044ea40 0000004c .text             HotlineNews.cp(??1?$CTabbedTreeView@USNewsCatItm@@@@UAE@XZ)
0044ea90 00000086 .text             HotlineNews.cp(??_E?$CTabbedTreeView@USNewsCatItm@@@@UAE@I@Z)
0044eb20 00000058 .text             HotlineNews.cp(??_E?$CMyTreeStatusView@USNewsCatItm@@@@UAE@I@Z)
0044eb80 00000086 .text             HotlineNews.cp(??_E?$CTabbedTreeView@USMyNewsArticle@@@@UAE@I@Z)
0044ec10 00000058 .text             HotlineNews.cp(??_E?$CMyTreeStatusView@USMyNewsArticle@@@@UAE@I@Z)
0044ec70 0000005f .text             HotlineNews.cp(??0?$CTabbedTreeView@USNewsCatItm@@@@QAE@PAVCViewHandler@@ABVSRect@@KK_N@Z)
0044ecd0 00000015 .text             HotlineNews.cp(?ItemDraw@?$CTabbedTreeView@USNewsCatItm@@@@MAEXKKPAUSNewsCatItm@@PAUSTreeViewItem@@PAVTImageObj@@ABV?$CPtrList@VSRect@@@@K@Z)
0044ecf0 0000005f .text             HotlineNews.cp(??0?$CTabbedTreeView@USMyNewsArticle@@@@QAE@PAVCViewHandler@@ABVSRect@@KK_N@Z)
0044ed50 00000015 .text             HotlineNews.cp(?ItemDraw@?$CTabbedTreeView@USMyNewsArticle@@@@MAEXKKPAUSMyNewsArticle@@PAUSTreeViewItem@@PAVTImageObj@@ABV?$CPtrList@VSRect@@@@K@Z)
0044ed70 00000062 .text             HotlineNews.cp(?GetLastSelectedTreeItem@?$CTreeView@USNewsCatItm@@@@QBEKXZ)
0044ede0 000000bd .text             HotlineNews.cp(?CollapseAllTreeItems@?$CTreeView@USNewsCatItm@@@@QAEXXZ)
0044eea0 000000b4 .text             HotlineNews.cp(?DiscloseAllTreeItems@?$CTreeView@USNewsCatItm@@@@QAEXXZ)
0044ef60 00000025 .text             HotlineNews.cp(?GetParentTreeIndex@?$CTreeView@USMyNewsArticle@@@@QBEKK@Z)
0044ef90 00000062 .text             HotlineNews.cp(?GetLastSelectedTreeItem@?$CTreeView@USMyNewsArticle@@@@QBEKXZ)
0044f000 00000109 .text             HotlineNews.cp(?Collapse@?$CTreeView@USMyNewsArticle@@@@IAEXKKPAUSTreeViewItem@@@Z)
0044f110 000000dd .text             HotlineNews.cp(?Disclose@?$CTreeView@USMyNewsArticle@@@@IAEXKAAKPAUSTreeViewItem@@@Z)
0044f1f0 000000bd .text             HotlineNews.cp(?CollapseAllTreeItems@?$CTreeView@USMyNewsArticle@@@@QAEXXZ)
0044f2b0 000000b4 .text             HotlineNews.cp(?DiscloseAllTreeItems@?$CTreeView@USMyNewsArticle@@@@QAEXXZ)
0044f370 000000ca .text             HotlineNews.cp(??1?$CTreeView@USMyNewsArticle@@@@UAE@XZ)
0044f440 000000a5 .text             HotlineNews.cp(??0?$CTreeView@USMyNewsArticle@@@@QAE@PAVCViewHandler@@ABVSRect@@KK@Z)
0044f4f0 000000ca .text             HotlineNews.cp(??1?$CTreeView@USNewsCatItm@@@@UAE@XZ)
0044f5c0 000000a5 .text             HotlineNews.cp(??0?$CTreeView@USNewsCatItm@@@@QAE@PAVCViewHandler@@ABVSRect@@KK@Z)
0044f670 00000058 .text             HotlineNews.cp(??_E?$CTreeView@USNewsCatItm@@@@UAE@I@Z)
0044f6d0 00000058 .text             HotlineNews.cp(??_E?$CTreeView@USMyNewsArticle@@@@UAE@I@Z)
0044f730 0000000b .text             HotlineNews.cp(@132@??_E?$CMyTreeStatusView@USMyNewsArticle@@@@UAE@I@Z)
0044f740 0000000b .text             HotlineNews.cp(@132@??_E?$CTabbedTreeView@USMyNewsArticle@@@@UAE@I@Z)
0044f750 0000000b .text             HotlineNews.cp(@132@??_E?$CMyTreeStatusView@USNewsCatItm@@@@UAE@I@Z)
0044f760 0000000b .text             HotlineNews.cp(@132@??_E?$CTabbedTreeView@USNewsCatItm@@@@UAE@I@Z)
0044f770 0000000b .text             HotlineNews.cp(@132@?GetTabViewScrollPos@?$CTabbedTreeView@USMyNewsArticle@@@@MAEXAAK0@Z)
0044f780 0000000b .text             HotlineNews.cp(@132@?GetTabViewBounds@?$CTabbedTreeView@USMyNewsArticle@@@@MAEXAAVSRect@@@Z)
0044f790 0000000b .text             HotlineNews.cp(@132@?RefreshTabView@?$CTabbedTreeView@USMyNewsArticle@@@@MAEXXZ)
0044f7a0 0000000b .text             HotlineNews.cp(@132@??_ECMyNewsArticleTreeView@@UAE@I@Z)
0044f7b0 00000008 .text             HotlineNews.cp(@20@??_ECMyNewsArticleTreeWin@@UAE@I@Z)
0044f7c0 00000008 .text             HotlineNews.cp(@48@?SearchText@CMyNewsArticleTreeWin@@MAEXPBE@Z)
0044f7d0 00000008 .text             HotlineNews.cp(@48@??_ECMyNewsArticleTreeWin@@UAE@I@Z)
0044f7e0 00000008 .text             HotlineNews.cp(@20@??_E?$CMyItemsTreeWin@USMyNewsArticle@@@@UAE@I@Z)
0044f7f0 00000008 .text             HotlineNews.cp(@100@??_ECMyNewsCategoryListView@@UAE@I@Z)
0044f800 0000000b .text             HotlineNews.cp(@132@?GetTabViewScrollPos@?$CTabbedTreeView@USNewsCatItm@@@@MAEXAAK0@Z)
0044f810 0000000b .text             HotlineNews.cp(@132@?GetTabViewBounds@?$CTabbedTreeView@USNewsCatItm@@@@MAEXAAVSRect@@@Z)
0044f820 0000000b .text             HotlineNews.cp(@132@?RefreshTabView@?$CTabbedTreeView@USNewsCatItm@@@@MAEXXZ)
0044f830 0000000b .text             HotlineNews.cp(@132@??_ECMyNewsCategoryTreeView@@UAE@I@Z)
0044f840 00000008 .text             HotlineNews.cp(@4@??_ECMyNewsCategoryWin@@UAE@I@Z)
0044f850 00000008 .text             HotlineNews.cp(@20@??_ECMyNewsCategoryListWin@@UAE@I@Z)
0044f860 00000008 .text             HotlineNews.cp(@52@?SearchText@CMyNewsCategoryListWin@@MAEXPBE@Z)
0044f870 00000008 .text             HotlineNews.cp(@52@??_ECMyNewsCategoryListWin@@UAE@I@Z)
0044f880 00000008 .text             HotlineNews.cp(@48@??_ECMyNewsCategoryListWin@@UAE@I@Z)
0044f890 00000008 .text             HotlineNews.cp(@48@?DoDelete@CMyNewsCategoryListWin@@UAEXXZ)
0044f8a0 00000008 .text             HotlineNews.cp(@48@?DoRefresh@CMyNewsCategoryListWin@@UAEXG@Z)
0044f8b0 00000008 .text             HotlineNews.cp(@48@?DoNewFolder@CMyNewsCategoryListWin@@UAEXXZ)
0044f8c0 00000008 .text             HotlineNews.cp(@48@?DoNewCategory@CMyNewsCategoryListWin@@UAEXXZ)
0044f8d0 00000008 .text             HotlineNews.cp(@48@?GetSelectedParentBundlePath@CMyNewsCategoryListWin@@UAEPAXAAKPA_N@Z)
0044f8e0 00000008 .text             HotlineNews.cp(@48@?GetSelectedItemName@CMyNewsCategoryListWin@@UAEGPAEPAUSGUID@@@Z)
0044f8f0 00000008 .text             HotlineNews.cp(@48@?SetContent@CMyNewsCategoryListWin@@UAEXPBXKPAVTFieldDataObj@@_N@Z)
0044f900 00000008 .text             HotlineNews.cp(@20@??_ECMyNewsCategoryTreeWin@@UAE@I@Z)
0044f910 00000008 .text             HotlineNews.cp(@52@?SearchText@CMyNewsCategoryTreeWin@@MAEXPBE@Z)
0044f920 00000008 .text             HotlineNews.cp(@52@??_ECMyNewsCategoryTreeWin@@UAE@I@Z)
0044f930 00000008 .text             HotlineNews.cp(@48@??_ECMyNewsCategoryTreeWin@@UAE@I@Z)
0044f940 00000008 .text             HotlineNews.cp(@48@?DoDelete@CMyNewsCategoryTreeWin@@UAEXXZ)
0044f950 00000008 .text             HotlineNews.cp(@48@?DoRefresh@CMyNewsCategoryTreeWin@@UAEXG@Z)
0044f960 00000008 .text             HotlineNews.cp(@48@?DoNewFolder@CMyNewsCategoryTreeWin@@UAEXXZ)
0044f970 00000008 .text             HotlineNews.cp(@48@?DoNewCategory@CMyNewsCategoryTreeWin@@UAEXXZ)
0044f980 00000008 .text             HotlineNews.cp(@48@?GetSelectedParentBundlePath@CMyNewsCategoryTreeWin@@UAEPAXAAKPA_N@Z)
0044f990 00000008 .text             HotlineNews.cp(@48@?GetSelectedItemName@CMyNewsCategoryTreeWin@@UAEGPAEPAUSGUID@@@Z)
0044f9a0 00000008 .text             HotlineNews.cp(@48@?SetContent@CMyNewsCategoryTreeWin@@UAEXPBXKPAVTFieldDataObj@@_N@Z)
0044f9b0 00000008 .text             HotlineNews.cp(@20@??_E?$CMyItemsTreeWin@USNewsCatItm@@@@UAE@I@Z)
0044f9c0 00000008 .text             HotlineNews.cp(@20@??_ECMyNewsCategoryExplWin@@UAE@I@Z)
0044f9d0 00000008 .text             HotlineNews.cp(@52@?SearchText@CMyNewsCategoryExplWin@@MAEXPBE@Z)
0044f9e0 00000008 .text             HotlineNews.cp(@52@??_ECMyNewsCategoryExplWin@@UAE@I@Z)
0044f9f0 00000008 .text             HotlineNews.cp(@48@??_ECMyNewsCategoryExplWin@@UAE@I@Z)
0044fa00 00000008 .text             HotlineNews.cp(@48@?DoDelete@CMyNewsCategoryExplWin@@UAEXXZ)
0044fa10 00000008 .text             HotlineNews.cp(@48@?DoRefresh@CMyNewsCategoryExplWin@@UAEXG@Z)
0044fa20 00000008 .text             HotlineNews.cp(@48@?DoNewFolder@CMyNewsCategoryExplWin@@UAEXXZ)
0044fa30 00000008 .text             HotlineNews.cp(@48@?DoNewCategory@CMyNewsCategoryExplWin@@UAEXXZ)
0044fa40 00000008 .text             HotlineNews.cp(@48@?GetSelectedParentBundlePath@CMyNewsCategoryExplWin@@UAEPAXAAKPA_N@Z)
0044fa50 00000008 .text             HotlineNews.cp(@48@?GetSelectedItemName@CMyNewsCategoryExplWin@@UAEGPAEPAUSGUID@@@Z)
0044fa60 00000008 .text             HotlineNews.cp(@48@?SetContent@CMyNewsCategoryExplWin@@UAEXPBXKPAVTFieldDataObj@@_N@Z)
0044fa70 00000008 .text             HotlineNews.cp(@20@??_ECMyNewsArticTextWin@@UAE@I@Z)
0044fa80 00000040 .text             HotlineMisc.cp(??0CMyCacheList@@QAE@XZ)
0044fac0 0000001e .text             HotlineMisc.cp(??1?$CPtrList@USMyCacheListInfo@@@@QAE@XZ)
0044fae0 00000048 .text             HotlineMisc.cp(??1CMyCacheList@@UAE@XZ)
0044fb30 0000002f .text             HotlineMisc.cp(?AddFileList@CMyCacheList@@QAE_NPBXKPAVTFieldDataObj@@@Z)
0044fb60 0000002f .text             HotlineMisc.cp(?AddBundleList@CMyCacheList@@QAE_NPBXKPAVTFieldDataObj@@@Z)
0044fb90 0000002f .text             HotlineMisc.cp(?AddArticleList@CMyCacheList@@QAE_NPBXKPAVTFieldDataObj@@@Z)
0044fbc0 0000002c .text             HotlineMisc.cp(?SearchFileList@CMyCacheList@@QAEPAVTFieldDataObj@@PBXK@Z)
0044fbf0 0000002c .text             HotlineMisc.cp(?SearchBundleList@CMyCacheList@@QAEPAVTFieldDataObj@@PBXK@Z)
0044fc20 0000002c .text             HotlineMisc.cp(?SearchArticleList@CMyCacheList@@QAEPAVTFieldDataObj@@PBXK@Z)
0044fc50 0000002c .text             HotlineMisc.cp(?ChangedFileList@CMyCacheList@@QAE_NPBXK@Z)
0044fc80 0000002c .text             HotlineMisc.cp(?ChangedBundleList@CMyCacheList@@QAE_NPBXK@Z)
0044fcb0 0000002c .text             HotlineMisc.cp(?ChangedArticleList@CMyCacheList@@QAE_NPBXK@Z)
0044fce0 0000002b .text             HotlineMisc.cp(?Clear@CMyCacheList@@QAEXXZ)
0044fd10 00000020 .text             HotlineMisc.cp(?ClearFileList@CMyCacheList@@QAEXXZ)
0044fd30 00000020 .text             HotlineMisc.cp(?ClearBundleList@CMyCacheList@@QAEXXZ)
0044fd50 00000020 .text             HotlineMisc.cp(?ClearArticleList@CMyCacheList@@QAEXXZ)
0044fd70 000001c3 .text             HotlineMisc.cp(?AddList@CMyCacheList@@KA_NAAV?$CPtrList@USMyCacheListInfo@@@@PBXKPAVTFieldDataObj@@@Z)
0044ff40 000000d1 .text             HotlineMisc.cp(?SearchList@CMyCacheList@@KAPAVTFieldDataObj@@AAV?$CPtrList@USMyCacheListInfo@@@@PBXK@Z)
00450020 000000b5 .text             HotlineMisc.cp(?ChangedList@CMyCacheList@@KA_NAAV?$CPtrList@USMyCacheListInfo@@@@PBXK@Z)
004500e0 00000083 .text             HotlineMisc.cp(?ClearList@CMyCacheList@@KAXAAV?$CPtrList@USMyCacheListInfo@@@@@Z)
00450170 0000002a .text             HotlineMisc.cp(??0CHttpIDList@@QAE@XZ)
004501a0 0000008b .text             HotlineMisc.cp(??1CHttpIDList@@UAE@XZ)
00450230 00000185 .text             HotlineMisc.cp(?AddID@CHttpIDList@@QAE_NPBE@Z)
004503c0 00000019 .text             HotlineMisc.cp(?GetIDList@CHttpIDList@@QAEABV?$CPtrList@E@@XZ)
004503e0 0000015a .text             HotlineMisc.cp(?WriteData@CHttpIDList@@QAE_NPAVTFSRefObj@@K@Z)
00450540 000002e6 .text             HotlineMisc.cp(?ReadData@CHttpIDList@@QAE_NPAVTFSRefObj@@K@Z)
00450830 0000010b .text             HotlineMisc.cp(?GetHttpIDFromData@CHttpIDList@@AAEXPBXK@Z)
00450940 00000064 .text             HotlineMisc.cp(??0CMyPathData@@QAE@PAVTPtrObj@@KK@Z)
004509b0 00000034 .text             HotlineMisc.cp(??1CMyPathData@@UAE@XZ)
004509f0 00000064 .text             HotlineMisc.cp(?SetPathData@CMyPathData@@QAEXPAVTPtrObj@@KK@Z)
00450a60 0000004a .text             HotlineMisc.cp(?IsPathEqual@CMyPathData@@QAE_NPBXK@Z)
00450ab0 00000096 .text             HotlineMisc.cp(??0CMySearchText@@QAE@PAVCContainerView@@ABVSRect@@@Z)
00450b50 00000037 .text             HotlineMisc.cp(??1CMySearchText@@UAE@XZ)
00450b90 00000121 .text             HotlineMisc.cp(?SearchText_KeyDown@CMySearchText@@IAE_NABUSKeyMsgData@@@Z)
00450cc0 000000a6 .text             HotlineMisc.cp(?SearchTimer1Proc@CMySearchText@@KAXPAX0KPBXK@Z)
00450d70 0000007d .text             HotlineMisc.cp(?SearchTimer2Proc@CMySearchText@@KAXPAX0KPBXK@Z)
00450df0 0000001f .text             HotlineMisc.cp(?EventCallBack@@YAXXZ)
00450e10 00000038 .text             HotlineMisc.cp(?SubsData@@YAXPBEPAXK@Z)
00450e50 000000bf .text             HotlineMisc.cp(?GenerateRandomPassword@@YAXPAXK@Z)
00450f10 00000058 .text             HotlineMisc.cp(??_ECMySearchText@@UAE@I@Z)
00450f70 00000058 .text             HotlineMisc.cp(??_ECMyPathData@@UAE@I@Z)
00450fd0 00000058 .text             HotlineMisc.cp(??_ECHttpIDList@@UAE@I@Z)
00451030 00000058 .text             HotlineMisc.cp(??_ECMyCacheList@@UAE@I@Z)
00451090 000001a6 .text             HotlineFolderDownload.cp(??0CMyDLItem@@QAE@PAUSFSListItem@@PAVCMyDLFldr@@_N@Z)
00451240 00000053 .text             HotlineFolderDownload.cp(??1CMyDLItem@@QAE@XZ)
004512a0 00000120 .text             HotlineFolderDownload.cp(?GetNextItem@CMyDLItem@@QAEPAVTFSRefObj@@AAPAEAAFAAGPA_N@Z)
004513c0 00000052 .text             HotlineFolderDownload.cp(?HasItem@CMyDLItem@@QAE_NPAVTFSRefObj@@@Z)
00451420 00000179 .text             HotlineFolderDownload.cp(??0CMyDLFldr@@QAE@PAVTFSRefObj@@PAV0@_N@Z)
004515a0 0000002a .text             HotlineFolderDownload.cp(??1?$scopekiller@VTHdlObj@@@@QAE@XZ)
004515d0 0000001e .text             HotlineFolderDownload.cp(??1?$CPtrList@VCMyDLItem@@@@QAE@XZ)
004515f0 000000a3 .text             HotlineFolderDownload.cp(??1CMyDLFldr@@QAE@XZ)
004516a0 00000090 .text             HotlineFolderDownload.cp(?GetTotalItems@CMyDLFldr@@QAEKXZ)
00451730 00000099 .text             HotlineFolderDownload.cp(?GetTotalSize@CMyDLFldr@@QAEKXZ)
004517d0 00000211 .text             HotlineFolderDownload.cp(?GetNextItem@CMyDLFldr@@QAEPAVTFSRefObj@@AAPAEAAFAAGPA_N@Z)
004519f0 0000009f .text             HotlineFolderDownload.cp(?HasItem@CMyDLFldr@@QAE_NPAVTFSRefObj@@@Z)
00451a90 000007fe .text             HotlineNewsReadHistory.cp(??0CMyNewsReadHistory@@QAE@PAVTFSRefObj@@@Z)
00452290 0000001e .text             HotlineNewsReadHistory.cp(??1?$CPtrList@USMyNzHistCatGUIDItm@@@@QAE@XZ)
004522b0 0000003f .text             HotlineNewsReadHistory.cp(??1CMyNewsReadHistory@@UAE@XZ)
004522f0 0000042c .text             HotlineNewsReadHistory.cp(?GetReadList@CMyNewsReadHistory@@QAEPAVCNZReadList@@ABUSGUID@@@Z)
00452720 00000021 .text             HotlineNewsReadHistory.cp(??1StFileOpener@@QAE@XZ)
00452750 00000134 .text             HotlineNewsReadHistory.cp(?IsNewAddSN@CMyNewsReadHistory@@QAE_NABUSGUID@@K@Z)
00452890 00000567 .text             HotlineNewsReadHistory.cp(?PurgeToDisk@CMyNewsReadHistory@@QAEXXZ)
00452e00 00000058 .text             HotlineNewsReadHistory.cp(??_ECNZReadList@@UAE@I@Z)
00452e60 0000069f .text             HotlineNewsReadHistory.cp(?PurgeOldest@CMyNewsReadHistory@@IAEXK@Z)
00453500 000000c0 .text             HotlineNewsReadHistory.cp(?DeallocateIDs@CMyNewsReadHistory@@IAEXK@Z)
004535c0 0000019e .text             HotlineNewsReadHistory.cp(?Deallocate@CMyNewsReadHistory@@IAEXKK@Z)
00453760 0000058d .text             HotlineNewsReadHistory.cp(?Allocate@CMyNewsReadHistory@@IAEKK@Z)
00453cf0 00000083 .text             HotlineNewsReadHistory.cp(??0CNZReadList@@QAE@PAVTPtrObj@@K@Z)
00453d80 0000003f .text             HotlineNewsReadHistory.cp(??1CNZReadList@@UAE@XZ)
00453dc0 00000215 .text             HotlineNewsReadHistory.cp(?SetRead@CNZReadList@@QAEXK_N@Z)
00453fe0 000000ba .text             HotlineNewsReadHistory.cp(?CheckRead@CNZReadList@@QAE_NK@Z)
004540a0 0000011b .text             HotlineNewsReadHistory.cp(?PurgeUnchecked@CNZReadList@@QAEXXZ)
004541c0 00000058 .text             HotlineNewsReadHistory.cp(??_ECMyNewsReadHistory@@UAE@I@Z)
00454220 0000016e .text             HotlineAdminViews.cp(??0CMyAdminUserTreeView@@QAE@PAVCViewHandler@@ABVSRect@@PAVCMyAdminWin@@@Z)
00454390 0000001e .text             HotlineAdminViews.cp(??1?$CPtrList@USMyUserDataFile@@@@QAE@XZ)
004543b0 0000004c .text             HotlineAdminViews.cp(??1?$CTabbedTreeView@USMyAdminUserInfo@@@@UAE@XZ)
00454400 00000109 .text             HotlineAdminViews.cp(??1CMyAdminUserTreeView@@UAE@XZ)
00454510 00000079 .text             HotlineAdminViews.cp(?SetTabs@CMyAdminUserTreeView@@QAEXEE@Z)
00454590 0000003f .text             HotlineAdminViews.cp(?GetTabs@CMyAdminUserTreeView@@QAEXAAE0@Z)
004545d0 000003c8 .text             HotlineAdminViews.cp(?AddListFromFields@CMyAdminUserTreeView@@QAE_NPAVTFieldDataObj@@@Z)
004549a0 000003e9 .text             HotlineAdminViews.cp(?GetFieldsFromList@CMyAdminUserTreeView@@QAEPAVTFieldDataObj@@XZ)
00454d90 000000af .text             HotlineAdminViews.cp(?RevertUserList@CMyAdminUserTreeView@@QAEXXZ)
00454e40 00000053 .text             HotlineAdminViews.cp(?ClearUserList@CMyAdminUserTreeView@@QAEXXZ)
00454ea0 0000005c .text             HotlineAdminViews.cp(?GetUserListStatus@CMyAdminUserTreeView@@QAE_NXZ)
00454f00 00000339 .text             HotlineAdminViews.cp(?UpdateUserAccess@CMyAdminUserTreeView@@QAE_NK@Z)
00455240 00000229 .text             HotlineAdminViews.cp(?RestoreUserAccess@CMyAdminUserTreeView@@QAE_NK@Z)
00455470 00000429 .text             HotlineAdminViews.cp(?AddNewUser@CMyAdminUserTreeView@@QAE_NPBE00@Z)
004558a0 00000314 .text             HotlineAdminViews.cp(?ModifySelectedUser@CMyAdminUserTreeView@@QAE_NPBE00@Z)
00455bc0 0000024d .text             HotlineAdminViews.cp(?DeleteSelectedUsers@CMyAdminUserTreeView@@QAE_NXZ)
00455e10 00000193 .text             HotlineAdminViews.cp(?GetSelectedUser@CMyAdminUserTreeView@@QAE_NPAE00PA_N@Z)
00455fb0 000000a1 .text             HotlineAdminViews.cp(?GetUserLoginIndex@CMyAdminUserTreeView@@IAEKPBE@Z)
00456060 000000b7 .text             HotlineAdminViews.cp(?CompareLogins@CMyAdminUserTreeView@@KAJPAX00@Z)
00456120 00000067 .text             HotlineAdminViews.cp(?AddDeleteUser@CMyAdminUserTreeView@@IAEXPAUSMyAdminUserInfo@@@Z)
00456190 000001f7 .text             HotlineAdminViews.cp(?SaveDeleteUserList@CMyAdminUserTreeView@@IAEXAAPAVTFieldDataObj@@@Z)
00456390 000000a5 .text             HotlineAdminViews.cp(?RevertDeleteUserList@CMyAdminUserTreeView@@IAEXXZ)
00456440 0000007d .text             HotlineAdminViews.cp(?ClearDeleteUserList@CMyAdminUserTreeView@@IAEXXZ)
004564c0 000003bb .text             HotlineAdminViews.cp(?SetUsersAccess@CMyAdminUserTreeView@@IAEXK_N@Z)
00456880 00000068 .text             HotlineAdminViews.cp(?SelectionChanged@CMyAdminUserTreeView@@UAEXKPAUSMyAdminUserInfo@@_N@Z)
004568f0 00000040 .text             HotlineAdminViews.cp(?DisclosureChanged@CMyAdminUserTreeView@@UAEXKPAUSMyAdminUserInfo@@E@Z)
00456930 00000905 .text             HotlineAdminViews.cp(?ItemDraw@CMyAdminUserTreeView@@MAEXKKPAUSMyAdminUserInfo@@PAUSTreeViewItem@@PAVTImageObj@@ABV?$CPtrList@VSRect@@@@K@Z)
00457240 0000003f .text             HotlineAdminViews.cp(?HasPriv@SMyUserAccess@@QBE_NK@Z)
00457280 0000004b .text             HotlineAdminViews.cp(??0CMyAdminAccessCheckBoxView@@QAE@PAVCViewHandler@@ABVSRect@@PAVCMyAdminUserAccessView@@@Z)
004572d0 00000037 .text             HotlineAdminViews.cp(?MouseUp@CMyAdminAccessCheckBoxView@@UAEXABUSMouseMsgData@@@Z)
00457310 00000034 .text             HotlineAdminViews.cp(?KeyDown@CMyAdminAccessCheckBoxView@@UAE_NABUSKeyMsgData@@@Z)
00457350 000000c6 .text             HotlineAdminViews.cp(?SetNextMarkValue@CMyAdminAccessCheckBoxView@@IAEXXZ)
00457420 00000496 .text             HotlineAdminViews.cp(??0CMyAdminUserAccessView@@QAE@PAVCViewHandler@@ABVSRect@@PAVCMyAdminWin@@@Z)
004578c0 00000031 .text             HotlineAdminViews.cp(??1CMyAdminUserAccessView@@UAE@XZ)
00457900 0000007b .text             HotlineAdminViews.cp(?SetUsersAccess@CMyAdminUserAccessView@@QAEXABUSMyAdminUsersAccess@@@Z)
00457980 0000009e .text             HotlineAdminViews.cp(?GetUserAccess@CMyAdminUserAccessView@@QAEXAAUSMyUserAccess@@K@Z)
00457a20 00000094 .text             HotlineAdminViews.cp(?SetEnableUserAccess@CMyAdminUserAccessView@@QAEX_N@Z)
00457ac0 0000003a .text             HotlineAdminViews.cp(?UpdateUserAccess@CMyAdminUserAccessView@@QAE_NK@Z)
00457b00 0000003a .text             HotlineAdminViews.cp(?RestoreUserAccess@CMyAdminUserAccessView@@QAE_NK@Z)
00457b40 00000033 .text             HotlineAdminViews.cp(?IsNewUser@SMyAdminUserInfo@@QAE_NXZ)
00457b80 00000033 .text             HotlineAdminViews.cp(?IsModifiedUser@SMyAdminUserInfo@@QAE_NXZ)
00457bc0 00000038 .text             HotlineAdminViews.cp(?SaveUser@SMyAdminUserInfo@@QAEXXZ)
00457c00 00000038 .text             HotlineAdminViews.cp(?RevertUser@SMyAdminUserInfo@@QAEXXZ)
00457c40 00000058 .text             HotlineAdminViews.cp(??_ECMyAdminUserAccessView@@UAE@I@Z)
00457ca0 00000061 .text             HotlineAdminViews.cp(??_ECMyAdminAccessCheckBoxView@@UAE@I@Z)
00457d10 00000027 .text             HotlineAdminViews.cp(??1CMyAdminAccessCheckBoxView@@UAE@XZ)
00457d40 00000086 .text             HotlineAdminViews.cp(??_E?$CTabbedTreeView@USMyAdminUserInfo@@@@UAE@I@Z)
00457dd0 00000058 .text             HotlineAdminViews.cp(??_ECMyAdminUserTreeView@@UAE@I@Z)
00457e30 0000005f .text             HotlineAdminViews.cp(??0?$CTabbedTreeView@USMyAdminUserInfo@@@@QAE@PAVCViewHandler@@ABVSRect@@KK_N@Z)
00457e90 0000003a .text             HotlineAdminViews.cp(?SetBounds@?$CTabbedTreeView@USMyAdminUserInfo@@@@UAE_NABVSRect@@@Z)
00457ed0 00000054 .text             HotlineAdminViews.cp(?MouseDown@?$CTabbedTreeView@USMyAdminUserInfo@@@@UAEXABUSMouseMsgData@@@Z)
00457f30 00000054 .text             HotlineAdminViews.cp(?MouseUp@?$CTabbedTreeView@USMyAdminUserInfo@@@@UAEXABUSMouseMsgData@@@Z)
00457f90 00000031 .text             HotlineAdminViews.cp(?MouseMove@?$CTabbedTreeView@USMyAdminUserInfo@@@@UAEXABUSMouseMsgData@@@Z)
00457fd0 00000031 .text             HotlineAdminViews.cp(?MouseLeave@?$CTabbedTreeView@USMyAdminUserInfo@@@@UAEXABUSMouseMsgData@@@Z)
00458010 00000015 .text             HotlineAdminViews.cp(?ItemDraw@?$CTabbedTreeView@USMyAdminUserInfo@@@@MAEXKKPAUSMyAdminUserInfo@@PAUSTreeViewItem@@PAVTImageObj@@ABV?$CPtrList@VSRect@@@@K@Z)
00458030 0000004c .text             HotlineAdminViews.cp(?ItemMouseDown@?$CTabbedTreeView@USMyAdminUserInfo@@@@MAEXKABUSMouseMsgData@@@Z)
00458080 0000004c .text             HotlineAdminViews.cp(?ItemMouseUp@?$CTabbedTreeView@USMyAdminUserInfo@@@@MAEXKABUSMouseMsgData@@@Z)
004580d0 0000004c .text             HotlineAdminViews.cp(?ItemMouseEnter@?$CTabbedTreeView@USMyAdminUserInfo@@@@MAEXKABUSMouseMsgData@@@Z)
00458120 0000004c .text             HotlineAdminViews.cp(?ItemMouseMove@?$CTabbedTreeView@USMyAdminUserInfo@@@@MAEXKABUSMouseMsgData@@@Z)
00458170 0000004c .text             HotlineAdminViews.cp(?ItemMouseLeave@?$CTabbedTreeView@USMyAdminUserInfo@@@@MAEXKABUSMouseMsgData@@@Z)
004581c0 0000002e .text             HotlineAdminViews.cp(?RefreshTabView@?$CTabbedTreeView@USMyAdminUserInfo@@@@MAEXXZ)
004581f0 00000044 .text             HotlineAdminViews.cp(?GetTabViewBounds@?$CTabbedTreeView@USMyAdminUserInfo@@@@MAEXAAVSRect@@@Z)
00458240 00000071 .text             HotlineAdminViews.cp(?GetTabViewScrollPos@?$CTabbedTreeView@USMyAdminUserInfo@@@@MAEXAAK0@Z)
004582c0 0000001d .text             HotlineAdminViews.cp(?GetTabHeight@?$CTabbedTreeView@USMyAdminUserInfo@@@@MBEKXZ)
004582e0 000000e8 .text             HotlineAdminViews.cp(?AddTreeItem@?$CTreeView@USMyAdminUserInfo@@@@QAEKKPAUSMyAdminUserInfo@@_N@Z)
004583d0 0000018f .text             HotlineAdminViews.cp(?RemoveTreeItem@?$CTreeView@USMyAdminUserInfo@@@@QAEPAUSMyAdminUserInfo@@K_N@Z)
00458560 00000047 .text             HotlineAdminViews.cp(?RemoveTreeItem@?$CTreeView@USMyAdminUserInfo@@@@QAEKPAUSMyAdminUserInfo@@_N@Z)
004585b0 000000be .text             HotlineAdminViews.cp(?ClearTree@?$CTreeView@USMyAdminUserInfo@@@@QAEXXZ)
00458670 0000003f .text             HotlineAdminViews.cp(?GetTreeItem@?$CTreeView@USMyAdminUserInfo@@@@QBEPAUSMyAdminUserInfo@@K@Z)
004586b0 00000020 .text             HotlineAdminViews.cp(?GetTreeCount@?$CTreeView@USMyAdminUserInfo@@@@QBEKXZ)
004586d0 00000025 .text             HotlineAdminViews.cp(?GetChildTreeCount@?$CTreeView@USMyAdminUserInfo@@@@QBEKK@Z)
00458700 0000004e .text             HotlineAdminViews.cp(?GetNextTreeItem@?$CTreeView@USMyAdminUserInfo@@@@QBE_NAAPAUSMyAdminUserInfo@@AAK_N@Z)
00458750 0000009b .text             HotlineAdminViews.cp(?SelectTreeItem@?$CTreeView@USMyAdminUserInfo@@@@QAE_NK_N@Z)
004587f0 00000058 .text             HotlineAdminViews.cp(?GetFirstSelectedTreeItem@?$CTreeView@USMyAdminUserInfo@@@@QBEKXZ)
00458850 00000060 .text             HotlineAdminViews.cp(?GetFirstSelectedTreeItem@?$CTreeView@USMyAdminUserInfo@@@@QAEKPAPAUSMyAdminUserInfo@@@Z)
004588b0 00000062 .text             HotlineAdminViews.cp(?GetLastSelectedTreeItem@?$CTreeView@USMyAdminUserInfo@@@@QBEKXZ)
00458920 00000040 .text             HotlineAdminViews.cp(?RefreshTreeItem@?$CTreeView@USMyAdminUserInfo@@@@QAE_NK@Z)
00458960 00000045 .text             HotlineAdminViews.cp(?MakeTreeItemVisibleInList@?$CTreeView@USMyAdminUserInfo@@@@QAE_NKG@Z)
004589b0 0000008e .text             HotlineAdminViews.cp(?DeselectAllTreeItems@?$CTreeView@USMyAdminUserInfo@@@@QAEXXZ)
00458a40 000000b2 .text             HotlineAdminViews.cp(?Disclose@?$CTreeView@USMyAdminUserInfo@@@@QAE_NK@Z)
00458b00 000000dd .text             HotlineAdminViews.cp(?Disclose@?$CTreeView@USMyAdminUserInfo@@@@IAEXKAAKPAUSTreeViewItem@@@Z)
00458be0 0000003c .text             HotlineAdminViews.cp(?IsSelected@?$CTreeView@USMyAdminUserInfo@@@@QAE_NK@Z)
00458c20 0000003c .text             HotlineAdminViews.cp(?GetFullSize@?$CTreeView@USMyAdminUserInfo@@@@UBEXAAK0@Z)
00458c60 0000006a .text             HotlineAdminViews.cp(?GetFullHeight@?$CTreeView@USMyAdminUserInfo@@@@UBEKXZ)
00458cd0 0000001f .text             HotlineAdminViews.cp(?GetFullWidth@?$CTreeView@USMyAdminUserInfo@@@@UBEKXZ)
00458cf0 0000007a .text             HotlineAdminViews.cp(?Sort@?$CTreeView@USMyAdminUserInfo@@@@QAEXKP6AJPAX00@Z0@Z)
00458d70 000000ec .text             HotlineAdminViews.cp(?GetTreeItemRect@?$CTreeView@USMyAdminUserInfo@@@@UBE_NKAAVSRect@@@Z)
00458e60 00000050 .text             HotlineAdminViews.cp(?GetSelectedTreeItemsRect@?$CTreeView@USMyAdminUserInfo@@@@UBE_NAAVSRect@@@Z)
00458eb0 00000040 .text             HotlineAdminViews.cp(?PointToTreeItem@?$CTreeView@USMyAdminUserInfo@@@@UBEKABVSPoint@@@Z)
00458ef0 00000161 .text             HotlineAdminViews.cp(?Draw@?$CTreeView@USMyAdminUserInfo@@@@UAEXPAVTImageObj@@ABVSRect@@K@Z)
00459060 00000020 .text             HotlineAdminViews.cp(?DragEnter@?$CTreeView@USMyAdminUserInfo@@@@UAEXABUSDragMsgData@@@Z)
00459080 00000020 .text             HotlineAdminViews.cp(?DragLeave@?$CTreeView@USMyAdminUserInfo@@@@UAEXABUSDragMsgData@@@Z)
004590a0 00000210 .text             HotlineAdminViews.cp(?MouseDown@?$CTreeView@USMyAdminUserInfo@@@@UAEXABUSMouseMsgData@@@Z)
004592b0 000001aa .text             HotlineAdminViews.cp(?KeyDown@?$CTreeView@USMyAdminUserInfo@@@@UAE_NABUSKeyMsgData@@@Z)
00459460 00000015 .text             HotlineAdminViews.cp(?VisibilityChanged@?$CTreeView@USMyAdminUserInfo@@@@UAEXKPAUSMyAdminUserInfo@@_N@Z)
00459480 00000015 .text             HotlineAdminViews.cp(?SelectionChanged@?$CTreeView@USMyAdminUserInfo@@@@UAEXKPAUSMyAdminUserInfo@@_N@Z)
004594a0 00000015 .text             HotlineAdminViews.cp(?DisclosureChanged@?$CTreeView@USMyAdminUserInfo@@@@UAEXKPAUSMyAdminUserInfo@@E@Z)
004594c0 0000003c .text             HotlineAdminViews.cp(?IsValidItem@?$CTreeView@USMyAdminUserInfo@@@@MBE_NK@Z)
00459500 00000036 .text             HotlineAdminViews.cp(?GetNextItem@?$CTreeView@USMyAdminUserInfo@@@@MBE_NAAK@Z)
00459540 00000073 .text             HotlineAdminViews.cp(?GetPrevItem@?$CTreeView@USMyAdminUserInfo@@@@MBE_NAAK@Z)
004595c0 00000019 .text             HotlineAdminViews.cp(?GetItemCount@?$CTreeView@USMyAdminUserInfo@@@@MBEKXZ)
004595e0 00000081 .text             HotlineAdminViews.cp(?SetItemSelect@?$CTreeView@USMyAdminUserInfo@@@@MAEXK_N@Z)
00459670 0000003b .text             HotlineAdminViews.cp(?IsItemSelected@?$CTreeView@USMyAdminUserInfo@@@@MBE_NK@Z)
004596b0 00000026 .text             HotlineAdminViews.cp(?GetFirstSelectedItem@?$CTreeView@USMyAdminUserInfo@@@@MBEKXZ)
004596e0 00000026 .text             HotlineAdminViews.cp(?GetLastSelectedItem@?$CTreeView@USMyAdminUserInfo@@@@MBEKXZ)
00459710 00000122 .text             HotlineAdminViews.cp(?SetItemRangeSelect@?$CTreeView@USMyAdminUserInfo@@@@MAEXKK_N@Z)
00459840 00000073 .text             HotlineAdminViews.cp(?GetItemRect@?$CTreeView@USMyAdminUserInfo@@@@MBEXKAAVSRect@@@Z)
004598c0 000000ee .text             HotlineAdminViews.cp(?GetSelectedItemsRect@?$CTreeView@USMyAdminUserInfo@@@@MBEXAAVSRect@@@Z)
004599b0 00000090 .text             HotlineAdminViews.cp(?PointToItem@?$CTreeView@USMyAdminUserInfo@@@@MBEKABVSPoint@@@Z)
00459a40 00000316 .text             HotlineAdminViews.cp(?ItemDraw@?$CTreeView@USMyAdminUserInfo@@@@MAEXKPAVTImageObj@@ABVSRect@@1K@Z)
00459d60 00000015 .text             HotlineAdminViews.cp(?ItemDraw@?$CTreeView@USMyAdminUserInfo@@@@MAEXKKPAUSMyAdminUserInfo@@PAUSTreeViewItem@@PAVTImageObj@@ABVSRect@@3K@Z)
00459d80 00000046 .text             HotlineAdminViews.cp(?ItemMouseDown@?$CTreeView@USMyAdminUserInfo@@@@MAEXKABUSMouseMsgData@@@Z)
00459dd0 00000046 .text             HotlineAdminViews.cp(?ItemMouseUp@?$CTreeView@USMyAdminUserInfo@@@@MAEXKABUSMouseMsgData@@@Z)
00459e20 00000046 .text             HotlineAdminViews.cp(?ItemMouseEnter@?$CTreeView@USMyAdminUserInfo@@@@MAEXKABUSMouseMsgData@@@Z)
00459e70 00000046 .text             HotlineAdminViews.cp(?ItemMouseMove@?$CTreeView@USMyAdminUserInfo@@@@MAEXKABUSMouseMsgData@@@Z)
00459ec0 00000046 .text             HotlineAdminViews.cp(?ItemMouseLeave@?$CTreeView@USMyAdminUserInfo@@@@MAEXKABUSMouseMsgData@@@Z)
00459f10 00000015 .text             HotlineAdminViews.cp(?TreeItemMouseDown@?$CTreeView@USMyAdminUserInfo@@@@MAEXKABUSMouseMsgData@@@Z)
00459f30 00000015 .text             HotlineAdminViews.cp(?TreeItemMouseUp@?$CTreeView@USMyAdminUserInfo@@@@MAEXKABUSMouseMsgData@@@Z)
00459f50 00000015 .text             HotlineAdminViews.cp(?TreeItemMouseEnter@?$CTreeView@USMyAdminUserInfo@@@@MAEXKABUSMouseMsgData@@@Z)
00459f70 00000015 .text             HotlineAdminViews.cp(?TreeItemMouseMove@?$CTreeView@USMyAdminUserInfo@@@@MAEXKABUSMouseMsgData@@@Z)
00459f90 00000015 .text             HotlineAdminViews.cp(?TreeItemMouseLeave@?$CTreeView@USMyAdminUserInfo@@@@MAEXKABUSMouseMsgData@@@Z)
00459fb0 0000006f .text             HotlineAdminViews.cp(?GetListItem@?$CTreeView@USMyAdminUserInfo@@@@IBEPAUSTreeViewItem@@KPAK@Z)
0045a020 00000047 .text             HotlineAdminViews.cp(?ConvertListToTree@?$CTreeView@USMyAdminUserInfo@@@@IBEKK@Z)
0045a070 0000006c .text             HotlineAdminViews.cp(?ConvertTreeToList@?$CTreeView@USMyAdminUserInfo@@@@IBEKK@Z)
0045a0e0 00000095 .text             HotlineAdminViews.cp(?ItemsInserted@?$CTreeView@USMyAdminUserInfo@@@@MAEXKK@Z)
0045a180 00000095 .text             HotlineAdminViews.cp(?ItemsRemoved@?$CTreeView@USMyAdminUserInfo@@@@MAEXKK@Z)
0045a220 00000073 .text             HotlineAdminViews.cp(?GetTreeViewItem@?$CTreeView@USMyAdminUserInfo@@@@IBEPAUSTreeViewItem@@PAUSMyAdminUserInfo@@PAK@Z)
0045a2a0 0000004a .text             HotlineAdminViews.cp(?CompareItemsProc@?$CTreeView@USMyAdminUserInfo@@@@KAJPAX00@Z)
0045a2f0 00000135 .text             HotlineAdminViews.cp(?ComposeListIndex@?$CTreeView@USMyAdminUserInfo@@@@IAEXXZ)
0045a430 000000ca .text             HotlineAdminViews.cp(??1?$CTreeView@USMyAdminUserInfo@@@@UAE@XZ)
0045a500 000000a5 .text             HotlineAdminViews.cp(??0?$CTreeView@USMyAdminUserInfo@@@@QAE@PAVCViewHandler@@ABVSRect@@KK@Z)
0045a5b0 000001be .text             HotlineAdminViews.cp(?ItemDraw@?$CTabbedTreeView@USMyAdminUserInfo@@@@MAEXKKPAUSMyAdminUserInfo@@PAUSTreeViewItem@@PAVTImageObj@@ABVSRect@@3K@Z)
0045a770 00000058 .text             HotlineAdminViews.cp(??_E?$CTreeView@USMyAdminUserInfo@@@@UAE@I@Z)
0045a7d0 00000109 .text             HotlineAdminViews.cp(?Collapse@?$CTreeView@USMyAdminUserInfo@@@@IAEXKKPAUSTreeViewItem@@@Z)
0045a8e0 000000bd .text             HotlineAdminViews.cp(?CollapseAllTreeItems@?$CTreeView@USMyAdminUserInfo@@@@QAEXXZ)
0045a9a0 000000b4 .text             HotlineAdminViews.cp(?DiscloseAllTreeItems@?$CTreeView@USMyAdminUserInfo@@@@QAEXXZ)
0045aa60 0000000b .text             HotlineAdminViews.cp(@132@??_ECMyAdminUserTreeView@@UAE@I@Z)
0045aa70 0000000b .text             HotlineAdminViews.cp(@132@?GetTabViewScrollPos@?$CTabbedTreeView@USMyAdminUserInfo@@@@MAEXAAK0@Z)
0045aa80 0000000b .text             HotlineAdminViews.cp(@132@?GetTabViewBounds@?$CTabbedTreeView@USMyAdminUserInfo@@@@MAEXAAVSRect@@@Z)
0045aa90 0000000b .text             HotlineAdminViews.cp(@132@?RefreshTabView@?$CTabbedTreeView@USMyAdminUserInfo@@@@MAEXXZ)
0045aaa0 0000000b .text             HotlineAdminViews.cp(@132@??_E?$CTabbedTreeView@USMyAdminUserInfo@@@@UAE@I@Z)
0045aab0 00000008 .text             HotlineAdminViews.cp(@44@?HandleGetParentWindow@CScrollerView@@MAEPAVCWindow@@XZ)
0045aac0 00000008 .text             HotlineAdminViews.cp(@44@?HandleGetCaptureMouseView@CScrollerView@@MAEPAVCView@@XZ)
0045aad0 00000008 .text             HotlineAdminViews.cp(@44@?HandleGetOrigin@CScrollerView@@MAEXAAVSPoint@@@Z)
0045aae0 00000008 .text             HotlineAdminViews.cp(@44@?HandleReleaseMouse@CScrollerView@@MAEXPAVCView@@@Z)
0045aaf0 00000008 .text             HotlineAdminViews.cp(@44@?HandleCaptureMouse@CScrollerView@@MAEXPAVCView@@@Z)
0045ab00 00000008 .text             HotlineAdminViews.cp(@44@?HandleMakeRectVisible@CScrollerView@@MAEXABVSRect@@G@Z)
0045ab10 00000008 .text             HotlineAdminViews.cp(@44@?HandleGetVisibleRect@CScrollerView@@MAEXPAVCView@@AAVSRect@@@Z)
0045ab20 00000008 .text             HotlineAdminViews.cp(@44@?HandleGetScreenDelta@CScrollerView@@MAEXPAVCView@@AAJ1@Z)
0045ab30 00000008 .text             HotlineAdminViews.cp(@44@?HandleHit@CScrollerView@@MAEXPAVCView@@ABUSHitMsgData@@@Z)
0045ab40 00000008 .text             HotlineAdminViews.cp(@44@?HandleRefresh@CScrollerView@@MAEXPAVCView@@ABVSRect@@@Z)
0045ab50 00000008 .text             HotlineAdminViews.cp(@44@?HandleSetBounds@CScrollerView@@MAEXPAVCView@@ABVSRect@@@Z)
0045ab60 00000008 .text             HotlineAdminViews.cp(@44@?HandleRemove@CScrollerView@@MAEXPAVCView@@@Z)
0045ab70 00000008 .text             HotlineAdminViews.cp(@44@?HandleInstall@CScrollerView@@MAEXPAVCView@@@Z)
0045ab80 00000008 .text             HotlineAdminViews.cp(@44@??_ECMyAdminUserAccessView@@UAE@I@Z)
0045ab90 00000a24 .text             HotlineAdminWindows.cp(??0CMyAdminWin@@QAE@PAVCWindow@@@Z)
0045b5c0 00000027 .text             HotlineAdminWindows.cp(??1CMyAdminWin@@UAE@XZ)
0045b5f0 0000009b .text             HotlineAdminWindows.cp(?SetBoundsInfo@CMyAdminWin@@QAEXAAUSMyAdminBoundsInfo@@@Z)
0045b690 0000004f .text             HotlineAdminWindows.cp(?GetBoundsInfo@CMyAdminWin@@QAEXAAUSMyAdminBoundsInfo@@@Z)
0045b6e0 00000035 .text             HotlineAdminWindows.cp(?AddListFromFields@CMyAdminWin@@QAE_NPAVTFieldDataObj@@@Z)
0045b720 00000030 .text             HotlineAdminWindows.cp(?GetFieldsFromList@CMyAdminWin@@QAEPAVTFieldDataObj@@XZ)
0045b750 00000026 .text             HotlineAdminWindows.cp(?RevertUserList@CMyAdminWin@@QAEXXZ)
0045b780 00000020 .text             HotlineAdminWindows.cp(?GetUserListStatus@CMyAdminWin@@QAE_NXZ)
0045b7a0 00000023 .text             HotlineAdminWindows.cp(?SetUsersAccess@CMyAdminWin@@QAEXABUSMyAdminUsersAccess@@@Z)
0045b7d0 00000026 .text             HotlineAdminWindows.cp(?GetUserAccess@CMyAdminWin@@QAEXAAUSMyUserAccess@@K@Z)
0045b800 00000025 .text             HotlineAdminWindows.cp(?SetEnableUserAccess@CMyAdminWin@@QAEX_N@Z)
0045b830 00000037 .text             HotlineAdminWindows.cp(?UpdateUserAccess@CMyAdminWin@@QAE_NK@Z)
0045b870 00000037 .text             HotlineAdminWindows.cp(?RestoreUserAccess@CMyAdminWin@@QAE_NK@Z)
0045b8b0 0000003d .text             HotlineAdminWindows.cp(?AddNewUser@CMyAdminWin@@QAE_NPBE00@Z)
0045b8f0 0000002e .text             HotlineAdminWindows.cp(?GetSelectedUser@CMyAdminWin@@QAE_NPAE00PA_N@Z)
0045b920 0000003d .text             HotlineAdminWindows.cp(?ModifySelectedUser@CMyAdminWin@@QAE_NPBE00@Z)
0045b960 00000030 .text             HotlineAdminWindows.cp(?DeleteSelectedUsers@CMyAdminWin@@QAE_NXZ)
0045b990 0000003a .text             HotlineAdminWindows.cp(?EnableUserButtons@CMyAdminWin@@QAEXXZ)
0045b9d0 00000042 .text             HotlineAdminWindows.cp(?DisableUserButtons@CMyAdminWin@@QAEX_N@Z)
0045ba20 0000006d .text             HotlineAdminWindows.cp(?RefreshGlobalButtons@CMyAdminWin@@QAEXXZ)
0045ba90 000005fa .text             HotlineAdminWindows.cp(??0CMyAdminEditUserWin@@QAE@_N0@Z)
0045c090 0000009f .text             HotlineAdminWindows.cp(?SetInfo@CMyAdminEditUserWin@@QAEXPBE00@Z)
0045c130 00000181 .text             HotlineAdminWindows.cp(?GetInfo@CMyAdminEditUserWin@@QAE_NPAE00@Z)
0045c2c0 00000061 .text             HotlineAdminWindows.cp(??_ECMyAdminEditUserWin@@UAE@I@Z)
0045c330 00000027 .text             HotlineAdminWindows.cp(??1CMyAdminEditUserWin@@UAE@XZ)
0045c360 00000058 .text             HotlineAdminWindows.cp(??_ECMyAdminWin@@UAE@I@Z)
0045c3c0 000000c5 .text             Hotline.cp(_main)
0045c490 00000058 .text             Hotline.cp(??_ECMyApplication@@UAE@I@Z)
0045c4f0 00000979 .text             Hotline.cp(??0CMyApplication@@QAE@XZ)
0045ce70 0000001e .text             Hotline.cp(??1?$CPtrList@VCMyUserInfoWin@@@@QAE@XZ)
0045ce90 0000001e .text             Hotline.cp(??1?$CPtrList@VCMyNewsArticTextWin@@@@QAE@XZ)
0045ceb0 0000001e .text             Hotline.cp(??1?$CPtrList@VCMyNewsArticleTreeWin@@@@QAE@XZ)
0045ced0 0000001e .text             Hotline.cp(??1?$CPtrList@VCMyServerInfoWin@@@@QAE@XZ)
0045cef0 0000001e .text             Hotline.cp(??1?$CPtrList@VCMyViewFileWin@@@@QAE@XZ)
0045cf10 0000001e .text             Hotline.cp(??1?$CPtrList@VCMyItemsWin@@@@QAE@XZ)
0045cf30 00000015 .text             Hotline.cp(??1?$CPtrList@VCWindow@@@@QAE@XZ)
0045cf50 00000024 .text             Hotline.cp(??1SMyOptions@@QAE@XZ)
0045cf80 0000001e .text             Hotline.cp(??1?$CPtrList@VCMyTask@@@@QAE@XZ)
0045cfa0 0000081d .text             Hotline.cp(?StartUp@CMyApplication@@QAEXXZ)
0045d7c0 000000e3 .text             Hotline.cp(??1CMyApplication@@UAE@XZ)
0045d8b0 0000013e .text             Hotline.cp(?UserQuit@CMyApplication@@UAEXXZ)
0045d9f0 00000c47 .text             Hotline.cp(?KeyCommand@CMyApplication@@UAEXKABUSKeyMsgData@@@Z)
0045e640 00001602 .text             Hotline.cp(?WindowHit@CMyApplication@@UAEXPAVCWindow@@ABUSHitMsgData@@@Z)
0045fc50 000000cd .text             Hotline.cp(?Timer@CMyApplication@@UAEXPAVTTimerObj@@@Z)
0045fd20 00000109 .text             Hotline.cp(?Error@CMyApplication@@UAEXABUSError@@@Z)
0045fe30 000004f1 .text             Hotline.cp(?HandleMessage@CMyApplication@@UAEXPAXKPBXK@Z)
00460330 000000fd .text             Hotline.cp(?OpenDocument@CMyApplication@@UAEXPAVTFSRefObj@@@Z)
00460430 0000001b .text             Hotline.cp(?ShowPreferences@CMyApplication@@UAEXXZ)
00460450 0000003b .text             Hotline.cp(?IsConnected@CMyApplication@@QAE_NXZ)
00460490 0000001d .text             Hotline.cp(?GetServerVersion@CMyApplication@@QAEGXZ)
004604b0 00000047 .text             Hotline.cp(?HasGeneralPriv@CMyApplication@@QAE_NK@Z)
00460500 00000047 .text             Hotline.cp(?HasFolderPriv@CMyApplication@@QAE_NK@Z)
00460550 00000047 .text             Hotline.cp(?HasBundlePriv@CMyApplication@@QAE_NK@Z)
004605a0 000000a8 .text             Hotline.cp(?DisplayStandardMessage@CMyApplication@@SAXPBE0FF@Z)
00460650 000000bc .text             Hotline.cp(?DisplayStandardMessage@CMyApplication@@SAXPBEPBXGFF_N@Z)
00460710 00000130 .text             Hotline.cp(?SaveTextAs@CMyApplication@@SA_NPAVCTextView@@@Z)
00460840 0000057c .text             Hotline.cp(?DoWizard@CMyApplication@@IAEXXZ)
00460dc0 000008b4 .text             Hotline.cp(?DoOptions@CMyApplication@@IAE_NXZ)
00461680 00000166 .text             Hotline.cp(?DoBroadcast@CMyApplication@@IAEXXZ)
004617f0 00000100 .text             Hotline.cp(?DoOldPostNewsWin@CMyApplication@@IAEXXZ)
004618f0 00000269 .text             Hotline.cp(?DoShowConnect@CMyApplication@@IAEXPBE00_N@Z)
00461b60 00000500 .text             Hotline.cp(?DoConnect@CMyApplication@@IAEXPBE000_N1@Z)
00462060 00000036 .text             Hotline.cp(?DoDisconnect@CMyApplication@@IAEXXZ)
004620a0 0000029d .text             Hotline.cp(?DoChatSend@CMyApplication@@IAEX_N@Z)
00462340 000001c1 .text             Hotline.cp(?DoPrivChatSend@CMyApplication@@IAEXPAVCMyPrivateChatWin@@_N@Z)
00462510 0000023e .text             Hotline.cp(?DoShowServerInfo@CMyApplication@@IAEXXZ)
00462750 000001a0 .text             Hotline.cp(?DoSaveServerBookmark@CMyApplication@@IAEXXZ)
004628f0 000003e2 .text             Hotline.cp(?DoFileView@CMyApplication@@IAEXPBEPBXKKKG@Z)
00462ce0 000004f2 .text             Hotline.cp(?DoFileDownload@CMyApplication@@IAEXPBEPBXKK_NG@Z)
004631e0 000001e4 .text             Hotline.cp(?DoFileUpload@CMyApplication@@IAEXPAVCMyFileWin@@PBXKG@Z)
004633d0 00000342 .text             Hotline.cp(?DoFileUploadFromDrop@CMyApplication@@IAEXPAVCMyFileWin@@PBXK@Z)
00463720 00000199 .text             Hotline.cp(?DoFileMove@CMyApplication@@IAEXPAVCMyItemsWin@@GPBEPBXK2K@Z)
004638c0 000000dc .text             Hotline.cp(?DoFileDelete@CMyApplication@@IAEXPBEPBXK_N@Z)
004639a0 0000004f .text             Hotline.cp(?DoFileRefresh@CMyApplication@@IAEXPBXK@Z)
004639f0 000002a7 .text             Hotline.cp(?DoFileDoubleClick@CMyApplication@@IAEXPAVCMyItemsWin@@PBEPBXKG@Z)
00463ca0 00000443 .text             Hotline.cp(?DoFileOpenParent@CMyApplication@@IAEXPAVCMyItemsWin@@G@Z)
004640f0 0000013b .text             Hotline.cp(?DoFileNewFolder@CMyApplication@@IAEXPAVCMyItemsWin@@PBXK@Z)
00464230 000000d8 .text             Hotline.cp(?DoFileGetInfo@CMyApplication@@IAEXPAVCMyFileWin@@@Z)
00464310 00000185 .text             Hotline.cp(?DoFileSaveInfo@CMyApplication@@IAEXPAVCMyFileInfoWin@@@Z)
004644a0 0000045b .text             Hotline.cp(?DoNewsFldrOpen@CMyApplication@@IAEXPAVCMyItemsWin@@PBEPBXKGAAUSGUID@@G@Z)
00464900 0000004f .text             Hotline.cp(?DoNewsFldrRefresh@CMyApplication@@IAEXPBXK@Z)
00464950 000000f2 .text             Hotline.cp(?DoNewsFldrTrash@CMyApplication@@IAEXPAVCMyItemsWin@@PBEPBXKG@Z)
00464a50 00000127 .text             Hotline.cp(?DoNewsFldrNewCat@CMyApplication@@IAEXPAVCMyItemsWin@@PBXK@Z)
00464b80 0000013b .text             Hotline.cp(?DoNewsFldrNewFldr@CMyApplication@@IAEXPAVCMyItemsWin@@PBXK@Z)
00464cc0 000004b3 .text             Hotline.cp(?DoNewsFldrOpenParent@CMyApplication@@IAEXPAVCMyItemsWin@@G@Z)
00465180 000003be .text             Hotline.cp(?DoNewsCatOpenParent@CMyApplication@@IAEXPAVCMyNewsArticleTreeWin@@@Z)
00465540 000002b7 .text             Hotline.cp(?DoNewsArticOpenParent@CMyApplication@@IAEXPAVCMyNewsArticTextWin@@@Z)
00465800 0000004d .text             Hotline.cp(?DoNewsCatRefresh@CMyApplication@@IAEXPBXK@Z)
00465850 000001db .text             Hotline.cp(?DoNewsCatOpen@CMyApplication@@IAEXPBXKKKPAEPAVCNZReadList@@VSRect@@@Z)
00465a30 000000aa .text             Hotline.cp(?DoNewsCatOpen@CMyApplication@@IAEXPBXKKPAE@Z)
00465ae0 000000aa .text             Hotline.cp(?DoNewsCatNewArticle@CMyApplication@@IAEXPBXKKPAVCNZReadList@@VSRect@@@Z)
00465b90 0000001d .text             Hotline.cp(?DoNewsArticTitleChanged@CMyApplication@@IAEXPAVCMyNewsArticTextWin@@@Z)
00465bb0 00000106 .text             Hotline.cp(?DoNewsCatTrash@CMyApplication@@IAEXPAVCMyItemsWin@@PBXKKPAE@Z)
00465cc0 0000019f .text             Hotline.cp(?DoNewsArticSend@CMyApplication@@IAEXPAVCMyNewsArticTextWin@@@Z)
00465e60 00000031 .text             Hotline.cp(?DoNewsArticGoParent@CMyApplication@@IAEXPAVCMyNewsArticTextWin@@G@Z)
00465ea0 00000031 .text             Hotline.cp(?DoNewsArticGoFirstChild@CMyApplication@@IAEXPAVCMyNewsArticTextWin@@G@Z)
00465ee0 00000031 .text             Hotline.cp(?DoNewsArticGoPrev@CMyApplication@@IAEXPAVCMyNewsArticTextWin@@G@Z)
00465f20 00000031 .text             Hotline.cp(?DoNewsArticGoNext@CMyApplication@@IAEXPAVCMyNewsArticTextWin@@G@Z)
00465f60 00000321 .text             Hotline.cp(?DoNewsNavigateArticle@CMyApplication@@IAEXPAVCMyNewsArticTextWin@@KKG@Z)
00466290 00000138 .text             Hotline.cp(?DoNewsArticReply@CMyApplication@@IAEXPBXKKKPAEPAVCNZReadList@@@Z)
004663d0 00000198 .text             Hotline.cp(?DoAbout@CMyApplication@@IAEXXZ)
00466570 0000016b .text             Hotline.cp(?DoStopTask@CMyApplication@@IAEXXZ)
004666e0 00000133 .text             Hotline.cp(?DoStartTask@CMyApplication@@IAEXXZ)
00466820 00000245 .text             Hotline.cp(?DoSendPrivMsg@CMyApplication@@IAEXKPBE@Z)
00466a70 00000443 .text             Hotline.cp(?DoReplyPrivMsg@CMyApplication@@IAEXPAVCMyPrivMsgWin@@@Z)
00466ec0 0000005e .text             Hotline.cp(?CouldNotSendPrivMsg@CMyApplication@@IAEXPBEPAVTHdlObj@@@Z)
00466f20 0000008e .text             Hotline.cp(?DoBringFrontPrivMsg@CMyApplication@@IAEXXZ)
00466fb0 0000014c .text             Hotline.cp(?DoDisconnectUser@CMyApplication@@IAEXG@Z)
00467100 00000156 .text             Hotline.cp(?DoDisconnectUser@CMyApplication@@IAEXPAVCMyUserInfoWin@@G@Z)
00467260 00000077 .text             Hotline.cp(?DoGetUserAccountInfo@CMyApplication@@IAEXPAVCMyUserInfoWin@@@Z)
004672e0 00000156 .text             Hotline.cp(?DoGetClientInfo@CMyApplication@@IAEXGPBE@Z)
00467440 000000bf .text             Hotline.cp(?DoUserInfoRefresh@CMyApplication@@IAEXPAVCMyUserInfoWin@@@Z)
00467500 000004c1 .text             Hotline.cp(?DoShowMessage@CMyApplication@@IAEXPAVTFieldDataObj@@@Z)
004679d0 00000458 .text             Hotline.cp(?DoSecret@CMyApplication@@IAEXXZ)
00467e30 00000183 .text             Hotline.cp(?DoShowPublicFiles@CMyApplication@@IAEXXZ)
00467fc0 000000ba .text             Hotline.cp(?DoShowChatWin@CMyApplication@@IAEXXZ)
00468080 000000ba .text             Hotline.cp(?DoShowTasksWin@CMyApplication@@IAEXXZ)
00468140 00000145 .text             Hotline.cp(?DoShowMsgBoardWin@CMyApplication@@IAEXXZ)
00468290 000001d9 .text             Hotline.cp(?DoShowNewsWin@CMyApplication@@IAEXXZ)
00468470 000000ba .text             Hotline.cp(?DoShowUsersWin@CMyApplication@@IAEXXZ)
00468530 0000051c .text             Hotline.cp(?DoCloseWindow@CMyApplication@@IAEXPAVCWindow@@@Z)
00468a50 00000064 .text             Hotline.cp(?DoCloseAllFileWindows@CMyApplication@@IAEXXZ)
00468ac0 000000ec .text             Hotline.cp(?DoCloseAllNewsWindows@CMyApplication@@IAEXXZ)
00468bb0 0000005c .text             Hotline.cp(?DoCloseAllUserInfoWindows@CMyApplication@@IAEXXZ)
00468c10 0000026b .text             Hotline.cp(?DoShowAgreement@CMyApplication@@IAEXXZ)
00468e80 00000029 .text             Hotline.cp(?DoShowServerBannerToolbar@CMyApplication@@IAE_NXZ)
00468eb0 000000fb .text             Hotline.cp(?DoOpenUserList@CMyApplication@@IAEXXZ)
00468fb0 0000015b .text             Hotline.cp(?DoAdminNewUser@CMyApplication@@IAEXXZ)
00469110 000001f7 .text             Hotline.cp(?DoAdminOpenUser@CMyApplication@@IAEXXZ)
00469310 0000002f .text             Hotline.cp(?DoAdminDeleteUser@CMyApplication@@IAEXXZ)
00469340 0000015c .text             Hotline.cp(?DoAdminSaveUsers@CMyApplication@@IAEXXZ)
004694a0 000000cd .text             Hotline.cp(?DoAdminRevertUsers@CMyApplication@@IAEXXZ)
00469570 000001cd .text             Hotline.cp(?DoAdminClose@CMyApplication@@IAEXXZ)
00469740 00000215 .text             Hotline.cp(?DoNewUser@CMyApplication@@IAEXXZ)
00469960 0000011d .text             Hotline.cp(?DoOpenUser@CMyApplication@@IAEXXZ)
00469a80 0000018f .text             Hotline.cp(?DoSaveEditUser@CMyApplication@@IAEXPAVCMyEditUserWin@@@Z)
00469c10 0000003f .text             Hotline.cp(?DoCancelEditUser@CMyApplication@@IAEXPAVCMyEditUserWin@@@Z)
00469c50 00000102 .text             Hotline.cp(?DoDeleteEditUser@CMyApplication@@IAEXPAVCMyEditUserWin@@@Z)
00469d60 0000021c .text             Hotline.cp(?DoMacMenuBar@CMyApplication@@IAEXFF@Z)
00469f80 0000002d .text             Hotline.cp(?DoShowTracker@CMyApplication@@IAEXXZ)
00469fb0 00000034 .text             Hotline.cp(?DoRefreshTracker@CMyApplication@@IAEXG@Z)
00469ff0 000000db .text             Hotline.cp(?DoConnectToTracked@CMyApplication@@IAEX_N@Z)
0046a0d0 000002d2 .text             Hotline.cp(?DoGoHotlineURL@CMyApplication@@IAEXPBXK@Z)
0046a3b0 00000050 .text             Hotline.cp(?DoOpenPrivateChat@CMyApplication@@IAEXK@Z)
0046a400 00000088 .text             Hotline.cp(?DoClosePrivateChat@CMyApplication@@IAEXPAVCMyPrivateChatWin@@@Z)
0046a490 00000082 .text             Hotline.cp(?DoRejectChatInvite@CMyApplication@@IAEXPAVCMyChatInviteWin@@@Z)
0046a520 00000156 .text             Hotline.cp(?DoAcceptChatInvite@CMyApplication@@IAEXPAVCMyChatInviteWin@@@Z)
0046a680 0000017c .text             Hotline.cp(?DoSetChatSubject@CMyApplication@@IAEXPAVCMyPrivateChatWin@@@Z)
0046a800 00000112 .text             Hotline.cp(?DoCreateToolbar@CMyApplication@@IAEXAAVSRect@@@Z)
0046a920 0000002f .text             Hotline.cp(??1StRezLoader@@QAE@XZ)
0046a950 00000150 .text             Hotline.cp(?DisplayServerName@CMyApplication@@IAEXPBE@Z)
0046aaa0 00000152 .text             Hotline.cp(?HideAllWindows@CMyApplication@@IAEXXZ)
0046ac00 0000013e .text             Hotline.cp(?ShowAllWindows@CMyApplication@@IAEXXZ)
0046ad40 000000fe .text             Hotline.cp(?ShowNotConnected@CMyApplication@@IAEXXZ)
0046ae40 000000da .text             Hotline.cp(?ShowConnecting@CMyApplication@@IAEXXZ)
0046af20 00000145 .text             Hotline.cp(?ShowConnected@CMyApplication@@IAEXXZ)
0046b070 000001cf .text             Hotline.cp(?ProcessStartupPath@CMyApplication@@IAEXXZ)
0046b240 00000082 .text             Hotline.cp(?GetRootFolderWin@CMyApplication@@IAEPAVCMyItemsWin@@XZ)
0046b2d0 00000089 .text             Hotline.cp(?GetFolderWinByPath@CMyApplication@@IAEPAVCMyItemsWin@@PBXKK@Z)
0046b360 00000175 .text             Hotline.cp(?SetFolderWinContent@CMyApplication@@IAEXPBXKPAVTFieldDataObj@@@Z)
0046b4e0 00000082 .text             Hotline.cp(?GetRootNewsFolderWin@CMyApplication@@IAEPAVCMyItemsWin@@XZ)
0046b570 00000089 .text             Hotline.cp(?GetNewsFolderWinByPath@CMyApplication@@IAEPAVCMyItemsWin@@PBXKK@Z)
0046b600 00000175 .text             Hotline.cp(?SetBundleWinContent@CMyApplication@@IAEXPBXKPAVTFieldDataObj@@@Z)
0046b780 00000031 .text             Hotline.cp(?GetNewsArticleListWinByPath@CMyApplication@@IAEPAVCMyNewsArticleTreeWin@@PBXKK@Z)
0046b7c0 000000c9 .text             Hotline.cp(?SetCategoryWinContent@CMyApplication@@IAEXPBXKPAVTFieldDataObj@@@Z)
0046b890 000000ae .text             Hotline.cp(?SetArticleWinContent@CMyApplication@@IAEXPBXKKPAVTFieldDataObj@@@Z)
0046b940 000000f1 .text             Hotline.cp(?SetCurrentArticle@CMyApplication@@IAEXPBXKKKK@Z)
0046ba40 000000c4 .text             Hotline.cp(?SelectArticle@CMyApplication@@IAEXPBXKKK@Z)
0046bb10 00000087 .text             Hotline.cp(?GetUserInfoWinByID@CMyApplication@@IAEPAVCMyUserInfoWin@@G@Z)
0046bba0 000000fd .text             Hotline.cp(?SetUserInfoWinContent@CMyApplication@@IAEXGPBEPAVTFieldDataObj@@@Z)
0046bca0 0000003a .text             Hotline.cp(?SetOnlineUsers@CMyApplication@@IAEXPAVTFieldDataObj@@@Z)
0046bce0 000000dd .text             Hotline.cp(?GetClientUserInfo@CMyApplication@@IAEXPAVTFieldDataObj@@@Z)
0046bdc0 000000c7 .text             Hotline.cp(?CheckServerError@CMyApplication@@IAEXKPAVTFieldDataObj@@@Z)
0046be90 000000b7 .text             Hotline.cp(?GetTransferStatText@CMyApplication@@IAEXKKKKPAE@Z)
0046bf50 000000c1 .text             Hotline.cp(?ChatScram@CMyApplication@@IAEXPAXK@Z)
0046c020 000000c1 .text             Hotline.cp(?ChatUnscram@CMyApplication@@IAEXPAXK@Z)
0046c0f0 00000143 .text             Hotline.cp(?ShowAdminWin@CMyApplication@@IAEXPAVTFieldDataObj@@@Z)
0046c240 000001d4 .text             Hotline.cp(?ShowEditUserWin@CMyApplication@@IAEPAVCMyEditUserWin@@PAVTFieldDataObj@@@Z)
0046c420 0000005d .text             Hotline.cp(?GetChatWinByID@CMyApplication@@IAEPAVCMyPrivateChatWin@@K@Z)
0046c480 00000063 .text             Hotline.cp(?GetFilesBoundsInfo@CMyApplication@@IAEXXZ)
0046c4f0 00000063 .text             Hotline.cp(?GetNewsBoundsInfo@CMyApplication@@IAEXXZ)
0046c560 00000052 .text             Hotline.cp(?GetArticlesBoundsInfo@CMyApplication@@IAEXXZ)
0046c5c0 000000c0 .text             Hotline.cp(?CloseMarkedWin@CMyApplication@@IAEXXZ)
0046c680 00000070 .text             Hotline.cp(?ClearStartupInfo@CMyApplication@@IAEXXZ)
0046c6f0 0000007d .text             Hotline.cp(?ClearOptions@CMyApplication@@IAEXXZ)
0046c770 00000069 .text             Hotline.cp(?ClearServerBanner@CMyApplication@@IAEXXZ)
0046c7e0 0000009a .text             Hotline.cp(?SetServerBanner@CMyApplication@@IAEXPBXKKPBE1@Z)
0046c880 000000ee .text             Hotline.cp(?GetAgreement@CMyApplication@@IAE_NPAVTFieldDataObj@@GAAPAVTHdlObj@@@Z)
0046c970 00000171 .text             Hotline.cp(?GetResourceBanner@CMyApplication@@IAE_N_N@Z)
0046caf0 00000127 .text             Hotline.cp(?SetupHttpTransaction@CMyApplication@@QAEXPAVTHttpTransactObj@@PAE1_N@Z)
0046cc20 000000f3 .text             Hotline.cp(?ShowStandardMessage@CMyApplication@@QAEXPAVTFieldDataObj@@PAE_N@Z)
0046cd20 000000ea .text             Hotline.cp(?AutomaticResponseOrRefuseMsg@CMyApplication@@IAE_NG_N@Z)
0046ce10 000000de .text             Hotline.cp(?AutomaticResponseOrRefuseChat@CMyApplication@@IAE_NG@Z)
0046cef0 00000150 .text             Hotline.cp(?SetChatColor@CMyApplication@@IAEXAAUSMyColorInfo@@0@Z)
0046d040 00000166 .text             Hotline.cp(?SetNewsColor@CMyApplication@@IAEXAAUSMyColorInfo@@@Z)
0046d1b0 000000eb .text             Hotline.cp(?SetViewTextColor@CMyApplication@@IAEXAAUSMyColorInfo@@@Z)
0046d2a0 000000cb .text             Hotline.cp(?AddChatText@CMyApplication@@IAEXPAVCMyPrivateChatWin@@PBXK_N@Z)
0046d370 000001e3 .text             Hotline.cp(?FindResumableFile@CMyApplication@@IAE_NPAVTFSRefObj@@_N@Z)
0046d560 000001be .text             Hotline.cp(?ReadServerFile@CMyApplication@@IAEXPAVTFSRefObj@@PAE11@Z)
0046d720 00000217 .text             Hotline.cp(?SaveServerFile@CMyApplication@@IAEXPAVTFSRefObj@@PBE11@Z)
0046d940 00000061 .text             Hotline.cp(?GetDataRef@CMyApplication@@IAEPAVTFSRefObj@@XZ)
0046d9b0 00000040 .text             Hotline.cp(?LoadRezFile@CMyApplication@@IAEXXZ)
0046d9f0 000000e0 .text             Hotline.cp(?GetNewsHistRef@CMyApplication@@IAEPAVTFSRefObj@@XZ)
0046dad0 00000088 .text             Hotline.cp(?GetPrefsRef@CMyApplication@@IAEPAVTFSRefObj@@XZ)
0046db60 00000ce8 .text             Hotline.cp(?WritePrefs@CMyApplication@@IAEXXZ)
0046e850 00001069 .text             Hotline.cp(?ReadPrefs@CMyApplication@@IAEXPAUSMyPrefs@@@Z)
0046f8c0 000000e2 .text             Hotline.cp(?GetCustomRef@CMyApplication@@IAEPAVTFSRefObj@@XZ)
0046f9b0 00000544 .text             Hotline.cp(?ReadCustomInfo@CMyApplication@@IAEXXZ)
0046ff00 000000c1 .text             Hotline.cp(?GetDownloadFolder@CMyApplication@@IAEPAVTFSRefObj@@XZ)
0046ffd0 0000006e .text             Hotline.cp(?GetCookiesRef@CMyApplication@@IAEPAVTFSRefObj@@XZ)
00470040 00000067 .text             Hotline.cp(?WriteCookies@CMyApplication@@IAEXXZ)
004700b0 00000059 .text             Hotline.cp(?ReadCookies@CMyApplication@@IAEXXZ)
00470110 0000004c .text             Hotline.cp(?AddTask@CMyApplication@@IAEXPAVCMyTask@@PBE@Z)
00470160 0000006c .text             Hotline.cp(?RemoveTask@CMyApplication@@IAEXPAVCMyTask@@@Z)
004701d0 00000044 .text             Hotline.cp(?IsTaskInList@CMyApplication@@IAE_NPAVCMyTask@@@Z)
00470220 00000048 .text             Hotline.cp(?FinishTask@CMyApplication@@IAEXPAVCMyTask@@@Z)
00470270 00000096 .text             Hotline.cp(?FinishDummyTasks@CMyApplication@@IAEXXZ)
00470310 000000b0 .text             Hotline.cp(?SearchLoginTask@CMyApplication@@IAE_NXZ)
004703c0 000000c1 .text             Hotline.cp(?SearchTrackServTask@CMyApplication@@IAE_NE@Z)
00470490 000000b0 .text             Hotline.cp(?SearchGetFileListTask@CMyApplication@@IAE_NPBXK@Z)
00470540 000000c3 .text             Hotline.cp(?SearchGetNewsArticleTask@CMyApplication@@IAE_NPBXKK@Z)
00470610 000000ae .text             Hotline.cp(?IsFirstQueuedTask@CMyApplication@@IAE_NPAVCMyTask@@@Z)
004706c0 00000092 .text             Hotline.cp(?KillFinishedTasks@CMyApplication@@IAEXXZ)
00470760 00000193 .text             Hotline.cp(?ProcessTasks@CMyApplication@@IAEXXZ)
00470900 0000032f .text             Hotline.cp(?KillTasksAndDisconnect@CMyApplication@@IAEXXZ)
00470c30 00000203 .text             Hotline.cp(?ProcessIncomingData@CMyApplication@@IAEXXZ)
00470e40 0000002a .text             Hotline.cp(??1?$scopekiller@VTTransactSessionObj@@@@QAE@XZ)
00470e70 00000085 .text             Hotline.cp(?ProcessAll@CMyApplication@@IAEXXZ)
00470f00 00000032 .text             Hotline.cp(?SetTaskProgress@CMyApplication@@IAEXPAVCMyTask@@KKPBE@Z)
00470f40 00000029 .text             Hotline.cp(?ScheduleTaskProcess@CMyApplication@@IAEXXZ)
00470f70 000000cb .text             Hotline.cp(?MakeTransactor@CMyApplication@@IAEPAVTTransactObj@@XZ)
00471040 0000004d .text             Hotline.cp(?MakeTransferTransport@CMyApplication@@IAEPAVTTransportObj@@XZ)
00471090 00000084 .text             Hotline.cp(?DisposeTransactor@CMyApplication@@IAEXXZ)
00471120 00000096 .text             Hotline.cp(?StartTransactorConnect@CMyApplication@@IAEXXZ)
004711c0 000000b0 .text             Hotline.cp(?StartTransferTransportConnect@CMyApplication@@IAEPAVTTransportObj@@XZ)
00471270 0000002d .text             Hotline.cp(?TransferMonitorProc@CMyApplication@@KAXPAVTRegularTransportObj@@PBXK_N@Z)
004712a0 00000068 .text             Hotline.cp(?KeepConnectionAlive@CMyApplication@@IAEXXZ)
00471310 0000012b .text             Hotline.cp(?ConfirmDisconnect@CMyApplication@@IAE_NPA_N@Z)
00471440 000000f3 .text             Hotline.cp(?ConfirmQuit@CMyApplication@@IAE_NXZ)
00471540 000000b6 .text             Hotline.cp(?WaitDisconnect@CMyApplication@@IAEXXZ)
00471600 0000009f .text             Hotline.cp(?WaitQuit@CMyApplication@@IAEXXZ)
004716a0 00000144 .text             Hotline.cp(?CanQuit@CMyApplication@@IAE_NXZ)
004717f0 0000010f .text             Hotline.cp(?GetTransferTaskCount@CMyApplication@@IAEKXZ)
00471900 000003fb .text             Hotline.cp(?GetSignificantTaskCount@CMyApplication@@IAEKXZ)
00471d00 000000eb .text             Hotline.cp(?SaveConnect@CMyApplication@@IAEXPBE000_N@Z)
00471df0 00000077 .text             Hotline.cp(?RestoreDisconnect@CMyApplication@@IAEXXZ)
00471e70 000000b3 .text             Hotline.cp(?ProcessTran_NewMsg@CMyApplication@@IAEXPAVTFieldDataObj@@@Z)
00471f30 000000e0 .text             Hotline.cp(?ProcessTran_ServerMsg@CMyApplication@@IAEXPAVTFieldDataObj@@@Z)
00472010 00000070 .text             Hotline.cp(?ProcessTran_DisconnectMsg@CMyApplication@@IAEXPAVTFieldDataObj@@@Z)
00472080 0000027a .text             Hotline.cp(?ProcessTran_ChatMsg@CMyApplication@@IAEXPAVTFieldDataObj@@@Z)
00472300 00000208 .text             Hotline.cp(?ProcessTran_NotifyDeleteUser@CMyApplication@@IAEXPAVTFieldDataObj@@@Z)
00472510 00000567 .text             Hotline.cp(?ProcessTran_NotifyChangeUser@CMyApplication@@IAEXPAVTFieldDataObj@@@Z)
00472a80 000002c6 .text             Hotline.cp(?ProcessTran_ShowAgreement@CMyApplication@@IAEXPAVTFieldDataObj@@@Z)
00472d50 00000162 .text             Hotline.cp(?ProcessTran_ServerBanner@CMyApplication@@IAEXPAVTFieldDataObj@@@Z)
00472ec0 0000025d .text             Hotline.cp(?ProcessTran_InviteToChat@CMyApplication@@IAEXPAVTFieldDataObj@@@Z)
00473120 000002e3 .text             Hotline.cp(?ProcessTran_NotifyChatChangeUser@CMyApplication@@IAEXPAVTFieldDataObj@@@Z)
00473410 00000183 .text             Hotline.cp(?ProcessTran_NotifyChatDeleteUser@CMyApplication@@IAEXPAVTFieldDataObj@@@Z)
004735a0 00000079 .text             Hotline.cp(?ProcessTran_NotifyChatSubject@CMyApplication@@IAEXPAVTFieldDataObj@@@Z)
00473620 000001e0 .text             Hotline.cp(?ProcessTran_UserAccess@CMyApplication@@IAEXPAVTFieldDataObj@@@Z)
00473800 00000027 .text             Hotline.cp(?ProcessTran_UserBroadcast@CMyApplication@@IAEXPAVTFieldDataObj@@@Z)
00473830 000000d0 .text             Hotline.cp(?ProcessTran_DownloadInfo@CMyApplication@@IAEXPAVTFieldDataObj@@@Z)
00473900 00000106 .text             Hotline.cp(?DoOpenDloadFolder@CMyApplication@@IAEXXZ)
00473a10 0000013f .text             Hotline.cp(?DoViewDloadFile@CMyApplication@@IAEXPAE@Z)
00473b50 0000016b .text             Hotline.cp(?DoLaunchSecuriphone@CMyApplication@@IAEXXZ)
00473cc0 000000a4 .text             Hotline.cp(?FindWindowByPath@?$CMyItemsTreeWin@USNewsCatItm@@@@SAPAV1@AAVCVoidPtrList@@PBXKK@Z)
00473d70 000000a4 .text             Hotline.cp(?FindWindowByPath@?$CMyItemsTreeWin@USMyNewsArticle@@@@SAPAV1@AAVCVoidPtrList@@PBXKK@Z)
00473e20 000000a4 .text             Hotline.cp(?FindWindowByPath@?$CMyItemsTreeWin@USMyFileItem@@@@SAPAV1@AAVCVoidPtrList@@PBXKK@Z)
00473ed0 00000089 .text             Hotline.cp(?SearchWin@?$@VCMyOpenUserWin@@@CMyApplication@@IAE_NXZ)
00473f60 00000089 .text             Hotline.cp(?SearchWin@?$@VCMyLoginWin@@@CMyApplication@@IAE_NXZ)
00473ff0 00000089 .text             Hotline.cp(?SearchWin@?$@VCMyBroadcastWin@@@CMyApplication@@IAE_NXZ)
00474080 00000089 .text             Hotline.cp(?SearchWin@?$@VCMyOptionsWin@@@CMyApplication@@IAE_NXZ)
00474110 00000005 .text             Hotline.cp
00474120 00000030 .text             CChatLog.cp(??0CChatLog@@QAE@XZ)
00474150 00000020 .text             CChatLog.cp(??1CChatLog@@QAE@XZ)
00474170 00000048 .text             CChatLog.cp(?Enable@CChatLog@@QAEX_N@Z)
004741c0 000001a3 .text             CChatLog.cp(?OpenLog@CChatLog@@AAEXXZ)
00474370 000000b2 .text             CChatLog.cp(?CloseLog@CChatLog@@AAEXXZ)
00474430 000003e4 .text             CChatLog.cp(?AppendLog@CChatLog@@QAEXPBE00K@Z)
00474820 0000002f .text             UFieldData.obj(?New@UFieldData@@SAPAVTFieldDataObj@@PAVTHdlObj@@K@Z)
00474850 00000037 .text             UFieldData.obj(?Dispose@UFieldData@@SAXPAVTFieldDataObj@@@Z)
00474890 00000078 .text             UFieldData.obj(?GetFieldID@UFieldData@@SAGPAVTFieldDataObj@@G@Z)
00474910 00000033 .text             UFieldData.obj(?GetFieldCount@UFieldData@@SAGPAVTFieldDataObj@@@Z)
00474950 000000ff .text             UFieldData.obj(?ReadFieldByIndex@UFieldData@@SAKPAVTFieldDataObj@@GKPAXK@Z)
00474a50 0000007c .text             UFieldData.obj(?GetFieldSizeByIndex@UFieldData@@SAKPAVTFieldDataObj@@G@Z)
00474ad0 0000001f .text             UFieldData.obj(?GetFieldByIndex@UFieldData@@SAKPAVTFieldDataObj@@GPAXK@Z)
00474af0 000000ce .text             UFieldData.obj(?ReadField@UFieldData@@SAKPAVTFieldDataObj@@GKPAXK@Z)
00474bc0 0000005b .text             UFieldData.obj(?GetFieldSize@UFieldData@@SAKPAVTFieldDataObj@@G@Z)
00474c20 00000074 .text             UFieldData.obj(?DeleteAllFields@UFieldData@@SAXPAVTFieldDataObj@@@Z)
00474ca0 00000239 .text             UFieldData.obj(?AddField@UFieldData@@SAXPAVTFieldDataObj@@GPBXK@Z)
00474ee0 0000008b .text             UFieldData.obj(?AddInteger@UFieldData@@SAXPAVTFieldDataObj@@GJ@Z)
00474f70 00000029 .text             UFieldData.obj(?AddPString@UFieldData@@SAXPAVTFieldDataObj@@GPBE@Z)
00474fa0 0000004d .text             UFieldData.obj(?AddCString@UFieldData@@SAXPAVTFieldDataObj@@GPBD@Z)
00474ff0 0000001f .text             UFieldData.obj(?GetField@UFieldData@@SAKPAVTFieldDataObj@@GPAXK@Z)
00475010 0000009a .text             UFieldData.obj(?GetInteger@UFieldData@@SAJPAVTFieldDataObj@@G@Z)
004750b0 0000002a .text             UFieldData.obj(?GetPString@UFieldData@@SAXPAVTFieldDataObj@@GPAEK@Z)
004750e0 00000028 .text             UFieldData.obj(?GetCString@UFieldData@@SAXPAVTFieldDataObj@@GPADK@Z)
00475110 00000046 .text             UFieldData.obj(?GetDataHandle@UFieldData@@SAPAVTHdlObj@@PAVTFieldDataObj@@@Z)
00475160 0000009d .text             UFieldData.obj(?DetachDataHandle@UFieldData@@SAPAVTHdlObj@@PAVTFieldDataObj@@@Z)
00475200 00000082 .text             UFieldData.obj(?SetDataHandle@UFieldData@@SAXPAVTFieldDataObj@@PAVTHdlObj@@K@Z)
00475290 0000026c .text             UFieldData.obj(?_FDBuildTables@@YAXPAUSFieldData@@@Z)
00475500 000001bf .text             UFieldData.obj(?_FDSortLookupTable@@YAXPAUSFieldData@@@Z)
004756c0 00000152 .text             UFieldData.obj(?_FDSearchLookupTable@@YA_NPAUSFieldData@@GAAK@Z)
00475820 0000008f .text             UFieldData.obj(?_FDGetFieldOffset@@YA_NPAVTFieldDataObj@@GAAK@Z)
004758b0 000000a4 .text             UTransact.obj(?New@UTransact@@SAPAVTTransactObj@@K_NK@Z)
00475960 0000009e .text             UTransact.obj(?Dispose@UTransact@@SAXPAVTTransactObj@@@Z)
00475a00 00000026 .text             UTransact.obj(?GetTransport@UTransact@@SAPAVTTransportObj@@PAVTTransactObj@@@Z)
00475a30 00000033 .text             UTransact.obj(?SetMessageHandler@UTransact@@SAXPAVTTransactObj@@P6AXPAX1KPBXK@Z1@Z)
00475a70 0000004f .text             UTransact.obj(?PostMessage@UTransact@@SAXPAVTTransactObj@@KPBXKF@Z)
00475ac0 0000002e .text             UTransact.obj(?IsConnected@UTransact@@SA_NPAVTTransactObj@@@Z)
00475af0 0000003b .text             UTransact.obj(?StartConnect@UTransact@@SAXPAVTTransactObj@@PBXKK@Z)
00475b30 0000027a .text             UTransact.obj(?GetConnectStatus@UTransact@@SAGPAVTTransactObj@@@Z)
00475db0 00000026 .text             UTransact.obj(?Disconnect@UTransact@@SAXPAVTTransactObj@@@Z)
00475de0 00000034 .text             UTransact.obj(?SetVersion@UTransact@@SAXPAVTTransactObj@@KG@Z)
00475e20 00000110 .text             UTransact.obj(?NewSendSession@UTransact@@SAPAVTTransactSessionObj@@PAVTTransactObj@@G@Z)
00475f30 0000010b .text             UTransact.obj(?NewReceiveSession@UTransact@@SAPAVTTransactSessionObj@@PAVTTransactObj@@GG@Z)
00476040 00000044 .text             UTransact.obj(?DisposeSession@UTransact@@SAXPAVTTransactSessionObj@@@Z)
00476090 0000002a .text             UTransact.obj(?SetSessionTimeout@UTransact@@SAXPAVTTransactSessionObj@@K@Z)
004760c0 000000de .text             UTransact.obj(?SendSessionData@UTransact@@SAXPAVTTransactSessionObj@@PBXKG@Z)
004761a0 00000059 .text             UTransact.obj(?SendSessionData@UTransact@@SAXPAVTTransactSessionObj@@PAVTFieldDataObj@@@Z)
00476200 000000a8 .text             UTransact.obj(?IsSessionReceiveComplete@UTransact@@SA_NPAVTTransactSessionObj@@@Z)
004762b0 00000049 .text             UTransact.obj(?GetSessionReceiveType@UTransact@@SAGPAVTTransactSessionObj@@@Z)
00476300 00000048 .text             UTransact.obj(?GetSessionReceiveError@UTransact@@SAKPAVTTransactSessionObj@@@Z)
00476350 00000048 .text             UTransact.obj(?GetSessionReceiveSize@UTransact@@SAKPAVTTransactSessionObj@@@Z)
004763a0 00000048 .text             UTransact.obj(?GetSessionReceiveTransferedSize@UTransact@@SAKPAVTTransactSessionObj@@@Z)
004763f0 00000078 .text             UTransact.obj(?ReceiveSessionData@UTransact@@SAXPAVTTransactSessionObj@@PAVTFieldDataObj@@@Z)
00476470 00000048 .text             UTransact.obj(?SendTransaction@UTransact@@SAXPAVTTransactObj@@GPBXK@Z)
004764c0 0000005c .text             UTransact.obj(?SendTransaction@UTransact@@SAXPAVTTransactObj@@GPAVTFieldDataObj@@@Z)
00476520 00000024 .text             UTransact.obj(?_TNNewTranID@@YAKPAVTTransactObj@@@Z)
00476550 00000036 .text             UTransact.obj(?_TNTimeoutHandler@@YAXPAX0KPBXK@Z)
00476590 0000002e .text             UTransact.obj(?_TNEstabTimeoutHandler@@YAXPAX0KPBXK@Z)
004765c0 00000056 .text             UTransact.obj(?_TNNewTask@@YAPAUSTranTask@@PAVTTransactObj@@@Z)
00476620 0000007e .text             UTransact.obj(?_TNKillTask@@YAXPAVTTransactObj@@PAUSTranTask@@@Z)
004766a0 0000004f .text             UTransact.obj(?_TNGetTask@@YAPAUSTranTask@@PAVTTransactObj@@GK@Z)
004766f0 0000016b .text             UTransact.obj(?_TNGetInTask@@YAPAUSTranTask@@PAVTTransactObj@@GG@Z)
00476860 00000182 .text             UTransact.obj(?_TNSendTran@@YAXPAVTTransactObj@@K_NGKPBXKK@Z)
004769f0 00000423 .text             UTransact.obj(?_TNProcessIncomingData@@YAXPAVTTransactObj@@@Z)
00476e20 00000028 .text             UTransact.obj(?_TNMessageHandler@@YAXPAX0KPBXK@Z)
00476e50 000000c0 .text             UText.obj(?Equal@UText@@SA_NPBXK0KKK@Z)
00476f10 00000038 .text             UText.obj(?CompareInsensitive@UText@@SAFPBXK0KK@Z)
00476f50 0000009e .text             UText.obj(?CompareInsensitive@UText@@SAFPBX0KK@Z)
00476ff0 0000012b .text             UText.obj(?SearchInsensitive@UText@@SAPAEPBXK0K@Z)
00477120 00000152 .text             UText.obj(?IntegerToText@UText@@SAKPAXKJK@Z)
00477280 000002d6 .text             UText.obj(?SizeToText@UText@@SAKKPAXKK@Z)
00477560 000000e7 .text             UText.obj(?SecondsToText@UText@@SAKKPAXK@Z)
00477650 000000b3 .text             UText.obj(?TextToInteger@UText@@SAJPBXKKK@Z)
00477710 000000b3 .text             UText.obj(?TextToUInteger@UText@@SAKPBXKKK@Z)
004777d0 00000054 .text             UText.obj(?Format@UText@@SAKPAXKPBDZZ)
00477830 0000001b .text             UText.obj(?FormatArg@UText@@SAKPAXKPBD0@Z)
00477850 00000033 .text             UText.obj(?MakeLowercase@UText@@SAXPAXKK@Z)
00477890 00000033 .text             UText.obj(?MakeUppercase@UText@@SAXPAXKK@Z)
004778d0 00000078 .text             UText.obj(?ReplaceNonPrinting@UText@@SAXPAXKKGK@Z)
00477950 0000004f .text             UText.obj(?GetVisibleLength@UText@@SAKPBXKK@Z)
004779a0 000001a8 .text             UText.obj(?FindWord@UText@@SA_NPBXKKKAAK1@Z)
00477b50 00000024 .text             UText.obj(?IsGraph@UText@@SA_NGK@Z)
00477b80 00000024 .text             UText.obj(?IsPrinting@UText@@SA_NGK@Z)
00477bb0 00000024 .text             UText.obj(?IsSpace@UText@@SA_NGK@Z)
00477be0 00000886 .text             UText.obj(?_FormatTextArg@@YAKPADKPBD0@Z)
00478470 0000012f .text             UText.obj(?HexToData@UMemory@@SAKPBXKPAXK@Z)
004785a0 00000135 .text             UApplication(W).obj(?Init@UApplication@@SAXXZ)
004786e0 00000052 .text             UApplication(W).obj(?Process@UApplication@@SAXXZ)
00478740 0000007f .text             UApplication(W).obj(?ProcessAndSleep@UApplication@@SAXXZ)
004787c0 00000053 .text             UApplication(W).obj(?ProcessOnly@UApplication@@SAXPBK@Z)
00478820 00000023 .text             UApplication(W).obj(?Run@UApplication@@SAXXZ)
00478850 00000011 .text             UApplication(W).obj(?Quit@UApplication@@SAXXZ)
00478870 0000000a .text             UApplication(W).obj(?IsQuit@UApplication@@SA_NXZ)
00478880 00000019 .text             UApplication(W).obj(?SetMessageHandler@UApplication@@SAXP6AXPAX0KPBXK@Z0@Z)
004788a0 000000a3 .text             UApplication(W).obj(?SendMessage@UApplication@@SAXKPBXKFP6AXPAX1K0K@Z11@Z)
00478950 00000046 .text             UApplication(W).obj(?PostMessage@UApplication@@SAXKPBXKFP6AXPAX1K0K@Z11@Z)
004789a0 0000002b .text             UApplication(W).obj(?ReplaceMessage@UApplication@@SAXKPBXKFP6AXPAX1K0K@Z11@Z)
004789d0 0000001c .text             UApplication(W).obj(?FlushMessages@UApplication@@SAXP6AXPAX0KPBXK@Z00@Z)
004789f0 00000005 .text             UApplication(W).obj(?SetCanOpenDocuments@UApplication@@SAX_N@Z)
00478a00 00000232 .text             UApplication(W).obj(?GetDocumentToOpen@UApplication@@SAPAVTFSRefObj@@XZ)
00478c40 0000000a .text             UApplication(W).obj(?ShowWantsAttention@UApplication@@SAXXZ)
00478c50 00000007 .text             UApplication(W).obj(?_DispatchThreadMessage@@YA_NK@Z)
00478c60 00000026 .text             UApplication(W).obj(?_APProcess@@YAXPAUtagMSG@@@Z)
00478c90 0000001b .text             UApplication(W).obj(?_APDummyProc@@YGJPAUHWND__@@IIJ@Z)
00478cb0 000000e5 .text             UError.obj(?GetDetailMessage@UError@@SAKABUSError@@PAXK@Z)
00478da0 00000042 .text             UError.obj(?__Fail@@YAXFFPBDK@Z)
00478df0 0000004c .text             UError.obj(?__Fail@@YAXFFPBDK_N1@Z)
00478e40 00000067 .text             UError.obj(??0SError@@QAE@FFPBDK@Z)
00478eb0 00000086 .text             UError.obj(??0SError@@QAE@FFPBDK_N1@Z)
00478f40 00000075 .text             ExceptionX86.obj(__RegisterExceptionTables)
00478fc0 00000205 .text             ExceptionX86.obj(?ExX86_FindExceptionRecord@@YAXPADPAUExceptionInfo@@@Z)
004791d0 00000023 .text             ExceptionX86.obj(?ExX86_CurrentAction@@YAGPBUActionIterator@@@Z)
00479200 00000178 .text             ExceptionX86.obj(?ExX86_NextAction@@YAGPAUActionIterator@@@Z)
00479380 00000131 .text             ExceptionX86.obj(?ExX86_PopStackFrame@@YAPADPAUThrowContext@@PAUExceptionInfo@@@Z)
004794c0 000000bb .text             ExceptionX86.obj(?ExX86_GetLocalAddr@@YAPADPAUThrowContext@@J@Z)
00479580 00000045 .text             ExceptionX86.obj(?ExX86_GetOuterLocalAddr@@YAPADPAUThrowContext@@PAUActionIterator@@J@Z)
004795d0 00000060 .text             ExceptionX86.obj(?ExX86_GetValue@@YAJPAUThrowContext@@JF@Z)
00479630 0000002c .text             ExceptionX86.obj(?ExX86_DestroyLocal@@YAXPAUThrowContext@@PBUex_destroylocal@@@Z)
00479660 00000044 .text             ExceptionX86.obj(?ExX86_DestroyLocalCond@@YAXPAUThrowContext@@PBUex_destroylocalcond@@@Z)
004796b0 0000002f .text             ExceptionX86.obj(?ExX86_DestroyLocalPointer@@YAXPAUThrowContext@@PBUex_destroylocalpointer@@@Z)
004796e0 0000006b .text             ExceptionX86.obj(?ExX86_DestroyLocalArray@@YAXPAUThrowContext@@PBUex_destroylocalarray@@@Z)
00479750 00000095 .text             ExceptionX86.obj(?ExX86_DestroyPartialArray@@YAXPAUThrowContext@@PBUex_destroypartialarray@@@Z)
004797f0 00000035 .text             ExceptionX86.obj(?ExX86_DestroyMember@@YAXPAUThrowContext@@PBUex_destroymember@@H@Z)
00479830 0000004d .text             ExceptionX86.obj(?ExX86_DestroyMemberCond@@YAXPAUThrowContext@@PBUex_destroymembercond@@@Z)
00479880 00000074 .text             ExceptionX86.obj(?ExX86_DestroyMemberArray@@YAXPAUThrowContext@@PBUex_destroymemberarray@@@Z)
00479900 00000025 .text             ExceptionX86.obj(?ExX86_DeletePointer@@YAXPAUThrowContext@@PBUex_deletepointer@@@Z)
00479930 0000003d .text             ExceptionX86.obj(?ExX86_DeletePointerCond@@YAXPAUThrowContext@@PBUex_deletepointercond@@@Z)
00479970 00000274 .text             ExceptionX86.obj(?ExX86_UnwindStack@@YAXPAUThrowContext@@PAUExceptionInfo@@PAX@Z)
00479bf0 00000055 .text             ExceptionX86.obj(?ExX86_IsInSpecification@@YAHPADPAUex_specification@@@Z)
00479c50 00000097 .text             ExceptionX86.obj(___unexpected)
00479cf0 00000041 .text             ExceptionX86.obj(??1bad_exception@std@@UAE@XZ)
00479d40 0000001f .text             ExceptionX86.obj(??1exception@std@@UAE@XZ)
00479d60 00000027 .text             ExceptionX86.obj(??0bad_exception@std@@QAE@XZ)
00479d90 0000001f .text             ExceptionX86.obj(??0exception@std@@QAE@XZ)
00479db0 000000a9 .text             ExceptionX86.obj(?ExX86_HandleUnexpected@@YAXPAUThrowContext@@PAUExceptionInfo@@PAUex_specification@@@Z)
00479e60 00000275 .text             ExceptionX86.obj(?ExX86_ThrowHandler@@YAXPAUThrowContext@@@Z)
0047a0e0 00000039 .text             ExceptionX86.obj(??4ExceptionInfo@@QAEAAU0@ABU0@@Z)
0047a120 0000005b .text             ExceptionX86.obj(___throw)
0047a180 00000013 .text             ExceptionX86.obj(?ignore@@YAXXZ)
0047a1a0 000000f2 .text             ExceptionX86.obj(_ExX86_FindCatcher)
0047a2a0 00000058 .text             ExceptionX86.obj(??_Eexception@std@@UAE@I@Z)
0047a300 00000018 .text             ExceptionX86.obj(?what@exception@std@@UBEPBDXZ)
0047a320 00000058 .text             ExceptionX86.obj(??_Ebad_exception@std@@UAE@I@Z)
0047a380 00000018 .text             ExceptionX86.obj(?what@bad_exception@std@@UBEPBDXZ)
0047a3a0 0000000f .text             ExceptionX86.obj
0047a3b0 00000149 .text             UMemory.obj(?Fill@UMemory@@SAXPAXKE@Z)
0047a500 00000015 .text             UMemory.obj(?Clear@UMemory@@SAXPAXK@Z)
0047a520 00000050 .text             UMemory.obj(?Equal@UMemory@@SA_NPBX0K@Z)
0047a570 000000de .text             UMemory.obj(?Search@UMemory@@SAPAEPBXK0K@Z)
0047a650 00000049 .text             UMemory.obj(?SearchByte@UMemory@@SAPAEEPBXK@Z)
0047a6a0 00000049 .text             UMemory.obj(?SearchByteBackwards@UMemory@@SAPAEEPBXK@Z)
0047a6f0 00000030 .text             UMemory.obj(?SearchLongArray@UMemory@@SAPAKKPBKK@Z)
0047a720 000001be .text             UMemory.obj(?SearchAndReplaceAll@UMemory@@SAKPAVTHdlObj@@KPBXK1K@Z)
0047a8e0 00000079 .text             UMemory.obj(?Compare@UMemory@@SAFPBX0K@Z)
0047a960 00000036 .text             UMemory.obj(?Compare@UMemory@@SAFPBXK0K@Z)
0047a9a0 00000037 .text             UMemory.obj(?Checksum@UMemory@@SAKPBXKK@Z)
0047a9e0 00000040 .text             UMemory.obj(?CRC@UMemory@@SAKPBXKK@Z)
0047aa20 00000095 .text             UMemory.obj(?Token@UMemory@@SA_NPBXKPBDAAK2@Z)
0047aac0 0000003e .text             UMemory.obj(?__copy_mem@@YAXPAXPBXK@Z)
0047ab00 00000071 .text             UMemory.obj(?__move_mem@@YAXPAXPBXK@Z)
0047ab80 00000028 .text             UMemory.obj(?_IsDelim@@YA_NEPBD@Z)
0047abb0 00000010 .text             UMemory.obj(??2@YAPAXI@Z)
0047abc0 00000032 .text             UMemory.obj(??3@YAXPAX@Z)
0047ac00 00000005 .text             UMemory(W).obj(?Init@UMemory@@SAXXZ)
0047ac10 00000063 .text             UMemory(W).obj(?New@UMemory@@SAPAVTPtrObj@@K@Z)
0047ac80 00000030 .text             UMemory(W).obj(?New@UMemory@@SAPAVTPtrObj@@PBXK@Z)
0047acb0 00000056 .text             UMemory(W).obj(?NewClear@UMemory@@SAPAVTPtrObj@@K@Z)
0047ad10 00000044 .text             UMemory(W).obj(?Dispose@UMemory@@SAXPAVTPtrObj@@@Z)
0047ad60 00000095 .text             UMemory(W).obj(?NewHandle@UMemory@@SAPAVTHdlObj@@KK@Z)
0047ae00 00000096 .text             UMemory(W).obj(?NewHandle@UMemory@@SAPAVTHdlObj@@PBXKK@Z)
0047aea0 00000077 .text             UMemory(W).obj(?NewHandleClear@UMemory@@SAPAVTHdlObj@@KK@Z)
0047af20 000000a9 .text             UMemory(W).obj(?Clone@UMemory@@SAPAVTHdlObj@@PAV2@@Z)
0047afd0 00000090 .text             UMemory(W).obj(?Dispose@UMemory@@SAXPAVTHdlObj@@@Z)
0047b060 00000108 .text             UMemory(W).obj(?SetSize@UMemory@@SAXPAVTHdlObj@@K@Z)
0047b170 0000005d .text             UMemory(W).obj(?GetSize@UMemory@@SAKPAVTHdlObj@@@Z)
0047b1d0 00000091 .text             UMemory(W).obj(?Reallocate@UMemory@@SAPAVTPtrObj@@PAV2@K@Z)
0047b270 000000ea .text             UMemory(W).obj(?Reallocate@UMemory@@SAXPAVTHdlObj@@K@Z)
0047b360 000000ea .text             UMemory(W).obj(?ReallocateClear@UMemory@@SAXPAVTHdlObj@@K@Z)
0047b450 0000002f .text             UMemory(W).obj(?Lock@UMemory@@SAPAEPAVTHdlObj@@@Z)
0047b480 00000062 .text             UMemory(W).obj(?Unlock@UMemory@@SAXPAVTHdlObj@@@Z)
0047b4f0 00000031 .text             UMemory(W).obj(?SetDiscardable@UMemory@@SAXPAVTHdlObj@@@Z)
0047b530 00000042 .text             UMemory(W).obj(?ClearDiscardable@UMemory@@SA_NPAVTHdlObj@@@Z)
0047b580 000000bc .text             UMemory(W).obj(?Set@UMemory@@SAXPAVTHdlObj@@PBXK@Z)
0047b640 000000ef .text             UMemory(W).obj(?Append@UMemory@@SAXPAVTHdlObj@@PBXK@Z)
0047b730 00000124 .text             UMemory(W).obj(?Insert@UMemory@@SAKPAVTHdlObj@@KPBXK@Z)
0047b860 00000125 .text             UMemory(W).obj(?Remove@UMemory@@SAKPAVTHdlObj@@KK@Z)
0047b990 000001fc .text             UMemory(W).obj(?Replace@UMemory@@SAKPAVTHdlObj@@KKPBXK@Z)
0047bb90 00000085 .text             UMemory(W).obj(?Read@UMemory@@SAKPAVTHdlObj@@KPAXK@Z)
0047bc20 0000005d .text             UMemory(W).obj(?ReadLong@UMemory@@SAKPAVTHdlObj@@K@Z)
0047bc80 00000061 .text             UMemory(W).obj(?WriteLong@UMemory@@SAXPAVTHdlObj@@KK@Z)
0047bcf0 0000005e .text             UMemory(W).obj(?ReadWord@UMemory@@SAGPAVTHdlObj@@K@Z)
0047bd50 00000019 .text             UMemory(W).obj(?Copy@UMemory@@SAKPAXPBXK@Z)
0047bd70 00000073 .text             UMemory(W).obj(?_HdlToWinHdl@@YAPAXPAVTHdlObj@@PAK@Z)
0047bdf0 00000031 .text             UWindow(W).obj(?_UninitWindow@@YAXXZ)
0047be30 000002cd .text             UWindow(W).obj(?Init@UWindow@@SAXXZ)
0047c100 000004c3 .text             UWindow(W).obj(?New@UWindow@@SAPAVTWindowObj@@ABVSRect@@GGGPAV2@@Z)
0047c5d0 000000d7 .text             UWindow(W).obj(?Dispose@UWindow@@SAXPAVTWindowObj@@@Z)
0047c6b0 0000008e .text             UWindow(W).obj(?SetTitle@UWindow@@SAXPAVTWindowObj@@PBE@Z)
0047c740 00000034 .text             UWindow(W).obj(?GetTitle@UWindow@@SAKPAVTWindowObj@@PAXK@Z)
0047c780 0000002a .text             UWindow(W).obj(?SetRef@UWindow@@SAXPAVTWindowObj@@PAX@Z)
0047c7b0 00000027 .text             UWindow(W).obj(?GetRef@UWindow@@SAPAXPAVTWindowObj@@@Z)
0047c7e0 0000014c .text             UWindow(W).obj(?SetVisible@UWindow@@SAXPAVTWindowObj@@G@Z)
0047c930 00000032 .text             UWindow(W).obj(?IsVisible@UWindow@@SA_NPAVTWindowObj@@@Z)
0047c970 0000003c .text             UWindow(W).obj(?IsChild@UWindow@@SA_NPAVTWindowObj@@0@Z)
0047c9b0 00000074 .text             UWindow(W).obj(?GetChildrenList@UWindow@@SA_NPAVTWindowObj@@AAV?$CPtrList@VCWindow@@@@@Z)
0047ca30 0000009b .text             UWindow(W).obj(?SetBackColor@UWindow@@SAXPAVTWindowObj@@ABVSColor@@@Z)
0047cad0 00000021 .text             UWindow(W).obj(?SetBackPattern@UWindow@@SAXPAVTWindowObj@@F@Z)
0047cb00 00000028 .text             UWindow(W).obj(?GetLayer@UWindow@@SAGPAVTWindowObj@@@Z)
0047cb30 000000ca .text             UWindow(W).obj(?SetBounds@UWindow@@SAXPAVTWindowObj@@ABVSRect@@@Z)
0047cc00 000000ed .text             UWindow(W).obj(?GetBounds@UWindow@@SAXPAVTWindowObj@@AAVSRect@@@Z)
0047ccf0 000000ca .text             UWindow(W).obj(?SetLimits@UWindow@@SAXPAVTWindowObj@@JJJJ@Z)
0047cdc0 00000592 .text             UWindow(W).obj(?GetAutoBounds@UWindow@@SA_NPAVTWindowObj@@GABVSRect@@AAV3@@Z)
0047d360 000000f6 .text             UWindow(W).obj(?GetAutoBounds@UWindow@@SA_NPAVTWindowObj@@GGAAVSRect@@@Z)
0047d460 0000000e .text             UWindow(W).obj(?SetMainWindow@UWindow@@SAXPAVTWindowObj@@@Z)
0047d470 00000030 .text             UWindow(W).obj(?GetZoomBounds@UWindow@@SA_NPAVTWindowObj@@ABVSRect@@AAV3@@Z)
0047d4a0 00000028 .text             UWindow(W).obj(?GetState@UWindow@@SAGPAVTWindowObj@@@Z)
0047d4d0 00000053 .text             UWindow(W).obj(?SetMessageHandler@UWindow@@SAXPAVTWindowObj@@P6AXPAX1KPBXK@Z1@Z)
0047d530 0000004f .text             UWindow(W).obj(?PostMessage@UWindow@@SAXPAVTWindowObj@@KPBXKF@Z)
0047d580 00000056 .text             UWindow(W).obj(?InstallKeyCommands@UWindow@@SAXPBUSKeyCmd@@KP6AXPAX1KPBXK@Z1@Z)
0047d5e0 00000064 .text             UWindow(W).obj(?GetFront@UWindow@@SAPAVTWindowObj@@G@Z)
0047d650 0000007d .text             UWindow(W).obj(?BringToFront@UWindow@@SA_NPAVTWindowObj@@_N@Z)
0047d6d0 00000066 .text             UWindow(W).obj(?InsertAfter@UWindow@@SA_NPAVTWindowObj@@0_N@Z)
0047d740 00000007 .text             UWindow(W).obj(?InModal@UWindow@@SA_NXZ)
0047d750 00000033 .text             UWindow(W).obj(?GetFocus@UWindow@@SAPAVTWindowObj@@XZ)
0047d790 00000055 .text             UWindow(W).obj(?SetMouseCaptureWindow@UWindow@@SAXPAVTWindowObj@@@Z)
0047d7f0 0000005f .text             UWindow(W).obj(?ReleaseMouseCaptureWindow@UWindow@@SAXPAVTWindowObj@@@Z)
0047d850 0000002e .text             UWindow(W).obj(?Expand@UWindow@@SAXPAVTWindowObj@@@Z)
0047d880 00000032 .text             UWindow(W).obj(?IsCollapsed@UWindow@@SA_NPAVTWindowObj@@@Z)
0047d8c0 00000032 .text             UWindow(W).obj(?IsZoomed@UWindow@@SA_NPAVTWindowObj@@@Z)
0047d900 0000002f .text             UWindow(W).obj(?GlobalToLocal@UWindow@@SAXPAVTWindowObj@@AAVSPoint@@@Z)
0047d930 00000050 .text             UWindow(W).obj(?GetRedrawRect@UWindow@@SA_NPAVTWindowObj@@AAVSRect@@@Z)
0047d980 00000030 .text             UWindow(W).obj(?Refresh@UWindow@@SAXPAVTWindowObj@@@Z)
0047d9b0 00000075 .text             UWindow(W).obj(?Refresh@UWindow@@SAXPAVTWindowObj@@ABVSRect@@@Z)
0047da30 00000026 .text             UWindow(W).obj(?GetDepth@UWindow@@SAGPAVTWindowObj@@@Z)
0047da60 0000032c .text             UWindow(W).obj(?BeginDraw@UWindow@@SAPAVTImageObj@@PAVTWindowObj@@ABVSRect@@@Z)
0047dd90 000000d1 .text             UWindow(W).obj(?EndDraw@UWindow@@SAXPAVTWindowObj@@@Z)
0047de70 00000090 .text             UWindow(W).obj(?AbortDraw@UWindow@@SAXPAVTWindowObj@@@Z)
0047df00 000001ca .text             UWindow(W).obj(?_WNMyMaximize@@YAXPAVTWindowObj@@@Z)
0047e0d0 00001b5a .text             UWindow(W).obj(?_WNWndProc@@YGJPAUHWND__@@IIJ@Z)
0047fc30 0000003e .text             UWindow(W).obj(?_WNSendMessageToMDIKids@@YAXGIJ@Z)
0047fc70 00000215 .text             UWindow(W).obj(?_WNFrameWndProc@@YGJPAUHWND__@@IIJ@Z)
0047fe90 00000062 .text             UWindow(W).obj(?_SetWinIcon@@YAXPAVTWindowObj@@F@Z)
0047ff00 00000052 .text             UWindow(W).obj(?_RemoveFromLayer@@YAXPAUSWindow@@@Z)
0047ff60 0000011a .text             UWindow(W).obj(?_AddToLayerAndGetInsertAfter@@YAPAUHWND__@@PAUSWindow@@PAU1@@Z)
00480080 000000c3 .text             UWindow(W).obj(?_PutInLayer@@YAXPAUSWindow@@@Z)
00480150 00000071 .text             UWindow(W).obj(?_GetTopVisibleModalWindow@@YAPAUSWindow@@XZ)
004801d0 0000009a .text             UWindow(W).obj(?_GetPrevVisibleWindow@@YAPAUHWND__@@PAUSWindow@@PAU1@@Z)
00480270 00000080 .text             UWindow(W).obj(?_GetBottomWindow@@YAPAUHWND__@@PAUSWindow@@@Z)
004802f0 0000003d .text             UWindow(W).obj(?_GetModalParentWindow@@YAPAUHWND__@@XZ)
00480330 00000064 .text             UWindow(W).obj(?_IsTopVisibleModalWindow@@YA_NXZ)
004803a0 00000043 .text             UWindow(W).obj(?_IsInWindowList@@YA_NPAUHWND__@@@Z)
004803f0 00000010 .text             UWindow(W).obj(?_StateTimerProc@@YAXPAX0KPBXK@Z)
00480400 0000005d .text             UWindow(W).obj(?_FlashTimerProc@@YAXPAX0KPBXK@Z)
00480460 00000484 .text             UWindow(W).obj(?_CheckWindowStates@@YAXXZ)
004808f0 00000099 .text             UWindow(W).obj(?_StandardDialogBox@@YA_NE@Z)
00480990 00000067 .text             UWindow(W).obj(?_ShowWantsAttention@@YAXXZ)
00480a00 000001c2 .text             UWindow(W).obj(?_ActivateNextWindow@@YA_NXZ)
00480bd0 00000075 .text             UWindow(W).obj(?_ActivateNextApp@@YAXXZ)
00480c50 00000124 .text             UWindow(W).obj(?_WNDispatchDrag@@YAXPAVTWindowObj@@PAVTDragObj@@KKU_POINTL@@@Z)
00480d80 0000004c .text             UWindow(W).obj(?_WNPostMouseUp@@YAXXZ)
00480dd0 00000072 .text             UWindow(W).obj(?_GetRealWinBounds@@YAXPAVTWindowObj@@AAVSRect@@@Z)
00480e50 00000016 .text             UWindow(W).obj(?_GetRealWinBounds@@YAXPAVCWindow@@AAVSRect@@@Z)
00480e70 0000006b .text             UWindow(W).obj(?_SetRealWinLocation@@YAXPAVCWindow@@VSPoint@@0@Z)
00480ee0 000000cc .text             UWindow(W).obj(?_GetScreenBounds@@YAXAAVSRect@@@Z)
00480fb0 000003b3 .text             UWindow(W).obj(?_WNCalcUnobstructedBounds@@YAXPAVTWindowObj@@AAVSRect@@@Z)
00481370 00000054 .text             UWindow(W).obj(?_RegisterWithQuickTime@@YAXPAVTWindowObj@@@Z)
004813d0 000000b2 .text             UWindow(W).obj(?_InitQuickTime@@YAXPAVTWindowObj@@PAUMovieRecord@@@Z)
00481490 0000003a .text             UWindow(W).obj(?_UpdateQuickTime@@YAXPAVTWindowObj@@PAUComponentInstanceRecord@@PAUMovieRecord@@_N@Z)
004814d0 000000e3 .text             UWindow(W).obj(?_SendToQuickTime@@YA_NPAVTWindowObj@@IIJ@Z)
004815c0 0000003c .text             UWindow(W).obj(?_UnregisterWithQuickTime@@YAXPAVTWindowObj@@@Z)
00481600 00000126 .text             CWindow.obj(??0CWindow@@QAE@ABVSRect@@GGGPAV0@@Z)
00481730 0000008f .text             CWindow.obj(??1CWindow@@UAE@XZ)
004817c0 000000eb .text             CWindow.obj(?Draw@CWindow@@UAEXABVSRect@@@Z)
004818b0 00000035 .text             CWindow.obj(?MouseDown@CWindow@@UAEXABUSMouseMsgData@@@Z)
004818f0 00000035 .text             CWindow.obj(?MouseUp@CWindow@@UAEXABUSMouseMsgData@@@Z)
00481930 0000003d .text             CWindow.obj(?MouseEnter@CWindow@@UAEXABUSMouseMsgData@@@Z)
00481970 00000035 .text             CWindow.obj(?MouseMove@CWindow@@UAEXABUSMouseMsgData@@@Z)
004819b0 00000035 .text             CWindow.obj(?MouseLeave@CWindow@@UAEXABUSMouseMsgData@@@Z)
004819f0 00000035 .text             CWindow.obj(?KeyDown@CWindow@@UAEXABUSKeyMsgData@@@Z)
00481a30 00000035 .text             CWindow.obj(?KeyUp@CWindow@@UAEXABUSKeyMsgData@@@Z)
00481a70 00000035 .text             CWindow.obj(?KeyRepeat@CWindow@@UAEXABUSKeyMsgData@@@Z)
00481ab0 00000035 .text             CWindow.obj(?DragEnter@CWindow@@UAEXABUSDragMsgData@@@Z)
00481af0 00000035 .text             CWindow.obj(?DragMove@CWindow@@UAEXABUSDragMsgData@@@Z)
00481b30 00000035 .text             CWindow.obj(?DragLeave@CWindow@@UAEXABUSDragMsgData@@@Z)
00481b70 0000005e .text             CWindow.obj(?Drop@CWindow@@UAE_NABUSDragMsgData@@@Z)
00481bd0 0000006f .text             CWindow.obj(?SendToQuickTime@CWindow@@UAEXABUEventRecord@@@Z)
00481c40 00000068 .text             CWindow.obj(?UserClose@CWindow@@UAEXABUSMouseMsgData@@@Z)
00481cb0 0000006a .text             CWindow.obj(?UserZoom@CWindow@@UAEXABUSMouseMsgData@@@Z)
00481d20 0000006e .text             CWindow.obj(?BoundsChanged@CWindow@@UAEXXZ)
00481d90 00000040 .text             CWindow.obj(?StateChanged@CWindow@@UAEXXZ)
00481dd0 0000008a .text             CWindow.obj(?Hit@CWindow@@UAEXABUSHitMsgData@@@Z)
00481e60 00000048 .text             CWindow.obj(?ProcessModal@CWindow@@QAEXXZ)
00481eb0 0000001c .text             CWindow.obj(?TimerHandler@CWindow@@KAXPAX0KPBXK@Z)
00481ed0 00000015 .text             CWindow.obj(?Timer@CWindow@@UAEXPAVTTimerObj@@@Z)
00481ef0 00000025 .text             CWindow.obj(?MessageHandler@CWindow@@KAXPAX0KPBXK@Z)
00481f20 0000033d .text             CWindow.obj(?HandleMessage@CWindow@@UAEXPAXKPBXK@Z)
00482260 00000084 .text             CWindow.obj(?GetHit@CWindow@@QAE_NAAUSHitMsgData@@K@Z)
004822f0 00000055 .text             CWindow.obj(?GetHitID@CWindow@@QAEKXZ)
00482350 00000028 .text             CWindow.obj(?GetChildrenList@CWindow@@QAE_NAAV?$CPtrList@VCWindow@@@@@Z)
00482380 0000007a .text             CWindow.obj(?SetBounds@CWindow@@UAEXABVSRect@@@Z)
00482400 00000054 .text             CWindow.obj(?SetAutoBounds@CWindow@@QAEXGG@Z)
00482460 00000058 .text             CWindow.obj(?SetLocation@CWindow@@QAEXABVSPoint@@@Z)
004824c0 0000003d .text             CWindow.obj(?InsertAfter@CWindow@@QAE_NPAV1@_N@Z)
00482500 00000036 .text             CWindow.obj(?GetFront@CWindow@@SAPAV1@G@Z)
00482540 0000004e .text             CWindow.obj(?MouseCaptureReleased@CWindow@@UAEXXZ)
00482590 00000020 .text             CWindow.obj(?MakeNoResizeWin@CWindow@@QAEXXZ)
004825b0 00000020 .text             CWindow.obj(?MakeKeepOnScreenWin@CWindow@@QAEXXZ)
004825d0 00000022 .text             CWindow.obj(?IsValid@CWindow@@SA_NPAV1@@Z)
00482600 00000075 .text             CWindow.obj(?HandleInstall@CWindow@@MAEXPAVCView@@@Z)
00482680 00000077 .text             CWindow.obj(?HandleRemove@CWindow@@MAEXPAVCView@@@Z)
00482700 00000025 .text             CWindow.obj(?HandleRefresh@CWindow@@MAEXPAVCView@@ABVSRect@@@Z)
00482730 00000035 .text             CWindow.obj(?HandleHit@CWindow@@MAEXPAVCView@@ABUSHitMsgData@@@Z)
00482770 00000040 .text             CWindow.obj(?HandleGetScreenDelta@CWindow@@MAEXPAVCView@@AAJ1@Z)
004827b0 0000005d .text             CWindow.obj(?HandleGetVisibleRect@CWindow@@MAEXPAVCView@@AAVSRect@@@Z)
00482810 00000054 .text             CWindow.obj(?HandleCaptureMouse@CWindow@@MAEXPAVCView@@@Z)
00482870 00000041 .text             CWindow.obj(?HandleReleaseMouse@CWindow@@MAEXPAVCView@@@Z)
004828c0 0000002e .text             CWindow.obj(?HandleGetCaptureMouseView@CWindow@@MAEPAVCView@@XZ)
004828f0 00000016 .text             CWindow.obj(?HandleGetParentWindow@CWindow@@MAEPAV1@XZ)
00482910 0000001e .text             CWindow.obj(??0CWindowList@@QAE@XZ)
00482930 00000026 .text             CWindow.obj(??1CWindowList@@QAE@XZ)
00482960 00000031 .text             CWindow.obj(?AddWindow@CWindowList@@QAEKPAVCWindow@@@Z)
004829a0 00000031 .text             CWindow.obj(?RemoveWindow@CWindowList@@QAEKPAVCWindow@@@Z)
004829e0 0000006f .text             CWindow.obj(?ClearWindowList@CWindowList@@QAEXXZ)
00482a50 0000001a .text             CWindow.obj(?EnableSnapWindows@UWindow@@SAX_NJJ@Z)
00482a70 0000012f .text             CWindow.obj(??0CSnapWindows@@QAE@XZ)
00482ba0 0000006e .text             CWindow.obj(??1CSnapWindows@@QAE@XZ)
00482c10 00000030 .text             CWindow.obj(?EnableSnapWindows@CSnapWindows@@QAEX_NJJ@Z)
00482c40 00000018 .text             CWindow.obj(?IsEnableSnapWindows@CSnapWindows@@QAE_NXZ)
00482c60 0000002d .text             CWindow.obj(?AddNoResizeWin@CSnapWindows@@QAEXPAVCWindow@@@Z)
00482c90 0000002d .text             CWindow.obj(?AddKeepOnScreenWin@CSnapWindows@@QAEXPAVCWindow@@@Z)
00482cc0 00000049 .text             CWindow.obj(?RemoveWindow@CSnapWindows@@QAEXPAVCWindow@@@Z)
00482d10 000000db .text             CWindow.obj(?CreateSnapWinList@CSnapWindows@@QAEXPAVCWindow@@@Z)
00482df0 0000005a .text             CWindow.obj(?CreateSnapSound@CSnapWindows@@QAEXPAVCWindow@@@Z)
00482e50 0000012a .text             CWindow.obj(?DestroySnapWinListSound@CSnapWindows@@QAEX_N@Z)
00482f80 00000304 .text             CWindow.obj(?WinSnapTogether@CSnapWindows@@QAE_NPAVCWindow@@AAVSRect@@_N@Z)
00483290 0000007c .text             CWindow.obj(?WinMoveTogether@CSnapWindows@@QAEXPAVCWindow@@@Z)
00483310 0000025a .text             CWindow.obj(?WinMoveTogether@CSnapWindows@@QAEXPAVCWindow@@VSRect@@@Z)
00483570 00000054 .text             CWindow.obj(?WinKeepOnScreen@CSnapWindows@@QAE_NPAVCWindow@@AAVSRect@@@Z)
004835d0 00000920 .text             CWindow.obj(?RectSnapTogether@CSnapWindows@@IAE_NAAVSRect@@V2@_N@Z)
00483ef0 0000015e .text             CWindow.obj(?RectSnapScreen@CSnapWindows@@IAE_NAAVSRect@@_N@Z)
00484050 00000100 .text             CWindow.obj(?RectKeepOnScreen@CSnapWindows@@IAE_NAAVSRect@@@Z)
00484150 00000279 .text             CWindow.obj(?ComposeSnapWinList@CSnapWindows@@IAEXPAVCWindow@@VSRect@@@Z)
004843d0 00000564 .text             CWindow.obj(?ComposeSnapSound@CSnapWindows@@IAEXPAVCWindow@@VSRect@@_N2@Z)
00484940 00000047 .text             CWindow.obj
00484990 000000e6 .text             CTextView.obj(??0CTextView@@QAE@PAVCViewHandler@@ABVSRect@@G@Z)
00484a80 00000040 .text             CTextView.obj(??1CTextView@@UAE@XZ)
00484ac0 0000003b .text             CTextView.obj(?SetFont@CTextView@@QAEXPAVTFontDescObj@@@Z)
00484b00 00000045 .text             CTextView.obj(?SetFont@CTextView@@QAEXPBE0KK@Z)
00484b50 0000003b .text             CTextView.obj(?SetFontSize@CTextView@@QAEXK@Z)
00484b90 0000003f .text             CTextView.obj(?SetText@CTextView@@QAEXPBXK@Z)
00484bd0 0000003b .text             CTextView.obj(?SetTextHandle@CTextView@@QAEXPAVTHdlObj@@@Z)
00484c10 0000003f .text             CTextView.obj(?DetachTextHandle@CTextView@@QAEPAVTHdlObj@@XZ)
00484c50 00000047 .text             CTextView.obj(?InsertText@CTextView@@QAEXKPBXK_N@Z)
00484ca0 00000044 .text             CTextView.obj(?DeleteText@CTextView@@QAEXKK_N@Z)
00484cf0 0000002e .text             CTextView.obj(?Draw@CTextView@@UAEXPAVTImageObj@@ABVSRect@@K@Z)
00484d20 00000030 .text             CTextView.obj(?MouseDown@CTextView@@UAEXABUSMouseMsgData@@@Z)
00484d50 00000030 .text             CTextView.obj(?MouseUp@CTextView@@UAEXABUSMouseMsgData@@@Z)
00484d80 00000030 .text             CTextView.obj(?MouseEnter@CTextView@@UAEXABUSMouseMsgData@@@Z)
00484db0 00000030 .text             CTextView.obj(?MouseLeave@CTextView@@UAEXABUSMouseMsgData@@@Z)
00484de0 00000030 .text             CTextView.obj(?MouseMove@CTextView@@UAEXABUSMouseMsgData@@@Z)
00484e10 00000165 .text             CTextView.obj(?KeyDown@CTextView@@UAE_NABUSKeyMsgData@@@Z)
00484f80 00000015 .text             CTextView.obj(?KeyUp@CTextView@@UAEXABUSKeyMsgData@@@Z)
00484fa0 00000022 .text             CTextView.obj(?KeyRepeat@CTextView@@UAE_NABUSKeyMsgData@@@Z)
00484fd0 0000003c .text             CTextView.obj(?SetBounds@CTextView@@UAE_NABVSRect@@@Z)
00485010 000000a1 .text             CTextView.obj(?UpdateActive@CTextView@@IAEXXZ)
004850c0 00000046 .text             CTextView.obj(?ChangeState@CTextView@@UAE_NG@Z)
00485110 0000001f .text             CTextView.obj(?SetTabSelectText@CTextView@@QAEX_N@Z)
00485130 00000052 .text             CTextView.obj(?TabFocusNext@CTextView@@UAE_NXZ)
00485190 00000052 .text             CTextView.obj(?TabFocusPrev@CTextView@@UAE_NXZ)
004851f0 00000061 .text             CTextView.obj(?SetEnable@CTextView@@UAE_N_N@Z)
00485260 00000030 .text             CTextView.obj(?DragEnter@CTextView@@UAEXABUSDragMsgData@@@Z)
00485290 00000030 .text             CTextView.obj(?DragMove@CTextView@@UAEXABUSDragMsgData@@@Z)
004852c0 00000030 .text             CTextView.obj(?DragLeave@CTextView@@UAEXABUSDragMsgData@@@Z)
004852f0 0000008a .text             CTextView.obj(?Drop@CTextView@@UAE_NABUSDragMsgData@@@Z)
00485380 00000033 .text             CTextView.obj(?TextDrawHandler@CTextView@@KAXPAUSEditText@@ABVSRect@@@Z)
004853c0 0000002a .text             CTextView.obj(?TextScreenDeltaHandler@CTextView@@KAXPAUSEditText@@AAJ1@Z)
004853f0 00000021 .text             CTextView.obj(?Timer@CTextView@@UAEXPAVTTimerObj@@@Z)
00485420 00000027 .text             CTextView.obj(?IsSelfDrag@CTextView@@UBE_NPAVTDragObj@@@Z)
00485450 00000021 .text             CTextView.obj(?GetFullHeight@CTextView@@UBEKXZ)
00485480 00000029 .text             CTextView.obj(?SetEnterKeyAction@CTextView@@QAEXGG@Z)
004854b0 00000118 .text             CTextView.obj(?MakeTextBoxView@@YAPAVCScrollerView@@PAVCViewHandler@@ABVSRect@@GPAPAVCTextView@@@Z)
004855d0 0000021e .text             CView.obj(??0CView@@QAE@PAVCViewHandler@@ABVSRect@@@Z)
004857f0 0000009c .text             CView.obj(??1CView@@UAE@XZ)
00485890 00000093 .text             CView.obj(?SetHandler@CView@@UAEXPAVCViewHandler@@@Z)
00485930 00000026 .text             CView.obj(?GetRegion@CView@@UBEXPAVTRegionObj@@@Z)
00485960 000001bf .text             CView.obj(?SetBounds@CView@@UAE_NABVSRect@@@Z)
00485b20 0000010e .text             CView.obj(?SetVisible@CView@@UAE_N_N@Z)
00485c30 00000059 .text             CView.obj(?SetEnable@CView@@UAE_N_N@Z)
00485c90 00000036 .text             CView.obj(?SetCanFocus@CView@@UAEX_N@Z)
00485cd0 00000076 .text             CView.obj(?ChangeState@CView@@UAE_NG@Z)
00485d50 00000080 .text             CView.obj(?TabFocusNext@CView@@UAE_NXZ)
00485dd0 00000080 .text             CView.obj(?TabFocusPrev@CView@@UAE_NXZ)
00485e50 00000015 .text             CView.obj(?Draw@CView@@UAEXPAVTImageObj@@ABVSRect@@K@Z)
00485e70 000000f9 .text             CView.obj(?Hit@CView@@QAEXKKKPBXK@Z)
00485f70 0000006c .text             CView.obj(?MouseDown@CView@@UAEXABUSMouseMsgData@@@Z)
00485fe0 0000008e .text             CView.obj(?MouseUp@CView@@UAEXABUSMouseMsgData@@@Z)
00486070 000000a1 .text             CView.obj(?MouseEnter@CView@@UAEXABUSMouseMsgData@@@Z)
00486120 000000ae .text             CView.obj(?MouseMove@CView@@UAEXABUSMouseMsgData@@@Z)
004861d0 0000006e .text             CView.obj(?MouseLeave@CView@@UAEXABUSMouseMsgData@@@Z)
00486240 00000046 .text             CView.obj(?CaptureMouse@CView@@QAEXXZ)
00486290 00000043 .text             CView.obj(?ReleaseMouse@CView@@QAEXXZ)
004862e0 00000036 .text             CView.obj(?MouseCaptureReleased@CView@@UAEXXZ)
00486320 00000017 .text             CView.obj(?KeyDown@CView@@UAE_NABUSKeyMsgData@@@Z)
00486340 00000015 .text             CView.obj(?KeyUp@CView@@UAEXABUSKeyMsgData@@@Z)
00486360 00000017 .text             CView.obj(?KeyRepeat@CView@@UAE_NABUSKeyMsgData@@@Z)
00486380 00000017 .text             CView.obj(?IsSelfDrag@CView@@UBE_NPAVTDragObj@@@Z)
004863a0 00000052 .text             CView.obj(?DragEnter@CView@@UAEXABUSDragMsgData@@@Z)
00486400 00000025 .text             CView.obj(?DragMove@CView@@UAEXABUSDragMsgData@@@Z)
00486430 00000043 .text             CView.obj(?DragLeave@CView@@UAEXABUSDragMsgData@@@Z)
00486480 00000017 .text             CView.obj(?Drop@CView@@UAE_NABUSDragMsgData@@@Z)
004864a0 00000013 .text             CView.obj(?UpdateQuickTime@CView@@UAEXXZ)
004864c0 00000015 .text             CView.obj(?SendToQuickTime@CView@@UAEXABUEventRecord@@@Z)
004864e0 00000019 .text             CView.obj(?TimerHandler@CView@@KAXPAX0KPBXK@Z)
00486500 00000015 .text             CView.obj(?Timer@CView@@UAEXPAVTTimerObj@@@Z)
00486520 0000003c .text             CView.obj(?GetFullSize@CView@@UBEXAAK0@Z)
00486560 0000001f .text             CView.obj(?GetFullHeight@CView@@UBEKXZ)
00486580 0000001f .text             CView.obj(?GetFullWidth@CView@@UBEKXZ)
004865a0 0000006c .text             CView.obj(?SetFullSize@CView@@QAEXXZ)
00486610 0000005f .text             CView.obj(?SetFullHeight@CView@@QAEXXZ)
00486670 0000005f .text             CView.obj(?SetFullWidth@CView@@QAEXXZ)
004866d0 000000ac .text             CView.obj(?Refresh@CView@@MAEXABVSRect@@@Z)
00486780 00000050 .text             CView.obj(?GetScreenDelta@CView@@QBEXAAJ0@Z)
004867d0 0000007c .text             CView.obj(?IsPointWithin@CView@@UBE_NABVSPoint@@@Z)
00486850 00000038 .text             CView.obj(?SetHasChanged@CView@@UAEX_N@Z)
00486890 0000003a .text             CView.obj(?MakeRectVisible@CView@@QAEXABVSRect@@G@Z)
004868d0 00000086 .text             CView.obj(?GetVisibleRect@CView@@QBEXAAVSRect@@@Z)
00486960 000000a3 .text             CView.obj(?SetTooltipMsg@CView@@QAEXPBE0@Z)
00486a10 00000039 .text             CView.obj(?GetParentWindow@CView@@QAEPAVCWindow@@XZ)
00486a50 00000015 .text             CView.obj(?HandleInstall@CViewHandler@@UAEXPAVCView@@@Z)
00486a70 00000015 .text             CView.obj(?HandleRemove@CViewHandler@@UAEXPAVCView@@@Z)
00486a90 00000015 .text             CView.obj(?HandleSetBounds@CViewHandler@@UAEXPAVCView@@ABVSRect@@@Z)
00486ab0 00000015 .text             CView.obj(?HandleRefresh@CViewHandler@@UAEXPAVCView@@ABVSRect@@@Z)
00486ad0 00000015 .text             CView.obj(?HandleSetVisible@CViewHandler@@UAEXPAVCView@@_N@Z)
00486af0 00000015 .text             CView.obj(?HandleHit@CViewHandler@@UAEXPAVCView@@ABUSHitMsgData@@@Z)
00486b10 00000015 .text             CView.obj(?HandleMakeRectVisible@CViewHandler@@UAEXABVSRect@@G@Z)
00486b30 00000015 .text             CView.obj(?HandleCaptureMouse@CViewHandler@@UAEXPAVCView@@@Z)
00486b50 00000015 .text             CView.obj(?HandleReleaseMouse@CViewHandler@@UAEXPAVCView@@@Z)
00486b70 00000018 .text             CView.obj(?HandleGetCaptureMouseView@CViewHandler@@UAEPAVCView@@XZ)
00486b90 00000018 .text             CView.obj(?HandleGetParentWindow@CViewHandler@@UAEPAVCWindow@@XZ)
00486bb0 00000028 .text             CView.obj(?HandleGetScreenDelta@CViewHandler@@UAEXPAVCView@@AAJ1@Z)
00486be0 00000078 .text             CView.obj(?HandleGetVisibleRect@CViewHandler@@UAEXPAVCView@@AAVSRect@@@Z)
00486c60 00000028 .text             CView.obj(?HandleGetOrigin@CViewHandler@@UAEXAAVSPoint@@@Z)
00486c90 00000047 .text             CView.obj(??_ECView@@UAE@I@Z)
00486ce0 00000184 .text             UEditText.obj(?New@UEditText@@SAPAUSEditText@@ABVSRect@@G@Z)
00486e70 0000004a .text             UEditText.obj(?Dispose@UEditText@@SAXPAUSEditText@@@Z)
00486ec0 0000014e .text             UEditText.obj(?SetBounds@UEditText@@SAXPAUSEditText@@ABVSRect@@@Z)
00487010 00000062 .text             UEditText.obj(?GetFullHeight@UEditText@@SAKPAUSEditText@@@Z)
00487080 00000095 .text             UEditText.obj(?SetFont@UEditText@@SAXPAUSEditText@@PAVTFontDescObj@@@Z)
00487120 000000b7 .text             UEditText.obj(?SetFont@UEditText@@SAXPAUSEditText@@PBE1KK@Z)
004871e0 00000027 .text             UEditText.obj(?GetFont@UEditText@@SAPAVTFontDescObj@@PAUSEditText@@@Z)
00487210 00000094 .text             UEditText.obj(?SetFontSize@UEditText@@SAXPAUSEditText@@K@Z)
004872b0 0000003a .text             UEditText.obj(?SetColor@UEditText@@SAXPAUSEditText@@ABVSColor@@@Z)
004872f0 00000080 .text             UEditText.obj(?SetSelect@UEditText@@SAXPAUSEditText@@KK@Z)
00487370 00000037 .text             UEditText.obj(?GetSelect@UEditText@@SAXPAUSEditText@@AAK1@Z)
004873b0 000000e7 .text             UEditText.obj(?SetActive@UEditText@@SA_NPAUSEditText@@_N@Z)
004874a0 0000002a .text             UEditText.obj(?SetRef@UEditText@@SAXPAUSEditText@@PAX@Z)
004874d0 00000027 .text             UEditText.obj(?GetRef@UEditText@@SAPAXPAUSEditText@@@Z)
00487500 00000078 .text             UEditText.obj(?SetEditable@UEditText@@SAXPAUSEditText@@_N@Z)
00487580 0000002f .text             UEditText.obj(?IsEditable@UEditText@@SA_NPAUSEditText@@@Z)
004875b0 00000140 .text             UEditText.obj(?SetText@UEditText@@SAXPAUSEditText@@PBXK@Z)
004876f0 0000002d .text             UEditText.obj(?GetText@UEditText@@SAKPAUSEditText@@PAXK@Z)
00487720 000000d2 .text             UEditText.obj(?GetText@UEditText@@SAKPAUSEditText@@KKPAXK@Z)
00487800 000000c0 .text             UEditText.obj(?SetTextHandle@UEditText@@SAXPAUSEditText@@PAVTHdlObj@@@Z)
004878c0 0000002a .text             UEditText.obj(?GetTextHandle@UEditText@@SAPAVTHdlObj@@PAUSEditText@@@Z)
004878f0 000000a1 .text             UEditText.obj(?DetachTextHandle@UEditText@@SAPAVTHdlObj@@PAUSEditText@@@Z)
004879a0 000001bc .text             UEditText.obj(?InsertText@UEditText@@SAXPAUSEditText@@KPBXK_N@Z)
00487b60 000001ed .text             UEditText.obj(?ReplaceTextA@UEditText@@SAXPAUSEditText@@KKPBXK_N@Z)
00487d50 000001df .text             UEditText.obj(?DeleteText@UEditText@@SAXPAUSEditText@@KK_N@Z)
00487f30 00000105 .text             UEditText.obj(?MoveText@UEditText@@SAKPAUSEditText@@KKK_N@Z)
00488040 0000003d .text             UEditText.obj(?IsEmpty@UEditText@@SA_NPAUSEditText@@@Z)
00488080 0000002a .text             UEditText.obj(?GetTextSize@UEditText@@SAKPAUSEditText@@@Z)
004880b0 0000002e .text             UEditText.obj(?ClipCut@UEditText@@SAXPAUSEditText@@@Z)
004880e0 000000c8 .text             UEditText.obj(?ClipCopy@UEditText@@SAXPAUSEditText@@@Z)
004881b0 000000d1 .text             UEditText.obj(?ClipPaste@UEditText@@SAXPAUSEditText@@@Z)
00488290 0000002a .text             UEditText.obj(?SetDrawHandler@UEditText@@SAXPAUSEditText@@P6AX0ABVSRect@@@Z@Z)
004882c0 00000775 .text             UEditText.obj(?Draw@UEditText@@SAXPAUSEditText@@PAVTImageObj@@ABVSRect@@G@Z)
00488a40 0000002a .text             UEditText.obj(?SetScreenDeltaHandler@UEditText@@SAXPAUSEditText@@P6AX0AAJ1@Z@Z)
00488a70 0000029e .text             UEditText.obj(?MouseDown@UEditText@@SAXPAUSEditText@@ABUSMouseMsgData@@@Z)
00488d10 00000098 .text             UEditText.obj(?MouseUp@UEditText@@SAXPAUSEditText@@ABUSMouseMsgData@@@Z)
00488db0 0000009f .text             UEditText.obj(?MouseEnter@UEditText@@SAXPAUSEditText@@ABUSMouseMsgData@@@Z)
00488e50 0000004c .text             UEditText.obj(?MouseLeave@UEditText@@SAXPAUSEditText@@ABUSMouseMsgData@@@Z)
00488ea0 00000199 .text             UEditText.obj(?MouseMove@UEditText@@SAXPAUSEditText@@ABUSMouseMsgData@@@Z)
00489040 000005e4 .text             UEditText.obj(?KeyChar@UEditText@@SA_NPAUSEditText@@ABUSKeyMsgData@@@Z)
00489630 0000004d .text             UEditText.obj(?DragEnter@UEditText@@SAXPAUSEditText@@ABUSDragMsgData@@@Z)
00489680 000000a5 .text             UEditText.obj(?DragLeave@UEditText@@SAXPAUSEditText@@ABUSDragMsgData@@@Z)
00489730 0000015e .text             UEditText.obj(?DragMove@UEditText@@SAXPAUSEditText@@ABUSDragMsgData@@@Z)
00489890 00000250 .text             UEditText.obj(?Drop@UEditText@@SA_NPAUSEditText@@ABUSDragMsgData@@@Z)
00489ae0 00000031 .text             UEditText.obj(?IsSelfDrag@UEditText@@SA_NPAUSEditText@@PAVTDragObj@@@Z)
00489b20 000000e0 .text             UEditText.obj(?BlinkCaret@UEditText@@SAXPAUSEditText@@@Z)
00489c00 00000081 .text             UEditText.obj(?GetCaretRect@UEditText@@SA_NPAUSEditText@@AAVSRect@@@Z)
00489c90 0000022e .text             UEditText.obj(?LowCalcLines@UEditText@@SAXPAVTImageObj@@PAVTHdlObj@@1KAAK@Z)
00489ec0 000003d5 .text             UEditText.obj(?LowInsert@UEditText@@SA_NPAVTImageObj@@PAVTHdlObj@@1KAAKKPBXKPAK4@Z)
0048a2a0 000005e3 .text             UEditText.obj(?LowDelete@UEditText@@SA_NPAVTImageObj@@PAVTHdlObj@@1KAAKKKPAK3@Z)
0048a890 00000662 .text             UEditText.obj(?LowReplace@UEditText@@SA_NPAVTImageObj@@PAVTHdlObj@@1KAAKKKPBXKPAK4@Z)
0048af00 000000e1 .text             UEditText.obj(?_ETCalcLineStarts@@YAXPAUSEditText@@@Z)
0048aff0 00000038 .text             UEditText.obj(?_ETCalcLineHeight@@YAXPAUSEditText@@@Z)
0048b030 00000043 .text             UEditText.obj(?_ETCalcSelectRgn@@YAXPAUSEditText@@@Z)
0048b080 000000b6 .text             UEditText.obj(?_ETCalcCaretRect@@YAXPAUSEditText@@@Z)
0048b140 000000a7 .text             UEditText.obj(?_ETGetLineHoriz@@YAJPAVTImageObj@@PBXKABVSRect@@F@Z)
0048b1f0 000000c6 .text             UEditText.obj(?_ETOffsetToLine@@YAKPAUSEditText@@K@Z)
0048b2c0 0000017b .text             UEditText.obj(?_ETOffsetToPoint@@YAXPAUSEditText@@KAAVSPoint@@@Z)
0048b440 00000077 .text             UEditText.obj(?_ETPointToLine@@YAKPAUSEditText@@ABVSPoint@@@Z)
0048b4c0 00000159 .text             UEditText.obj(?_ETPointToOffset@@YAKPAUSEditText@@ABVSPoint@@@Z)
0048b620 000000a3 .text             UEditText.obj(?_ETVerifySelect@@YAXPAUSEditText@@@Z)
0048b6d0 00000181 .text             UEditText.obj(?_ETGetRangeRgn@@YAXPAUSEditText@@KKPAVTRegionObj@@@Z)
0048b860 00000172 .text             UEditText.obj(?_ETGetRangeRect@@YAXPAUSEditText@@KKAAVSRect@@@Z)
0048b9e0 0000003d .text             UEditText.obj(?_ETReorder@@YAXAAK0@Z)
0048ba20 0000018e .text             UEditText.obj(?_ETSetDragInsertPos@@YAXPAUSEditText@@K@Z)
0048bbb0 00000300 .text             UEditText.obj(?_ETSetSelect@@YA_NPAUSEditText@@KKPAVSRect@@@Z)
0048beb0 00000059 .text             UEditText.obj(?_ETRedrawAll@@YAXPAUSEditText@@@Z)
0048bf10 0000005c .text             UEditText.obj(?_ETFindWord@@YAXPAUSEditText@@KAAK1@Z)
0048bf70 00000097 .text             UEditText.obj(?_ETFindLine@@YAXPAUSEditText@@KAAK1@Z)
0048c010 000000ce .text             UEditText.obj(?_ETSetCaretBlinkVis@@YAXPAUSEditText@@_N@Z)
0048c0e0 000001fb .text             UEditText.obj(?_ETDrag@@YAXPAUSEditText@@ABVSPoint@@@Z)
0048c2e0 00000135 .text             UFileSys.obj(?GetPathTargetName@UFileSys@@SAKPBXKPAXKPAKPAPAE@Z)
0048c420 00000072 .text             UFileSys.obj(?GetPathSize@UFileSys@@SAKPBXG@Z)
0048c4a0 000001c0 .text             UFileSys.obj(?ValidateFilePath@UFileSys@@SAKPAXK@Z)
0048c660 00000171 .text             UFileSys.obj(?ConvertUrlToPathData@UFileSys@@SAKPBXKPAXK@Z)
0048c7e0 000000f8 .text             UFileSys.obj(?MakePathData@UFileSys@@SAPAXPBXKPBEAAK@Z)
0048c8e0 000000ba .text             UFileSys.obj(?GetParentPathData@UFileSys@@SAPAXPBXKAAK@Z)
0048c9a0 0000006b .text             UFileSys.obj(??0CTempFile@@QAE@XZ)
0048ca10 00000081 .text             UFileSys.obj(??1CTempFile@@UAE@XZ)
0048caa0 000001d4 .text             UFileSys.obj(?SetTempFile@CTempFile@@UAE_NPBEKK_N@Z)
0048cc80 00000064 .text             UFileSys.obj(?SetFileInfo@CTempFile@@QAEXPBE@Z)
0048ccf0 00000019 .text             UFileSys.obj(?GetFile@CTempFile@@QAEPAVTFSRefObj@@XZ)
0048cd10 000000e2 .text             UFileSys.obj(?SaveFileAs@CTempFile@@QAE_NPAVTFSRefObj@@@Z)
0048ce00 00000082 .text             UFileSys.obj(?GetTempName@CTempFile@@QAE_NPAEK@Z)
0048ce90 0000001c .text             UFileSys.obj(?GetTypeCode@CTempFile@@QAEKXZ)
0048ceb0 0000001c .text             UFileSys.obj(?GetChecksum@CTempFile@@QAEKXZ)
0048ced0 0000006b .text             UFileSys.obj(?GetFileInfo@CTempFile@@QAEKPAEK@Z)
0048cf40 000000d5 .text             UFileSys.obj(?WriteFileData@CTempFile@@UAE_NPBXK@Z)
0048d020 00000030 .text             UFileSys.obj(?ReadFileData@CTempFile@@UAE_NPAXK@Z)
0048d050 000000a7 .text             UFileSys.obj(?ReadFileData@CTempFile@@UAE_NKPAXK@Z)
0048d100 000000af .text             UFileSys.obj(?ReadFileData@CTempFile@@UAEPAVTHdlObj@@AAK@Z)
0048d1b0 0000008f .text             UFileSys.obj(?CompareFileName@CTempFile@@UAE_NPBEPAE@Z)
0048d240 00000092 .text             UFileSys.obj(?CompareTempFileName@CTempFile@@UAE_NPBEPAE@Z)
0048d2e0 00000036 .text             UFileSys.obj(?IsValidFile@CTempFile@@UAE_NXZ)
0048d320 000000b7 .text             UFileSys.obj(?DeleteFile@CTempFile@@UAEXXZ)
0048d3e0 000000b7 .text             UFileSys.obj(?MoveToTrash@CTempFile@@UAEXXZ)
0048d4a0 000002f6 .text             UFileSys.obj(?_FSTypeCodeToCreatorCode@@YAKK@Z)
0048d7a0 00000047 .text             UFileSys.obj(??_ECTempFile@@UAE@I@Z)
0048d7f0 00000038 .text             MWRTTI.obj(?strequal@@YAHPBD0@Z)
0048d830 000001ab .text             MWRTTI.obj(___dynamic_cast)
0048d9e0 00000041 .text             MWRTTI.obj(??1bad_cast@std@@UAE@XZ)
0048da30 00000027 .text             MWRTTI.obj(??0bad_cast@std@@QAE@XZ)
0048da60 00000058 .text             MWRTTI.obj(??_Ebad_cast@std@@UAE@I@Z)
0048dac0 00000018 .text             MWRTTI.obj(?what@bad_cast@std@@UBEPBDXZ)
0048dae0 00000048 .text             ANSI.obj(_malloc)
0048db30 0000004c .text             ANSI.obj(_realloc)
0048db80 0000000e .text             ANSI.obj(_free)
0048db90 00000019 .text             ANSI.obj(_memcpy)
0048dbb0 00000019 .text             ANSI.obj(_memmove)
0048dbd0 0000001b .text             ANSI.obj(_memset)
0048dbf0 0000009c .text             ANSI.obj(_memcmp)
0048dc90 00000035 .text             ANSI.obj(_strlen)
0048dcd0 00000061 .text             ANSI.obj(_strcpy)
0048dd40 00000081 .text             ANSI.obj(_strcmp)
0048ddd0 00000079 .text             ANSI.obj(_strchr)
0048de50 0000004f .text             ANSI.obj(_pstrcpy)
0048dea0 00000074 .text             ANSI.obj(_pstrncpy)
0048df20 00000079 .text             ANSI.obj(_pstrcat)
0048dfa0 00000072 .text             ANSI.obj(_pstrcmp)
0048e020 000001c4 .text             ANSI.obj(_strtol)
0048e1f0 000001ac .text             ANSI.obj(_strtoul)
0048e3a0 0000004f .text             ANSI.obj(_sprintf)
0048e3f0 00000031 .text             ANSI.obj(_exit)
0048e430 00000039 .text             ANSI.obj(_atexit)
0048e470 0000000d .text             ANSI.obj(_abort)
0048e480 000000d5 .text             ANSI.obj(_bsearch)
0048e560 00000080 .text             destroy.obj(___destroy_new_array)
0048e5e0 0000000b .text             UDebug(W).obj(?Break@UDebug@@SAXXZ)
0048e5f0 00000155 .text             UDebug(W).obj(?LogToDebugFile@UDebug@@SAXPBDZZ)
0048e750 00000086 .text             UDebug(W).obj(?DebugBreak@@YAXPBDZZ)
0048e7e0 0000004c .text             USound.obj(?_SNPlayRezMsgHandler@@YAXPAX0KPBXK@Z)
0048e830 000002b3 .text             USound.obj(?Play@USound@@SAXPAVTRezObj@@JK@Z)
0048eaf0 00000012 .text             USound.obj(?SetCanPlay@USound@@SAX_N@Z)
0048eb10 0000000f .text             USound.obj(?IsCanPlay@USound@@SA_NXZ)
0048eb20 00000028 .text             UHttpTransact.obj(?New@UHttpTransact@@SAPAVTHttpTransactObj@@XZ)
0048eb50 0000007a .text             UHttpTransact.obj(?Dispose@UHttpTransact@@SAXPAVTHttpTransactObj@@@Z)
0048ebd0 00000033 .text             UHttpTransact.obj(?SetMessageHandler@UHttpTransact@@SAXPAVTHttpTransactObj@@P6AXPAX1KPBXK@Z1@Z)
0048ec10 0000004f .text             UHttpTransact.obj(?PostMessage@UHttpTransact@@SAXPAVTHttpTransactObj@@KPBXKF@Z)
0048ec60 00000092 .text             UHttpTransact.obj(?MakeNewTransport@UHttpTransact@@SAXPAVTHttpTransactObj@@@Z)
0048ed00 0000003a .text             UHttpTransact.obj(?IsConnected@UHttpTransact@@SA_NPAVTHttpTransactObj@@@Z)
0048ed40 000004a0 .text             UHttpTransact.obj(?StartConnect@UHttpTransact@@SA_NPAVTHttpTransactObj@@PBEE_N2K@Z)
0048f1e0 00000033 .text             UHttpTransact.obj(?IsComplete@UHttpTransact@@SA_NPAVTHttpTransactObj@@@Z)
0048f220 00000034 .text             UHttpTransact.obj(?IsError@UHttpTransact@@SA_NPAVTHttpTransactObj@@@Z)
0048f260 0000006c .text             UHttpTransact.obj(?GetUrl@UHttpTransact@@SA_NPAVTHttpTransactObj@@PAEK@Z)
0048f2d0 0000008c .text             UHttpTransact.obj(?GetLocation@UHttpTransact@@SA_NPAVTHttpTransactObj@@PAEK@Z)
0048f360 00000072 .text             UHttpTransact.obj(?SetReferer@UHttpTransact@@SAXPAVTHttpTransactObj@@PBE@Z)
0048f3e0 00000072 .text             UHttpTransact.obj(?SetUserAgentServer@UHttpTransact@@SAXPAVTHttpTransactObj@@PBE@Z)
0048f460 00000072 .text             UHttpTransact.obj(?SetCustomField@UHttpTransact@@SAXPAVTHttpTransactObj@@PBE@Z)
0048f4e0 000000a9 .text             UHttpTransact.obj(?SetHttpIDList@UHttpTransact@@SAXPAVTHttpTransactObj@@ABV?$CPtrList@E@@@Z)
0048f590 00000092 .text             UHttpTransact.obj(?ReceiveHttpData@UHttpTransact@@SAPAXPAVTHttpTransactObj@@AAKPAD@Z)
0048f630 00000014 .text             UHttpTransact.obj(?WriteHttpCookies@UHttpTransact@@SA_NPAVTFSRefObj@@@Z)
0048f650 00000014 .text             UHttpTransact.obj(?ReadHttpCookies@UHttpTransact@@SA_NPAVTFSRefObj@@@Z)
0048f670 00000312 .text             UHttpTransact.obj(?_HttpMessageHandler@@YAXPAX0KPBXK@Z)
0048f990 00000048 .text             UHttpTransact.obj(?_HttpConnectionCloseTimerHandler@@YAXPAX0KPBXK@Z)
0048f9e0 00000098 .text             UHttpTransact.obj(?_StartHttpConnect@@YAXPAVTHttpTransactObj@@GPAEK@Z)
0048fa80 00000513 .text             UHttpTransact.obj(?_CheckAddress@@YA_NPAVTHttpTransactObj@@PBEAA_N@Z)
0048ffa0 00000069 .text             UHttpTransact.obj(?_SearchDomain@@YAPBEPBEK@Z)
00490010 0000002f .text             UHttpTransact.obj(?_IsUrlInvalidChar@@YA_NE@Z)
00490040 00000026 .text             UHttpTransact.obj(?_IsUrlParamDelimiterChar@@YA_NE@Z)
00490070 000002df .text             UHttpTransact.obj(?_SkipRequestFields@@YA_NPAVTHttpTransactObj@@@Z)
00490350 00000081 .text             UHttpTransact.obj(?_AddResponseHttpID@@YAXPAVTHttpTransactObj@@PBXK@Z)
004903e0 000009e2 .text             UHttpTransact.obj(?_SkipResponseFields@@YA_NPAVTHttpTransactObj@@@Z)
00490dd0 0000021e .text             UHttpTransact.obj(?_SkipResponseChunks@@YA_NPAVTHttpTransactObj@@@Z)
00490ff0 0000007e .text             UHttpTransact.obj(?_AddRequestField_Get@@YA_NPAVTHttpTransactObj@@PBE_N@Z)
00491070 00000069 .text             UHttpTransact.obj(?_AddRequestField_IfModifiedSince@@YA_NPAVTHttpTransactObj@@PBEK@Z)
004910e0 0000002e .text             UHttpTransact.obj(?_AddRequestField_Referer@@YA_NPAVTHttpTransactObj@@PBE@Z)
00491110 0000003f .text             UHttpTransact.obj(?_AddRequestField_Connection@@YA_NPAVTHttpTransactObj@@_N@Z)
00491150 0000002e .text             UHttpTransact.obj(?_AddRequestField_UserAgent@@YA_NPAVTHttpTransactObj@@PBE@Z)
00491180 0000003d .text             UHttpTransact.obj(?_AddRequestField_Pragma@@YA_NPAVTHttpTransactObj@@PBE@Z)
004911c0 00000026 .text             UHttpTransact.obj(?_AddRequestField_Host@@YA_NPAVTHttpTransactObj@@PBE@Z)
004911f0 0000003d .text             UHttpTransact.obj(?_AddRequestField_Accept@@YA_NPAVTHttpTransactObj@@PBE@Z)
00491230 0000003d .text             UHttpTransact.obj(?_AddRequestField_AcceptLanguage@@YA_NPAVTHttpTransactObj@@PBE@Z)
00491270 0000003d .text             UHttpTransact.obj(?_AddRequestField_AcceptCharset@@YA_NPAVTHttpTransactObj@@PBE@Z)
004912b0 000002d7 .text             UHttpTransact.obj(?_AddRequestField_HttpCookie@@YA_NPAVTHttpTransactObj@@@Z)
00491590 00000015 .text             UHttpTransact.obj(??1?$CPtrList@USHttpCookie@@@@QAE@XZ)
004915b0 00000190 .text             UHttpTransact.obj(?_AddRequestField_HttpID@@YA_NPAVTHttpTransactObj@@@Z)
00491740 0000002e .text             UHttpTransact.obj(?_AddRequestField_CustomField@@YA_NPAVTHttpTransactObj@@PBE@Z)
00491770 0000013f .text             UHttpTransact.obj(?_AddField_General@@YA_NPAVTHttpTransactObj@@PBE11@Z)
004918b0 0000009f .text             UHttpTransact.obj(?_AddField_End@@YA_NPAVTHttpTransactObj@@@Z)
00491950 00000074 .text             UHttpTransact.obj(?_CleanDomain@@YAXPAE@Z)
004919d0 00000021 .text             UHttpTransact.obj(?_ClearHttpTransport@@YAXPAVTHttpTransactObj@@@Z)
00491a00 0000005f .text             UHttpTransact.obj(?_ClearHttpBuffer@@YAXPAVTHttpTransactObj@@@Z)
00491a60 00000043 .text             UHttpTransact.obj(?_ClearHttpMisc@@YAXPAVTHttpTransactObj@@@Z)
00491ab0 00000076 .text             UHttpTransact.obj(?_ClearHttpIDList@@YAXPAVTHttpTransactObj@@@Z)
00491b30 0000002a .text             UHttpTransact.obj(??0CCookieList@@QAE@XZ)
00491b60 0000008b .text             UHttpTransact.obj(??1CCookieList@@UAE@XZ)
00491bf0 0000025a .text             UHttpTransact.obj(?AddCookie@CCookieList@@QAE_NPAUSHttpCookie@@@Z)
00491e50 0000009a .text             UHttpTransact.obj(?GetNextCookie@CCookieList@@QAE_NAAPAUSHttpCookie@@AAK@Z)
00491ef0 00000039 .text             UHttpTransact.obj(?DisposeCookie@CCookieList@@SAXPAUSHttpCookie@@@Z)
00491f30 00000040 .text             UHttpTransact.obj(?IsExpired@CCookieList@@SA_NAAUSCalendarDate@@@Z)
00491f70 00000569 .text             UHttpTransact.obj(?ConvertExpiredDate@CCookieList@@SA_NPBEAAUSCalendarDate@@@Z)
004924e0 00000375 .text             UHttpTransact.obj(?WriteData@CCookieList@@QAE_NPAVTFSRefObj@@@Z)
00492860 000005aa .text             UHttpTransact.obj(?ReadData@CCookieList@@QAE_NPAVTFSRefObj@@@Z)
00492e10 00000047 .text             UHttpTransact.obj(??_ECCookieList@@UAE@I@Z)
00492e60 00000026 .text             UHttpTransact.obj
00492e90 00000005 .text             UTimer(W).obj(?Init@UTimer@@SAXXZ)
00492ea0 00000043 .text             UTimer(W).obj(?New@UTimer@@SAPAVTTimerObj@@P6AXPAX0KPBXK@Z0@Z)
00492ef0 0000008d .text             UTimer(W).obj(?StartNew@UTimer@@SAPAVTTimerObj@@P6AXPAX0KPBXK@Z0KK@Z)
00492f80 000000a1 .text             UTimer(W).obj(?Dispose@UTimer@@SAXPAVTTimerObj@@@Z)
00493030 00000076 .text             UTimer(W).obj(?Start@UTimer@@SAXPAVTTimerObj@@KK@Z)
004930b0 00000014 .text             UTimer(W).obj(?WasStarted@UTimer@@SA_NPAVTTimerObj@@@Z)
004930d0 0000002c .text             UTimer(W).obj(?Stop@UTimer@@SAXPAVTTimerObj@@@Z)
00493100 0000002a .text             UTimer(W).obj(?Simulate@UTimer@@SAXPAVTTimerObj@@@Z)
00493130 0000009b .text             UTimer(W).obj(?_APTimerProc@@YGXPAUHWND__@@IIK@Z)
004931d0 0000073a .text             UMime.obj(?ConvertExtension_Mime@UMime@@SAPBDPBD@Z)
00493910 0000054d .text             UMime.obj(?ConvertMime_Extension@UMime@@SAPBDPBD@Z)
00493e60 000000a6 .text             UMime.obj(?ConvertNameExtension_Mime@UMime@@SAPBDPBE@Z)
00493f10 000002c5 .text             UMime.obj(?ConvertTypeCode_Mime@UMime@@SAPBDK@Z)
004941e0 0000054d .text             UMime.obj(?ConvertMime_TypeCode@UMime@@SAKPBD@Z)
00494730 0000000c .text             UTransport.obj(?HasTCP@UTransport@@SA_NXZ)
00494740 0000000f .text             UTransport.obj(?Init@UTransport@@SAXXZ)
00494750 00000057 .text             UTransport.obj(?New@UTransport@@SAPAVTTransportObj@@K_NK@Z)
004947b0 00000035 .text             UTransport.obj(?Dispose@UTransport@@SAXPAVTTransportObj@@@Z)
004947f0 00000047 .text             UTransport.obj(?SetDataMonitor@UTransport@@SAXPAVTTransportObj@@P6AXPAVTRegularTransportObj@@PBXK_N@Z@Z)
00494840 00000024 .text             UTransport.obj(?IsRegular@UTransport@@SA_NPAVTTransportObj@@@Z)
00494870 00000055 .text             UTransport.obj(?SetMessageHandler@UTransport@@SAXPAVTTransportObj@@P6AXPAX1KPBXK@Z1@Z)
004948d0 0000005f .text             UTransport.obj(?PostMessage@UTransport@@SAXPAVTTransportObj@@KPBXKF@Z)
00494930 0000000c .text             UTransport.obj(?GetDefaultIPAddress@UTransport@@SA?AUSIPAddress@@XZ)
00494940 000000db .text             UTransport.obj(?CleanUpAddressText@UTransport@@SAKGPBXKPAXK@Z)
00494a20 000000a5 .text             UTransport.obj(?GetPortFromAddressText@UTransport@@SAKGPBXK@Z)
00494ad0 00000020 .text             UTransport.obj(?GetProxyServerAddress@UTransport@@SAKGPAXKPBXK@Z)
00494af0 00000046 .text             UTransport.obj(?IsConnected@UTransport@@SA_NPAVTTransportObj@@@Z)
00494b40 0000006a .text             UTransport.obj(?StartConnectThruFirewall@UTransport@@SAXPAVTTransportObj@@PBXK1KKK@Z)
00494bb0 00000058 .text             UTransport.obj(?StartConnect@UTransport@@SAXPAVTTransportObj@@PBXKK@Z)
00494c10 00000046 .text             UTransport.obj(?GetConnectStatus@UTransport@@SAGPAVTTransportObj@@@Z)
00494c60 00000042 .text             UTransport.obj(?Disconnect@UTransport@@SAXPAVTTransportObj@@@Z)
00494cb0 00000010 .text             UTransport.obj(?NewBuffer@UTransport@@SAPAXK@Z)
00494cc0 0000000e .text             UTransport.obj(?DisposeBuffer@UTransport@@SAXPAX@Z)
00494cd0 0000004a .text             UTransport.obj(?SendBuffer@UTransport@@SAXPAVTTransportObj@@PAX@Z)
00494d20 00000052 .text             UTransport.obj(?Send@UTransport@@SAXPAVTTransportObj@@PBXK@Z)
00494d80 00000056 .text             UTransport.obj(?ReceiveBuffer@UTransport@@SA_NPAVTTransportObj@@AAPAXAAK@Z)
00494de0 00000056 .text             UTransport.obj(?Receive@UTransport@@SAKPAVTTransportObj@@PAXK@Z)
00494e40 00000046 .text             UTransport.obj(?GetReceiveSize@UTransport@@SAKPAVTTransportObj@@@Z)
00494e90 00000046 .text             UTransport.obj(?GetUnsentSize@UTransport@@SAKPAVTTransportObj@@@Z)
00494ee0 00000042 .text             UTransport.obj(?NotifyReadyToSend@UTransport@@SAXPAVTTransportObj@@@Z)
00494f30 0000004e .text             UTransport.obj(?IsReadyToReceive@UTransport@@SA_NPAVTTransportObj@@K@Z)
00494f80 00000046 .text             UTransport.obj(?IsReadyToSend@UTransport@@SA_NPAVTTransportObj@@@Z)
00494fd0 00000010 .text             UTransport.obj(?RegisterProtocol@UTransport@@SA_NPBE@Z)
00494fe0 0000001b .text             UTransport.obj(?LaunchURL@UTransport@@SA_NPBXKPAK1@Z)
00495000 000000bd .text             UTransport.obj(?_GetURLAddress@@YA_NPBXKAAK1@Z)
004950c0 000001b9 .text             UTransport.obj(?_GetLoginPassURLAddress@@YA_NPBXKAAK1111111@Z)
00495280 00000019 .text             UDateTime(W).obj(?GetSeconds@UDateTime@@SAKXZ)
004952a0 0000000d .text             UDateTime(W).obj(?GetMilliseconds@UDateTime@@SAKXZ)
004952b0 00000080 .text             UDateTime(W).obj(?GetCalendarDate@UDateTime@@SAXKAAUSCalendarDate@@@Z)
00495330 000001cc .text             UDateTime(W).obj(?DateToText@UDateTime@@SAKABUSCalendarDate@@PAXKK@Z)
00495500 00000136 .text             UDateTime(W).obj(?DateToText@UDateTime@@SAKABUSDateTimeStamp@@PAXKK@Z)
00495640 0000003d .text             UDateTime(W).obj(?DateToText@UDateTime@@SAKPAXKK@Z)
00495680 000000ca .text             UDateTime(W).obj(?GetGMTDelta@UDateTime@@SAJXZ)
00495750 000003a0 .text             UFileSys(W).obj(?New@UFileSys@@SAPAVTFSRefObj@@PAV2@PBE1KPAG@Z)
00495af0 00000543 .text             UFileSys(W).obj(?New@UFileSys@@SAPAVTFSRefObj@@PAV2@PBXKPBEKPAG@Z)
00496040 00000020 .text             UFileSys(W).obj(?NewTemp@UFileSys@@SAPAVTFSRefObj@@PAV2@@Z)
00496060 00000086 .text             UFileSys(W).obj(?Clone@UFileSys@@SAPAVTFSRefObj@@PAV2@@Z)
004960f0 0000004b .text             UFileSys(W).obj(?Dispose@UFileSys@@SAXPAVTFSRefObj@@@Z)
00496140 00000075 .text             UFileSys(W).obj(?SetRef@UFileSys@@SAXPAVTFSRefObj@@0@Z)
004961c0 0000006d .text             UFileSys(W).obj(?CreateFile@UFileSys@@SAXPAVTFSRefObj@@KK@Z)
00496230 000000e1 .text             UFileSys(W).obj(?CreateFileAndOpen@UFileSys@@SAXPAVTFSRefObj@@KKKK@Z)
00496320 00000045 .text             UFileSys(W).obj(?CreateFolder@UFileSys@@SAXPAVTFSRefObj@@@Z)
00496370 00000052 .text             UFileSys(W).obj(?Exists@UFileSys@@SA_NPAVTFSRefObj@@PA_N@Z)
004963d0 0000008b .text             UFileSys(W).obj(?DeleteFile@UFileSys@@SAXPAVTFSRefObj@@@Z)
00496460 0000006d .text             UFileSys(W).obj(?DeleteFolder@UFileSys@@SAXPAVTFSRefObj@@@Z)
004964d0 000000e6 .text             UFileSys(W).obj(?DeleteFolderContents@UFileSys@@SAXPAVTFSRefObj@@@Z)
004965c0 000000e6 .text             UFileSys(W).obj(?MoveToTrash@UFileSys@@SAXPAVTFSRefObj@@@Z)
004966b0 0000018b .text             UFileSys(W).obj(?SetName@UFileSys@@SAXPAVTFSRefObj@@PBEK@Z)
00496840 00000108 .text             UFileSys(W).obj(?SetRefName@UFileSys@@SAXPAVTFSRefObj@@PBEK@Z)
00496950 00000055 .text             UFileSys(W).obj(?GetName@UFileSys@@SAXPAVTFSRefObj@@PAEPAK@Z)
004969b0 00000083 .text             UFileSys(W).obj(?GetName@UFileSys@@SAKPAVTFSRefObj@@PAXKPAK@Z)
00496a40 000000d4 .text             UFileSys(W).obj(?ValidateFileName@UFileSys@@SAKPAXKK@Z)
00496b20 00000146 .text             UFileSys(W).obj(?Move@UFileSys@@SAXPAVTFSRefObj@@0@Z)
00496c70 000001af .text             UFileSys(W).obj(?MoveAndRename@UFileSys@@SAXPAVTFSRefObj@@0PBEK@Z)
00496e20 0000001b .text             UFileSys(W).obj(?SwapData@UFileSys@@SAXPAVTFSRefObj@@0@Z)
00496e40 000000a1 .text             UFileSys(W).obj(?Open@UFileSys@@SAXPAVTFSRefObj@@K@Z)
00496ef0 00000065 .text             UFileSys(W).obj(?Close@UFileSys@@SAXPAVTFSRefObj@@@Z)
00496f60 000000a4 .text             UFileSys(W).obj(?Read@UFileSys@@SAKPAVTFSRefObj@@KPAXKK@Z)
00497010 000000a6 .text             UFileSys(W).obj(?Write@UFileSys@@SAKPAVTFSRefObj@@KPBXKK@Z)
004970c0 000000dd .text             UFileSys(W).obj(?GetSize@UFileSys@@SAKPAVTFSRefObj@@K@Z)
004971a0 00000095 .text             UFileSys(W).obj(?SetSize@UFileSys@@SAXPAVTFSRefObj@@K@Z)
00497240 0000001e .text             UFileSys(W).obj(?Flush@UFileSys@@SAXPAVTFSRefObj@@@Z)
00497260 000001b2 .text             UFileSys(W).obj(?ReadToHdl@UFileSys@@SAPAVTHdlObj@@PAVTFSRefObj@@KAAKK@Z)
00497420 0000016f .text             UFileSys(W).obj(?Copy@UFileSys@@SA_NPAVTFSRefObj@@0KK@Z)
00497590 00000005 .text             UFileSys(W).obj(?SetComment@UFileSys@@SAXPAVTFSRefObj@@PBXKK@Z)
004975a0 0000005f .text             UFileSys(W).obj(?GetTypeAndCreatorCode@UFileSys@@SAXPAVTFSRefObj@@AAK1@Z)
00497600 00000085 .text             UFileSys(W).obj(?Equals@UFileSys@@SA_NPAVTFSRefObj@@0@Z)
00497690 000001c4 .text             UFileSys(W).obj(?UserSelectFile@UFileSys@@SAPAVTFSRefObj@@PAV2@PBKK@Z)
00497860 000002e2 .text             UFileSys(W).obj(?UserSaveFile@UFileSys@@SAPAVTFSRefObj@@PAV2@PBE1KKK@Z)
00497b50 0000069f .text             UFileSys(W).obj(?GetListing@UFileSys@@SAPAVTHdlObj@@PAVTFSRefObj@@K@Z)
004981f0 00000167 .text             UFileSys(W).obj(?GetListNext@UFileSys@@SA_NPAVTHdlObj@@AAKPAEPAK33PAUSDateTimeStamp@@43@Z)
00498360 0000010a .text             UFileSys(W).obj(?GetApplicationURL@UFileSys@@SAKPAEK@Z)
00498470 0000002f .text             UFileSys(W).obj(?GetTempPathA@UFileSys@@SAKPAXK@Z)
004984a0 000000da .text             UFileSys(W).obj(?_FSCreateFlatFileInfo@@YAKPAVTFSRefObj@@AAUSFlatFileInfoFork@@@Z)
00498580 00000005 .text             UFileSys(W).obj(?_FSSetFlatFileInfo@@YAXPAVTFSRefObj@@ABUSFlatFileInfoFork@@K@Z)
00498590 000001be .text             UFileSys(W).obj(?StartFlatten@UFileSys@@SAXPAVTFSRefObj@@@Z)
00498750 000001ae .text             UFileSys(W).obj(?ResumeFlatten@UFileSys@@SAXPAVTFSRefObj@@PBXK@Z)
00498900 000000b3 .text             UFileSys(W).obj(?GetFlattenSize@UFileSys@@SAKPAVTFSRefObj@@@Z)
004989c0 00000250 .text             UFileSys(W).obj(?ProcessFlatten@UFileSys@@SAKPAVTFSRefObj@@PAXK@Z)
00498c10 00000019 .text             UFileSys(W).obj(?IsFlattening@UFileSys@@SA_NPAVTFSRefObj@@@Z)
00498c30 000000bc .text             UFileSys(W).obj(?StartUnflatten@UFileSys@@SAXPAVTFSRefObj@@@Z)
00498cf0 000001c1 .text             UFileSys(W).obj(?ResumeUnflatten@UFileSys@@SAPAVTHdlObj@@PAVTFSRefObj@@@Z)
00498ec0 0000001d .text             UFileSys(W).obj(?StopUnflatten@UFileSys@@SAXPAVTFSRefObj@@@Z)
00498ee0 000003b9 .text             UFileSys(W).obj(?ProcessUnflatten@UFileSys@@SA_NPAVTFSRefObj@@PBXK@Z)
004992a0 00000069 .text             UFileSys(W).obj(?_FSFindPathTargetName@@YAXPBXKAAPAEAAK@Z)
00499310 0000008f .text             UFileSys(W).obj(?_FSGetPathExtension@@YAXPBXKPAE@Z)
004993a0 00000099 .text             UFileSys(W).obj(?_FSIsLinkFile@@YA_NPBXK@Z)
00499440 0000070e .text             UFileSys(W).obj(?_FSWinExtToMacTypeCode@@YAXPBEAAK1@Z)
00499b50 00000049 .text             UFileSys(W).obj(?_FSStripName@@YAXPAXK@Z)
00499ba0 00000085 .text             UFileSys(W).obj(?_FSAccessToWinAccess@@YAXKAAK0@Z)
00499c30 000000b9 .text             UFileSys(W).obj(?_FSWinTimeToStamp@@YAXABU_FILETIME@@AAUSDateTimeStamp@@@Z)
00499cf0 00000082 .text             UFileSys(W).obj(?_FSParentExists@@YA_NPBD@Z)
00499d80 000000cf .text             UFileSys(W).obj(?_FSConvertPathString@@YAKPBEPAX@Z)
00499e50 0000032f .text             UFileSys(W).obj(?_FSPathDataToActualDir@@YAKPBXKPAXKK@Z)
0049a180 0000037c .text             UFileSys(W).obj(?_FSDoNewOptions@@YA_NPBDPADKPAG@Z)
0049a500 0000024b .text             UFileSys(W).obj(?_FSCountDirItems@@YAKPBXK0K@Z)
0049a750 0000023c .text             UFileSys(W).obj(?_FSResolveLink@@YAJPAUHWND__@@PBDPADPAU_WIN32_FIND_DATAA@@H@Z)
0049a990 0000027b .text             UFileSys(W).obj(?_FSResolveLinksInPath@@YAJPAUHWND__@@PBDPADPAU_WIN32_FIND_DATAA@@@Z)
0049ac10 00000149 .text             UFileSys(W).obj(?_GetMaxChildPathSize@@YAKPAVTFSRefObj@@@Z)
0049ad60 00000094 .text             UFileSys(W).obj(?_FSNewRefFromWinPath@@YAPAVTFSRefObj@@PBXK@Z)
0049ae00 00000034 .text             UFileSys(W).obj(?_GetQuickTimeFSSpec@@YAXPAVTFSRefObj@@AAUFSSpec@@@Z)
0049ae40 00000097 .text             CApplication.obj(??0CApplication@@QAE@XZ)
0049aee0 00000049 .text             CApplication.obj(??1CApplication@@UAE@XZ)
0049af30 00000018 .text             CApplication.obj(?Run@CApplication@@UAEXXZ)
0049af50 00000024 .text             CApplication.obj(?UserQuit@CApplication@@UAEXXZ)
0049af80 00000018 .text             CApplication.obj(?Quit@CApplication@@UAEXXZ)
0049afa0 0000002f .text             CApplication.obj(?KeyCommand@CApplication@@UAEXKABUSKeyMsgData@@@Z)
0049afd0 0000002c .text             CApplication.obj(?Error@CApplication@@UAEXABUSError@@@Z)
0049b000 00000015 .text             CApplication.obj(?Timer@CApplication@@UAEXPAVTTimerObj@@@Z)
0049b020 00000055 .text             CApplication.obj(?OpenDocuments@CApplication@@UAEXXZ)
0049b080 00000015 .text             CApplication.obj(?OpenDocument@CApplication@@UAEXPAVTFSRefObj@@@Z)
0049b0a0 00000013 .text             CApplication.obj(?ShowPreferences@CApplication@@UAEXXZ)
0049b0c0 00000015 .text             CApplication.obj(?WindowHit@CApplication@@UAEXPAVCWindow@@ABUSHitMsgData@@@Z)
0049b0e0 0000001f .text             CApplication.obj(?WindowHitHandler@CApplication@@SAXPAX0KPBXK@Z)
0049b100 0000008e .text             CApplication.obj(?HandleMessage@CApplication@@MAEXPAXKPBXK@Z)
0049b190 00000022 .text             CApplication.obj(?MessageHandler@CApplication@@KAXPAX0KPBXK@Z)
0049b1c0 00000047 .text             CApplication.obj(??_ECApplication@@UAE@I@Z)
0049b210 0000003b .text             CViewContainer.obj(??0CSingleViewContainer@@QAE@XZ)
0049b250 0000005a .text             CViewContainer.obj(??1CSingleViewContainer@@UAE@XZ)
0049b2b0 0000003e .text             CViewContainer.obj(?SetView@CSingleViewContainer@@UAEXPAVCView@@@Z)
0049b2f0 0000004a .text             CViewContainer.obj(?DetachView@CSingleViewContainer@@UAEPAVCView@@XZ)
0049b340 00000038 .text             CViewContainer.obj(?GetNextView@CSingleViewContainer@@UBE_NAAPAVCView@@AAK@Z)
0049b380 00000064 .text             CViewContainer.obj(?HandleInstall@CSingleViewContainer@@MAEXPAVCView@@@Z)
0049b3f0 0000002c .text             CViewContainer.obj(?HandleRemove@CSingleViewContainer@@MAEXPAVCView@@@Z)
0049b420 0000004c .text             CViewContainer.obj(??0CMultiViewContainer@@QAE@XZ)
0049b470 000000b8 .text             CViewContainer.obj(??1CMultiViewContainer@@UAE@XZ)
0049b530 0000002f .text             CViewContainer.obj(?InstallView@CMultiViewContainer@@QAEXPAVCView@@@Z)
0049b560 00000039 .text             CViewContainer.obj(?RemoveView@CMultiViewContainer@@QAEXPAVCView@@@Z)
0049b5a0 0000005a .text             CViewContainer.obj(?GetNextView@CMultiViewContainer@@UBE_NAAPAVCView@@AAK@Z)
0049b600 00000023 .text             CViewContainer.obj(?HandleInstall@CMultiViewContainer@@MAEXPAVCView@@@Z)
0049b630 0000002f .text             CViewContainer.obj(?HandleRemove@CMultiViewContainer@@MAEXPAVCView@@@Z)
0049b660 00000047 .text             CViewContainer.obj(??_ECMultiViewContainer@@UAE@I@Z)
0049b6b0 00000047 .text             CViewContainer.obj(??_ECSingleViewContainer@@UAE@I@Z)
0049b700 000000e1 .text             UIcon(W).obj(?Load@UIcon@@SAPAVTIconObj@@J@Z)
0049b7f0 00000033 .text             UIcon(W).obj(?Release@UIcon@@SAXPAVTIconObj@@@Z)
0049b830 0000002c .text             UIcon(W).obj(?UIcon_Draw@@YAXPAVTIconObj@@PAVTImageObj@@ABVSRect@@GG@Z)
0049b860 00000291 .text             UGraphics(W).obj(?Init@UGraphics@@SAXXZ)
0049bb00 0000007c .text             UGraphics(W).obj(?SetOrigin@UGraphics@@SAXPAVTImageObj@@ABVSPoint@@@Z)
0049bb80 00000030 .text             UGraphics(W).obj(?GetOrigin@UGraphics@@SAXPAVTImageObj@@AAVSPoint@@@Z)
0049bbb0 00000055 .text             UGraphics(W).obj(?AddOrigin@UGraphics@@SAXPAVTImageObj@@JJ@Z)
0049bc10 000000b8 .text             UGraphics(W).obj(?SetClip@UGraphics@@SAXPAVTImageObj@@PAVTRegionObj@@@Z)
0049bcd0 000000a5 .text             UGraphics(W).obj(?GetClip@UGraphics@@SAXPAVTImageObj@@PAVTRegionObj@@@Z)
0049bd80 00000044 .text             UGraphics(W).obj(?IntersectClip@UGraphics@@SAXPAVTImageObj@@ABVSRect@@@Z)
0049bdd0 000000e3 .text             UGraphics(W).obj(?IntersectClip@UGraphics@@SAXPAVTImageObj@@PAVTRegionObj@@ABVSRect@@@Z)
0049bec0 0000003f .text             UGraphics(W).obj(?MoveClip@UGraphics@@SAXPAVTImageObj@@JJ@Z)
0049bf00 0000009c .text             UGraphics(W).obj(?Reset@UGraphics@@SAXPAVTImageObj@@@Z)
0049bfa0 0000004f .text             UGraphics(W).obj(?SetPenSize@UGraphics@@SAXPAVTImageObj@@K@Z)
0049bff0 000000fc .text             UGraphics(W).obj(?SetInkColor@UGraphics@@SAXPAVTImageObj@@ABVSColor@@@Z)
0049c0f0 00000076 .text             UGraphics(W).obj(?SetInkMode@UGraphics@@SAXPAVTImageObj@@KPBVSColor@@@Z)
0049c170 00000056 .text             UGraphics(W).obj(?GetInkColor@UGraphics@@SAXPAVTImageObj@@AAVSColor@@@Z)
0049c1d0 0000015c .text             UGraphics(W).obj(?UGraphics_DrawLine@@YAXPAVTImageObj@@ABUSLine@@K@Z)
0049c330 00000069 .text             UGraphics(W).obj(?UGraphics_DrawRegion@@YAXPAVTImageObj@@PAVTRegionObj@@K@Z)
0049c3a0 00000063 .text             UGraphics(W).obj(?UGraphics_FillRect@@YAXPAVTImageObj@@ABVSRect@@@Z)
0049c410 00000142 .text             UGraphics(W).obj(?UGraphics_FrameRect@@YAXPAVTImageObj@@ABVSRect@@@Z)
0049c560 00000077 .text             UGraphics(W).obj(?UGraphics_SetPixel@@YAXPAVTImageObj@@ABVSPoint@@ABVSColor@@@Z)
0049c5e0 00000053 .text             UGraphics(W).obj(?ResetFont@UGraphics@@SAXPAVTImageObj@@@Z)
0049c640 00000115 .text             UGraphics(W).obj(?SetFontEffect@UGraphics@@SAXPAVTImageObj@@K@Z)
0049c760 0000011d .text             UGraphics(W).obj(?SetFont@UGraphics@@SAXPAVTImageObj@@PBE1KK@Z)
0049c880 000000b4 .text             UGraphics(W).obj(?SetFont@UGraphics@@SAXPAVTImageObj@@PAVTFontDescObj@@@Z)
0049c940 0000004b .text             UGraphics(W).obj(?GetFontHeight@UGraphics@@SAKPAVTImageObj@@@Z)
0049c990 00000051 .text             UGraphics(W).obj(?GetFontLineHeight@UGraphics@@SAKPAVTImageObj@@@Z)
0049c9f0 00000077 .text             UGraphics(W).obj(?GetCharWidthA@UGraphics@@SAKPAVTImageObj@@GK@Z)
0049ca70 00000049 .text             UGraphics(W).obj(?GetTextWidth@UGraphics@@SAKPAVTImageObj@@PBXKK@Z)
0049cac0 000000e8 .text             UGraphics(W).obj(?_GRCalcMaxFit@@YAKPAUHDC__@@PBXKK@Z)
0049cbb0 000000bb .text             UGraphics(W).obj(?GetTextLineBreak@UGraphics@@SAKPAVTImageObj@@PBXKK@Z)
0049cc70 0000022e .text             UGraphics(W).obj(?WidthToChar@UGraphics@@SAKPAVTImageObj@@PBXKKPA_N@Z)
0049cea0 000000f4 .text             UGraphics(W).obj(?UGraphics_DrawText@@YAXPAVTImageObj@@ABVSRect@@PBXKKK@Z)
0049cfa0 000000f6 .text             UGraphics(W).obj(?UGraphics_DrawTruncText@@YAXPAVTImageObj@@ABVSRect@@PBXKKK@Z)
0049d0a0 000000d0 .text             UGraphics(W).obj(?UGraphics_DrawTextBox@@YAXPAVTImageObj@@ABVSRect@@1PBXKKK@Z)
0049d170 000000a6 .text             UGraphics(W).obj(?UGraphics_GetTextBoxHeight@@YAKPAVTImageObj@@ABVSRect@@PBXKKK@Z)
0049d220 000003b6 .text             UGraphics(W).obj(?UGraphics_DrawTextLines@@YAXPAVTImageObj@@ABVSRect@@PBXKPBKKKKK@Z)
0049d5e0 0000016f .text             UGraphics(W).obj(?NewCompatibleImage@UGraphics@@SAPAVTImageObj@@KK@Z)
0049d750 0000009b .text             UGraphics(W).obj(?DisposeImage@UGraphics@@SAXPAVTImageObj@@@Z)
0049d7f0 00000005 .text             UGraphics(W).obj(?LockImage@UGraphics@@SAXPAVTImageObj@@@Z)
0049d800 00000005 .text             UGraphics(W).obj(?UnlockImage@UGraphics@@SAXPAVTImageObj@@@Z)
0049d810 00000130 .text             UGraphics(W).obj(?UGraphics_CopyPixels@@YAXPAVTImageObj@@ABVSPoint@@01KKK@Z)
0049d940 00000d30 .text             UGraphics(W).obj(?UGraphics_CopyPixels@@YAXPAVTImageObj@@ABVSPoint@@ABUSPixmap@@1KKK@Z)
0049e670 00000044 .text             UGraphics(W).obj(?_GRConvertBGRAandRGBA@@YAXPAXK@Z)
0049e6c0 00000062 .text             UGraphics(W).obj(?_GRCopyRGBAandBGRA@@YAXPBXPAXK@Z)
0049e730 000002c0 .text             UGraphics(W).obj(?UGraphics_CopyPixelsMasked@@YAXPAVTImageObj@@ABVSPoint@@01KK0K@Z)
0049e9f0 0000056f .text             UGraphics(W).obj(?UGraphics_CopyPixelsTrans@@YAXPAVTImageObj@@ABVSPoint@@ABUSPixmap@@1KKKK@Z)
0049ef60 0000000a .text             UGraphics(W).obj(?GetDummyImage@UGraphics@@SAPAVTImageObj@@XZ)
0049ef70 00000123 .text             UGraphics(W).obj(?UserSelectColor@UGraphics@@SA_NAAVSColor@@PBEK@Z)
0049f0a0 0000000a .text             UGraphics(W).obj(?_ImageToDC@@YAPAUHDC__@@PAVTImageObj@@@Z)
0049f0b0 00000055 .text             UGraphics(W).obj(?_NewDCImage@@YAPAVTImageObj@@PAUHDC__@@KK@Z)
0049f110 0000006c .text             UGraphics(W).obj(?_DisposeDCImage@@YAXPAVTImageObj@@@Z)
0049f180 00000039 .text             UGraphics(W).obj(?_SetVirtualOrigin@@YAXPAVTImageObj@@ABVSPoint@@@Z)
0049f1c0 00000039 .text             UGraphics(W).obj(?_GetVirtualOrigin@@YAXPAVTImageObj@@AAVSPoint@@@Z)
0049f200 00000039 .text             UGraphics(W).obj(?_AddVirtualOrigin@@YAXPAVTImageObj@@ABVSPoint@@@Z)
0049f240 00000036 .text             UGraphics(W).obj(?_ResetVirtualOrigin@@YAXPAVTImageObj@@@Z)
0049f280 0000009b .text             UGraphics(W).obj(?_FontNameToWinName@@YAKPBEPADK@Z)
0049f320 0000009b .text             UGraphics(W).obj(?New@UFontDesc@@SAPAVTFontDescObj@@PBE0KK@Z)
0049f3c0 0000001d .text             UGraphics(W).obj(?Dispose@UFontDesc@@SAXPAVTFontDescObj@@@Z)
0049f3e0 0000002f .text             UGraphics(W).obj(?Clone@UFontDesc@@SAPAVTFontDescObj@@PAV2@@Z)
0049f410 0000002e .text             UGraphics(W).obj(?SetLock@UFontDesc@@SAXPAVTFontDescObj@@_N@Z)
0049f440 00000064 .text             UGraphics(W).obj(?SetFontSize@UFontDesc@@SA_NPAVTFontDescObj@@K@Z)
0049f4b0 00000049 .text             UGraphics(W).obj(?SetAlign@UFontDesc@@SAXPAVTFontDescObj@@K@Z)
0049f500 00000018 .text             UGraphics(W).obj(?GetAlign@UFontDesc@@SAKPAVTFontDescObj@@@Z)
0049f520 00000069 .text             UGraphics(W).obj(?SetColor@UFontDesc@@SAXPAVTFontDescObj@@ABVSColor@@@Z)
0049f590 00000005 .text             UGraphics(W).obj
0049f5a0 000000ff .text             GrafTypes.obj(??_5SRect@@QAEAAV0@ABV0@@Z)
0049f6a0 00000076 .text             GrafTypes.obj(?Intersects@SRect@@QBE_NABV1@@Z)
0049f720 000000d6 .text             GrafTypes.obj(?GetIntersection@SRect@@QBE_NABV1@AAV1@@Z)
0049f800 0000012d .text             GrafTypes.obj(?Constrain@SRect@@QAEXABV1@@Z)
0049f930 00000091 .text             GrafTypes.obj(?Center@SRect@@QAEXABV1@@Z)
0049f9d0 00000053 .text             GrafTypes.obj(?CenterHoriz@SRect@@QAEXABV1@@Z)
0049fa30 00000057 .text             GrafTypes.obj(?CenterVert@SRect@@QAEXABV1@@Z)
0049fa90 00000068 .text             GrafTypes.obj(?MoveTo@SRect@@QAEXJJ@Z)
0049fb00 00000273 .text             GrafTypes.obj(?Align@SRect@@QAEXGABV1@@Z)
0049fd80 000000c6 .text             GrafTypes.obj(?SetIdentity@SMatrix3@@QAEXXZ)
0049fe50 00000128 .text             GrafTypes.obj(?Rotate@SMatrix3@@QAEXN@Z)
0049ff80 000000ed .text             GrafTypes.obj(?TransformPoints@SMatrix3@@QBEXPAUSFloatPoint@@K@Z)
004a0070 00000d1f .text             GrafTypes.obj
004a0d90 000000b4 .text             UGraphics.obj(?DrawLine@UGraphics@@SAXPAVTImageObj@@ABUSLine@@K@Z)
004a0e50 000000ce .text             UGraphics.obj(?DrawRegion@UGraphics@@SAXPAVTImageObj@@PAVTRegionObj@@K@Z)
004a0f20 000000a6 .text             UGraphics.obj(?FillRect@UGraphics@@SAXPAVTImageObj@@ABVSRect@@@Z)
004a0fd0 000000a6 .text             UGraphics.obj(?FrameRect@UGraphics@@SAXPAVTImageObj@@ABVSRect@@@Z)
004a1080 00000094 .text             UGraphics.obj(?SetPixel@UGraphics@@SAXPAVTImageObj@@ABVSPoint@@ABVSColor@@@Z)
004a1120 000000ce .text             UGraphics.obj(?DrawText@UGraphics@@SAXPAVTImageObj@@ABVSRect@@PBXKKK@Z)
004a11f0 000000ce .text             UGraphics.obj(?DrawTruncText@UGraphics@@SAXPAVTImageObj@@ABVSRect@@PBXKKK@Z)
004a12c0 0000010e .text             UGraphics.obj(?DrawTextBox@UGraphics@@SAXPAVTImageObj@@ABVSRect@@1PBXKKK@Z)
004a13d0 000000dc .text             UGraphics.obj(?GetTextBoxHeight@UGraphics@@SAKPAVTImageObj@@ABVSRect@@PBXKKK@Z)
004a14b0 000000e2 .text             UGraphics.obj(?DrawTextLines@UGraphics@@SAXPAVTImageObj@@ABVSRect@@PBXKPBKKKKK@Z)
004a15a0 00000109 .text             UGraphics.obj(?CopyPixels@UGraphics@@SAXPAVTImageObj@@ABVSPoint@@01KKK@Z)
004a16b0 000000ac .text             UGraphics.obj(?CopyPixels@UGraphics@@SAXPAVTImageObj@@ABVSPoint@@ABUSPixmap@@1KKK@Z)
004a1760 0000010f .text             UGraphics.obj(?CopyPixelsMasked@UGraphics@@SAXPAVTImageObj@@ABVSPoint@@01KK0K@Z)
004a1870 000000b2 .text             UGraphics.obj(?CopyPixelsTrans@UGraphics@@SAXPAVTImageObj@@ABVSPoint@@ABUSPixmap@@1KKKK@Z)
004a1930 00000637 .text             UGraphics.obj(?GetLinePoly@UGraphics@@SAXABVSPoint@@0KPAV2@@Z)
004a1f70 000000da .text             UGraphics.obj(?MergeColorTable@UGraphics@@SAKPAKKKPBKK@Z)
004a2050 000000ed .text             UGraphics.obj(?GetNearestColor@UGraphics@@SAKKPBKKK@Z)
004a2140 00000054 .text             UGraphics.obj(?GetExactColor@UGraphics@@SA_NKPBKKAAK@Z)
004a21a0 0000016f .text             UGraphics.obj(?ValidateCopyRects@UGraphics@@SA_NABVSRect@@0AAVSPoint@@1AAK2@Z)
004a2310 000000c2 .text             UIcon.obj(?Draw@UIcon@@SAXPAVTIconObj@@PAVTImageObj@@ABVSRect@@GG@Z)
004a23e0 000000ed .text             CContainerView.obj(??0CContainerView@@QAE@PAVCViewHandler@@ABVSRect@@@Z)
004a24d0 00000054 .text             CContainerView.obj(??1CContainerView@@UAE@XZ)
004a2530 00000164 .text             CContainerView.obj(?GetNextTabView@CContainerView@@MBEPAVCView@@XZ)
004a26a0 000001b8 .text             CContainerView.obj(?GetPrevTabView@CContainerView@@MBEPAVCView@@XZ)
004a2860 00000094 .text             CContainerView.obj(?PointToView@CContainerView@@QBEPAVCView@@ABVSPoint@@@Z)
004a2900 00000237 .text             CContainerView.obj(?Draw@CContainerView@@UAEXPAVTImageObj@@ABVSRect@@K@Z)
004a2b40 00000021 .text             CContainerView.obj(??1StRegion@@QAE@XZ)
004a2b70 00000029 .text             CContainerView.obj(??1StOriginSaver@@QAE@XZ)
004a2ba0 000002a2 .text             CContainerView.obj(?MouseDown@CContainerView@@UAEXABUSMouseMsgData@@@Z)
004a2e50 0000014e .text             CContainerView.obj(?MouseUp@CContainerView@@UAEXABUSMouseMsgData@@@Z)
004a2fa0 0000002b .text             CContainerView.obj(?MouseEnter@CContainerView@@UAEXABUSMouseMsgData@@@Z)
004a2fd0 0000011d .text             CContainerView.obj(?MouseMove@CContainerView@@UAEXABUSMouseMsgData@@@Z)
004a30f0 000000a5 .text             CContainerView.obj(?MouseLeave@CContainerView@@UAEXABUSMouseMsgData@@@Z)
004a31a0 0000034e .text             CContainerView.obj(?KeyDown@CContainerView@@UAE_NABUSKeyMsgData@@@Z)
004a34f0 000000f7 .text             CContainerView.obj(?KeyUp@CContainerView@@UAEXABUSKeyMsgData@@@Z)
004a35f0 0000004c .text             CContainerView.obj(?KeyRepeat@CContainerView@@UAE_NABUSKeyMsgData@@@Z)
004a3640 0000002b .text             CContainerView.obj(?DragEnter@CContainerView@@UAEXABUSDragMsgData@@@Z)
004a3670 0000011a .text             CContainerView.obj(?DragMove@CContainerView@@UAEXABUSDragMsgData@@@Z)
004a3790 000000a5 .text             CContainerView.obj(?DragLeave@CContainerView@@UAEXABUSDragMsgData@@@Z)
004a3840 00000041 .text             CContainerView.obj(?Drop@CContainerView@@UAE_NABUSDragMsgData@@@Z)
004a3890 0000007b .text             CContainerView.obj(?UpdateQuickTime@CContainerView@@UAEXXZ)
004a3910 00000080 .text             CContainerView.obj(?SendToQuickTime@CContainerView@@UAEXABUEventRecord@@@Z)
004a3990 0000019f .text             CContainerView.obj(?ChangeState@CContainerView@@UAE_NG@Z)
004a3b30 000000e9 .text             CContainerView.obj(?SetFocusView@CContainerView@@UAE_NPAVCView@@@Z)
004a3c20 00000207 .text             CContainerView.obj(?TabFocusNext@CContainerView@@UAE_NXZ)
004a3e30 00000248 .text             CContainerView.obj(?TabFocusPrev@CContainerView@@UAE_NXZ)
004a4080 000001b4 .text             CContainerView.obj(?SetBounds@CContainerView@@UAE_NABVSRect@@@Z)
004a4240 00000042 .text             CContainerView.obj(?MouseCaptureReleased@CContainerView@@UAEXXZ)
004a4290 0000007c .text             CContainerView.obj(?HandleInstall@CContainerView@@MAEXPAVCView@@@Z)
004a4310 00000215 .text             CContainerView.obj(?HandleRemove@CContainerView@@MAEXPAVCView@@@Z)
004a4530 00000074 .text             CContainerView.obj(?HandleRefresh@CContainerView@@MAEXPAVCView@@ABVSRect@@@Z)
004a45b0 00000038 .text             CContainerView.obj(?HandleHit@CContainerView@@MAEXPAVCView@@ABUSHitMsgData@@@Z)
004a45f0 00000039 .text             CContainerView.obj(?HandleGetScreenDelta@CContainerView@@MAEXPAVCView@@AAJ1@Z)
004a4630 0000004c .text             CContainerView.obj(?HandleGetVisibleRect@CContainerView@@MAEXPAVCView@@AAVSRect@@@Z)
004a4680 0000003e .text             CContainerView.obj(?HandleCaptureMouse@CContainerView@@MAEXPAVCView@@@Z)
004a46c0 00000042 .text             CContainerView.obj(?HandleReleaseMouse@CContainerView@@MAEXPAVCView@@@Z)
004a4710 0000004c .text             CContainerView.obj(?HandleGetOrigin@CContainerView@@MAEXAAVSPoint@@@Z)
004a4760 00000019 .text             CContainerView.obj(?HandleGetCaptureMouseView@CContainerView@@MAEPAVCView@@XZ)
004a4780 0000001d .text             CContainerView.obj(?HandleGetParentWindow@CContainerView@@MAEPAVCWindow@@XZ)
004a47a0 00000008 .text             CContainerView.obj(@44@??_ECContainerView@@UAE@I@Z)
004a47b0 00000043 .text             CLabelView.obj(??0CLabelView@@QAE@PAVCViewHandler@@ABVSRect@@@Z)
004a4800 00000063 .text             CLabelView.obj(??0CLabelView@@QAE@PAVCViewHandler@@ABVSRect@@PBEPAVTFontDescObj@@@Z)
004a4870 00000040 .text             CLabelView.obj(??1CLabelView@@UAE@XZ)
004a48b0 00000065 .text             CLabelView.obj(?SetText@CLabelView@@UAEXPBXK@Z)
004a4920 0000006b .text             CLabelView.obj(?AppendText@CLabelView@@QAEXPBXK@Z)
004a4990 00000046 .text             CLabelView.obj(?SetFont@CLabelView@@QAEXPAVTFontDescObj@@@Z)
004a49e0 00000061 .text             CLabelView.obj(?SetFont@CLabelView@@QAEXPBE0KK@Z)
004a4a50 00000090 .text             CLabelView.obj(?Draw@CLabelView@@UAEXPAVTImageObj@@ABVSRect@@K@Z)
004a4ae0 00000047 .text             CLabelView.obj(??_ECLabelView@@UAE@I@Z)
004a4b30 000001d2 .text             CScrollerView.obj(??0CScrollerView@@QAE@PAVCViewHandler@@ABVSRect@@@Z)
004a4d10 000001d4 .text             CScrollerView.obj(??0CScrollerView@@QAE@PAVCViewHandler@@ABVSRect@@KG@Z)
004a4ef0 0000004c .text             CScrollerView.obj(??1CScrollerView@@UAE@XZ)
004a4f40 00000086 .text             CScrollerView.obj(?SetOptions@CScrollerView@@UAEXG@Z)
004a4fd0 0000001d .text             CScrollerView.obj(?GetOptions@CScrollerView@@QBEGXZ)
004a4ff0 00000069 .text             CScrollerView.obj(?SetCanFocus@CScrollerView@@UAEX_N@Z)
004a5060 00000064 .text             CScrollerView.obj(?SetMargin@CScrollerView@@UAEXG@Z)
004a50d0 00000027 .text             CScrollerView.obj(?GetVisibleContentHeight@CScrollerView@@QBEJXZ)
004a5100 00000027 .text             CScrollerView.obj(?GetVisibleContentWidth@CScrollerView@@QBEJXZ)
004a5130 000000c0 .text             CScrollerView.obj(?SetContentColor@CScrollerView@@QAEXABVSColor@@@Z)
004a51f0 000001bb .text             CScrollerView.obj(?SetScroll@CScrollerView@@UAEXKK@Z)
004a53b0 00000033 .text             CScrollerView.obj(?GetScroll@CScrollerView@@QBEXAAK0@Z)
004a53f0 0000006d .text             CScrollerView.obj(?Scroll@CScrollerView@@QAEXJJ@Z)
004a5460 00000044 .text             CScrollerView.obj(?ScrollToTop@CScrollerView@@QAEXXZ)
004a54b0 00000044 .text             CScrollerView.obj(?ScrollToLeft@CScrollerView@@QAEXXZ)
004a5500 00000044 .text             CScrollerView.obj(?ScrollToBottom@CScrollerView@@QAEXXZ)
004a5550 00000044 .text             CScrollerView.obj(?ScrollToRight@CScrollerView@@QAEXXZ)
004a55a0 00000145 .text             CScrollerView.obj(?ScrollToRect@CScrollerView@@QAEXABVSRect@@G@Z)
004a56f0 0000002c .text             CScrollerView.obj(?IsScrolledToBottom@CScrollerView@@QAE_NXZ)
004a5720 00000620 .text             CScrollerView.obj(?Draw@CScrollerView@@UAEXPAVTImageObj@@ABVSRect@@K@Z)
004a5d40 00000035 .text             CScrollerView.obj(??1StClipSaver@@QAE@XZ)
004a5d80 000005fe .text             CScrollerView.obj(?MouseDown@CScrollerView@@UAEXABUSMouseMsgData@@@Z)
004a6380 00000394 .text             CScrollerView.obj(?MouseUp@CScrollerView@@UAEXABUSMouseMsgData@@@Z)
004a6720 0000002b .text             CScrollerView.obj(?MouseEnter@CScrollerView@@UAEXABUSMouseMsgData@@@Z)
004a6750 000002af .text             CScrollerView.obj(?MouseMove@CScrollerView@@UAEXABUSMouseMsgData@@@Z)
004a6a00 000000b1 .text             CScrollerView.obj(?MouseLeave@CScrollerView@@UAEXABUSMouseMsgData@@@Z)
004a6ac0 000000ac .text             CScrollerView.obj(?KeyDown@CScrollerView@@UAE_NABUSKeyMsgData@@@Z)
004a6b70 0000004e .text             CScrollerView.obj(?KeyUp@CScrollerView@@UAEXABUSKeyMsgData@@@Z)
004a6bc0 000000ac .text             CScrollerView.obj(?KeyRepeat@CScrollerView@@UAE_NABUSKeyMsgData@@@Z)
004a6c70 0000002b .text             CScrollerView.obj(?DragEnter@CScrollerView@@UAEXABUSDragMsgData@@@Z)
004a6ca0 0000020b .text             CScrollerView.obj(?DragMove@CScrollerView@@UAEXABUSDragMsgData@@@Z)
004a6eb0 0000012a .text             CScrollerView.obj(?DragLeave@CScrollerView@@UAEXABUSDragMsgData@@@Z)
004a6fe0 000000a0 .text             CScrollerView.obj(?Drop@CScrollerView@@UAE_NABUSDragMsgData@@@Z)
004a7080 00000042 .text             CScrollerView.obj(?UpdateQuickTime@CScrollerView@@UAEXXZ)
004a70d0 00000047 .text             CScrollerView.obj(?SendToQuickTime@CScrollerView@@UAEXABUEventRecord@@@Z)
004a7120 000001d2 .text             CScrollerView.obj(?Timer@CScrollerView@@UAEXPAVTTimerObj@@@Z)
004a7300 00000081 .text             CScrollerView.obj(?SetEnable@CScrollerView@@UAE_N_N@Z)
004a7390 000001c7 .text             CScrollerView.obj(?UpdateActive@CScrollerView@@IAEXXZ)
004a7560 00000066 .text             CScrollerView.obj(?ChangeState@CScrollerView@@UAE_NG@Z)
004a75d0 0000004f .text             CScrollerView.obj(?TabFocusNext@CScrollerView@@UAE_NXZ)
004a7620 0000004f .text             CScrollerView.obj(?TabFocusPrev@CScrollerView@@UAE_NXZ)
004a7670 000002d8 .text             CScrollerView.obj(?SetBounds@CScrollerView@@UAE_NABVSRect@@@Z)
004a7950 0000005e .text             CScrollerView.obj(?MouseCaptureReleased@CScrollerView@@UAEXXZ)
004a79b0 0000004f .text             CScrollerView.obj(?CalcRects@CScrollerView@@IAEXXZ)
004a7a00 00000512 .text             CScrollerView.obj(?IntCalcRects@CScrollerView@@MAEXXZ)
004a7f20 0000008d .text             CScrollerView.obj(?CalcValues@CScrollerView@@IAEXXZ)
004a7fb0 0000018a .text             CScrollerView.obj(?CalcValuesAndRefresh@CScrollerView@@IAEXXZ)
004a8140 000000eb .text             CScrollerView.obj(?IntCalcValues@CScrollerView@@MAEXXZ)
004a8230 000000b5 .text             CScrollerView.obj(?HandleInstall@CScrollerView@@MAEXPAVCView@@@Z)
004a82f0 00000097 .text             CScrollerView.obj(?HandleRemove@CScrollerView@@MAEXPAVCView@@@Z)
004a8390 0000008b .text             CScrollerView.obj(?HandleRefresh@CScrollerView@@MAEXPAVCView@@ABVSRect@@@Z)
004a8420 00000038 .text             CScrollerView.obj(?HandleHit@CScrollerView@@MAEXPAVCView@@ABUSHitMsgData@@@Z)
004a8460 00000039 .text             CScrollerView.obj(?HandleGetScreenDelta@CScrollerView@@MAEXPAVCView@@AAJ1@Z)
004a84a0 00000094 .text             CScrollerView.obj(?HandleGetVisibleRect@CScrollerView@@MAEXPAVCView@@AAVSRect@@@Z)
004a8540 00000058 .text             CScrollerView.obj(?HandleSetBounds@CScrollerView@@MAEXPAVCView@@ABVSRect@@@Z)
004a85a0 00000025 .text             CScrollerView.obj(?HandleMakeRectVisible@CScrollerView@@MAEXABVSRect@@G@Z)
004a85d0 0000006b .text             CScrollerView.obj(?HandleCaptureMouse@CScrollerView@@MAEXPAVCView@@@Z)
004a8640 00000052 .text             CScrollerView.obj(?HandleReleaseMouse@CScrollerView@@MAEXPAVCView@@@Z)
004a86a0 0000004c .text             CScrollerView.obj(?HandleGetOrigin@CScrollerView@@MAEXAAVSPoint@@@Z)
004a86f0 00000030 .text             CScrollerView.obj(?HandleGetCaptureMouseView@CScrollerView@@MAEPAVCView@@XZ)
004a8720 0000001d .text             CScrollerView.obj(?HandleGetParentWindow@CScrollerView@@MAEPAVCWindow@@XZ)
004a8740 00000008 .text             CScrollerView.obj(@44@??_ECScrollerView@@UAE@I@Z)
004a8750 000000d1 .text             CCheckBoxView.obj(??0CCheckBoxView@@QAE@PAVCViewHandler@@ABVSRect@@@Z)
004a8830 00000040 .text             CCheckBoxView.obj(??1CCheckBoxView@@UAE@XZ)
004a8870 00000065 .text             CCheckBoxView.obj(?SetTitle@CCheckBoxView@@UAEXPBXK@Z)
004a88e0 00000046 .text             CCheckBoxView.obj(?SetFont@CCheckBoxView@@UAEXPAVTFontDescObj@@@Z)
004a8930 00000043 .text             CCheckBoxView.obj(?SetStyle@CCheckBoxView@@UAEXG@Z)
004a8980 00000056 .text             CCheckBoxView.obj(?SetMark@CCheckBoxView@@UAEXG@Z)
004a89e0 00000150 .text             CCheckBoxView.obj(?Draw@CCheckBoxView@@UAEXPAVTImageObj@@ABVSRect@@K@Z)
004a8b30 0000006f .text             CCheckBoxView.obj(?MouseDown@CCheckBoxView@@UAEXABUSMouseMsgData@@@Z)
004a8ba0 00000116 .text             CCheckBoxView.obj(?MouseUp@CCheckBoxView@@UAEXABUSMouseMsgData@@@Z)
004a8cc0 000000c6 .text             CCheckBoxView.obj(?MouseEnter@CCheckBoxView@@UAEXABUSMouseMsgData@@@Z)
004a8d90 00000053 .text             CCheckBoxView.obj(?MouseLeave@CCheckBoxView@@UAEXABUSMouseMsgData@@@Z)
004a8df0 00000116 .text             CCheckBoxView.obj(?KeyDown@CCheckBoxView@@UAE_NABUSKeyMsgData@@@Z)
004a8f10 00000145 .text             CCheckBoxView.obj(?UpdateActive@CCheckBoxView@@IAEXXZ)
004a9060 00000046 .text             CCheckBoxView.obj(?ChangeState@CCheckBoxView@@UAE_NG@Z)
004a90b0 00000061 .text             CCheckBoxView.obj(?SetEnable@CCheckBoxView@@UAE_N_N@Z)
004a9120 00000089 .text             CCheckBoxView.obj(?RefreshBox@CCheckBoxView@@MAEXXZ)
004a91b0 00000047 .text             CCheckBoxView.obj(??_ECCheckBoxView@@UAE@I@Z)
004a9200 00000053 .text             CTabbedListView.obj(??0CTabbedListView@@QAE@PAVCViewHandler@@ABVSRect@@_N@Z)
004a9260 00000037 .text             CTabbedListView.obj(?SetBounds@CTabbedListView@@UAE_NABVSRect@@@Z)
004a92a0 00000051 .text             CTabbedListView.obj(?MouseDown@CTabbedListView@@UAEXABUSMouseMsgData@@@Z)
004a9300 00000051 .text             CTabbedListView.obj(?MouseUp@CTabbedListView@@UAEXABUSMouseMsgData@@@Z)
004a9360 0000002e .text             CTabbedListView.obj(?MouseMove@CTabbedListView@@UAEXABUSMouseMsgData@@@Z)
004a9390 0000002e .text             CTabbedListView.obj(?MouseLeave@CTabbedListView@@UAEXABUSMouseMsgData@@@Z)
004a93c0 00000130 .text             CTabbedListView.obj(?ItemDraw@CTabbedListView@@MAEXKPAVTImageObj@@ABVSRect@@1K@Z)
004a94f0 00000015 .text             CTabbedListView.obj(?ItemDraw@CTabbedListView@@MAEXKPAVTImageObj@@ABVSRect@@ABV?$CPtrList@VSRect@@@@K@Z)
004a9510 00000049 .text             CTabbedListView.obj(?ItemMouseDown@CTabbedListView@@MAEXKABUSMouseMsgData@@@Z)
004a9560 00000049 .text             CTabbedListView.obj(?ItemMouseUp@CTabbedListView@@MAEXKABUSMouseMsgData@@@Z)
004a95b0 00000049 .text             CTabbedListView.obj(?ItemMouseEnter@CTabbedListView@@MAEXKABUSMouseMsgData@@@Z)
004a9600 00000049 .text             CTabbedListView.obj(?ItemMouseMove@CTabbedListView@@MAEXKABUSMouseMsgData@@@Z)
004a9650 00000049 .text             CTabbedListView.obj(?ItemMouseLeave@CTabbedListView@@MAEXKABUSMouseMsgData@@@Z)
004a96a0 0000002e .text             CTabbedListView.obj(?RefreshTabView@CTabbedListView@@MAEXXZ)
004a96d0 00000044 .text             CTabbedListView.obj(?GetTabViewBounds@CTabbedListView@@MAEXAAVSRect@@@Z)
004a9720 00000071 .text             CTabbedListView.obj(?GetTabViewScrollPos@CTabbedListView@@MAEXAAK0@Z)
004a97a0 0000001d .text             CTabbedListView.obj(?GetTabHeight@CTabbedListView@@MBEKXZ)
004a97c0 000000d2 .text             CTabbedItemsView.obj(??0CTabbedItemsView@@QAE@_N@Z)
004a98a0 00000015 .text             CTabbedItemsView.obj(??1?$CPtrList@USTabItemInfo@@@@QAE@XZ)
004a98c0 000000e5 .text             CTabbedItemsView.obj(??1CTabbedItemsView@@UAE@XZ)
004a99b0 000000dc .text             CTabbedItemsView.obj(?AddTab@CTabbedItemsView@@QAEKPBEGGE@Z)
004a9a90 000000ac .text             CTabbedItemsView.obj(?SetTabWidth@CTabbedItemsView@@QAE_NKG@Z)
004a9b40 000001a7 .text             CTabbedItemsView.obj(?SetTabPercent@CTabbedItemsView@@QAE_NABV?$CPtrList@E@@@Z)
004a9cf0 0000006e .text             CTabbedItemsView.obj(?GetTabWidth@CTabbedItemsView@@QAEGK@Z)
004a9d60 00000123 .text             CTabbedItemsView.obj(?GetTabPercent@CTabbedItemsView@@QAEEK@Z)
004a9e90 00000083 .text             CTabbedItemsView.obj(?TabMouseDown@CTabbedItemsView@@QAEXABUSMouseMsgData@@@Z)
004a9f20 0000007b .text             CTabbedItemsView.obj(?TabMouseUp@CTabbedItemsView@@QAEXABUSMouseMsgData@@@Z)
004a9fa0 000001a7 .text             CTabbedItemsView.obj(?TabMouseMove@CTabbedItemsView@@QAEXABUSMouseMsgData@@@Z)
004aa150 00000027 .text             CTabbedItemsView.obj(?TabMouseLeave@CTabbedItemsView@@QAEXABUSMouseMsgData@@@Z)
004aa180 00000453 .text             CTabbedItemsView.obj(?DrawTabHeader@CTabbedItemsView@@IAEXPAVTImageObj@@ABVSRect@@@Z)
004aa5e0 0000013a .text             CTabbedItemsView.obj(?SetTabRectList@CTabbedItemsView@@IAEXXZ)
004aa720 00000093 .text             CTabbedItemsView.obj(?IsMouseOnTab@CTabbedItemsView@@IAE_NABVSPoint@@@Z)
004aa7c0 00000095 .text             CTabbedItemsView.obj(?GetTabIndex@CTabbedItemsView@@IAEKABVSPoint@@@Z)
004aa860 00000047 .text             CTabbedItemsView.obj(??_ECTabbedItemsView@@UAE@I@Z)
004aa8b0 00000033 .text             CBoolArray.obj(??0CBoolArray@@QAE@XZ)
004aa8f0 00000021 .text             CBoolArray.obj(??1CBoolArray@@QAE@XZ)
004aa920 0000007c .text             CBoolArray.obj(?ExpandData@CBoolArray@@IAEXK@Z)
004aa9a0 0000008c .text             CBoolArray.obj(?ShrinkData@CBoolArray@@IAEXK@Z)
004aaa30 0000005d .text             CBoolArray.obj(?ShiftItems@CBoolArray@@IAEXKKK@Z)
004aaa90 000000be .text             CBoolArray.obj(?InsertItems@CBoolArray@@QAEKKK_N@Z)
004aab50 00000029 .text             CBoolArray.obj(?InsertItem@CBoolArray@@QAEKK_N@Z)
004aab80 00000064 .text             CBoolArray.obj(?RemoveItems@CBoolArray@@QAEXKK@Z)
004aabf0 00000022 .text             CBoolArray.obj(?RemoveItem@CBoolArray@@QAEXK@Z)
004aac20 0000003b .text             CBoolArray.obj(?Clear@CBoolArray@@QAEXXZ)
004aac60 0000006d .text             CBoolArray.obj(?GetItem@CBoolArray@@QBE_NK@Z)
004aacd0 00000060 .text             CBoolArray.obj(?SetItem@CBoolArray@@QAEXK_N@Z)
004aad30 00000079 .text             CBoolArray.obj(?GetFirstSet@CBoolArray@@QBEKXZ)
004aadb0 00000079 .text             CBoolArray.obj(?GetLastSet@CBoolArray@@QBEKXZ)
004aae30 0000010d .text             CBoolArray.obj(?MoveItems@CBoolArray@@QAEXKKK@Z)
004aaf40 0000006c .text             CBoolArray.obj(?SwapItems@CBoolArray@@QAEXKKK@Z)
004aafb0 0000004d .text             CListView.obj(??0CListView@@QAE@PAVCViewHandler@@ABVSRect@@@Z)
004ab000 0000003c .text             CListView.obj(?IsValidItem@CListView@@UBE_NK@Z)
004ab040 00000036 .text             CListView.obj(?GetNextItem@CListView@@UBE_NAAK@Z)
004ab080 00000073 .text             CListView.obj(?GetPrevItem@CListView@@UBE_NAAK@Z)
004ab100 0000007a .text             CListView.obj(?SetItemSelect@CListView@@UAEXK_N@Z)
004ab180 00000025 .text             CListView.obj(?IsItemSelected@CListView@@UBE_NK@Z)
004ab1b0 00000020 .text             CListView.obj(?GetFirstSelectedItem@CListView@@UBEKXZ)
004ab1d0 00000020 .text             CListView.obj(?GetLastSelectedItem@CListView@@UBEKXZ)
004ab1f0 00000119 .text             CListView.obj(?SetItemRangeSelect@CListView@@UAEXKK_N@Z)
004ab310 00000073 .text             CListView.obj(?GetItemRect@CListView@@UBEXKAAVSRect@@@Z)
004ab390 000000ee .text             CListView.obj(?GetSelectedItemsRect@CListView@@UBEXAAVSRect@@@Z)
004ab480 0000008f .text             CListView.obj(?PointToItem@CListView@@UBEKABVSPoint@@@Z)
004ab510 0000003c .text             CListView.obj(?GetFullSize@CListView@@UBEXAAK0@Z)
004ab550 0000006a .text             CListView.obj(?GetFullHeight@CListView@@UBEKXZ)
004ab5c0 0000001f .text             CListView.obj(?GetFullWidth@CListView@@UBEKXZ)
004ab5e0 00000161 .text             CListView.obj(?Draw@CListView@@UAEXPAVTImageObj@@ABVSRect@@K@Z)
004ab750 00000020 .text             CListView.obj(?DragEnter@CListView@@UAEXABUSDragMsgData@@@Z)
004ab770 00000020 .text             CListView.obj(?DragLeave@CListView@@UAEXABUSDragMsgData@@@Z)
004ab790 000000a8 .text             CListView.obj(?ItemsInserted@CListView@@MAEXKK@Z)
004ab840 000000a6 .text             CListView.obj(?ItemsRemoved@CListView@@MAEXKK@Z)
004ab8f0 000000dd .text             CListView.obj(?ItemsMoved@CListView@@MAEXKKK@Z)
004ab9d0 000000dd .text             CListView.obj(?ItemsSwapped@CListView@@MAEXKKK@Z)
004abab0 00000035 .text             CPtrList.obj(??0CVoidPtrList@@QAE@XZ)
004abaf0 00000021 .text             CPtrList.obj(??1CVoidPtrList@@QAE@XZ)
004abb20 000000cf .text             CPtrList.obj(?AddItem@CVoidPtrList@@QAEKPAX@Z)
004abbf0 00000061 .text             CPtrList.obj(?Preallocate@CVoidPtrList@@QAEXK@Z)
004abc60 00000151 .text             CPtrList.obj(?InsertItem@CVoidPtrList@@QAEKKPAX@Z)
004abdc0 0000012f .text             CPtrList.obj(?RemoveItem@CVoidPtrList@@QAEKPAX@Z)
004abef0 00000109 .text             CPtrList.obj(?RemoveItem@CVoidPtrList@@QAEPAXK@Z)
004ac000 0000003d .text             CPtrList.obj(?Clear@CVoidPtrList@@QAEXXZ)
004ac040 00000062 .text             CPtrList.obj(?GetItemIndex@CVoidPtrList@@QBEKPAX@Z)
004ac0b0 00000185 .text             CPtrList.obj(?Sort@CVoidPtrList@@QAEXP6AJPAX00@Z0@Z)
004ac240 00000090 .text             CPtrList.obj(?Truncate@CVoidPtrList@@QAEXK@Z)
004ac2d0 00000045 .text             CItemsView.obj(??0CItemsView@@QAE@PAVCViewHandler@@ABVSRect@@@Z)
004ac320 00000048 .text             CItemsView.obj(?GetItemRegion@CItemsView@@UBEXKPAVTRegionObj@@@Z)
004ac370 000000ca .text             CItemsView.obj(?PointToItem@CItemsView@@UBEKABVSPoint@@@Z)
004ac440 0000004d .text             CItemsView.obj(?RefreshItem@CItemsView@@QAEXK@Z)
004ac490 00000088 .text             CItemsView.obj(?MakeItemVisible@CItemsView@@QAEXKG@Z)
004ac520 000000a6 .text             CItemsView.obj(?GetFullSize@CItemsView@@UBEXAAK0@Z)
004ac5d0 0000007a .text             CItemsView.obj(?GetFullHeight@CItemsView@@UBEKXZ)
004ac650 0000007a .text             CItemsView.obj(?GetFullWidth@CItemsView@@UBEKXZ)
004ac6d0 00000088 .text             CItemsView.obj(?Draw@CItemsView@@UAEXPAVTImageObj@@ABVSRect@@K@Z)
004ac760 000000d8 .text             CItemsView.obj(?MouseDown@CItemsView@@UAEXABUSMouseMsgData@@@Z)
004ac840 00000057 .text             CItemsView.obj(?MouseUp@CItemsView@@UAEXABUSMouseMsgData@@@Z)
004ac8a0 0000002b .text             CItemsView.obj(?MouseEnter@CItemsView@@UAEXABUSMouseMsgData@@@Z)
004ac8d0 000000c0 .text             CItemsView.obj(?MouseMove@CItemsView@@UAEXABUSMouseMsgData@@@Z)
004ac990 00000057 .text             CItemsView.obj(?MouseLeave@CItemsView@@UAEXABUSMouseMsgData@@@Z)
004ac9f0 00000015 .text             CItemsView.obj(?ItemDraw@CItemsView@@MAEXKPAVTImageObj@@ABVSRect@@1K@Z)
004aca10 00000015 .text             CItemsView.obj(?ItemMouseDown@CItemsView@@MAEXKABUSMouseMsgData@@@Z)
004aca30 00000015 .text             CItemsView.obj(?ItemMouseUp@CItemsView@@MAEXKABUSMouseMsgData@@@Z)
004aca50 00000015 .text             CItemsView.obj(?ItemMouseEnter@CItemsView@@MAEXKABUSMouseMsgData@@@Z)
004aca70 00000015 .text             CItemsView.obj(?ItemMouseMove@CItemsView@@MAEXKABUSMouseMsgData@@@Z)
004aca90 00000015 .text             CItemsView.obj(?ItemMouseLeave@CItemsView@@MAEXKABUSMouseMsgData@@@Z)
004acab0 00000069 .text             CItemsView.obj(?ItemsInserted@CItemsView@@MAEXKK@Z)
004acb20 00000069 .text             CItemsView.obj(?ItemsRemoved@CItemsView@@MAEXKK@Z)
004acb90 00000015 .text             CItemsView.obj(?ItemsMoved@CItemsView@@MAEXKKK@Z)
004acbb0 00000015 .text             CItemsView.obj(?ItemsSwapped@CItemsView@@MAEXKKK@Z)
004acbd0 00000073 .text             CItemsView.obj(??0CSelectableItemsView@@QAE@PAVCViewHandler@@ABVSRect@@@Z)
004acc50 00000048 .text             CItemsView.obj(?GetFirstSelectedItem@CSelectableItemsView@@UBEKXZ)
004acca0 00000060 .text             CItemsView.obj(?GetLastSelectedItem@CSelectableItemsView@@UBEKXZ)
004acd00 00000052 .text             CItemsView.obj(?SetItemRangeSelect@CSelectableItemsView@@UAEXKK_N@Z)
004acd60 00000072 .text             CItemsView.obj(?DeselectAll@CSelectableItemsView@@QAEXXZ)
004acde0 0000001f .text             CItemsView.obj(?SetBehaviour@CSelectableItemsView@@UAEXG@Z)
004ace00 00000080 .text             CItemsView.obj(?GetSelectedItemsRegion@CSelectableItemsView@@UBEXPAVTRegionObj@@@Z)
004ace80 000000af .text             CItemsView.obj(?GetSelectedItemsRect@CSelectableItemsView@@UBEXAAVSRect@@@Z)
004acf30 00000030 .text             CItemsView.obj(?GetSelectedItemsImage@CSelectableItemsView@@UBEPAVTImageObj@@AAVSPoint@@@Z)
004acf60 00000056 .text             CItemsView.obj(?GetNextSelectedItem@CSelectableItemsView@@UBE_NAAK@Z)
004acfc0 0000032b .text             CItemsView.obj(?KeyDown@CSelectableItemsView@@UAE_NABUSKeyMsgData@@@Z)
004ad2f0 00000015 .text             CItemsView.obj(?KeyUp@CSelectableItemsView@@UAEXABUSKeyMsgData@@@Z)
004ad310 00000022 .text             CItemsView.obj(?KeyRepeat@CSelectableItemsView@@UAE_NABUSKeyMsgData@@@Z)
004ad340 0000004f .text             CItemsView.obj(?Drop@CSelectableItemsView@@UAE_NABUSDragMsgData@@@Z)
004ad390 00000086 .text             CItemsView.obj(?ChangeState@CSelectableItemsView@@UAE_NG@Z)
004ad420 0000052e .text             CItemsView.obj(?ItemMouseDown@CSelectableItemsView@@MAEXKABUSMouseMsgData@@@Z)
004ad950 00000056 .text             CItemsView.obj(?ItemMouseUp@CSelectableItemsView@@MAEXKABUSMouseMsgData@@@Z)
004ad9b0 00000023 .text             CItemsView.obj(?ItemMouseEnter@CSelectableItemsView@@MAEXKABUSMouseMsgData@@@Z)
004ad9e0 00000224 .text             CItemsView.obj(?ItemMouseMove@CSelectableItemsView@@MAEXKABUSMouseMsgData@@@Z)
004adc10 00000015 .text             CItemsView.obj(?ItemMouseLeave@CSelectableItemsView@@MAEXKABUSMouseMsgData@@@Z)
004adc30 00000042 .text             CItemsView.obj(?ItemDrag@CSelectableItemsView@@MAEXKABUSMouseMsgData@@@Z)
004adc80 00000015 .text             UDragAndDrop(W).obj(?Init@UDragAndDrop@@SAXXZ)
004adca0 00000007 .text             UDragAndDrop(W).obj(?IsAvailable@UDragAndDrop@@SA_NXZ)
004adcb0 00000065 .text             UDragAndDrop(W).obj(?New@UDragAndDrop@@SAPAVTDragObj@@XZ)
004add20 000000a6 .text             UDragAndDrop(W).obj(?Dispose@UDragAndDrop@@SAXPAVTDragObj@@@Z)
004addd0 000000fe .text             UDragAndDrop(W).obj(?Track@UDragAndDrop@@SA_NPAVTDragObj@@ABVSPoint@@PAVTRegionObj@@@Z)
004aded0 00000015 .text             UDragAndDrop(W).obj(?SetDragAction@UDragAndDrop@@SAXPAVTDragObj@@G@Z)
004adef0 00000019 .text             UDragAndDrop(W).obj(?GetDragAction@UDragAndDrop@@SAGPAVTDragObj@@@Z)
004adf10 00000015 .text             UDragAndDrop(W).obj(?AcceptDrop@UDragAndDrop@@SAXPAVTDragObj@@@Z)
004adf30 00000015 .text             UDragAndDrop(W).obj(?RejectDrop@UDragAndDrop@@SAXPAVTDragObj@@@Z)
004adf50 00000042 .text             UDragAndDrop(W).obj(?GetItemCount@UDragAndDrop@@SAKPAVTDragObj@@@Z)
004adfa0 00000008 .text             UDragAndDrop(W).obj(?GetItem@UDragAndDrop@@SAKPAVTDragObj@@K@Z)
004adfb0 000000ba .text             UDragAndDrop(W).obj(?HasFlavor@UDragAndDrop@@SA_NPAVTDragObj@@K@Z)
004ae070 00000147 .text             UDragAndDrop(W).obj(?AddFlavor@UDragAndDrop@@SAXPAVTDragObj@@KKPBXKK@Z)
004ae1c0 0000027d .text             UDragAndDrop(W).obj(?AddTextFlavor@UDragAndDrop@@SAXPAVTDragObj@@KPBXKKK@Z)
004ae440 0000021f .text             UDragAndDrop(W).obj(?GetFlavorData@UDragAndDrop@@SAKPAVTDragObj@@KKPAXKK@Z)
004ae660 000001b0 .text             UDragAndDrop(W).obj(?GetFlavorDataSize@UDragAndDrop@@SAKPAVTDragObj@@KK@Z)
004ae810 00000080 .text             UDragAndDrop(W).obj(?GetFileSysFlavor@UDragAndDrop@@SAPAVTFSRefObj@@PAVTDragObj@@K@Z)
004ae890 00000113 .text             UDragAndDrop(W).obj(?AddPromisedFileSysFlavor@UDragAndDrop@@SAXPAVTDragObj@@KPBDK@Z)
004ae9b0 00000056 .text             UDragAndDrop(W).obj(?GetDropFolder@UDragAndDrop@@SAPAVTFSRefObj@@PAVTDragObj@@@Z)
004aea10 00000007 .text             UDragAndDrop(W).obj(?DropLocationIsTrash@UDragAndDrop@@SA_NPAVTDragObj@@@Z)
004aea20 00000017 .text             UDragAndDrop(W).obj(?SetSendHandler@UDragAndDrop@@SAXPAVTDragObj@@P6AX0KKPAXPA_N2@Z1@Z)
004aea40 00000046 .text             UDragAndDrop(W).obj(?DrawHilite@UDragAndDrop@@SAXPAVTImageObj@@ABVSRect@@ABVSColor@@@Z)
004aea90 00000038 .text             UDragAndDrop(W).obj(?DrawHilite@UDragAndDrop@@SAXPAVTImageObj@@ABVSRect@@@Z)
004aead0 0000000a .text             UDragAndDrop(W).obj(?IsTracking@UDragAndDrop@@SA_NXZ)
004aeae0 000000b9 .text             UDragAndDrop(W).obj(?Equals@UDragAndDrop@@SA_NPAVTDragObj@@0@Z)
004aeba0 00000058 .text             UDragAndDrop(W).obj(?_DDLookupAWFlav@@YAPBUFlavMap@@K@Z)
004aec00 0000005a .text             UDragAndDrop(W).obj(?_DDLookupWinFlav@@YAPBUFlavMap@@G@Z)
004aec60 00000068 .text             UDragAndDrop(W).obj(?_DDRegisterWinForDrop@@YAXPAUHWND__@@PAX@Z)
004aecd0 00000034 .text             UDragAndDrop(W).obj(??0_DDDataObject@@QAE@PAPAUSDDFlav@@@Z)
004aed10 000000b7 .text             UDragAndDrop(W).obj(?QueryInterface@_DDDataObject@@UAGJABU_GUID@@PAPAX@Z)
004aedd0 00000013 .text             UDragAndDrop(W).obj(?AddRef@_DDDataObject@@UAGKXZ)
004aedf0 0000002e .text             UDragAndDrop(W).obj(?Release@_DDDataObject@@UAGKXZ)
004aee20 0000026b .text             UDragAndDrop(W).obj(?GetData@_DDDataObject@@UAGJPAUtagFORMATETC@@PAUtagSTGMEDIUM@@@Z)
004af090 0000035f .text             UDragAndDrop(W).obj(?GetDataHere@_DDDataObject@@UAGJPAUtagFORMATETC@@PAUtagSTGMEDIUM@@@Z)
004af3f0 000000f5 .text             UDragAndDrop(W).obj(?QueryGetData@_DDDataObject@@UAGJPAUtagFORMATETC@@@Z)
004af4f0 0000001b .text             UDragAndDrop(W).obj(?GetCanonicalFormatEtc@_DDDataObject@@UAGJPAUtagFORMATETC@@0@Z)
004af510 000001fb .text             UDragAndDrop(W).obj(?SetData@_DDDataObject@@UAGJPAUtagFORMATETC@@PAUtagSTGMEDIUM@@H@Z)
004af710 0000014c .text             UDragAndDrop(W).obj(?EnumFormatEtc@_DDDataObject@@UAGJKPAPAUIEnumFORMATETC@@@Z)
004af860 0000000c .text             UDragAndDrop(W).obj(?DAdvise@_DDDataObject@@UAGJPAUtagFORMATETC@@KPAUIAdviseSink@@PAK@Z)
004af870 0000000c .text             UDragAndDrop(W).obj(?DUnadvise@_DDDataObject@@UAGJK@Z)
004af880 0000000c .text             UDragAndDrop(W).obj(?EnumDAdvise@_DDDataObject@@UAGJPAPAUIEnumSTATDATA@@@Z)
004af890 00000029 .text             UDragAndDrop(W).obj(??0_DDDropSource@@QAE@XZ)
004af8c0 00000068 .text             UDragAndDrop(W).obj(?QueryInterface@_DDDropSource@@UAGJABU_GUID@@PAPAX@Z)
004af930 00000013 .text             UDragAndDrop(W).obj(?AddRef@_DDDropSource@@UAGKXZ)
004af950 0000002e .text             UDragAndDrop(W).obj(?Release@_DDDropSource@@UAGKXZ)
004af980 00000034 .text             UDragAndDrop(W).obj(?QueryContinueDrag@_DDDropSource@@UAGJHK@Z)
004af9c0 0000000c .text             UDragAndDrop(W).obj(?GiveFeedback@_DDDropSource@@UAGJK@Z)
004af9d0 000000b7 .text             UDragAndDrop(W).obj(??0_DDFormatEtcEnum@@QAE@KPAUtagFORMATETC@@@Z)
004afa90 00000068 .text             UDragAndDrop(W).obj(?QueryInterface@_DDFormatEtcEnum@@UAGJABU_GUID@@PAPAX@Z)
004afb00 00000013 .text             UDragAndDrop(W).obj(?AddRef@_DDFormatEtcEnum@@UAGKXZ)
004afb20 0000002e .text             UDragAndDrop(W).obj(?Release@_DDFormatEtcEnum@@UAGKXZ)
004afb50 000000d7 .text             UDragAndDrop(W).obj(?Next@_DDFormatEtcEnum@@UAGJKPAUtagFORMATETC@@PAK@Z)
004afc30 0000007f .text             UDragAndDrop(W).obj(?Skip@_DDFormatEtcEnum@@UAGJK@Z)
004afcb0 00000018 .text             UDragAndDrop(W).obj(?Reset@_DDFormatEtcEnum@@UAGJXZ)
004afcd0 0000007b .text             UDragAndDrop(W).obj(?Clone@_DDFormatEtcEnum@@UAGJPAPAUIEnumFORMATETC@@@Z)
004afd50 00000066 .text             UDragAndDrop(W).obj(??0_DDDropTarget@@QAE@PAX@Z)
004afdc0 00000068 .text             UDragAndDrop(W).obj(?QueryInterface@_DDDropTarget@@UAGJABU_GUID@@PAPAX@Z)
004afe30 00000013 .text             UDragAndDrop(W).obj(?AddRef@_DDDropTarget@@UAGKXZ)
004afe50 0000002e .text             UDragAndDrop(W).obj(?Release@_DDDropTarget@@UAGKXZ)
004afe80 0000009e .text             UDragAndDrop(W).obj(?DragEnter@_DDDropTarget@@UAGJPAUIDataObject@@KU_POINTL@@PAK@Z)
004aff20 00000084 .text             UDragAndDrop(W).obj(?DragOver@_DDDropTarget@@UAGJKU_POINTL@@PAK@Z)
004affb0 00000063 .text             UDragAndDrop(W).obj(?DragLeave@_DDDropTarget@@UAGJXZ)
004b0020 000000d2 .text             UDragAndDrop(W).obj(?Drop@_DDDropTarget@@UAGJPAUIDataObject@@KU_POINTL@@PAK@Z)
004b0100 00000073 .text             UDragAndDrop(W).obj(?DispatchDrag@_DDDropTarget@@UAGHKKU_POINTL@@PAK@Z)
004b0180 00000015 .text             CDragAndDroppable.obj(?HandleDrag@CDragAndDropHandler@@UAEXPAVCDragAndDroppable@@ABUSMouseMsgData@@@Z)
004b01a0 00000015 .text             CDragAndDroppable.obj(?HandleSetDragAction@CDragAndDropHandler@@UAEXPAVCDragAndDroppable@@ABUSDragMsgData@@@Z)
004b01c0 00000017 .text             CDragAndDroppable.obj(?HandleDrop@CDragAndDropHandler@@UAE_NPAVCDragAndDroppable@@ABUSDragMsgData@@@Z)
004b01e0 00000029 .text             CDragAndDroppable.obj(??0CDragAndDroppable@@QAE@XZ)
004b0210 0000001e .text             CDragAndDroppable.obj(?SetDragAndDropHandler@CDragAndDroppable@@UAEXPAVCDragAndDropHandler@@@Z)
004b0230 00000019 .text             CDragAndDroppable.obj(?GetDragAndDropHandler@CDragAndDroppable@@QBEPAVCDragAndDropHandler@@XZ)
004b0250 000002bf .text             UUserInterface(W).obj(?UUserInterface_DrawStandardBox@@YAXPAVTImageObj@@ABVSRect@@PBVSColor@@_N33@Z)
004b0510 000003f6 .text             UUserInterface(W).obj(?UUserInterface_DrawEtchedBox@@YAXPAVTImageObj@@ABVSRect@@PBXK@Z)
004b0910 00000349 .text             UUserInterface(W).obj(?UUserInterface_DrawSunkenBox@@YAXPAVTImageObj@@ABVSRect@@PBVSColor@@@Z)
004b0c60 00000349 .text             UUserInterface(W).obj(?UUserInterface_DrawRaisedBox@@YAXPAVTImageObj@@ABVSRect@@PBVSColor@@@Z)
004b0fb0 000001db .text             UUserInterface(W).obj(?UUserInterface_DrawBarBox@@YAXPAVTImageObj@@ABVSRect@@@Z)
004b1190 000000ac .text             UUserInterface(W).obj(?GetHighlightColor@UUserInterface@@SAXPAVSColor@@0@Z)
004b1240 000000eb .text             UUserInterface(W).obj(?GetSysColor@UUserInterface@@SA_NKAAVSColor@@@Z)
004b1330 000000ae .text             UProgressBar.obj(?Draw@UProgressBar@@SAXPAVTImageObj@@ABVSRect@@ABUSProgressBarInfo@@@Z)
004b13e0 000000bb .text             UMath.obj(?GetRandom@UMath@@SAJJJ@Z)
004b14a0 0000004c .text             UMath.obj(?Add64@UMath@@SAXABUSHuge@@0AAU2@@Z)
004b14f0 000000ba .text             UMath.obj(?Mul64U@UMath@@SAXKKAAUSHuge@@@Z)
004b15b0 000000cc .text             UUserInterface.obj(?DrawStandardBox@UUserInterface@@SAXPAVTImageObj@@ABVSRect@@PBVSColor@@_N33@Z)
004b1680 000000b4 .text             UUserInterface.obj(?DrawEtchedBox@UUserInterface@@SAXPAVTImageObj@@ABVSRect@@PBXK@Z)
004b1740 000000ae .text             UUserInterface.obj(?DrawSunkenBox@UUserInterface@@SAXPAVTImageObj@@ABVSRect@@PBVSColor@@@Z)
004b17f0 000000ae .text             UUserInterface.obj(?DrawRaisedBox@UUserInterface@@SAXPAVTImageObj@@ABVSRect@@PBVSColor@@@Z)
004b18a0 000000a6 .text             UUserInterface.obj(?DrawBarBox@UUserInterface@@SAXPAVTImageObj@@ABVSRect@@@Z)
004b1950 00000057 .text             CPictureView.obj(??0CPictureView@@QAE@PAVCViewHandler@@ABVSRect@@@Z)
004b19b0 0000006e .text             CPictureView.obj(??0CPictureView@@QAE@PAVCViewHandler@@ABVSRect@@J@Z)
004b1a20 00000034 .text             CPictureView.obj(?Draw@CPictureView@@UAEXPAVTImageObj@@ABVSRect@@K@Z)
004b1a60 00000022 .text             URez.obj(?_RZGetNthItemListHdl@@YAPAVTHdlObj@@PAVTRezObj@@K@Z)
004b1a90 000000da .text             URez.obj(?New@URez@@SAPAVTRezObj@@P6AKPAXK0K@ZP6AK0KPBXK@ZP6AK0@ZP6AX0K@ZP6AK0K00@Z0_N@Z)
004b1b70 00000030 .text             URez.obj(?NewFromFile@URez@@SAPAVTRezObj@@PAVTFSRefObj@@_N@Z)
004b1ba0 000000d3 .text             URez.obj(?Dispose@URez@@SAXPAVTRezObj@@@Z)
004b1c80 00000065 .text             URez.obj(?ItemExists@URez@@SA_NPAVTRezObj@@KJ@Z)
004b1cf0 00000216 .text             URez.obj(?LoadItem@URez@@SAPAVTHdlObj@@PAVTRezObj@@KJK@Z)
004b1f10 000000d9 .text             URez.obj(?ReleaseItem@URez@@SAXPAVTRezObj@@KJ@Z)
004b1ff0 000000a0 .text             URez.obj(?AddSearchChainEnd@URez@@SAXPAVTRezObj@@K@Z)
004b2090 00000047 .text             URez.obj(?SearchChain@URez@@SAPAVTRezObj@@KJK@Z)
004b20e0 000000bd .text             URez.obj(?AddProgramFileToSearchChain@URez@@SAXPBE@Z)
004b21a0 000000ab .text             URez.obj(?Reload@URez@@SAPAVTHdlObj@@AAUSRezStub@@KJ@Z)
004b2250 00000191 .text             URez.obj(?_RZSearchTypeList@@YA_NPAVTRezObj@@KAAK@Z)
004b23f0 000001bc .text             URez.obj(?_RZSearchItemList@@YA_NPAVTHdlObj@@KAAK@Z)
004b25b0 000000a0 .text             URez.obj(?_RZDisposeItemList@@YAKPAVTHdlObj@@@Z)
004b2650 00000020 .text             URez.obj(?_RZFileGetSize@@YAKPAX@Z)
004b2670 00000119 .text             URez.obj(?_RZFileControl@@YAKPAXK00@Z)
004b2790 0000026e .text             URez.obj(?_RZAddItem@@YAJPAVTRezObj@@KPAUSRezItemEntry@@_N@Z)
004b2a00 0000054b .text             URez.obj(?_RZReadRezFile@@YAXPAVTRezObj@@@Z)
004b2f50 0000005d .text             CImageView.obj(??0CImageView@@QAE@PAVCViewHandler@@ABVSRect@@PAVCDecompressImage@@@Z)
004b2fb0 0000003c .text             CImageView.obj(??1CImageView@@UAE@XZ)
004b2ff0 0000018c .text             CImageView.obj(?Draw@CImageView@@UAEXPAVTImageObj@@ABVSRect@@K@Z)
004b3180 00000021 .text             CImageView.obj(??1StImageLocker@@QAE@XZ)
004b31b0 00000116 .text             CImageView.obj(?SetImage@CImageView@@UAE_NKK@Z)
004b32d0 00000072 .text             CImageView.obj(?FinishImage@CImageView@@UAE_NXZ)
004b3350 000000bb .text             CAnimatedGifView.obj(??0CAnimatedGifView@@QAE@PAVCViewHandler@@ABVSRect@@PAVCDecompressGif@@@Z)
004b3410 00000015 .text             CAnimatedGifView.obj(??1?$CPtrList@USImageInfo@@@@QAE@XZ)
004b3430 00000133 .text             CAnimatedGifView.obj(??1CAnimatedGifView@@UAE@XZ)
004b3570 0000008b .text             CAnimatedGifView.obj(?ImageTimer@CAnimatedGifView@@KAXPAX0KPBXK@Z)
004b3600 0000011c .text             CAnimatedGifView.obj(?CheckTimer@CAnimatedGifView@@IAEXXZ)
004b3720 000001dc .text             CAnimatedGifView.obj(?SaveBackground@CAnimatedGifView@@IAEXXZ)
004b3900 00000249 .text             CAnimatedGifView.obj(?RestoreBackground@CAnimatedGifView@@IAEXXZ)
004b3b50 000000d0 .text             CAnimatedGifView.obj(?Draw@CAnimatedGifView@@UAEXPAVTImageObj@@ABVSRect@@K@Z)
004b3c20 000000da .text             CAnimatedGifView.obj(?DrawImage@CAnimatedGifView@@IAE_NPAVTImageObj@@ABVSRect@@1G0@Z)
004b3d00 0000010c .text             CAnimatedGifView.obj(?DrawBackImage@CAnimatedGifView@@IAE_NPAVTImageObj@@ABVSRect@@10@Z)
004b3e10 000001d6 .text             CAnimatedGifView.obj(?DrawForeImage@CAnimatedGifView@@IAE_NPAVTImageObj@@ABVSRect@@1G@Z)
004b3ff0 000000b7 .text             CAnimatedGifView.obj(?MouseUp@CAnimatedGifView@@UAEXABUSMouseMsgData@@@Z)
004b40b0 00000069 .text             CAnimatedGifView.obj(?KeyUp@CAnimatedGifView@@UAEXABUSKeyMsgData@@@Z)
004b4120 0000003f .text             CAnimatedGifView.obj(?PlayImage@CAnimatedGifView@@UAEXXZ)
004b4160 00000039 .text             CAnimatedGifView.obj(?StopImage@CAnimatedGifView@@UAEXXZ)
004b41a0 00000289 .text             CAnimatedGifView.obj(?SetImage@CAnimatedGifView@@UAE_NKK@Z)
004b4430 0000002e .text             CAnimatedGifView.obj(?FinishImage@CAnimatedGifView@@UAE_NXZ)
004b4460 0000015d .text             CAnimatedGifView.obj(?InitAnimatedGif@CAnimatedGifView@@IAEXXZ)
004b45c0 00000189 .text             CAnimatedGifView.obj(?PutImageInList@CAnimatedGifView@@IAEXXZ)
004b4750 000000e4 .text             CAnimatedGifView.obj(?InitCompatibleImage@CAnimatedGifView@@IAE_NAAPAVTImageObj@@@Z)
004b4840 00000047 .text             CAnimatedGifView.obj(??_ECAnimatedGifView@@UAE@I@Z)
004b4890 000000cd .text             CQuickTimeView.obj(??0CQuickTimeView@@QAE@PAVCViewHandler@@ABVSRect@@GG@Z)
004b4960 00000035 .text             CQuickTimeView.obj(??1CQuickTimeView@@UAE@XZ)
004b49a0 000000c9 .text             CQuickTimeView.obj(?StreamMovie@CQuickTimeView@@QAE_NPAD@Z)
004b4a70 00000160 .text             CQuickTimeView.obj(?SetMovie@CQuickTimeView@@QAE_NPAXKK@Z)
004b4bd0 0000002e .text             CQuickTimeView.obj(?StartMovie@CQuickTimeView@@QAE_NXZ)
004b4c00 000000a8 .text             CQuickTimeView.obj(?CloseMovie@CQuickTimeView@@QAEXXZ)
004b4cb0 0000002e .text             CQuickTimeView.obj(?StopStreamMovie@CQuickTimeView@@QAE_NXZ)
004b4ce0 00000027 .text             CQuickTimeView.obj(?SetMaxMovieSize@CQuickTimeView@@QAEXKK@Z)
004b4d10 00000044 .text             CQuickTimeView.obj(?SetBounds@CQuickTimeView@@UAE_NABVSRect@@@Z)
004b4d60 00000072 .text             CQuickTimeView.obj(?SetVisible@CQuickTimeView@@UAE_N_N@Z)
004b4de0 0000005a .text             CQuickTimeView.obj(?SetEnable@CQuickTimeView@@UAE_N_N@Z)
004b4e40 0000008e .text             CQuickTimeView.obj(?ChangeState@CQuickTimeView@@UAE_NG@Z)
004b4ed0 00000202 .text             CQuickTimeView.obj(?UpdateQuickTimeBounds@CQuickTimeView@@UAE_NXZ)
004b50e0 0000006b .text             CQuickTimeView.obj(?UpdateQuickTime@CQuickTimeView@@UAEXXZ)
004b5150 0000002e .text             CQuickTimeView.obj(?SendToQuickTime@CQuickTimeView@@UAEXABUEventRecord@@@Z)
004b5180 00000015 .text             CQuickTimeView.obj(?SaveMovieAs@CQuickTimeView@@UAE_NXZ)
004b51a0 0000007e .text             CQuickTimeView.obj(?IsSupported@CQuickTimeView@@SA_NK@Z)
004b5220 00000019 .text             CQuickTimeView.obj(?IsVideoTrack@CQuickTimeView@@QAE_NXZ)
004b5240 00000037 .text             CQuickTimeView.obj(?MouseDown@CQuickTimeView@@UAEXABUSMouseMsgData@@@Z)
004b5280 00000037 .text             CQuickTimeView.obj(?MouseUp@CQuickTimeView@@UAEXABUSMouseMsgData@@@Z)
004b52c0 00000037 .text             CQuickTimeView.obj(?MouseEnter@CQuickTimeView@@UAEXABUSMouseMsgData@@@Z)
004b5300 0000006f .text             CQuickTimeView.obj(?MouseMove@CQuickTimeView@@UAEXABUSMouseMsgData@@@Z)
004b5370 0000002f .text             CQuickTimeView.obj(?MouseLeave@CQuickTimeView@@UAEXABUSMouseMsgData@@@Z)
004b53a0 00000140 .text             CQuickTimeView.obj(?MakeMovieFromFile@CQuickTimeView@@IAE_NPAVTFSRefObj@@@Z)
004b54e0 000000cf .text             CQuickTimeView.obj(?MakeMovieFromUrlHandle@CQuickTimeView@@IAE_NPAPAD_N@Z)
004b55b0 0000031d .text             CQuickTimeView.obj(?MakeController@CQuickTimeView@@IAE_NPAVTWindowObj@@PAUMovieRecord@@@Z)
004b58d0 00000128 .text             CQuickTimeView.obj(?MakeCustomMenu@CQuickTimeView@@IAE_NPAUEventRecord@@@Z)
004b5a00 000001a5 .text             CQuickTimeView.obj(?CalculateMovieSize@CQuickTimeView@@IAEXAAURect@@AAK1@Z)
004b5bb0 00000137 .text             CQuickTimeView.obj(?SetWindowSize@CQuickTimeView@@IAEXXZ)
004b5cf0 00000161 .text             CQuickTimeView.obj(?SetMovieSize@CQuickTimeView@@IAEXABURect@@@Z)
004b5e60 0000010a .text             CQuickTimeView.obj(?GetMovieSize@CQuickTimeView@@IAEXAAURect@@@Z)
004b5f70 00000076 .text             CQuickTimeView.obj(?MovieContains@CQuickTimeView@@IAE_NABVSPoint@@@Z)
004b5ff0 0000004a .text             CQuickTimeView.obj(?_QuickTimeFilterProc@@YAEPAUComponentInstanceRecord@@FPAXJ@Z)
004b6040 00000043 .text             CLaunchUrlView.obj(??0CLaunchUrlView@@QAE@PAVCViewHandler@@ABVSRect@@@Z)
004b6090 00000051 .text             CLaunchUrlView.obj(??1CLaunchUrlView@@UAE@XZ)
004b60f0 000000ad .text             CLaunchUrlView.obj(?MouseUp@CLaunchUrlView@@UAEXABUSMouseMsgData@@@Z)
004b61a0 00000028 .text             CLaunchUrlView.obj(?MouseEnter@CLaunchUrlView@@UAEXABUSMouseMsgData@@@Z)
004b61d0 00000028 .text             CLaunchUrlView.obj(?MouseMove@CLaunchUrlView@@UAEXABUSMouseMsgData@@@Z)
004b6200 00000028 .text             CLaunchUrlView.obj(?MouseLeave@CLaunchUrlView@@UAEXABUSMouseMsgData@@@Z)
004b6230 0000003e .text             CLaunchUrlView.obj(?ChangeState@CLaunchUrlView@@UAE_NG@Z)
004b6270 00000125 .text             CLaunchUrlView.obj(?SetURL@CLaunchUrlView@@QAEXPBE0@Z)
004b63a0 00000045 .text             CLaunchUrlView.obj(?GetURL@CLaunchUrlView@@QAEKPAXK@Z)
004b63f0 00000045 .text             CLaunchUrlView.obj(?GetComment@CLaunchUrlView@@QAEKPAXK@Z)
004b6440 0000006b .text             CLaunchUrlView.obj(?LaunchURL@CLaunchUrlView@@UAE_NXZ)
004b64b0 0000002e .text             CLaunchUrlView.obj(?SetMouseLaunch@CLaunchUrlView@@IAEXXZ)
004b64e0 0000002e .text             CLaunchUrlView.obj(?SetMouseStandard@CLaunchUrlView@@IAEXXZ)
004b6510 00000047 .text             CLaunchUrlView.obj(??_ECLaunchUrlView@@UAE@I@Z)
004b6560 000000da .text             CTabbedView.obj(??0CTabbedView@@QAE@PAVCViewHandler@@ABVSRect@@@Z)
004b6640 000000b1 .text             CTabbedView.obj(??1CTabbedView@@UAE@XZ)
004b6700 00000126 .text             CTabbedView.obj(?InsertTab@CTabbedView@@QAEXGPBXK@Z)
004b6830 00000030 .text             CTabbedView.obj(?AddTab@CTabbedView@@QAEXPBE@Z)
004b6860 0000002d .text             CTabbedView.obj(?IsValidTab@CTabbedView@@QBE_NG@Z)
004b6890 0000002b .text             CTabbedView.obj(?SetFont@CTabbedView@@QAEXPAVTFontDescObj@@@Z)
004b68c0 00000138 .text             CTabbedView.obj(?SetTabView@CTabbedView@@QAEXGPAVCView@@@Z)
004b6a00 0000007b .text             CTabbedView.obj(?GetTabView@CTabbedView@@QBEPAVCView@@G@Z)
004b6a80 000000e3 .text             CTabbedView.obj(?SetCurrentTab@CTabbedView@@QAEXG@Z)
004b6b70 00000057 .text             CTabbedView.obj(?GetContentRect@CTabbedView@@QBEXAAVSRect@@@Z)
004b6bd0 00000041 .text             CTabbedView.obj(?RefreshContent@CTabbedView@@IAEXXZ)
004b6c20 000000b6 .text             CTabbedView.obj(?RefreshTabs@CTabbedView@@IAEXGG@Z)
004b6ce0 0000004f .text             CTabbedView.obj(?RefreshTab@CTabbedView@@IAEXG@Z)
004b6d30 0000004a .text             CTabbedView.obj(?GetTabWidth@CTabbedView@@MBEGPBXK@Z)
004b6d80 000000a9 .text             CTabbedView.obj(?GetTabLeft@CTabbedView@@MBEJG@Z)
004b6e30 00000070 .text             CTabbedView.obj(?GetTabRight@CTabbedView@@MBEJG@Z)
004b6ea0 00000097 .text             CTabbedView.obj(?GetTabRect@CTabbedView@@MBEXGAAVSRect@@@Z)
004b6f40 00000169 .text             CTabbedView.obj(?PointToTab@CTabbedView@@MBEGABVSPoint@@PAVSRect@@@Z)
004b70b0 00000d63 .text             CTabbedView.obj(?Draw@CTabbedView@@UAEXPAVTImageObj@@ABVSRect@@K@Z)
004b7e20 00000472 .text             CTabbedView.obj(?DrawTab@CTabbedView@@MAEXPAVTImageObj@@ABVSRect@@PBXKABVSColor@@3333@Z)
004b82a0 0000008a .text             CTabbedView.obj(?DrawEnabledTab@CTabbedView@@MAEXPAVTImageObj@@ABVSRect@@PBXK_N@Z)
004b8330 0000008a .text             CTabbedView.obj(?DrawDisabledTab@CTabbedView@@MAEXPAVTImageObj@@ABVSRect@@PBXK_N@Z)
004b83c0 00000264 .text             CTabbedView.obj(?MouseDown@CTabbedView@@UAEXABUSMouseMsgData@@@Z)
004b8630 00000255 .text             CTabbedView.obj(?MouseUp@CTabbedView@@UAEXABUSMouseMsgData@@@Z)
004b8890 0000002b .text             CTabbedView.obj(?MouseEnter@CTabbedView@@UAEXABUSMouseMsgData@@@Z)
004b88c0 000000f2 .text             CTabbedView.obj(?MouseLeave@CTabbedView@@UAEXABUSMouseMsgData@@@Z)
004b89c0 000002b6 .text             CTabbedView.obj(?MouseMove@CTabbedView@@UAEXABUSMouseMsgData@@@Z)
004b8c80 0000005c .text             CTabbedView.obj(?KeyDown@CTabbedView@@UAE_NABUSKeyMsgData@@@Z)
004b8ce0 00000050 .text             CTabbedView.obj(?KeyUp@CTabbedView@@UAEXABUSKeyMsgData@@@Z)
004b8d30 0000005c .text             CTabbedView.obj(?KeyRepeat@CTabbedView@@UAE_NABUSKeyMsgData@@@Z)
004b8d90 00000085 .text             CTabbedView.obj(?UpdateActive@CTabbedView@@IAEXXZ)
004b8e20 00000081 .text             CTabbedView.obj(?ChangeState@CTabbedView@@UAE_NG@Z)
004b8eb0 000000b8 .text             CTabbedView.obj(?TabFocusPrev@CTabbedView@@UAE_NXZ)
004b8f70 000000b8 .text             CTabbedView.obj(?TabFocusNext@CTabbedView@@UAE_NXZ)
004b9030 00000061 .text             CTabbedView.obj(?SetEnable@CTabbedView@@UAE_N_N@Z)
004b90a0 000001b4 .text             CTabbedView.obj(?SetBounds@CTabbedView@@UAE_NABVSRect@@@Z)
004b9260 0000004b .text             CTabbedView.obj(?MouseCaptureReleased@CTabbedView@@UAEXXZ)
004b92b0 0000002b .text             CTabbedView.obj(?DragEnter@CTabbedView@@UAEXABUSDragMsgData@@@Z)
004b92e0 000001c5 .text             CTabbedView.obj(?DragMove@CTabbedView@@UAEXABUSDragMsgData@@@Z)
004b94b0 000000c8 .text             CTabbedView.obj(?DragLeave@CTabbedView@@UAEXABUSDragMsgData@@@Z)
004b9580 000000c9 .text             CTabbedView.obj(?Drop@CTabbedView@@UAE_NABUSDragMsgData@@@Z)
004b9650 0000007b .text             CTabbedView.obj(?UpdateQuickTime@CTabbedView@@UAEXXZ)
004b96d0 00000080 .text             CTabbedView.obj(?SendToQuickTime@CTabbedView@@UAEXABUEventRecord@@@Z)
004b9750 000000cd .text             CTabbedView.obj(?HandleRemove@CTabbedView@@MAEXPAVCView@@@Z)
004b9820 00000099 .text             CTabbedView.obj(?HandleRefresh@CTabbedView@@MAEXPAVCView@@ABVSRect@@@Z)
004b98c0 00000038 .text             CTabbedView.obj(?HandleHit@CTabbedView@@MAEXPAVCView@@ABUSHitMsgData@@@Z)
004b9900 00000049 .text             CTabbedView.obj(?HandleGetScreenDelta@CTabbedView@@MAEXPAVCView@@AAJ1@Z)
004b9950 00000074 .text             CTabbedView.obj(?HandleGetVisibleRect@CTabbedView@@MAEXPAVCView@@AAVSRect@@@Z)
004b99d0 000000aa .text             CTabbedView.obj(?HandleCaptureMouse@CTabbedView@@MAEXPAVCView@@@Z)
004b9a80 00000042 .text             CTabbedView.obj(?HandleReleaseMouse@CTabbedView@@MAEXPAVCView@@@Z)
004b9ad0 0000004c .text             CTabbedView.obj(?HandleGetOrigin@CTabbedView@@MAEXAAVSPoint@@@Z)
004b9b20 00000019 .text             CTabbedView.obj(?HandleGetCaptureMouseView@CTabbedView@@MAEPAVCView@@XZ)
004b9b40 0000001d .text             CTabbedView.obj(?HandleGetParentWindow@CTabbedView@@MAEPAVCWindow@@XZ)
004b9b60 00000047 .text             CTabbedView.obj(??_ECTabbedView@@UAE@I@Z)
004b9bb0 00000008 .text             CTabbedView.obj(@44@?HandleGetParentWindow@CTabbedView@@MAEPAVCWindow@@XZ)
004b9bc0 00000008 .text             CTabbedView.obj(@44@?HandleGetCaptureMouseView@CTabbedView@@MAEPAVCView@@XZ)
004b9bd0 00000008 .text             CTabbedView.obj(@44@?HandleGetOrigin@CTabbedView@@MAEXAAVSPoint@@@Z)
004b9be0 00000008 .text             CTabbedView.obj(@44@?HandleReleaseMouse@CTabbedView@@MAEXPAVCView@@@Z)
004b9bf0 00000008 .text             CTabbedView.obj(@44@?HandleCaptureMouse@CTabbedView@@MAEXPAVCView@@@Z)
004b9c00 00000008 .text             CTabbedView.obj(@44@?HandleGetVisibleRect@CTabbedView@@MAEXPAVCView@@AAVSRect@@@Z)
004b9c10 00000008 .text             CTabbedView.obj(@44@?HandleGetScreenDelta@CTabbedView@@MAEXPAVCView@@AAJ1@Z)
004b9c20 00000008 .text             CTabbedView.obj(@44@?HandleHit@CTabbedView@@MAEXPAVCView@@ABUSHitMsgData@@@Z)
004b9c30 00000008 .text             CTabbedView.obj(@44@?HandleRefresh@CTabbedView@@MAEXPAVCView@@ABVSRect@@@Z)
004b9c40 00000008 .text             CTabbedView.obj(@44@?HandleRemove@CTabbedView@@MAEXPAVCView@@@Z)
004b9c50 00000008 .text             CTabbedView.obj(@44@??_ECTabbedView@@UAE@I@Z)
004b9c60 00000117 .text             CButtonView.obj(??0CButtonView@@QAE@PAVCViewHandler@@ABVSRect@@@Z)
004b9d80 0000013e .text             CButtonView.obj(??0CButtonView@@QAE@PAVCViewHandler@@ABVSRect@@KPBEKPAVTFontDescObj@@@Z)
004b9ec0 0000004e .text             CButtonView.obj(??1CButtonView@@UAE@XZ)
004b9f10 00000065 .text             CButtonView.obj(?SetTitle@CButtonView@@UAEXPBXK@Z)
004b9f80 00000046 .text             CButtonView.obj(?SetFont@CButtonView@@UAEXPAVTFontDescObj@@@Z)
004b9fd0 00000062 .text             CButtonView.obj(?SetDefault@CButtonView@@UAEX_N@Z)
004ba040 0000007c .text             CButtonView.obj(?Flash@CButtonView@@UAEXXZ)
004ba0c0 0000015f .text             CButtonView.obj(?Draw@CButtonView@@UAEXPAVTImageObj@@ABVSRect@@K@Z)
004ba220 00000086 .text             CButtonView.obj(?MouseDown@CButtonView@@UAEXABUSMouseMsgData@@@Z)
004ba2b0 0000009d .text             CButtonView.obj(?MouseUp@CButtonView@@UAEXABUSMouseMsgData@@@Z)
004ba350 000000c6 .text             CButtonView.obj(?MouseEnter@CButtonView@@UAEXABUSMouseMsgData@@@Z)
004ba420 0000005a .text             CButtonView.obj(?MouseLeave@CButtonView@@UAEXABUSMouseMsgData@@@Z)
004ba480 000000de .text             CButtonView.obj(?KeyDown@CButtonView@@UAE_NABUSKeyMsgData@@@Z)
004ba560 00000181 .text             CButtonView.obj(?UpdateActive@CButtonView@@IAEXXZ)
004ba6f0 00000046 .text             CButtonView.obj(?ChangeState@CButtonView@@UAE_NG@Z)
004ba740 00000061 .text             CButtonView.obj(?SetEnable@CButtonView@@UAE_N_N@Z)
004ba7b0 0000009e .text             CButtonView.obj(?Timer@CButtonView@@UAEXPAVTTimerObj@@@Z)
004ba850 000001e0 .text             CButtonView.obj(?BuildButton@CButtonView@@SA_NPAVCContainerView@@ABVSRect@@PAUSButtons@@@Z)
004baa30 00000282 .text             CButtonView.obj(?BuildButtons@CButtonView@@SA_NPAVCContainerView@@ABVSRect@@PAUSButtons@@@Z)
004bacc0 00000056 .text             CBoxView.obj(??0CBoxView@@QAE@PAVCViewHandler@@ABVSRect@@@Z)
004bad20 00000077 .text             CBoxView.obj(??0CBoxView@@QAE@PAVCViewHandler@@ABVSRect@@GPBEPAVTFontDescObj@@@Z)
004bada0 00000040 .text             CBoxView.obj(??1CBoxView@@UAE@XZ)
004bade0 00000065 .text             CBoxView.obj(?SetTitle@CBoxView@@UAEXPBXK@Z)
004bae50 00000046 .text             CBoxView.obj(?SetFont@CBoxView@@UAEXPAVTFontDescObj@@@Z)
004baea0 00000048 .text             CBoxView.obj(?SetStyle@CBoxView@@UAEXG@Z)
004baef0 00000015 .text             CBoxView.obj(?SetPattern@CBoxView@@UAEXF@Z)
004baf10 000000ff .text             CBoxView.obj(?Draw@CBoxView@@UAEXPAVTImageObj@@ABVSRect@@K@Z)
004bb010 00000047 .text             CBoxView.obj(??_ECBoxView@@UAE@I@Z)
004bb060 00000096 .text             CColorView.obj(??0CColorView@@QAE@PAVCViewHandler@@ABVSRect@@@Z)
004bb100 000000ae .text             CColorView.obj(?SetColor@CColorView@@UAEXABVSColor@@@Z)
004bb1b0 0000014c .text             CColorView.obj(?Draw@CColorView@@UAEXPAVTImageObj@@ABVSRect@@K@Z)
004bb300 00000076 .text             CColorView.obj(?MouseDown@CColorView@@UAEXABUSMouseMsgData@@@Z)
004bb380 000000a7 .text             CColorView.obj(?MouseUp@CColorView@@UAEXABUSMouseMsgData@@@Z)
004bb430 000000c5 .text             CColorView.obj(?MouseEnter@CColorView@@UAEXABUSMouseMsgData@@@Z)
004bb500 00000059 .text             CColorView.obj(?MouseLeave@CColorView@@UAEXABUSMouseMsgData@@@Z)
004bb560 000000a5 .text             CColorView.obj(?KeyDown@CColorView@@UAE_NABUSKeyMsgData@@@Z)
004bb610 000000e3 .text             CColorView.obj(?UpdateActive@CColorView@@IAEXXZ)
004bb700 00000046 .text             CColorView.obj(?ChangeState@CColorView@@UAE_NG@Z)
004bb750 00000082 .text             CColorView.obj(?SetEnable@CColorView@@UAE_N_N@Z)
004bb7e0 0000004d .text             CColorView.obj(??_ECColorView@@UAE@I@Z)
004bb830 0000001b .text             CColorView.obj(??1CColorView@@UAE@XZ)
004bb850 00000039 .text             CIconView.obj(??0CIconView@@QAE@PAVCViewHandler@@ABVSRect@@@Z)
004bb890 00000033 .text             CIconView.obj(?SetIconID@CIconView@@QAEXJ@Z)
004bb8d0 0000005b .text             CIconView.obj(?SetIcon@CIconView@@UAEXPAVTIconObj@@@Z)
004bb930 00000032 .text             CIconView.obj(?Draw@CIconView@@UAEXPAVTImageObj@@ABVSRect@@K@Z)
004bb970 0000004d .text             CIconView.obj(??_ECIconView@@UAE@I@Z)
004bb9c0 0000001b .text             CIconView.obj(??1CIconView@@UAE@XZ)
004bb9e0 00000102 .text             CPasswordTextView.obj(??0CPasswordTextView@@QAE@PAVCViewHandler@@ABVSRect@@@Z)
004bbaf0 0000004c .text             CPasswordTextView.obj(??1CPasswordTextView@@UAE@XZ)
004bbb40 000000a3 .text             CPasswordTextView.obj(?SetText@CPasswordTextView@@QAEXPBXK@Z)
004bbbf0 00000025 .text             CPasswordTextView.obj(?IsEmpty@CPasswordTextView@@QBE_NXZ)
004bbc20 00000108 .text             CPasswordTextView.obj(?SetDummyPassword@CPasswordTextView@@QAEXXZ)
004bbd30 0000002e .text             CPasswordTextView.obj(?Draw@CPasswordTextView@@UAEXPAVTImageObj@@ABVSRect@@K@Z)
004bbd60 00000039 .text             CPasswordTextView.obj(?MouseDown@CPasswordTextView@@UAEXABUSMouseMsgData@@@Z)
004bbda0 00000039 .text             CPasswordTextView.obj(?MouseUp@CPasswordTextView@@UAEXABUSMouseMsgData@@@Z)
004bbde0 00000039 .text             CPasswordTextView.obj(?MouseEnter@CPasswordTextView@@UAEXABUSMouseMsgData@@@Z)
004bbe20 00000039 .text             CPasswordTextView.obj(?MouseLeave@CPasswordTextView@@UAEXABUSMouseMsgData@@@Z)
004bbe60 00000039 .text             CPasswordTextView.obj(?MouseMove@CPasswordTextView@@UAEXABUSMouseMsgData@@@Z)
004bbea0 000002ae .text             CPasswordTextView.obj(?KeyDown@CPasswordTextView@@UAE_NABUSKeyMsgData@@@Z)
004bc150 00000015 .text             CPasswordTextView.obj(?KeyUp@CPasswordTextView@@UAEXABUSKeyMsgData@@@Z)
004bc170 00000055 .text             CPasswordTextView.obj(?KeyRepeat@CPasswordTextView@@UAE_NABUSKeyMsgData@@@Z)
004bc1d0 0000003c .text             CPasswordTextView.obj(?SetBounds@CPasswordTextView@@UAE_NABVSRect@@@Z)
004bc210 00000091 .text             CPasswordTextView.obj(?UpdateActive@CPasswordTextView@@IAEXXZ)
004bc2b0 0000006a .text             CPasswordTextView.obj(?ChangeState@CPasswordTextView@@UAE_NG@Z)
004bc320 0000005b .text             CPasswordTextView.obj(?TabFocusNext@CPasswordTextView@@UAE_NXZ)
004bc380 0000005b .text             CPasswordTextView.obj(?TabFocusPrev@CPasswordTextView@@UAE_NXZ)
004bc3e0 00000061 .text             CPasswordTextView.obj(?SetEnable@CPasswordTextView@@UAE_N_N@Z)
004bc450 00000033 .text             CPasswordTextView.obj(?TextDrawHandler@CPasswordTextView@@KAXPAUSEditText@@ABVSRect@@@Z)
004bc490 00000021 .text             CPasswordTextView.obj(?Timer@CPasswordTextView@@UAEXPAVTTimerObj@@@Z)
004bc4c0 0000010f .text             CPasswordTextView.obj(?MakePasswordBoxView@@YAPAVCScrollerView@@PAVCViewHandler@@ABVSRect@@GPAPAVCPasswordTextView@@@Z)
004bc5d0 00000047 .text             CPasswordTextView.obj(??_ECPasswordTextView@@UAE@I@Z)
004bc620 00000106 .text             CIconButtonView.obj(??0CIconButtonView@@QAE@PAVCViewHandler@@ABVSRect@@@Z)
004bc730 00000183 .text             CIconButtonView.obj(??0CIconButtonView@@QAE@PAVCViewHandler@@ABVSRect@@KPBEJKPAVTFontDescObj@@@Z)
004bc8c0 0000005a .text             CIconButtonView.obj(??1CIconButtonView@@UAE@XZ)
004bc920 00000065 .text             CIconButtonView.obj(?SetTitle@CIconButtonView@@UAEXPBXK@Z)
004bc990 00000046 .text             CIconButtonView.obj(?SetFont@CIconButtonView@@UAEXPAVTFontDescObj@@@Z)
004bc9e0 00000048 .text             CIconButtonView.obj(?SetOptions@CIconButtonView@@UAEXG@Z)
004bca30 0000007b .text             CIconButtonView.obj(?Flash@CIconButtonView@@UAEXXZ)
004bcab0 0000015b .text             CIconButtonView.obj(?Draw@CIconButtonView@@UAEXPAVTImageObj@@ABVSRect@@K@Z)
004bcc10 00000076 .text             CIconButtonView.obj(?MouseDown@CIconButtonView@@UAEXABUSMouseMsgData@@@Z)
004bcc90 00000086 .text             CIconButtonView.obj(?MouseUp@CIconButtonView@@UAEXABUSMouseMsgData@@@Z)
004bcd20 000000c5 .text             CIconButtonView.obj(?MouseEnter@CIconButtonView@@UAEXABUSMouseMsgData@@@Z)
004bcdf0 00000059 .text             CIconButtonView.obj(?MouseLeave@CIconButtonView@@UAEXABUSMouseMsgData@@@Z)
004bce50 000000de .text             CIconButtonView.obj(?KeyDown@CIconButtonView@@UAE_NABUSKeyMsgData@@@Z)
004bcf30 00000178 .text             CIconButtonView.obj(?UpdateActive@CIconButtonView@@IAEXXZ)
004bd0b0 00000046 .text             CIconButtonView.obj(?ChangeState@CIconButtonView@@UAE_NG@Z)
004bd100 00000061 .text             CIconButtonView.obj(?SetEnable@CIconButtonView@@UAE_N_N@Z)
004bd170 0000009e .text             CIconButtonView.obj(?Timer@CIconButtonView@@UAEXPAVTTimerObj@@@Z)
004bd210 00000047 .text             CIconButtonView.obj(??_ECIconButtonView@@UAE@I@Z)
004bd260 00000005 .text             URegion(W).obj(?Init@URegion@@SAXXZ)
004bd270 0000003d .text             URegion(W).obj(?New@URegion@@SAPAVTRegionObj@@XZ)
004bd2b0 0000006e .text             URegion(W).obj(?New@URegion@@SAPAVTRegionObj@@PAV2@@Z)
004bd320 00000014 .text             URegion(W).obj(?Dispose@URegion@@SAXPAVTRegionObj@@@Z)
004bd340 00000011 .text             URegion(W).obj(?GetBounds@URegion@@SAXPAVTRegionObj@@AAVSRect@@@Z)
004bd360 00000042 .text             URegion(W).obj(?SetBounds@URegion@@SAXPAVTRegionObj@@ABVSRect@@@Z)
004bd3b0 00000014 .text             URegion(W).obj(?Move@URegion@@SAXPAVTRegionObj@@JJ@Z)
004bd3d0 00000031 .text             URegion(W).obj(?Add@URegion@@SAXPAVTRegionObj@@0@Z)
004bd410 00000076 .text             URegion(W).obj(?AddRect@URegion@@SAXPAVTRegionObj@@ABVSRect@@@Z)
004bd490 00000075 .text             URegion(W).obj(?SetRect@URegion@@SAXPAVTRegionObj@@ABVSRect@@@Z)
004bd510 0000001f .text             URegion(W).obj(?IsPointWithin@URegion@@SA_NPAVTRegionObj@@ABVSPoint@@@Z)
004bd530 0000007a .text             URegion(W).obj(?SetEmpty@URegion@@SAXPAVTRegionObj@@@Z)
004bd5b0 00000005 .text             URegion(W).obj(?SetOutline@URegion@@SAXPAVTRegionObj@@FF@Z)
004bd5c0 00000082 .text             CPaneView.obj(??0CPaneView@@QAE@PAVCViewHandler@@ABVSRect@@@Z)
004bd650 0000005e .text             CPaneView.obj(?SetViewLimits@CPaneView@@QAEXPAVCView@@JJ@Z)
004bd6b0 00000308 .text             CPaneView.obj(?SetBounds@CPaneView@@UAE_NABVSRect@@@Z)
004bd9c0 00000492 .text             CPaneView.obj(?SetPanePercent@CPaneView@@QAEXE@Z)
004bde60 0000013d .text             CPaneView.obj(?GetPanePercent@CPaneView@@QAEEXZ)
004bdfa0 00000212 .text             CPaneView.obj(?MouseDown@CPaneView@@UAEXABUSMouseMsgData@@@Z)
004be1c0 0000063f .text             CPaneView.obj(?MouseMove@CPaneView@@UAEXABUSMouseMsgData@@@Z)
004be800 0000004c .text             CPaneView.obj(?MouseUp@CPaneView@@UAEXABUSMouseMsgData@@@Z)
004be850 00000032 .text             CPaneView.obj(?MouseLeave@CPaneView@@UAEXABUSMouseMsgData@@@Z)
004be890 0000021b .text             CPaneView.obj(?RecalcSlider@CPaneView@@IAEXXZ)
004beab0 00000049 .text             CPaneView.obj(?HandleInstall@CPaneView@@MAEXPAVCView@@@Z)
004beb00 00000037 .text             CPaneView.obj(?HandleSetBounds@CPaneView@@MAEXPAVCView@@ABVSRect@@@Z)
004beb40 00000054 .text             CPaneView.obj(??_ECPaneView@@UAE@I@Z)
004beba0 00000022 .text             CPaneView.obj(??1CPaneView@@UAE@XZ)
004bebd0 00000008 .text             CPaneView.obj(@44@?HandleSetBounds@CPaneView@@MAEXPAVCView@@ABVSRect@@@Z)
004bebe0 00000008 .text             CPaneView.obj(@44@?HandleInstall@CPaneView@@MAEXPAVCView@@@Z)
004bebf0 00000008 .text             CPaneView.obj(@44@??_ECPaneView@@UAE@I@Z)
004bec00 000000fd .text             CDecompressJpeg.obj(??0CDecompressJpeg@@QAE@K_N@Z)
004bed00 00000040 .text             CDecompressJpeg.obj(??1CDecompressJpeg@@UAE@XZ)
004bed40 000000ad .text             CDecompressJpeg.obj(?Decompress@CDecompressJpeg@@UAE_NPBXK@Z)
004bedf0 00000507 .text             CDecompressJpeg.obj(?ReadJpegImage@CDecompressJpeg@@IAE_NXZ)
004bf300 00000047 .text             CDecompressJpeg.obj(??_ECDecompressJpeg@@UAE@I@Z)
004bf350 000000ce .text             CDecompressGif.obj(??0CDecompressGif@@QAE@K_N@Z)
004bf420 00000042 .text             CDecompressGif.obj(??1CDecompressGif@@UAE@XZ)
004bf470 000000d6 .text             CDecompressGif.obj(?Decompress@CDecompressGif@@UAE_NPBXK@Z)
004bf550 00000293 .text             CDecompressGif.obj(?GetTransMask@CDecompressGif@@QAEPAVTImageObj@@XZ)
004bf7f0 00000398 .text             CDecompressGif.obj(?ReadGifImage@CDecompressGif@@IAE_NXZ)
004bfb90 000001f5 .text             CDecompressGif.obj(?InitPixmap@CDecompressGif@@IAEXXZ)
004bfd90 0000007a .text             CDecompressGif.obj(?AllocMemory@CDecompressGif@@IAEXXZ)
004bfe10 00000181 .text             CDecompressGif.obj(?PutExtension@CDecompressGif@@IAE_NXZ)
004bffa0 00000b5f .text             CDecompressGif.obj(?UnpackImage@CDecompressGif@@IAE_NE@Z)
004c0b00 00000177 .text             CDecompressGif.obj(?PutLine@CDecompressGif@@IAEXPAEG@Z)
004c0c80 00000047 .text             CDecompressGif.obj(??_ECDecompressGif@@UAE@I@Z)
004c0cd0 000000a0 .text             CDecompressPict.obj(??0CDecompressPict@@QAE@K_N@Z)
004c0d70 0000004e .text             CDecompressPict.obj(??1CDecompressPict@@UAE@XZ)
004c0dc0 00000087 .text             CDecompressPict.obj(?Decompress@CDecompressPict@@UAE_NPBXK@Z)
004c0e50 000004f9 .text             CDecompressPict.obj(?ReadPictImage@CDecompressPict@@IAE_NXZ)
004c1350 0000004a .text             CDecompressPict.obj(?Clip@CDecompressPict@@IAE_NXZ)
004c13a0 0000010a .text             CDecompressPict.obj(?PixPat@CDecompressPict@@IAE_NXZ)
004c14b0 000000e0 .text             CDecompressPict.obj(?SkipBits@CDecompressPict@@IAE_NUSMacRect@@GG@Z)
004c1590 0000003c .text             CDecompressPict.obj(?SkipPolyOrRegion@CDecompressPict@@IAE_NXZ)
004c15d0 0000007d .text             CDecompressPict.obj(?BitsRect@CDecompressPict@@IAE_NXZ)
004c1650 0000007d .text             CDecompressPict.obj(?BitsRegion@CDecompressPict@@IAE_NXZ)
004c16d0 00000130 .text             CDecompressPict.obj(?DoBitmap@CDecompressPict@@IAE_N_N@Z)
004c1800 0000013a .text             CDecompressPict.obj(?DoPixmap@CDecompressPict@@IAE_N_N@Z)
004c1940 0000003b .text             CDecompressPict.obj(?OpCode9A@CDecompressPict@@IAE_NXZ)
004c1980 000000f4 .text             CDecompressPict.obj(?DoOpCode9A@CDecompressPict@@IAE_NXZ)
004c1a80 0000003b .text             CDecompressPict.obj(?OpCode9B@CDecompressPict@@IAE_NXZ)
004c1ac0 000000f7 .text             CDecompressPict.obj(?DoOpCode9B@CDecompressPict@@IAE_NXZ)
004c1bc0 00000052 .text             CDecompressPict.obj(?LongComment@CDecompressPict@@IAE_NXZ)
004c1c20 000000ee .text             CDecompressPict.obj(?InitJpeg@CDecompressPict@@IAE_NAA_N@Z)
004c1d10 000000cb .text             CDecompressPict.obj(?SearchJpeg@CDecompressPict@@IAE_NAA_N@Z)
004c1de0 00000303 .text             CDecompressPict.obj(?ReadJpeg@CDecompressPict@@IAE_NXZ)
004c20f0 00000032 .text             CDecompressPict.obj(?CalcDestBPP@CDecompressPict@@IAEXG@Z)
004c2130 0000009b .text             CDecompressPict.obj(?InitPixmap@CDecompressPict@@IAEXUSMacPixMap@@@Z)
004c21d0 000000a0 .text             CDecompressPict.obj(?InitPixmap@CDecompressPict@@IAEXGG_N@Z)
004c2270 0000039f .text             CDecompressPict.obj(?Unpack32Bits@CDecompressPict@@IAE_NGH@Z)
004c2610 0000072e .text             CDecompressPict.obj(?Unpack8Bits@CDecompressPict@@IAE_NG@Z)
004c2d40 000009d3 .text             CDecompressPict.obj(?UnpackBits@CDecompressPict@@IAE_NGH@Z)
004c3720 000000c6 .text             CDecompressPict.obj(?ExpandBuf@CDecompressPict@@IAEXPAE0GG@Z)
004c37f0 0000027c .text             CDecompressPict.obj(?ExpandBuf8@CDecompressPict@@IAEXPAE0GG@Z)
004c3a70 00000182 .text             CDecompressPict.obj(?Expand1Bpp@CDecompressPict@@IAEXPAE0G@Z)
004c3c00 00000110 .text             CDecompressPict.obj(?Expand2Bpp@CDecompressPict@@IAEXPAE0G@Z)
004c3d10 000000a7 .text             CDecompressPict.obj(?Expand4Bpp@CDecompressPict@@IAEXPAE0G@Z)
004c3dc0 0000004f .text             CDecompressPict.obj(?Expand8Bpp@CDecompressPict@@IAEXPAE0G@Z)
004c3e10 0000009c .text             CDecompressPict.obj(?Expand16Bpp@CDecompressPict@@IAEXPAE0G@Z)
004c3eb0 0000009b .text             CDecompressPict.obj(?ReadVersion@CDecompressPict@@IAE_NXZ)
004c3f50 00000078 .text             CDecompressPict.obj(?ReadOpCode@CDecompressPict@@IAE_NAAG@Z)
004c3fd0 0000003d .text             CDecompressPict.obj(?ReadByte@CDecompressPict@@IAE_NAAE@Z)
004c4010 0000005f .text             CDecompressPict.obj(?ReadWord@CDecompressPict@@IAE_NAAG@Z)
004c4070 00000074 .text             CDecompressPict.obj(?ReadDWord@CDecompressPict@@IAE_NAAK@Z)
004c40f0 000000e9 .text             CDecompressPict.obj(?ReadMacRect@CDecompressPict@@IAE_NAAUSMacRect@@@Z)
004c41e0 000000ed .text             CDecompressPict.obj(?ReadPixmap@CDecompressPict@@IAE_NAAUSMacPixMap@@@Z)
004c42d0 00000219 .text             CDecompressPict.obj(?ReadColourTable@CDecompressPict@@IAEPAKAAG@Z)
004c44f0 00000047 .text             CDecompressPict.obj(??_ECDecompressPict@@UAE@I@Z)
004c4540 00000044 .text             CDecompressBitmap.obj(??0CDecompressBitmap@@QAE@K_N@Z)
004c4590 0000003c .text             CDecompressBitmap.obj(??1CDecompressBitmap@@UAE@XZ)
004c45d0 000000a6 .text             CDecompressBitmap.obj(?Decompress@CDecompressBitmap@@UAE_NPBXK@Z)
004c4680 00000562 .text             CDecompressBitmap.obj(?ReadBitmapImage@CDecompressBitmap@@IAE_NXZ)
004c4bf0 00000047 .text             CDecompressBitmap.obj(??_ECDecompressBitmap@@UAE@I@Z)
004c4c40 00000098 .text             CDecompressImage.obj(??0CDecompressImage@@QAE@K_N0@Z)
004c4ce0 0000003c .text             CDecompressImage.obj(??1CDecompressImage@@UAE@XZ)
004c4d20 00000045 .text             CDecompressImage.obj(?GetSize@CDecompressImage@@QAE_NAAK0@Z)
004c4d70 00000019 .text             CDecompressImage.obj(?IsComplete@CDecompressImage@@QAE_NXZ)
004c4d90 000000ab .text             CDecompressImage.obj(?Draw@CDecompressImage@@UAEXPAVTImageObj@@ABVSPoint@@1KKK@Z)
004c4e40 00000021 .text             CDecompressImage.obj(?GetImagePtr@CDecompressImage@@QAEPAVTImageObj@@XZ)
004c4e70 00000035 .text             CDecompressImage.obj(?DetachImagePtr@CDecompressImage@@QAEPAVTImageObj@@XZ)
004c4eb0 000000d7 .text             CDecompressImage.obj(?InitCompatibleImage@CDecompressImage@@IAEXXZ)
004c4f90 00000230 .text             CDecompressImage.obj(?UpdateImage@CDecompressImage@@IAEXXZ)
004c51c0 00000061 .text             CDecompressImage.obj(?ClearPixmap@CDecompressImage@@IAEXXZ)
004c5230 000000b1 .text             CDecompressImage.obj(?ReadImage@CDecompressImage@@IAEKPAXK_N@Z)
004c52f0 00000074 .text             HL_Handler.obj(?HL_HandlerRegister@@YA_NXZ)
004c5370 00000033 .text             HL_Handler.obj(?HL_HandlerUnregister@@YAXXZ)
004c53b0 0000004c .text             HL_Handler.obj(?HL_HandlerOpen@@YAPAUComponentInstanceRecord@@PAPAD@Z)
004c5400 00000016 .text             HL_Handler.obj(?HL_HandlerIsReading@@YA_NPAE@Z)
004c5420 00000014 .text             HL_Handler.obj(?HL_HandlerCancelReading@@YAXPAE@Z)
004c5440 00000023 .text             HL_Handler.obj(?HL_HandlerClose@@YAXPAUComponentInstanceRecord@@@Z)
004c5470 00000014 .text             HL_Handler.obj(?HL_HandlerStop@@YAXPAUComponentInstanceRecord@@@Z)
004c5490 0000000e .text             HL_Handler.obj(?HL_SetProgressProc@@YAXP6AXPAEKK@Z@Z)
004c54a0 00000020 .text             HL_Handler.obj(?HL_Progress@@YAXPAEKK@Z)
004c54c0 0000000e .text             HL_Handler.obj(?HL_SetEventProc@@YAXP6AXXZ@Z)
004c54d0 00000014 .text             HL_Handler.obj(?HL_Event@@YAXXZ)
004c54f0 0000002d .text             CLinkedList.obj(?AddFirst@CLinkedList@@QAEXPAVCLink@@@Z)
004c5520 0000005a .text             CLinkedList.obj(?AddLast@CLinkedList@@QAEXPAVCLink@@@Z)
004c5580 0000003b .text             CLinkedList.obj(?RemoveFirst@CLinkedList@@QAEPAVCLink@@XZ)
004c55c0 00000077 .text             CLinkedList.obj(?RemoveLink@CLinkedList@@QAE_NPAVCLink@@@Z)
004c5640 000000b0 .text             CSimpleIconButtonView.obj(??0CSimpleIconButtonView@@QAE@PAVCViewHandler@@ABVSRect@@@Z)
004c56f0 0000006f .text             CSimpleIconButtonView.obj(?SetIcons@CSimpleIconButtonView@@UAEXPAVTIconObj@@00@Z)
004c5760 00000047 .text             CSimpleIconButtonView.obj(?SetIconIDs@CSimpleIconButtonView@@QAEXJJJ@Z)
004c57b0 000000e9 .text             CSimpleIconButtonView.obj(?Draw@CSimpleIconButtonView@@UAEXPAVTImageObj@@ABVSRect@@K@Z)
004c58a0 00000076 .text             CSimpleIconButtonView.obj(?MouseDown@CSimpleIconButtonView@@UAEXABUSMouseMsgData@@@Z)
004c5920 0000009c .text             CSimpleIconButtonView.obj(?MouseUp@CSimpleIconButtonView@@UAEXABUSMouseMsgData@@@Z)
004c59c0 000000c5 .text             CSimpleIconButtonView.obj(?MouseEnter@CSimpleIconButtonView@@UAEXABUSMouseMsgData@@@Z)
004c5a90 00000059 .text             CSimpleIconButtonView.obj(?MouseLeave@CSimpleIconButtonView@@UAEXABUSMouseMsgData@@@Z)
004c5af0 000000b1 .text             CSimpleIconButtonView.obj(?KeyDown@CSimpleIconButtonView@@UAE_NABUSKeyMsgData@@@Z)
004c5bb0 0000013e .text             CSimpleIconButtonView.obj(?UpdateActive@CSimpleIconButtonView@@IAEXXZ)
004c5cf0 00000046 .text             CSimpleIconButtonView.obj(?ChangeState@CSimpleIconButtonView@@UAE_NG@Z)
004c5d40 00000061 .text             CSimpleIconButtonView.obj(?SetEnable@CSimpleIconButtonView@@UAE_N_N@Z)
004c5db0 0000004d .text             CSimpleIconButtonView.obj(??_ECSimpleIconButtonView@@UAE@I@Z)
004c5e00 0000001b .text             CSimpleIconButtonView.obj(??1CSimpleIconButtonView@@UAE@XZ)
004c5e20 000000e2 .text             MsgBox.obj(?MsgBox@@YAGJZZ)
004c5f10 000000bd .text             MsgBox.obj(?MsgBox@@YAGABUSMsgBox@@@Z)
004c5fd0 00000070 .text             MsgBox.obj(?MakeMsgBox@@YAPAVCWindow@@ABUSMsgBox@@@Z)
004c6040 00000063 .text             MsgBox.obj(?MakeMsgBox@@YAPAVCWindow@@PBE0FF_N@Z)
004c60b0 00000063 .text             MsgBox.obj(?MakeMsgBox@@YAPAVCWindow@@PBEPBXGKFF_N@Z)
004c6120 00000063 .text             MsgBox.obj(?TrackMsgBoxWin@@YAGPAVCWindow@@@Z)
004c6190 000004c7 .text             MsgBox.obj(?MakeMsgBoxWin@@YAPAVCWindow@@JPAJPAX@Z)
004c6660 000007f1 .text             MsgBox.obj(?MakeMsgBoxWin@@YAPAVCWindow@@ABUSMsgBox@@@Z)
004c6e60 00000061 .text             MsgBox.obj(?DisplayMessage@@YAXPBE0FF_N@Z)
004c6ed0 00000061 .text             MsgBox.obj(?DisplayMessage@@YAXPBEPBXGKFF_N@Z)
004c6f40 00000005 .text             USound(W).obj(?Init@USound@@SAXXZ)
004c6f50 0000000d .text             USound(W).obj(?Beep@USound@@SAXXZ)
004c6f60 000001e0 .text             USound(W).obj(?NewOutput@USound@@SAPAVTSoundOutputObj@@KKKKKP6AXPAX0KPBXK@Z0K@Z)
004c7140 000000ab .text             USound(W).obj(?DisposeOutput@USound@@SAXPAVTSoundOutputObj@@@Z)
004c71f0 000000d9 .text             USound(W).obj(?EnqueueOutput@USound@@SAXPAVTSoundOutputObj@@PBXK@Z)
004c72d0 00000027 .text             USound(W).obj(?GetOutputScratch@USound@@SAPAEPAVTSoundOutputObj@@@Z)
004c7300 0000003f .text             USound(W).obj(?_SNLookupWaveOut@@YAPAUSSoundOutput@@PAUHWAVEOUT__@@@Z)
004c7340 000000be .text             USound(W).obj(?_SNWaveOutProc@@YGJPAUHWND__@@IIJ@Z)
004c7400 00000026 .text             UGUID(W).obj(?Generate@UGUID@@SAXAAUSGUID@@@Z)
004c7430 00000017 .text             UGUID(W).obj(?IsEqual@UGUID@@SA_NABUSGUID@@0@Z)
004c7450 0000008b .text             UGUID(W).obj(?Flatten@UGUID@@SAKABUSGUID@@PAX@Z)
004c74e0 00000086 .text             UGUID(W).obj(?Unflatten@UGUID@@SAXAAUSGUID@@PBX@Z)
004c7570 00000120 .text             UOperatingSystem(W).obj(?Init@UOperatingSystem@@SAXXZ)
004c7690 00000014 .text             UOperatingSystem(W).obj(?_UninitQuickTime@@YAXXZ)
004c76b0 000000e7 .text             UOperatingSystem(W).obj(?InitQuickTime@UOperatingSystem@@SA_NXZ)
004c77a0 00000205 .text             UOperatingSystem(W).obj(?GetSystemVersion@UOperatingSystem@@SAPAEXZ)
004c79b0 000001b1 .text             UOperatingSystem(W).obj(_WinMain@16)
004c7b70 0000000b .text             UOperatingSystem(W).obj(?_ProgCleanupOLEUninitialize@@YAXXZ)
004c7b80 000000ab .text             UOperatingSystem(W).obj(?_SafeOLEInit@@YAXXZ)
004c7c30 00000005 .text             UError(W).obj(?Init@UError@@SAXXZ)
004c7c40 00000148 .text             UError(W).obj(?GetMessage@UError@@SAKABUSError@@PAXK@Z)
004c7d90 000000be .text             UError(W).obj(?Alert@UError@@SAXABUSError@@@Z)
004c7e50 000000a9 .text             UError(W).obj(?_WinToGenError@@YAXJAAF0@Z)
004c7f00 0000009f .text             UError(W).obj(?_FailLastWinError@@YAXPBDK@Z)
004c7fa0 0000009c .text             UError(W).obj(?_FailWinError@@YAXJPBDK@Z)
004c8040 0000006e .text             UExternalApp(W).obj(?IsRegisteredAssociation@UExternalApp@@SA_NPBE@Z)
004c80b0 00000083 .text             UExternalApp(W).obj(?RegisterAssociation@UExternalApp@@SA_NPBE0@Z)
004c8140 000000ae .text             UExternalApp(W).obj(?ReadSystemRegistry@UExternalApp@@SA_NPBD0PADAAK@Z)
004c81f0 00000187 .text             UExternalApp(W).obj(?_IsCreatedFileExtension@@YA_NPBEPBD@Z)
004c8380 00000258 .text             UExternalApp(W).obj(?_CreateFileExtensionApp@@YA_NPBEPBD0@Z)
004c85e0 000001a8 .text             UExternalApp(W).obj(?_CreateFileDefaultIconApp@@YA_NPBEPBD@Z)
004c8790 000001e9 .text             UMouse(W).obj(?SetImage@UMouse@@SAXJ@Z)
004c8980 0000000a .text             UMouse(W).obj(?GetImage@UMouse@@SAJXZ)
004c8990 0000000e .text             UMouse(W).obj(?GetLocation@UMouse@@SAXAAVSPoint@@@Z)
004c89a0 0000000d .text             UMouse(W).obj(?GetDoubleClickTime@UMouse@@SAKXZ)
004c89b0 000002bd .text             CWizard.obj(??0CWizard@@QAE@XZ)
004c8c70 0000008b .text             CWizard.obj(??1CWizard@@UAE@XZ)
004c8d00 00000071 .text             CWizard.obj(?Process@CWizard@@QAE_NXZ)
004c8d80 0000014a .text             CWizard.obj(?AddPane@CWizard@@QAEXPAVCView@@@Z)
004c8ed0 0000010c .text             CWizard.obj(?GoNext@CWizard@@IAEXXZ)
004c8fe0 0000010c .text             CWizard.obj(?GoBack@CWizard@@IAEXXZ)
004c90f0 0000004d .text             CWizard.obj(?Finish@CWizard@@IAEXXZ)
004c9140 0000012c .text             CWizard.obj(?Reset@CWizard@@IAEXXZ)
004c9270 00000047 .text             CWizard.obj(??_ECWizard@@UAE@I@Z)
004c92c0 00000056 .text             UTooltip.obj(??0_TTCToolTipView@@QAE@PAVCViewHandler@@ABVSRect@@ABVSColor@@@Z)
004c9320 00000034 .text             UTooltip.obj(??1_TTCToolTipView@@UAE@XZ)
004c9360 0000004b .text             UTooltip.obj(?Draw@_TTCToolTipView@@UAEXPAVTImageObj@@ABVSRect@@K@Z)
004c93b0 000000e2 .text             UTooltip.obj(??0_TTCToolTipWin@@QAE@XZ)
004c94a0 00000031 .text             UTooltip.obj(?SetText@_TTCToolTipWin@@QAEXPBE@Z)
004c94e0 00000141 .text             UTooltip.obj(?RecalcDims@_TTCToolTipWin@@QAEXXZ)
004c9630 00000062 .text             UTooltip.obj(?_TTTimerHandler@@YAXPAX0KPBXK@Z)
004c96a0 0000004e .text             UTooltip.obj(?_TTTimerStop@@YAXXZ)
004c96f0 00000055 .text             UTooltip.obj(?Init@UTooltip@@SAXXZ)
004c9750 00000101 .text             UTooltip.obj(?Activate@UTooltip@@SAXPAVCView@@PBE@Z)
004c9860 00000068 .text             UTooltip.obj(?Hide@UTooltip@@SAXXZ)
004c98d0 0000000b .text             UTooltip.obj(?GetState@UTooltip@@SAGXZ)
004c98e0 0000003c .text             UTooltip.obj(?SetEnable@UTooltip@@SAX_N@Z)
004c9920 00000012 .text             UTooltip.obj(?IsEnabled@UTooltip@@SA_NXZ)
004c9940 00000061 .text             UTooltip.obj(??_E_TTCToolTipWin@@UAE@I@Z)
004c99b0 00000027 .text             UTooltip.obj(??1_TTCToolTipWin@@UAE@XZ)
004c99e0 00000058 .text             UTooltip.obj(??_E_TTCToolTipView@@UAE@I@Z)
004c9a40 00000030 .text             stackall.obj(__chkstk)
004c9a70 0000000b .text             stackall.obj(__stack_alloc)
004c9a80 00000118 .text             winmaincrt.obj(_WinMainCRTStartup)
004c9ba0 000000c7 .text             UService(W).obj(?Init@UService@@SAXPAEE@Z)
004c9c70 00000066 .text             UService(W).obj(?IsInstalled@UService@@SA_NXZ)
004c9ce0 0000015a .text             UService(W).obj(?Install@UService@@SA_NE@Z)
004c9e40 000000e5 .text             UService(W).obj(?Uninstall@UService@@SA_NXZ)
004c9f30 00000014 .text             UService(W).obj(?IsService@UService@@SA_NXZ)
004c9f50 00000032 .text             UService(W).obj(?PostMessage@UService@@SAXKPBXKF@Z)
004c9f90 00000069 .text             UService(W).obj(?Start@UService@@SA_NXZ)
004ca000 00000033 .text             UService(W).obj(?Register@UService@@SA_NXZ)
004ca040 00000040 .text             UService(W).obj(?SetStatus@UService@@SAXKKKK@Z)
004ca080 00000016 .text             UService(W).obj(?UpdateStatus@UService@@SAXXZ)
004ca0a0 00000075 .text             UService(W).obj(?_ServiceMain@@YGXKPAPAD@Z)
004ca120 000000de .text             UService(W).obj(?_ServiceMessageHandler@@YGXK@Z)
004ca200 0000000f .text             UMessageSys.obj(?New@UMessageSys@@SAPAVTMessageSysObj@@XZ)
004ca210 00000030 .text             UMessageSys.obj(?SetDefaultProc@UMessageSys@@SAXPAVTMessageSysObj@@P6AXPAX1KPBXK@Z1@Z)
004ca240 00000034 .text             UMessageSys.obj(?GetDefaultProc@UMessageSys@@SAXPAVTMessageSysObj@@AAP6AXPAX1KPBXK@ZAAPAX@Z)
004ca280 000000ff .text             UMessageSys.obj(?Post@UMessageSys@@SAXPAVTMessageSysObj@@KPBXKFP6AXPAX2K1K@Z22@Z)
004ca380 000001d9 .text             UMessageSys.obj(?Replace@UMessageSys@@SAXPAVTMessageSysObj@@KPBXKFP6AXPAX2K1K@Z22@Z)
004ca560 00000108 .text             UMessageSys.obj(?Flush@UMessageSys@@SAXPAVTMessageSysObj@@P6AXPAX1KPBXK@Z11@Z)
004ca670 00000212 .text             UMessageSys.obj(?Execute@UMessageSys@@SA_NPAVTMessageSysObj@@PBK@Z)
004ca890 0000003b .text             UProgramCleanup.obj(??0Cleanup@UProgramCleanup@@IAE@XZ)
004ca8d0 0000008f .text             UProgramCleanup.obj(??1Cleanup@UProgramCleanup@@IAE@XZ)
004ca960 00000049 .text             UProgramCleanup.obj(?InstallSystem@Cleanup@UProgramCleanup@@IAEXP6AXXZ@Z)
004ca9b0 0000004a .text             UProgramCleanup.obj(?InstallAppl@Cleanup@UProgramCleanup@@IAEXP6AXXZ@Z)
004caa00 00000097 .text             UProgramCleanup.obj(?CleanupAppl@Cleanup@UProgramCleanup@@IAEXXZ)
004caaa0 00000012 .text             UProgramCleanup.obj(?InstallSystem@UProgramCleanup@@SAXP6AXXZ@Z)
004caac0 00000012 .text             UProgramCleanup.obj(?InstallAppl@UProgramCleanup@@SAXP6AXXZ@Z)
004caae0 0000000f .text             UProgramCleanup.obj(?CleanupAppl@UProgramCleanup@@SAXXZ)
004caaf0 00000026 .text             UProgramCleanup.obj
004cab20 0000000a .text             NMWException.obj(?dthandler@std@@YAXXZ)
004cab30 0000000a .text             NMWException.obj(?duhandler@std@@YAXXZ)
004cab40 00000024 .text             NMWException.obj(?set_terminate@std@@YAP6AXXZP6AXXZ@Z)
004cab70 0000000b .text             NMWException.obj(?terminate@std@@YAXXZ)
004cab80 00000024 .text             NMWException.obj(?set_unexpected@std@@YAP6AXXZP6AXXZ@Z)
004cabb0 0000000b .text             NMWException.obj(?unexpected@std@@YAXXZ)
004cabc0 000001ea .text             NMWException.obj(___throw_catch_compare)
004cadb0 00000018 .text             setjmp.x86.obj(__Setjmp)
004cadd0 0000001f .text             setjmp.x86.obj(_longjmp)
004cadf0 0000003d .text             runinit.obj(__RunInit)
004cae30 0000004b .text             runinit.obj(___detect_cpu_instruction_set)
004cae80 00000014 .text             UKeyboard(W).obj(?IsOptionKeyDown@UKeyboard@@SA_NXZ)
004caea0 00000034 .text             UKeyboard(W).obj(?KeyToChar@UKeyboard@@SAGGGK@Z)
004caee0 0000001f .text             UKeyboard(W).obj(?_WinKeyCodeToStd@@YAGG@Z)
004caf00 000000db .text             UKeyboard.obj(?FindKeyCommand@UKeyboard@@SAKABUSKeyMsgData@@PBUSKeyCmd@@K@Z)
004cafe0 0000001a .text             \qtml\buildresults\NoSym\obj\qtmlClientPublic\ClientToolboxAPI.obj(_CreatePortAssociation)
004cb000 0000001a .text             \qtml\buildresults\NoSym\obj\qtmlClientPublic\ClientToolboxAPI.obj(_DestroyPortAssociation)
004cb020 0000001a .text             \qtml\buildresults\NoSym\obj\qtmlClientPublic\ClientToolboxAPI.obj(_GetNativeWindowPort)
004cb040 0000001a .text             \qtml\buildresults\NoSym\obj\qtmlClientPublic\ClientToolboxAPI.obj(_QTMLInitInternals)
004cb060 0000001a .text             \qtml\buildresults\NoSym\obj\qtmlClientPublic\ClientToolboxAPI.obj(_QTMLTermInternals)
004cb080 0000001a .text             \qtml\buildresults\NoSym\obj\qtmlClientPublic\ClientToolboxAPI.obj(_NativeEventToMacEvent)
004cb0a0 0000001a .text             \qtml\buildresults\NoSym\obj\qtmlClientPublic\ClientToolboxAPI.obj(_NativePathNameToFSSpec)
004cb0c0 0000001a .text             \qtml\buildresults\NoSym\obj\qtmlClientPublic\ClientToolboxAPI.obj(_NewHandle)
004cb0e0 0000001a .text             \qtml\buildresults\NoSym\obj\qtmlClientPublic\ClientToolboxAPI.obj(_HLock)
004cb100 0000001a .text             \qtml\buildresults\NoSym\obj\qtmlClientPublic\ClientToolboxAPI.obj(_HUnlock)
004cb120 0000001a .text             \qtml\buildresults\NoSym\obj\qtmlClientPublic\ClientToolboxAPI.obj(_DisposeHandle)
004cb140 0000001a .text             \qtml\buildresults\NoSym\obj\qtmlClientPublic\ClientToolboxAPI.obj(_HGetState)
004cb160 0000001a .text             \qtml\buildresults\NoSym\obj\qtmlClientPublic\ClientToolboxAPI.obj(_BlockMoveData)
004cb180 0000001a .text             \qtml\buildresults\NoSym\obj\qtmlClientPublic\ClientToolboxAPI.obj(_NewMenu)
004cb1a0 0000001a .text             \qtml\buildresults\NoSym\obj\qtmlClientPublic\ClientToolboxAPI.obj(_MacAppendMenu)
004cb1c0 0000001a .text             \qtml\buildresults\NoSym\obj\qtmlClientPublic\ClientToolboxAPI.obj(_MacInsertMenu)
004cb1e0 0000001a .text             \qtml\buildresults\NoSym\obj\qtmlClientPublic\ClientToolboxAPI.obj(_MacDeleteMenu)
004cb200 0000001a .text             \qtml\buildresults\NoSym\obj\qtmlClientPublic\ClientToolboxAPI.obj(_PopUpMenuSelect)
004cb220 0000001a .text             \qtml\buildresults\NoSym\obj\qtmlClientPublic\ClientToolboxAPI.obj(_DisposeMenu)
004cb240 0000001a .text             \qtml\buildresults\NoSym\obj\qtmlClientPublic\ClientToolboxAPI.obj(_GetGWorldDevice)
004cb260 0000001a .text             \qtml\buildresults\NoSym\obj\qtmlClientPublic\ClientToolboxAPI.obj(_MacSetPort)
004cb280 0000001a .text             \qtml\buildresults\NoSym\obj\qtmlClientPublic\ClientToolboxAPI.obj(_MacOffsetRect)
004cb2a0 0000001a .text             \qtml\buildresults\NoSym\obj\qtmlClientPublic\ClientToolboxAPI.obj(_LocalToGlobal)
004cb2c0 00000005 .text             \qtml\buildresults\NoSym\obj\qtmlClientPublic\ClientToolboxAPI.obj(_callQTMLInitInternals)
004cb2d0 00000005 .text             \qtml\buildresults\NoSym\obj\qtmlClientPublic\ClientToolboxAPI.obj(_callQTMLTermInternals)
004cb2e0 00000010 .text             \qtml\buildresults\NoSym\obj\qtmlClientPublic\ClientToolboxAPI.obj(_BogusDispatcher)
004cb2f0 00000015 .text             \qtml\buildresults\NoSym\obj\qtmlClientPublic\ClientToolboxAPI.obj(__CallComponentFunctionWithStorage)
004cb310 00000150 .text             \qtml\buildresults\NoSym\obj\qtmlClientPublic\ClientToolboxAPI.obj(_autoPatchThoseAddresses)
004cb460 000001c0 .text             \qtml\buildresults\NoSym\obj\qtmlClientPublic\ClientToolboxAPI.obj(_InitializeQTML)
004cb620 00000070 .text             \qtml\buildresults\NoSym\obj\qtmlClientPublic\ClientToolboxAPI.obj(_patchThoseAddresses)
004cb690 00000050 .text             \qtml\buildresults\NoSym\obj\qtmlClientPublic\ClientToolboxAPI.obj(_TerminateQTML)
004cb6e0 0000001a .text             \qtml\buildresults\NoSym\obj\qtmlclientpublic\MoviesWin32Glue.obj(_EnterMovies)
004cb700 0000001a .text             \qtml\buildresults\NoSym\obj\qtmlclientpublic\MoviesWin32Glue.obj(_ExitMovies)
004cb720 0000001a .text             \qtml\buildresults\NoSym\obj\qtmlclientpublic\MoviesWin32Glue.obj(_SetMovieActive)
004cb740 0000001a .text             \qtml\buildresults\NoSym\obj\qtmlclientpublic\MoviesWin32Glue.obj(_StartMovie)
004cb760 0000001a .text             \qtml\buildresults\NoSym\obj\qtmlclientpublic\MoviesWin32Glue.obj(_SetMovieGWorld)
004cb780 0000001a .text             \qtml\buildresults\NoSym\obj\qtmlclientpublic\MoviesWin32Glue.obj(_DisposeMovie)
004cb7a0 0000001a .text             \qtml\buildresults\NoSym\obj\qtmlclientpublic\MoviesWin32Glue.obj(_CloseMovieFile)
004cb7c0 0000001a .text             \qtml\buildresults\NoSym\obj\qtmlclientpublic\MoviesWin32Glue.obj(_NewMovieFromFile)
004cb7e0 0000001a .text             \qtml\buildresults\NoSym\obj\qtmlclientpublic\MoviesWin32Glue.obj(_GetMovieBox)
004cb800 0000001a .text             \qtml\buildresults\NoSym\obj\qtmlclientpublic\MoviesWin32Glue.obj(_SetMovieBox)
004cb820 0000001a .text             \qtml\buildresults\NoSym\obj\qtmlclientpublic\MoviesWin32Glue.obj(_NewMovieController)
004cb840 0000001a .text             \qtml\buildresults\NoSym\obj\qtmlclientpublic\MoviesWin32Glue.obj(_DisposeMovieController)
004cb860 0000001a .text             \qtml\buildresults\NoSym\obj\qtmlclientpublic\MoviesWin32Glue.obj(_OpenMovieFile)
004cb880 0000001a .text             \qtml\buildresults\NoSym\obj\qtmlclientpublic\MoviesWin32Glue.obj(_NewMovieFromDataRef)
004cb8a0 0000001a .text             \qtml\buildresults\NoSym\obj\qtmlclientpublic\ICMWin32Glue.obj(_AlignWindow)
004cb8c0 00000040 .text             \qtml\buildresults\NoSym\obj\qtmlclientpublic\ComponentGlueDispatch.obj(_MCIsPlayerEvent)
004cb900 00000050 .text             \qtml\buildresults\NoSym\obj\qtmlclientpublic\ComponentGlueDispatch.obj(_MCDoAction)
004cb950 00000040 .text             \qtml\buildresults\NoSym\obj\qtmlclientpublic\ComponentGlueDispatch.obj(_MCSetControllerAttached)
004cb990 00000030 .text             \qtml\buildresults\NoSym\obj\qtmlclientpublic\ComponentGlueDispatch.obj(_MCIsControllerAttached)
004cb9c0 00000040 .text             \qtml\buildresults\NoSym\obj\qtmlclientpublic\ComponentGlueDispatch.obj(_MCSetVisible)
004cba00 00000040 .text             \qtml\buildresults\NoSym\obj\qtmlclientpublic\ComponentGlueDispatch.obj(_MCGetControllerBoundsRect)
004cba40 00000040 .text             \qtml\buildresults\NoSym\obj\qtmlclientpublic\ComponentGlueDispatch.obj(_MCSetControllerBoundsRect)
004cba80 00000050 .text             \qtml\buildresults\NoSym\obj\qtmlclientpublic\ComponentGlueDispatch.obj(_MCPositionController)
004cbad0 00000050 .text             \qtml\buildresults\NoSym\obj\qtmlclientpublic\ComponentGlueDispatch.obj(_MCSetActionFilterWithRefCon)
004cbb20 00000030 .text             \qtml\buildresults\NoSym\obj\qtmlclientpublic\ComponentGlueDispatch.obj(_DataHFlushData)
004cbb50 00000040 .text             \qtml\buildresults\NoSym\obj\qtmlclientpublic\ComponentGlueDispatch.obj(_DataHSetDataRef)
004cbb90 00000015 .text             arith.obj(_labs)
004cbbb0 000000a2 .text             arith.obj(___msl_mod)
004cbc60 0000002d .text             globdest.obj(___register_global_object)
004cbc90 0000000d .text             UText(W).obj(?GetCaretTime@UText@@SAKXZ)
004cbca0 0000010e .text             UClipboard(W).obj(?GetData@UClipboard@@SAPAVTHdlObj@@PBD@Z)
004cbdb0 00000220 .text             UClipboard(W).obj(?SetData@UClipboard@@SAXPBDPBXK@Z)
004cbfd0 0000002d .text             UClipboard(W).obj(?_MIMEToWinClipFormat@@YAKPBXK@Z)
004cc000 0000000e .text             delarrop.obj(??_V@YAXPAX@Z)
004cc010 00000072 .text             UDateTime.obj(?IsLeapYear@UDateTime@@SA_NKK@Z)
004cc090 00000166 .text             UDateTime.obj(?CalculateWeekDay@UDateTime@@SAEKKK@Z)
004cc200 0000012d .text             UDateTime.obj(??PSCalendarDate@@QBE_NABU0@@Z)
004cc330 00000098 .text             UDateTime.obj(??YSCalendarDate@@QAEAAU0@J@Z)
004cc3d0 00000049 .text             UDateTime.obj(??GSCalendarDate@@QBEJABU0@@Z)
004cc420 000000ef .text             UDateTime.obj(??BSCalendarDate@@QBE?AUSDateTimeStamp@@XZ)
004cc510 0000010e .text             UDateTime.obj(?IsValid@SCalendarDate@@QBE_NXZ)
004cc620 000000a0 .text             UDateTime.obj(??YSDateTimeStamp@@QAEAAU0@J@Z)
004cc6c0 0000009e .text             UDateTime.obj(??ZSDateTimeStamp@@QAEAAU0@J@Z)
004cc760 000000da .text             UDateTime.obj(??GSDateTimeStamp@@QBEJABU0@@Z)
004cc840 000001f3 .text             UDateTime.obj(??BSDateTimeStamp@@QBE?AUSCalendarDate@@XZ)
004cca40 00000022 .text             UDateTime.obj(?IsValid@SDateTimeStamp@@QBE_NXZ)
004cca70 00000007 .text             URegularTransport(W).obj(?HasTCP@URegularTransport@@SA_NXZ)
004cca80 00000029 .text             URegularTransport(W).obj(?_Deinit@@YAXXZ)
004ccab0 0000028e .text             URegularTransport(W).obj(?Init@URegularTransport@@SAXXZ)
004ccd40 00000160 .text             URegularTransport(W).obj(?New@URegularTransport@@SAPAVTRegularTransportObj@@KK@Z)
004ccea0 00000194 .text             URegularTransport(W).obj(?Dispose@URegularTransport@@SAXPAVTRegularTransportObj@@@Z)
004cd040 0000002a .text             URegularTransport(W).obj(?SetDataMonitor@URegularTransport@@SAXPAVTRegularTransportObj@@P6AX0PBXK_N@Z@Z)
004cd070 0000003c .text             URegularTransport(W).obj(?SetMessageHandler@URegularTransport@@SAXPAVTRegularTransportObj@@P6AXPAX1KPBXK@Z11@Z)
004cd0b0 00000052 .text             URegularTransport(W).obj(?PostMessage@URegularTransport@@SAXPAVTRegularTransportObj@@KPBXKF@Z)
004cd110 000000b7 .text             URegularTransport(W).obj(?GetDefaultIPAddress@URegularTransport@@SA?AUSIPAddress@@XZ)
004cd1d0 0000014d .text             URegularTransport(W).obj(?GetLocalAddress@URegularTransport@@SAKPAVTRegularTransportObj@@PAXK@Z)
004cd320 000003d4 .text             URegularTransport(W).obj(?GetProxyServerAddress@URegularTransport@@SAKGPAXKPBXK@Z)
004cd700 00000018 .text             URegularTransport(W).obj(?IsConnected@URegularTransport@@SA_NPAVTRegularTransportObj@@@Z)
004cd720 00000407 .text             URegularTransport(W).obj(?StartConnectThruFirewall@URegularTransport@@SAXPAVTRegularTransportObj@@PBXK1KKK@Z)
004cdb30 000001fc .text             URegularTransport(W).obj(?StartConnect@URegularTransport@@SAXPAVTRegularTransportObj@@PBXKK@Z)
004cdd30 00000090 .text             URegularTransport(W).obj(?GetConnectStatus@URegularTransport@@SAGPAVTRegularTransportObj@@@Z)
004cddc0 0000008d .text             URegularTransport(W).obj(?Disconnect@URegularTransport@@SAXPAVTRegularTransportObj@@@Z)
004cde50 00000026 .text             URegularTransport(W).obj(?StartDisconnect@URegularTransport@@SAXPAVTRegularTransportObj@@@Z)
004cde80 00000128 .text             URegularTransport(W).obj(?Accept@URegularTransport@@SAPAVTRegularTransportObj@@PAV2@PAXPAK@Z)
004cdfb0 00000042 .text             URegularTransport(W).obj(?NewBuffer@URegularTransport@@SAPAXK@Z)
004ce000 00000018 .text             URegularTransport(W).obj(?DisposeBuffer@URegularTransport@@SAXPAX@Z)
004ce020 00000018 .text             URegularTransport(W).obj(?GetBufferSize@URegularTransport@@SAKPAX@Z)
004ce040 00000106 .text             URegularTransport(W).obj(?SendBuffer@URegularTransport@@SAXPAVTRegularTransportObj@@PAX@Z)
004ce150 00000164 .text             URegularTransport(W).obj(?Send@URegularTransport@@SAXPAVTRegularTransportObj@@PBXK@Z)
004ce2c0 00000207 .text             URegularTransport(W).obj(?ReceiveBuffer@URegularTransport@@SA_NPAVTRegularTransportObj@@AAPAXAAK@Z)
004ce4d0 00000137 .text             URegularTransport(W).obj(?Receive@URegularTransport@@SAKPAVTRegularTransportObj@@PAXK@Z)
004ce610 00000054 .text             URegularTransport(W).obj(?GetReceiveSize@URegularTransport@@SAKPAVTRegularTransportObj@@@Z)
004ce670 00000053 .text             URegularTransport(W).obj(?GetUnsentSize@URegularTransport@@SAKPAVTRegularTransportObj@@@Z)
004ce6d0 00000071 .text             URegularTransport(W).obj(?NotifyReadyToReceive@URegularTransport@@SAXPAVTRegularTransportObj@@K@Z)
004ce750 00000056 .text             URegularTransport(W).obj(?NotifyReadyToSend@URegularTransport@@SAXPAVTRegularTransportObj@@@Z)
004ce7b0 00000092 .text             URegularTransport(W).obj(?IsReadyToReceive@URegularTransport@@SA_NPAVTRegularTransportObj@@K@Z)
004ce850 00000031 .text             URegularTransport(W).obj(?IsReadyToSend@URegularTransport@@SA_NPAVTRegularTransportObj@@@Z)
004ce890 0000006a .text             URegularTransport(W).obj(?RegisterProtocol@URegularTransport@@SA_NPBE@Z)
004ce900 000001dd .text             URegularTransport(W).obj(?LaunchURL@URegularTransport@@SA_NPBXKPAK1@Z)
004ceae0 0000025a .text             URegularTransport(W).obj(?_TRStdToWinAddr@@YAKPBXKPAXK@Z)
004ced40 00000081 .text             URegularTransport(W).obj(?_TRWinToStdAddr@@YAKPBXKPAXK@Z)
004cedd0 0000003f .text             URegularTransport(W).obj(?_TRLookupSock@@YAPAUSRegularTransport@@I@Z)
004cee10 0000003f .text             URegularTransport(W).obj(?_TRLookupSockByLTHdl@@YAPAUSRegularTransport@@PAX@Z)
004cee50 0000003f .text             URegularTransport(W).obj(?_TRLookupSockByULTHdl@@YAPAUSRegularTransport@@PAX@Z)
004cee90 0000004b .text             URegularTransport(W).obj(?_TRLookupSockByFWLTHdl@@YAPAUSRegularTransport@@PAX@Z)
004ceee0 00000133 .text             URegularTransport(W).obj(?_TRNotifyReadyToReceive@@YA_NPAVTRegularTransportObj@@K_N@Z)
004cf020 000003cf .text             URegularTransport(W).obj(?_TRSockProc@@YGJPAUHWND__@@IIJ@Z)
004cf3f0 0000049d .text             URegularTransport(W).obj(?_TRAsyncProc@@YGJPAUHWND__@@IIJ@Z)
004cf890 000000bd .text             URegularTransport(W).obj(?_TRExtractNameAddr@@YAXABUSInternetNameAddress@@PADPAG@Z)
004cf950 0000009c .text             URegularTransport(W).obj(?_TRCappedSend@@YAKIPBXK@Z)
004cf9f0 000001b9 .text             URegularTransport(W).obj(?_TRSendQueued@@YAXPAVTRegularTransportObj@@@Z)
004cfbb0 000000a0 .text             URegularTransport(W).obj(?_TRGetUnsentData@@YAXPAVTRegularTransportObj@@PAV?$CPtrList@USSendData@@@@@Z)
004cfc50 00000094 .text             URegularTransport(W).obj(?_TRBindIPAddress@@YAXPAVTRegularTransportObj@@G@Z)
004cfcf0 00000104 .text             URegularTransport(W).obj(?_TRTryConnectViaFirewall@@YAXPAUSRegularTransport@@@Z)
004cfe00 00000139 .text             URegularTransport(W).obj(?_IsRegisteredForProtocol_InternetExplorer@@YA_NPBE@Z)
004cff40 000001cf .text             URegularTransport(W).obj(?_RegisterProtocol_InternetExplorer@@YA_NPBE@Z)
004d0110 000000f6 .text             URegularTransport(W).obj(?_IsRegisteredForProtocol_NetscapeNavigator@@YA_NPBEPBD@Z)
004d0210 0000019b .text             URegularTransport(W).obj(?_RegisterProtocol_NetscapeNavigator@@YA_NPBEPBD@Z)
004d03b0 00000025 .text             UHttpTransport.obj(?_Deinit@@YAXXZ)
004d03e0 00000039 .text             UHttpTransport.obj(?Init@UHttpTransport@@SAXXZ)
004d0420 00000139 .text             UHttpTransport.obj(?New@UHttpTransport@@SAPAVTHttpTransportObj@@KK@Z)
004d0560 00000116 .text             UHttpTransport.obj(?Dispose@UHttpTransport@@SAXPAVTHttpTransportObj@@@Z)
004d0680 00000051 .text             UHttpTransport.obj(?SetDataMonitor@UHttpTransport@@SAXPAVTHttpTransportObj@@P6AXPAVTRegularTransportObj@@PBXK_N@Z@Z)
004d06e0 0000003c .text             UHttpTransport.obj(?SetMessageHandler@UHttpTransport@@SAXPAVTHttpTransportObj@@P6AXPAX1KPBXK@Z11@Z)
004d0720 00000052 .text             UHttpTransport.obj(?PostMessage@UHttpTransport@@SAXPAVTHttpTransportObj@@KPBXKF@Z)
004d0780 00000039 .text             UHttpTransport.obj(?IsConnected@UHttpTransport@@SA_NPAVTHttpTransportObj@@@Z)
004d07c0 0000013e .text             UHttpTransport.obj(?StartConnectThruFirewall@UHttpTransport@@SAXPAVTHttpTransportObj@@PBXK1KKK@Z)
004d0900 0000011a .text             UHttpTransport.obj(?StartConnect@UHttpTransport@@SAXPAVTHttpTransportObj@@PBXKK@Z)
004d0a20 0000006e .text             UHttpTransport.obj(?GetConnectStatus@UHttpTransport@@SAGPAVTHttpTransportObj@@@Z)
004d0a90 000000a0 .text             UHttpTransport.obj(?Disconnect@UHttpTransport@@SAXPAVTHttpTransportObj@@@Z)
004d0b30 00000116 .text             UHttpTransport.obj(?SendBuffer@UHttpTransport@@SAXPAVTHttpTransportObj@@PAX@Z)
004d0c50 0000013f .text             UHttpTransport.obj(?Send@UHttpTransport@@SAXPAVTHttpTransportObj@@PBXK@Z)
004d0d90 0000019e .text             UHttpTransport.obj(?ReceiveBuffer@UHttpTransport@@SA_NPAVTHttpTransportObj@@AAPAXAAK@Z)
004d0f30 000001b8 .text             UHttpTransport.obj(?Receive@UHttpTransport@@SAKPAVTHttpTransportObj@@PAXK@Z)
004d10f0 000000c5 .text             UHttpTransport.obj(?GetReceiveSize@UHttpTransport@@SAKPAVTHttpTransportObj@@@Z)
004d11c0 00000053 .text             UHttpTransport.obj(?GetUnsentSize@UHttpTransport@@SAKPAVTHttpTransportObj@@@Z)
004d1220 0000003f .text             UHttpTransport.obj(?NotifyReadyToSend@UHttpTransport@@SAXPAVTHttpTransportObj@@@Z)
004d1260 000000ae .text             UHttpTransport.obj(?IsReadyToReceive@UHttpTransport@@SA_NPAVTHttpTransportObj@@K@Z)
004d1310 00000043 .text             UHttpTransport.obj(?IsReadyToSend@UHttpTransport@@SA_NPAVTHttpTransportObj@@@Z)
004d1360 00000080 .text             UHttpTransport.obj(?_HttpConnectionOpenMessageHandler@@YAXPAX0KPBXK@Z)
004d13e0 00000124 .text             UHttpTransport.obj(?_HttpConnectionMessageHandler@@YAXPAX0KPBXK@Z)
004d1510 00000074 .text             UHttpTransport.obj(?_HttpConnectionTimerHandler@@YAXPAX0KPBXK@Z)
004d1590 00000015 .text             UHttpTransport.obj(?_HttpConnectionOpenCloseTimerHandler@@YAXPAX0KPBXK@Z)
004d15b0 000000b3 .text             UHttpTransport.obj(?_CopyAddress@@YA_NPAVTHttpTransportObj@@PBXK@Z)
004d1670 0000016c .text             UHttpTransport.obj(?_CheckAddress@@YA_NPAVTHttpTransportObj@@_N@Z)
004d17e0 0000020b .text             UHttpTransport.obj(?_GetAddress@@YA_NPAVTHttpTransportObj@@PAEK1K@Z)
004d19f0 0000010f .text             UHttpTransport.obj(?_GetProxyAddresss@@YA_NAAUSInternetNameAddress@@@Z)
004d1b00 000000d9 .text             UHttpTransport.obj(?_AcceptConnection@@YA_NPAVTHttpTransportObj@@@Z)
004d1be0 000000bc .text             UHttpTransport.obj(?_CheckConnectionEstabilished@@YA_NPAVTHttpTransportObj@@@Z)
004d1ca0 00000239 .text             UHttpTransport.obj(?_TryReconnect@@YA_NPAVTHttpTransportObj@@@Z)
004d1ee0 000000db .text             UHttpTransport.obj(?_WaitReconnect@@YA_NPAVTHttpTransportObj@@@Z)
004d1fc0 00000168 .text             UHttpTransport.obj(?_SearchReconnect@@YA_NPAUSConnectionInfo@@@Z)
004d2130 00000213 .text             UHttpTransport.obj(?_ReceiveDisconnectData@@YA_NPAVTHttpTransportObj@@@Z)
004d2350 0000007b .text             UHttpTransport.obj(?_Disconnect@@YAXPAVTHttpTransportObj@@@Z)
004d23d0 000001f9 .text             UHttpTransport.obj(?_SendHttpPostHeader@@YA_NPAVTHttpTransportObj@@@Z)
004d25d0 0000010f .text             UHttpTransport.obj(?_SendHttpResponsePostHeader@@YA_NPAVTRegularTransportObj@@@Z)
004d26e0 00000190 .text             UHttpTransport.obj(?_SendHttpGetHeader@@YA_NPAVTHttpTransportObj@@@Z)
004d2870 00000107 .text             UHttpTransport.obj(?_SendHttpResponseGetHeader@@YA_NPAVTRegularTransportObj@@@Z)
004d2980 000000d9 .text             UHttpTransport.obj(?_SendHttpPadding@@YA_NPAVTRegularTransportObj@@K@Z)
004d2a60 00000035 .text             UHttpTransport.obj(?_SendDisconnectPost@@YAXPAVTRegularTransportObj@@@Z)
004d2aa0 0000005a .text             UHttpTransport.obj(?_SendDisconnectGet@@YAXPAVTRegularTransportObj@@@Z)
004d2b00 0000048f .text             UHttpTransport.obj(?_ReceiveHttpHeader@@YA_NPAUSConnectionInfo@@@Z)
004d2f90 00000352 .text             UHttpTransport.obj(?_ReceiveHttpHeader@@YA_NPAVTHttpTransportObj@@@Z)
004d32f0 000001ed .text             UHttpTransport.obj(?_ReceiveHttpData@@YA_NPAVTHttpTransportObj@@@Z)
004d34e0 00000084 .text             UHttpTransport.obj(?_ReceiveHttpPadding@@YA_NPAUSConnectionInfo@@K@Z)
004d3570 00000085 .text             UHttpTransport.obj(?_ReceiveHttpPadding@@YA_NPAVTHttpTransportObj@@K@Z)
004d3600 0000010b .text             UHttpTransport.obj(?_AddField_General@@YA_NPAPAXAAKPBE22@Z)
004d3710 0000006e .text             UHttpTransport.obj(?_AddField_End@@YA_NPAPAXAAK@Z)
004d3780 000000c6 .text             UHttpTransport.obj(?_GetHeaderSize@@YA_NPAXKAAK@Z)
004d3850 00000090 .text             UHttpTransport.obj(?_AddSendDataList@@YAXPAVTHttpTransportObj@@K@Z)
004d38e0 000000f7 .text             UHttpTransport.obj(?_ClearSendDataList@@YA_NPAVTHttpTransportObj@@@Z)
004d39e0 00000070 .text             UHttpTransport.obj(?_GetUnsentSize@@YAKPAVTHttpTransportObj@@@Z)
004d3a50 0000009a .text             UHttpTransport.obj(?_CleanConnectionOpenList@@YAXXZ)
004d3af0 00000076 .text             UHttpTransport.obj(?_ClearConnectionOpenList@@YAXXZ)
004d3b70 0000007f .text             UHttpTransport.obj(?_CleanConnectionCloseList@@YAXXZ)
004d3bf0 00000099 .text             UHttpTransport.obj(?_ClearConnectionCloseList@@YAXXZ)
004d3c90 00000068 .text             UHttpTransport.obj
004d3d00 0000001e .text             UHttpTransport.obj(??1?$CPtrList@USHttpTransport@@@@QAE@XZ)
004d3d20 0000001e .text             UHttpTransport.obj(??1?$CPtrList@VTRegularTransportObj@@@@QAE@XZ)
004d3d40 0000001e .text             UHttpTransport.obj(??1?$CPtrList@USConnectionInfo@@@@QAE@XZ)
004d3d60 00000040 .text             ctype.obj(_tolower)
004d3da0 00000040 .text             ctype.obj(_toupper)
004d3de0 00000006 .text             comdlg32.dll(_GetOpenFileNameA@4)
004d3de6 00000006 .text             comdlg32.dll(_GetSaveFileNameA@4)
004d3df0 000000ff .text             UPixmap.obj(?GetLayerSize@UPixmap@@SAXPAVTHdlObj@@KAAK1@Z)
004d3ef0 0000018d .text             UPixmap.obj(?GetNearestLayer@UPixmap@@SAKPAVTHdlObj@@PAVTImageObj@@ABVSRect@@@Z)
004d4080 000007b0 .text             UPixmap.obj(?Draw@UPixmap@@SAXPAVTHdlObj@@KPAVTImageObj@@ABVSRect@@GG@Z)
004d4830 000000aa .text             UPixmap.obj(?IsValid@UPixmap@@SA_NABUSPixmap@@@Z)
004d48e0 0000018c .text             UPixmap.obj(?_GRTransCopy8To32@@YAXKPAXKPBXKKKPBKK@Z)
004d4a70 00000266 .text             UPixmap.obj(?_GRTransCopy8To8@@YAXKPAXKPBXKKKPBKK2K@Z)
004d4cd6 00000006 .text             comdlg32.dll(_ChooseColorA@4)
004d4ce0 0000000d .text             UMath(W).obj(?CalcRandomSeed@UMath@@SAJXZ)
004d4cf0 00000012 .text             UMath(W).obj(?Cosine@UMath@@SANN@Z)
004d4d10 00000012 .text             UMath(W).obj(?Sine@UMath@@SANN@Z)
004d4d30 00000012 .text             UMath(W).obj(?ArcTangent@UMath@@SANN@Z)
004d4d50 00000012 .text             UMath(W).obj(?SquareRoot@UMath@@SANN@Z)
004d4d70 000000b4 .text             UScrollBar.obj(?Draw@UScrollBar@@SAXPAVTImageObj@@ABVSRect@@ABUSScrollBarInfo@@K@Z)
004d4e30 000000ae .text             UScrollBar.obj(?DrawDisabled@UScrollBar@@SAXPAVTImageObj@@ABVSRect@@ABUSScrollBarInfo@@@Z)
004d4ee0 00000473 .text             UScrollBar.obj(?CalcVertRects@UScrollBar@@SAKABVSRect@@KKKKKKKPAV2@K@Z)
004d5360 00000473 .text             UScrollBar.obj(?CalcHorizRects@UScrollBar@@SAKABVSRect@@KKKKKKKPAV2@K@Z)
004d57e0 000000af .text             UScrollBar.obj(?GetThumbDelta@UScrollBar@@SAJABVSRect@@ABUSScrollBarInfo@@ABVSPoint@@@Z)
004d5890 00000112 .text             UScrollBar.obj(?GetThumbValue@UScrollBar@@SAKABVSRect@@ABUSScrollBarInfo@@ABVSPoint@@J@Z)
004d59b0 000003a4 .text             UScrollBar.obj(?PointToPart@UScrollBar@@SAKABVSRect@@ABUSScrollBarInfo@@ABVSPoint@@@Z)
004d5d60 000001e9 .text             UScrollBar.obj(?GetPartRect@UScrollBar@@SAXABVSRect@@ABUSScrollBarInfo@@KAAV2@@Z)
004d5f50 000000ae .text             UCheckBox.obj(?Draw@UCheckBox@@SAXPAVTImageObj@@ABVSRect@@ABUSCheckBoxInfo@@@Z)
004d6000 000000ae .text             UCheckBox.obj(?DrawFocused@UCheckBox@@SAXPAVTImageObj@@ABVSRect@@ABUSCheckBoxInfo@@@Z)
004d60b0 000000ae .text             UCheckBox.obj(?DrawHilited@UCheckBox@@SAXPAVTImageObj@@ABVSRect@@ABUSCheckBoxInfo@@@Z)
004d6160 000000ae .text             UCheckBox.obj(?DrawDisabled@UCheckBox@@SAXPAVTImageObj@@ABVSRect@@ABUSCheckBoxInfo@@@Z)
004d6210 00000029 .text             UBitString.obj(?Get@UBitString@@SA_NPBXK@Z)
004d6240 0000003e .text             UBitString.obj(?Set@UBitString@@SAXPAXK_N@Z)
004d6280 000000dc .text             UBitString.obj(?Copy@UBitString@@SAXPAXKKK@Z)
004d6360 0000005a .text             UBitString.obj(?GetFirstSet@UBitString@@SA_NPBXKAAK@Z)
004d63c0 00000049 .text             UBitString.obj(?GetLastSet@UBitString@@SA_NPBXKAAK@Z)
004d6410 000001f2 .text             UProgressBar(W).obj(?UProgressBar_Draw@@YAXPAVTImageObj@@ABVSRect@@ABUSProgressBarInfo@@@Z)
004d6610 000000ae .text             UButton.obj(?Draw@UButton@@SAXPAVTImageObj@@ABVSRect@@ABUSButtonInfo@@@Z)
004d66c0 000000ae .text             UButton.obj(?DrawFocused@UButton@@SAXPAVTImageObj@@ABVSRect@@ABUSButtonInfo@@@Z)
004d6770 000000ae .text             UButton.obj(?DrawHilited@UButton@@SAXPAVTImageObj@@ABVSRect@@ABUSButtonInfo@@@Z)
004d6820 000000ae .text             UButton.obj(?DrawDisabled@UButton@@SAXPAVTImageObj@@ABVSRect@@ABUSButtonInfo@@@Z)
004d68d0 000000ae .text             UIconButton.obj(?Draw@UIconButton@@SAXPAVTImageObj@@ABVSRect@@ABUSIconButtonInfo@@@Z)
004d6980 000000ae .text             UIconButton.obj(?DrawFocused@UIconButton@@SAXPAVTImageObj@@ABVSRect@@ABUSIconButtonInfo@@@Z)
004d6a30 000000ae .text             UIconButton.obj(?DrawHilited@UIconButton@@SAXPAVTImageObj@@ABVSRect@@ABUSIconButtonInfo@@@Z)
004d6ae0 000000ae .text             UIconButton.obj(?DrawDisabled@UIconButton@@SAXPAVTImageObj@@ABVSRect@@ABUSIconButtonInfo@@@Z)
004d6b90 00000447 .text             UIconButton.obj(?CalcRects@UIconButton@@SAXPAVTImageObj@@ABVSRect@@ABUSIconButtonInfo@@PAV3@33@Z)
004d6fe0 00000018 .text             jerror.obj(?error_exit@@YAXPAUjpeg_common_struct@@@Z)
004d7000 00000005 .text             jerror.obj(?output_message@@YAXPAUjpeg_common_struct@@@Z)
004d7010 0000005c .text             jerror.obj(?emit_message@@YAXPAUjpeg_common_struct@@H@Z)
004d7070 0000013a .text             jerror.obj(?format_message@@YAXPAUjpeg_common_struct@@PAD@Z)
004d71b0 0000001d .text             jerror.obj(?reset_error_mgr@@YAXPAUjpeg_common_struct@@@Z)
004d71d0 0000008c .text             jerror.obj(?jpeg_std_error@@YAPAUjpeg_error_mgr@@PAU1@@Z)
004d7260 00000164 .text             jdapimin.obj(?jpeg_CreateDecompress@@YAXPAUjpeg_decompress_struct@@HI@Z)
004d73d0 0000000e .text             jdapimin.obj(?jpeg_destroy_decompress@@YAXPAUjpeg_decompress_struct@@@Z)
004d73e0 0000029e .text             jdapimin.obj(?default_decompress_parms@@YAXPAUjpeg_decompress_struct@@@Z)
004d7680 000000a8 .text             jdapimin.obj(?jpeg_read_header@@YAHPAUjpeg_decompress_struct@@_N@Z)
004d7730 000000cf .text             jdapimin.obj(?jpeg_consume_input@@YAHPAUjpeg_decompress_struct@@@Z)
004d7800 00000055 .text             jdapimin.obj(?jpeg_input_complete@@YA_NPAUjpeg_decompress_struct@@@Z)
004d7860 00000055 .text             jdapimin.obj(?jpeg_has_multiple_scans@@YA_NPAUjpeg_decompress_struct@@@Z)
004d78c0 00000102 .text             jdapimin.obj(?jpeg_finish_decompress@@YA_NPAUjpeg_decompress_struct@@@Z)
004d79d0 00000020 .text             jdatasrc.obj(?init_source@@YAXPAUjpeg_decompress_struct@@@Z)
004d79f0 0000014b .text             jdatasrc.obj(?fill_input_buffer@@YA_NPAUjpeg_decompress_struct@@@Z)
004d7b40 0000004f .text             jdatasrc.obj(?skip_input_data@@YAXPAUjpeg_decompress_struct@@J@Z)
004d7b90 00000005 .text             jdatasrc.obj(?term_source@@YAXPAUjpeg_decompress_struct@@@Z)
004d7ba0 000000da .text             jdatasrc.obj(?jpeg_stdio_src@@YAXPAUjpeg_decompress_struct@@GK@Z)
004d7c80 00000035 .text             jdatasrc.obj(?ReadImage@@YAKPBXAAKPAXK@Z)
004d7cc0 0000013a .text             jdapistd.obj(?jpeg_start_decompress@@YA_NPAUjpeg_decompress_struct@@@Z)
004d7e00 0000012b .text             jdapistd.obj(?output_pass_setup@@YA_NPAUjpeg_decompress_struct@@@Z)
004d7f30 000000e8 .text             jdapistd.obj(?jpeg_read_scanlines@@YAGPAUjpeg_decompress_struct@@PAPAEG@Z)
004d8020 0000008d .text             jdapistd.obj(?jpeg_start_output@@YA_NPAUjpeg_decompress_struct@@H@Z)
004d80b0 000000c4 .text             jdapistd.obj(?jpeg_finish_output@@YA_NPAUjpeg_decompress_struct@@@Z)
004d8180 0000019b .text             QTDispatcherW.obj(_HL_Handler)
004d8320 0000006b .text             QTDispatcherW.obj(?Message@UDebug@BigRedH@@SAXPBDZZ)
004d8390 0000002a .text             QTDispatcherW.obj(??0?$TGuard@VCMutex@BigRedH@@@BigRedH@@QAE@ABVCMutex@1@@Z)
004d83c0 00000020 .text             QTDispatcherW.obj(??1?$TGuard@VCMutex@BigRedH@@@BigRedH@@QAE@XZ)
004d83e0 00000020 .text             \qtml\buildresults\NoSym\obj\qtmlclientpublic\ThingWin32Glue.obj(_CallComponentFunctionWithStorage)
004d8400 0000001a .text             \qtml\buildresults\NoSym\obj\qtmlclientpublic\ThingWin32Glue.obj(_CallComponent)
004d8420 0000001a .text             \qtml\buildresults\NoSym\obj\qtmlclientpublic\ThingWin32Glue.obj(_RegisterComponent)
004d8440 0000001a .text             \qtml\buildresults\NoSym\obj\qtmlclientpublic\ThingWin32Glue.obj(_UnregisterComponent)
004d8460 0000001a .text             \qtml\buildresults\NoSym\obj\qtmlclientpublic\ThingWin32Glue.obj(_CountComponents)
004d8480 0000001a .text             \qtml\buildresults\NoSym\obj\qtmlclientpublic\ThingWin32Glue.obj(_OpenComponent)
004d84a0 0000001a .text             \qtml\buildresults\NoSym\obj\qtmlclientpublic\ThingWin32Glue.obj(_CloseComponent)
004d84c0 0000001a .text             \qtml\buildresults\NoSym\obj\qtmlclientpublic\ThingWin32Glue.obj(_SetComponentInstanceStorage)
004d84e0 00000073 .text             CDataHandlerComponent.obj(?Instance@CDataHandlerComponent@BigRedH@@SAAAV12@XZ)
004d8560 00000018 .text             CDataHandlerComponent.obj(??D?$auto_ptr@VCDataHandlerComponent@BigRedH@@@std@@QBEAAVCDataHandlerComponent@BigRedH@@XZ)
004d8580 00000033 .text             CDataHandlerComponent.obj(??1?$auto_ptr@VCDataHandlerComponent@BigRedH@@@std@@QAE@XZ)
004d85c0 00000058 .text             CDataHandlerComponent.obj(??_ECDataHandlerComponent@BigRedH@@UAE@I@Z)
004d8620 00000023 .text             CDataHandlerComponent.obj(??4?$auto_ptr@VCDataHandlerComponent@BigRedH@@@std@@QAEAAV01@U?$auto_ptr_ref@VCDataHandlerComponent@BigRedH@@@1@@Z)
004d8650 00000044 .text             CDataHandlerComponent.obj(?reset@?$auto_ptr@VCDataHandlerComponent@BigRedH@@@std@@QAEXPAVCDataHandlerComponent@BigRedH@@@Z)
004d86a0 00000025 .text             CDataHandlerComponent.obj(??B?$@VCDataHandlerComponent@BigRedH@@@?$auto_ptr@VCDataHandlerComponent@BigRedH@@@std@@QAE?AU?$auto_ptr_ref@VCDataHandlerComponent@BigRedH@@@3@XZ)
004d86d0 0000002b .text             CDataHandlerComponent.obj(?release@?$auto_ptr@VCDataHandlerComponent@BigRedH@@@std@@QAEPAVCDataHandlerComponent@BigRedH@@XZ)
004d8700 00000020 .text             CDataHandlerComponent.obj(??0?$auto_ptr@VCDataHandlerComponent@BigRedH@@@std@@QAE@PAVCDataHandlerComponent@BigRedH@@@Z)
004d8720 00000018 .text             CDataHandlerComponent.obj(?get@?$auto_ptr@VCDataHandlerComponent@BigRedH@@@std@@QBEPAVCDataHandlerComponent@BigRedH@@XZ)
004d8740 0000004a .text             CDataHandlerComponent.obj(??0CDataHandlerComponent@BigRedH@@IAE@XZ)
004d8790 0000001e .text             CDataHandlerComponent.obj(??1?$map@VCString@BigRedH@@PAVCDataProvider@2@U?$less@VCString@BigRedH@@@std@@V?$allocator@U?$pair@$$CBVCString@BigRedH@@PAVCDataProvider@2@@std@@@5@@std@@QAE@XZ)
004d87b0 00000035 .text             CDataHandlerComponent.obj(??1?$__tree@U?$pair@$$CBVCString@BigRedH@@PAVCDataProvider@2@@std@@Vvalue_compare@?$map@VCString@BigRedH@@PAVCDataProvider@2@U?$less@VCString@BigRedH@@@std@@V?$allocator@U?$pair@$$CBVCS...)
004d87f0 0000001d .text             CDataHandlerComponent.obj(?root@?$__tree@U?$pair@$$CBVCString@BigRedH@@PAVCDataProvider@2@@std@@Vvalue_compare@?$map@VCString@BigRedH@@PAVCDataProvider@2@U?$less@VCString@BigRedH@@@std@@V?$allocator@U?$pair@$$CB...)
004d8810 00000020 .text             CDataHandlerComponent.obj(?tail@?$__tree@U?$pair@$$CBVCString@BigRedH@@PAVCDataProvider@2@@std@@Vvalue_compare@?$map@VCString@BigRedH@@PAVCDataProvider@2@U?$less@VCString@BigRedH@@@std@@V?$allocator@U?$pair@$$CB...)
004d8830 00000016 .text             CDataHandlerComponent.obj(?second@?$compressed_pair_imp@V?$allocator@Unode@?$__tree@U?$pair@$$CBVCString@BigRedH@@PAVCDataProvider@2@@std@@Vvalue_compare@?$map@VCString@BigRedH@@PAVCDataProvider@2@U?$less@VCStri...)
004d8850 0000001e .text             CDataHandlerComponent.obj(??1?$list@PAVCDataHandlerConnection@BigRedH@@V?$allocator@PAVCDataHandlerConnection@BigRedH@@@std@@@std@@QAE@XZ)
004d8870 0000001e .text             CDataHandlerComponent.obj(??1?$__list_imp@PBXV?$allocator@PBX@std@@@std@@QAE@XZ)
004d8890 0000004b .text             CDataHandlerComponent.obj(??1?$__list_deleter@PBXV?$allocator@PBX@std@@@std@@QAE@XZ)
004d88e0 0000002b .text             CDataHandlerComponent.obj(?end@?$__list_deleter@PBXV?$allocator@PBX@std@@@std@@QAE?AV?$generic_iterator@$0A@@12@XZ)
004d8910 00000020 .text             CDataHandlerComponent.obj(??0?$generic_iterator@$0A@@?$__list_deleter@PBXV?$allocator@PBX@std@@@std@@AAE@PAUnode_base@12@@Z)
004d8930 00000020 .text             CDataHandlerComponent.obj(?tail@?$__list_deleter@PBXV?$allocator@PBX@std@@@std@@QAEAAUnode_base@12@XZ)
004d8950 00000016 .text             CDataHandlerComponent.obj(?second@?$compressed_pair_imp@V?$allocator@Unode@?$__list_deleter@PBXV?$allocator@PBX@std@@@std@@@std@@Unode_base@?$__list_deleter@PBXV?$allocator@PBX@std@@@2@$00@details@Metrowerks@@QA...)
004d8970 0000002d .text             CDataHandlerComponent.obj(?begin@?$__list_deleter@PBXV?$allocator@PBX@std@@@std@@QAE?AV?$generic_iterator@$0A@@12@XZ)
004d89a0 00000020 .text             CDataHandlerComponent.obj(??0?$generic_iterator@$0A@@?$__list_deleter@PBXV?$allocator@PBX@std@@@std@@AAE@PAUnode@12@@Z)
004d89c0 00000034 .text             CDataHandlerComponent.obj(??0?$map@VCString@BigRedH@@PAVCDataProvider@2@U?$less@VCString@BigRedH@@@std@@V?$allocator@U?$pair@$$CBVCString@BigRedH@@PAVCDataProvider@2@@std@@@5@@std@@QAE@XZ)
004d8a00 00000016 .text             CDataHandlerComponent.obj(??0?$allocator@U?$pair@$$CBVCString@BigRedH@@PAVCDataProvider@2@@std@@@std@@QAE@XZ)
004d8a20 00000016 .text             CDataHandlerComponent.obj(??0value_compare@?$map@VCString@BigRedH@@PAVCDataProvider@2@U?$less@VCString@BigRedH@@@std@@V?$allocator@U?$pair@$$CBVCString@BigRedH@@PAVCDataProvider@2@@std@@@5@@std@@IAE@XZ)
004d8a40 0000001e .text             CDataHandlerComponent.obj(??0?$list@PAVCDataHandlerConnection@BigRedH@@V?$allocator@PAVCDataHandlerConnection@BigRedH@@@std@@@std@@QAE@XZ)
004d8a60 0000001e .text             CDataHandlerComponent.obj(??0?$__list_imp@PBXV?$allocator@PBX@std@@@std@@IAE@XZ)
004d8a80 000000c8 .text             CDataHandlerComponent.obj(??1CDataHandlerComponent@BigRedH@@UAE@XZ)
004d8b50 00000019 .text             CDataHandlerComponent.obj(??9std@@YA_NABV?$__generic_iterator@$0A@@?$__tree@U?$pair@$$CBVCString@BigRedH@@PAVCDataProvider@2@@std@@Vvalue_compare@?$map@VCString@BigRedH@@PAVCDataProvider@2@U?$less@VCString@BigRe...)
004d8b70 00000026 .text             CDataHandlerComponent.obj(?end@?$map@VCString@BigRedH@@PAVCDataProvider@2@U?$less@VCString@BigRedH@@@std@@V?$allocator@U?$pair@$$CBVCString@BigRedH@@PAVCDataProvider@2@@std@@@5@@std@@QAE?AV?$__generic_iterator@$...)
004d8ba0 0000002e .text             CDataHandlerComponent.obj(?end@?$__tree@U?$pair@$$CBVCString@BigRedH@@PAVCDataProvider@2@@std@@Vvalue_compare@?$map@VCString@BigRedH@@PAVCDataProvider@2@U?$less@VCString@BigRedH@@@std@@V?$allocator@U?$pair@$$CBV...)
004d8bd0 00000015 .text             CDataHandlerComponent.obj(?__pointer2iterator@?$__tree@U?$pair@$$CBVCString@BigRedH@@PAVCDataProvider@2@@std@@Vvalue_compare@?$map@VCString@BigRedH@@PAVCDataProvider@2@U?$less@VCString@BigRedH@@@std@@V?$allocato...)
004d8bf0 00000020 .text             CDataHandlerComponent.obj(??0?$__generic_iterator@$0A@@?$__tree@U?$pair@$$CBVCString@BigRedH@@PAVCDataProvider@2@@std@@Vvalue_compare@?$map@VCString@BigRedH@@PAVCDataProvider@2@U?$less@VCString@BigRedH@@@std@@V?...)
004d8c10 0000003d .text             CDataHandlerComponent.obj(??E?$__generic_iterator@$0A@@?$__tree@U?$pair@$$CBVCString@BigRedH@@PAVCDataProvider@2@@std@@Vvalue_compare@?$map@VCString@BigRedH@@PAVCDataProvider@2@U?$less@VCString@BigRedH@@@std@@V?...)
004d8c50 0000001f .text             CDataHandlerComponent.obj(??E?$__generic_iterator@$0A@@?$__tree@U?$pair@$$CBVCString@BigRedH@@PAVCDataProvider@2@@std@@Vvalue_compare@?$map@VCString@BigRedH@@PAVCDataProvider@2@U?$less@VCString@BigRedH@@@std@@V?...)
004d8c70 00000022 .text             CDataHandlerComponent.obj(??0?$__generic_iterator@$0A@@?$__tree@U?$pair@$$CBVCString@BigRedH@@PAVCDataProvider@2@@std@@Vvalue_compare@?$map@VCString@BigRedH@@PAVCDataProvider@2@U?$less@VCString@BigRedH@@@std@@V?...)
004d8ca0 00000058 .text             CDataHandlerComponent.obj(??_ECDataProvider@BigRedH@@UAE@I@Z)
004d8d00 0000001b .text             CDataHandlerComponent.obj(??C?$__generic_iterator@$0A@@?$__tree@U?$pair@$$CBVCString@BigRedH@@PAVCDataProvider@2@@std@@Vvalue_compare@?$map@VCString@BigRedH@@PAVCDataProvider@2@U?$less@VCString@BigRedH@@@std@@V?...)
004d8d20 00000022 .text             CDataHandlerComponent.obj(??4?$__generic_iterator@$0A@@?$__tree@U?$pair@$$CBVCString@BigRedH@@PAVCDataProvider@2@@std@@Vvalue_compare@?$map@VCString@BigRedH@@PAVCDataProvider@2@U?$less@VCString@BigRedH@@@std@@V?...)
004d8d50 00000026 .text             CDataHandlerComponent.obj(?begin@?$map@VCString@BigRedH@@PAVCDataProvider@2@U?$less@VCString@BigRedH@@@std@@V?$allocator@U?$pair@$$CBVCString@BigRedH@@PAVCDataProvider@2@@std@@@5@@std@@QAE?AV?$__generic_iterator...)
004d8d80 0000002f .text             CDataHandlerComponent.obj(?begin@?$__tree@U?$pair@$$CBVCString@BigRedH@@PAVCDataProvider@2@@std@@Vvalue_compare@?$map@VCString@BigRedH@@PAVCDataProvider@2@U?$less@VCString@BigRedH@@@std@@V?$allocator@U?$pair@$$C...)
004d8db0 00000020 .text             CDataHandlerComponent.obj(?front@?$__tree@U?$pair@$$CBVCString@BigRedH@@PAVCDataProvider@2@@std@@Vvalue_compare@?$map@VCString@BigRedH@@PAVCDataProvider@2@U?$less@VCString@BigRedH@@@std@@V?$allocator@U?$pair@$$C...)
004d8dd0 00000019 .text             CDataHandlerComponent.obj(?second@?$compressed_pair_imp@Vvalue_compare@?$map@VCString@BigRedH@@PAVCDataProvider@2@U?$less@VCString@BigRedH@@@std@@V?$allocator@U?$pair@$$CBVCString@BigRedH@@PAVCDataProvider@2@@st...)
004d8df0 00000016 .text             CDataHandlerComponent.obj(??0?$__generic_iterator@$0A@@?$__tree@U?$pair@$$CBVCString@BigRedH@@PAVCDataProvider@2@@std@@Vvalue_compare@?$map@VCString@BigRedH@@PAVCDataProvider@2@U?$less@VCString@BigRedH@@@std@@V?...)
004d8e10 00000047 .text             CDataHandlerComponent.obj(?NewConnection@CDataHandlerComponent@BigRedH@@QAEPAVCDataHandlerConnection@2@XZ)
004d8e60 00000020 .text             CDataHandlerComponent.obj(?push_back@?$list@PAVCDataHandlerConnection@BigRedH@@V?$allocator@PAVCDataHandlerConnection@BigRedH@@@std@@@std@@QAEXABQAVCDataHandlerConnection@BigRedH@@@Z)
004d8e80 0000003c .text             CDataHandlerComponent.obj(?push_back@?$__list_imp@PBXV?$allocator@PBX@std@@@std@@IAEXABQBX@Z)
004d8ec0 0000003f .text             CDataHandlerComponent.obj(?DeleteConnection@CDataHandlerComponent@BigRedH@@QAEXPAVCDataHandlerConnection@2@@Z)
004d8f00 00000058 .text             CDataHandlerComponent.obj(??_ECDataHandlerConnection@BigRedH@@UAE@I@Z)
004d8f60 00000020 .text             CDataHandlerComponent.obj(?remove@?$list@PAVCDataHandlerConnection@BigRedH@@V?$allocator@PAVCDataHandlerConnection@BigRedH@@@std@@@std@@QAEXABQAVCDataHandlerConnection@BigRedH@@@Z)
004d8f80 0000003a .text             CDataHandlerComponent.obj(?remove@?$__list_imp@PBXV?$allocator@PBX@std@@@std@@IAEXABQBX@Z)
004d8fc0 0000002c .text             CDataHandlerComponent.obj(??0?$binder2nd@U?$equal_to@PBX@std@@ABQBX@std@@QAE@ABU?$equal_to@PBX@1@ABQBX@Z)
004d8ff0 00000030 .text             CDataHandlerComponent.obj(?CanDo@CDataHandlerComponent@BigRedH@@QAE_NF@Z)
004d9020 00000018 .text             CDataHandlerComponent.obj(?GetVersion@CDataHandlerComponent@BigRedH@@QAEKXZ)
004d9040 00000079 .text             CDataHandlerComponent.obj(?CanUseDataRef@CDataHandlerComponent@BigRedH@@QAE_NPAPAD@Z)
004d90c0 0000002a .text             CDataHandlerComponent.obj(??1StHandleLocker@BigRedH@@QAE@XZ)
004d90f0 00000015 .text             CDataHandlerComponent.obj(??1CString@BigRedH@@QAE@XZ)
004d9110 00000025 .text             CDataHandlerComponent.obj(?find@CString@BigRedH@@QBEIABV12@I@Z)
004d9140 00000046 .text             CDataHandlerComponent.obj(?find@?$basic_string@_WU?$char_traits@_W@std@@V?$allocator@_W@2@@std@@QBEIABV12@I@Z)
004d9190 00000018 .text             CDataHandlerComponent.obj(?size@?$basic_string@_WU?$char_traits@_W@std@@V?$allocator@_W@2@@std@@QBEIXZ)
004d91b0 0000000f .text             CDataHandlerComponent.obj(?__iterator2pointer@?$basic_string@_WU?$char_traits@_W@std@@V?$allocator@_W@2@@std@@CAPB_WABV?$__wrap_iterator@V?$basic_string@_WU?$char_traits@_W@std@@V?$allocator@_W@2@@std@@PB$$CB_W@...)
004d91c0 00000018 .text             CDataHandlerComponent.obj(?base@?$__wrap_iterator@V?$basic_string@_WU?$char_traits@_W@std@@V?$allocator@_W@2@@std@@PB$$CB_W@std@@QBEPB_WXZ)
004d91e0 00000039 .text             CDataHandlerComponent.obj(?begin@?$basic_string@_WU?$char_traits@_W@std@@V?$allocator@_W@2@@std@@QBE?AV?$__wrap_iterator@V?$basic_string@_WU?$char_traits@_W@std@@V?$allocator@_W@2@@std@@PB$$CB_W@2@XZ)
004d9220 00000025 .text             CDataHandlerComponent.obj(?__pointer2iterator@?$basic_string@_WU?$char_traits@_W@std@@V?$allocator@_W@2@@std@@ABE?AV?$__wrap_iterator@V?$basic_string@_WU?$char_traits@_W@std@@V?$allocator@_W@2@@std@@PB$$CB_W@2@A...)
004d9250 00000022 .text             CDataHandlerComponent.obj(??0?$__wrap_iterator@V?$basic_string@_WU?$char_traits@_W@std@@V?$allocator@_W@2@@std@@PB$$CB_W@std@@AAE@ABQB_W@Z)
004d9280 00000019 .text             CDataHandlerComponent.obj(?__data@?$basic_string@_WU?$char_traits@_W@std@@V?$allocator@_W@2@@std@@ABEPB_WXZ)
004d92a0 00000050 .text             CDataHandlerComponent.obj(??0StHandleLocker@BigRedH@@QAE@PAPAD@Z)
004d92f0 00000071 .text             CDataHandlerComponent.obj(?IsReading@CDataHandlerComponent@BigRedH@@QAE_NPAE@Z)
004d9370 00000021 .text             CDataHandlerComponent.obj(?IsReading@CDataProvider@BigRedH@@QAE_NXZ)
004d93a0 00000025 .text             CDataHandlerComponent.obj(??A?$map@VCString@BigRedH@@PAVCDataProvider@2@U?$less@VCString@BigRedH@@@std@@V?$allocator@U?$pair@$$CBVCString@BigRedH@@PAVCDataProvider@2@@std@@@5@@std@@QAEAAPAVCDataProvider@BigRedH@...)
004d93d0 00000054 .text             CDataHandlerComponent.obj(?CancelReading@CDataHandlerComponent@BigRedH@@QAEXPAE@Z)
004d9430 0000001d .text             CDataHandlerComponent.obj(?CancelReading@CDataProvider@BigRedH@@QAEXXZ)
004d9450 00000018 .text             CDataHandlerComponent.obj(?GetAheadTime@CDataHandlerComponent@BigRedH@@QAEKXZ)
004d9470 000005fd .text             CDataHandlerComponent.obj(?GetProvider@CDataHandlerComponent@BigRedH@@QAEPAVCDataProvider@2@ABVCString@2@@Z)
004d9a70 00000021 .text             CDataHandlerComponent.obj(??1StCStyleString@BigRedH@@QAE@XZ)
004d9aa0 00000018 .text             CDataHandlerComponent.obj(??BStCStyleString@BigRedH@@QAEPADXZ)
004d9ac0 00000057 .text             CDataHandlerComponent.obj(??0StCStyleString@BigRedH@@QAE@ABVCString@1@W1EStringEncoding@UStringConverter@1@_N@Z)
004d9b20 0000001d .text             CDataHandlerComponent.obj(?c_str@CString@BigRedH@@QBEPB_WXZ)
004d9b40 0000001d .text             CDataHandlerComponent.obj(?c_str@?$basic_string@_WU?$char_traits@_W@std@@V?$allocator@_W@2@@std@@QBEPB_WXZ)
004d9b60 00000025 .text             CDataHandlerComponent.obj(?find@CString@BigRedH@@QBEIPB_WI@Z)
004d9b90 0000002f .text             CDataHandlerComponent.obj(?find@?$basic_string@_WU?$char_traits@_W@std@@V?$allocator@_W@2@@std@@QBEIPB_WI@Z)
004d9bc0 00000010 .text             CDataHandlerComponent.obj(?length@?$char_traits@_W@std@@SAIPB_W@Z)
004d9bd0 00000023 .text             CDataHandlerComponent.obj(??4CString@BigRedH@@QAEAAV01@ABV01@@Z)
004d9c00 00000022 .text             CDataHandlerComponent.obj(??4?$basic_string@_WU?$char_traits@_W@std@@V?$allocator@_W@2@@std@@QAEAAV01@ABV01@@Z)
004d9c30 00000026 .text             CDataHandlerComponent.obj(?assign@?$basic_string@_WU?$char_traits@_W@std@@V?$allocator@_W@2@@std@@QAEAAV12@ABV12@@Z)
004d9c60 00000047 .text             CDataHandlerComponent.obj(?substr@CString@BigRedH@@QBE?AV12@II@Z)
004d9cb0 00000023 .text             CDataHandlerComponent.obj(??0CString@BigRedH@@QAE@ABV?$basic_string@_WU?$char_traits@_W@std@@V?$allocator@_W@2@@std@@@Z)
004d9ce0 00000027 .text             CDataHandlerComponent.obj(?find@CString@BigRedH@@QBEI_WI@Z)
004d9d10 0000001d .text             CDataHandlerComponent.obj(?length@CString@BigRedH@@QBEIXZ)
004d9d30 00000018 .text             CDataHandlerComponent.obj(?length@?$basic_string@_WU?$char_traits@_W@std@@V?$allocator@_W@2@@std@@QBEIXZ)
004d9d50 00000030 .text             CDataHandlerComponent.obj(??0CString@BigRedH@@QAE@PB_W@Z)
004d9d80 00000016 .text             CDataHandlerComponent.obj(??0?$allocator@_W@std@@QAE@XZ)
004d9da0 00000035 .text             CDataHandlerComponent.obj(??0CString@BigRedH@@QAE@ABV01@II@Z)
004d9de0 0000002b .text             CDataHandlerComponent.obj(??0CString@BigRedH@@QAE@XZ)
004d9e10 00000043 .text             CDataHandlerComponent.obj(??0?$basic_string@_WU?$char_traits@_W@std@@V?$allocator@_W@2@@std@@QAE@ABV?$allocator@_W@1@@Z)
004d9e60 0000002c .text             CDataHandlerComponent.obj(??0?$_EmptyMemberOpt@V?$allocator@_W@std@@I@std@@QAE@ABV?$allocator@_W@1@@Z)
004d9e90 00000018 .text             CDataHandlerComponent.obj(??0?$allocator@_W@std@@QAE@ABV01@@Z)
004d9eb0 000000a4 .text             CDataHandlerComponent.obj(?DeleteProvider@CDataHandlerComponent@BigRedH@@QAEXPAVCDataProvider@2@@Z)
004d9f60 000001da .text             CDataHandlerComponent.obj(?GetSelectorName@CDataHandlerComponent@BigRedH@@QAEPADH@Z)
004da140 00000029 .text             CDataHandlerComponent.obj(?data@?$basic_string@_WU?$char_traits@_W@std@@V?$allocator@_W@2@@std@@QBEPB_WXZ)
004da170 00000101 .text             CDataHandlerComponent.obj(?remove_if@?$@V?$binder2nd@U?$equal_to@PBX@std@@ABQBX@std@@@?$__list_imp@PBXV?$allocator@PBX@std@@@2@IAEXV12@@Z)
004da280 00000019 .text             CDataHandlerComponent.obj(??8std@@YA_NABV?$generic_iterator@$0A@@?$__list_deleter@PBXV?$allocator@PBX@std@@@0@0@Z)
004da2a0 00000022 .text             CDataHandlerComponent.obj(??4?$generic_iterator@$0A@@?$__list_deleter@PBXV?$allocator@PBX@std@@@std@@QAEAAV012@ABV012@@Z)
004da2d0 00000019 .text             CDataHandlerComponent.obj(??9std@@YA_NABV?$generic_iterator@$0A@@?$__list_deleter@PBXV?$allocator@PBX@std@@@0@0@Z)
004da2f0 00000023 .text             CDataHandlerComponent.obj(??E?$generic_iterator@$0A@@?$__list_deleter@PBXV?$allocator@PBX@std@@@std@@QAEAAV012@XZ)
004da320 00000022 .text             CDataHandlerComponent.obj(??0?$generic_iterator@$0A@@?$__list_deleter@PBXV?$allocator@PBX@std@@@std@@QAE@ABV012@@Z)
004da350 00000028 .text             CDataHandlerComponent.obj(??R?$binder2nd@U?$equal_to@PBX@std@@ABQBX@std@@QAE_NAAPBX@Z)
004da380 00000029 .text             CDataHandlerComponent.obj(??R?$equal_to@PBX@std@@QBE_NABQBX0@Z)
004da3b0 0000001b .text             CDataHandlerComponent.obj(??D?$generic_iterator@$0A@@?$__list_deleter@PBXV?$allocator@PBX@std@@@std@@QBEAAPBXXZ)
004da3d0 0000010c .text             CDataHandlerComponent.obj(?find_or_insert@?$@VCString@BigRedH@@PAVCDataProvider@2@@?$__tree@U?$pair@$$CBVCString@BigRedH@@PAVCDataProvider@2@@std@@Vvalue_compare@?$map@VCString@BigRedH@@PAVCDataProvider@2@U?$les...)
004da4e0 0000001e .text             CDataHandlerComponent.obj(??1?$pair@$$CBVCString@BigRedH@@PAVCDataProvider@2@@std@@QAE@XZ)
004da500 00000032 .text             CDataHandlerComponent.obj(??0?$pair@$$CBVCString@BigRedH@@PAVCDataProvider@2@@std@@QAE@ABVCString@BigRedH@@ABQAVCDataProvider@3@@Z)
004da540 00000025 .text             CDataHandlerComponent.obj(??Rvalue_compare@?$map@VCString@BigRedH@@PAVCDataProvider@2@U?$less@VCString@BigRedH@@@std@@V?$allocator@U?$pair@$$CBVCString@BigRedH@@PAVCDataProvider@2@@std@@@5@@std@@QBE_NABU?$pair@$...)
004da570 00000022 .text             CDataHandlerComponent.obj(??R?$less@VCString@BigRedH@@@std@@QBE_NABVCString@BigRedH@@0@Z)
004da5a0 00000025 .text             CDataHandlerComponent.obj(??Rvalue_compare@?$map@VCString@BigRedH@@PAVCDataProvider@2@U?$less@VCString@BigRedH@@@std@@V?$allocator@U?$pair@$$CBVCString@BigRedH@@PAVCDataProvider@2@@std@@@5@@std@@QBE_NABVCString@...)
004da5d0 00000020 .text             CDataHandlerComponent.obj(?comp@?$__tree@U?$pair@$$CBVCString@BigRedH@@PAVCDataProvider@2@@std@@Vvalue_compare@?$map@VCString@BigRedH@@PAVCDataProvider@2@U?$less@VCString@BigRedH@@@std@@V?$allocator@U?$pair@$$CB...)
004da5f0 00000016 .text             CDataHandlerComponent.obj(?first@?$compressed_pair_imp@Vvalue_compare@?$map@VCString@BigRedH@@PAVCDataProvider@2@U?$less@VCString@BigRedH@@@std@@V?$allocator@U?$pair@$$CBVCString@BigRedH@@PAVCDataProvider@2@@std...)
004da610 0000008f .text             CDataHandlerComponent.obj(?substr@?$basic_string@_WU?$char_traits@_W@std@@V?$allocator@_W@2@@std@@QBE?AV12@II@Z)
004da6a0 00000020 .text             CDataHandlerComponent.obj(?min@?$@I@std@@YAABIABI0@Z)
004da6c0 0000001b .text             CDataHandlerComponent.obj(??1out_of_range@std@@UAE@XZ)
004da6e0 00000032 .text             CDataHandlerComponent.obj(??1logic_error@std@@UAE@XZ)
004da720 0000001e .text             CDataHandlerComponent.obj(??1_MSLstring@std@@QAE@XZ)
004da740 0000002c .text             CDataHandlerComponent.obj(??0out_of_range@std@@QAE@PBD@Z)
004da770 00000037 .text             CDataHandlerComponent.obj(??0logic_error@std@@QAE@PBD@Z)
004da7b0 00000047 .text             CDataHandlerComponent.obj(??0_MSLstring@std@@QAE@PBD@Z)
004da800 00000018 .text             CDataHandlerComponent.obj(??B?$_RefCountedPtr@DU?$_Array@D@std@@@std@@QBEPBDXZ)
004da820 000000b7 .text             CDataHandlerComponent.obj(?find@?$basic_string@_WU?$char_traits@_W@std@@V?$allocator@_W@2@@std@@QBEI_WI@Z)
004da8e0 00000021 .text             CDataHandlerComponent.obj(??M?$@V?$basic_string@_WU?$char_traits@_W@std@@V?$allocator@_W@2@@std@@PB$$CB_W@1@YA_NABV?$__wrap_iterator@V?$basic_string@_WU?$char_traits@_W@std@@V?$allocator@_W@2@@std@@PB$$CB_W@1@0@...)
004da910 0000004d .text             CDataHandlerComponent.obj(?end@?$basic_string@_WU?$char_traits@_W@std@@V?$allocator@_W@2@@std@@QBE?AV?$__wrap_iterator@V?$basic_string@_WU?$char_traits@_W@std@@V?$allocator@_W@2@@std@@PB$$CB_W@2@XZ)
004da960 0000001c .text             CDataHandlerComponent.obj(??E?$__wrap_iterator@V?$basic_string@_WU?$char_traits@_W@std@@V?$allocator@_W@2@@std@@PB$$CB_W@std@@QAEAAV01@XZ)
004da980 0000002a .text             CDataHandlerComponent.obj(??G?$@V?$basic_string@_WU?$char_traits@_W@std@@V?$allocator@_W@2@@std@@PB$$CB_WPB$$CB_W@1@YAJABV?$__wrap_iterator@V?$basic_string@_WU?$char_traits@_W@std@@V?$allocator@_W@2@@std@@PB$$CB...)
004da9b0 0000001c .text             CDataHandlerComponent.obj(?eq@?$char_traits@_W@std@@SA_NAB_W0@Z)
004da9d0 00000018 .text             CDataHandlerComponent.obj(??D?$__wrap_iterator@V?$basic_string@_WU?$char_traits@_W@std@@V?$allocator@_W@2@@std@@PB$$CB_W@std@@QBEAB_WXZ)
004da9f0 0000003c .text             CDataHandlerComponent.obj(??H?$__wrap_iterator@V?$basic_string@_WU?$char_traits@_W@std@@V?$allocator@_W@2@@std@@PB$$CB_W@std@@QBE?AV01@J@Z)
004daa30 00000023 .text             CDataHandlerComponent.obj(??Y?$__wrap_iterator@V?$basic_string@_WU?$char_traits@_W@std@@V?$allocator@_W@2@@std@@PB$$CB_W@std@@QAEAAV01@J@Z)
004daa60 00000022 .text             CDataHandlerComponent.obj(??0?$__wrap_iterator@V?$basic_string@_WU?$char_traits@_W@std@@V?$allocator@_W@2@@std@@PB$$CB_W@std@@QAE@ABV01@@Z)
004daa90 000000eb .text             CDataHandlerComponent.obj(?find@?$basic_string@_WU?$char_traits@_W@std@@V?$allocator@_W@2@@std@@QBEIPB_WII@Z)
004dab80 000000cd .text             CDataHandlerComponent.obj(?assign@?$basic_string@_WU?$char_traits@_W@std@@V?$allocator@_W@2@@std@@QAEAAV12@ABV12@II@Z)
004dac50 00000018 .text             CDataHandlerComponent.obj(?copy@?$char_traits@_W@std@@SAPA_WPA_WPB_WI@Z)
004dac70 00000019 .text             CDataHandlerComponent.obj(?__data@?$basic_string@_WU?$char_traits@_W@std@@V?$allocator@_W@2@@std@@AAEPA_WXZ)
004dac90 00000029 .text             CDataHandlerComponent.obj(?erase@?$basic_string@_WU?$char_traits@_W@std@@V?$allocator@_W@2@@std@@QAEAAV12@II@Z)
004dacc0 0000003a .text             CDataHandlerComponent.obj(??1?$basic_string@_WU?$char_traits@_W@std@@V?$allocator@_W@2@@std@@QAE@XZ)
004dad00 0000001e .text             CDataHandlerComponent.obj(?deallocate@?$allocator@_W@std@@QAEXPA_WI@Z)
004dad20 00000089 .text             CDataHandlerComponent.obj(??0?$basic_string@_WU?$char_traits@_W@std@@V?$allocator@_W@2@@std@@QAE@PB_WABV?$allocator@_W@1@@Z)
004dadb0 0000001b .text             CDataHandlerComponent.obj(??1length_error@std@@UAE@XZ)
004dadd0 0000002c .text             CDataHandlerComponent.obj(??0length_error@std@@QAE@PBD@Z)
004dae00 0000001c .text             CDataHandlerComponent.obj(?max_size@?$allocator@_W@std@@QBEIXZ)
004dae20 0000000a .text             CDataHandlerComponent.obj(?max@?$numeric_limits@I@std@@SAIXZ)
004dae30 000000b2 .text             CDataHandlerComponent.obj(??0?$basic_string@_WU?$char_traits@_W@std@@V?$allocator@_W@2@@std@@QAE@ABV01@IIABV?$allocator@_W@1@@Z)
004daef0 0000002e .text             CDataHandlerComponent.obj(?init@?$basic_string@_WU?$char_traits@_W@std@@V?$allocator@_W@2@@std@@AAEXPA_W0ABV?$allocator@_W@2@Urandom_access_iterator_tag@2@@Z)
004daf20 00000062 .text             CDataHandlerComponent.obj(??0?$basic_string@_WU?$char_traits@_W@std@@V?$allocator@_W@2@@std@@QAE@ABV01@@Z)
004daf90 00000029 .text             CDataHandlerComponent.obj(?get_allocator@?$basic_string@_WU?$char_traits@_W@std@@V?$allocator@_W@2@@std@@QBE?AV?$allocator@_W@2@XZ)
004dafc0 00000021 .text             CDataHandlerComponent.obj(??0?$_EmptyMemberOpt@V?$allocator@_W@std@@I@std@@QAE@ABU01@@Z)
004daff0 000000d1 .text             CDataHandlerComponent.obj(?erase@?$__list_deleter@PBXV?$allocator@PBX@std@@@std@@QAE?AV?$generic_iterator@$0A@@12@V312@0@Z)
004db0d0 0000001d .text             CDataHandlerComponent.obj(?sz@?$__list_deleter@PBXV?$allocator@PBX@std@@@std@@QAEAAIXZ)
004db0f0 00000016 .text             CDataHandlerComponent.obj(?second@?$compressed_pair_imp@V?$allocator@PBX@std@@I$00@details@Metrowerks@@QAEAAIXZ)
004db110 0000001e .text             CDataHandlerComponent.obj(?deallocate@?$allocator@Unode@?$__list_deleter@PBXV?$allocator@PBX@std@@@std@@@std@@QAEXPAUnode@?$__list_deleter@PBXV?$allocator@PBX@std@@@2@I@Z)
004db130 00000020 .text             CDataHandlerComponent.obj(?node_alloc@?$__list_deleter@PBXV?$allocator@PBX@std@@@std@@QAEAAV?$allocator@Unode@?$__list_deleter@PBXV?$allocator@PBX@std@@@std@@@2@XZ)
004db150 00000016 .text             CDataHandlerComponent.obj(?first@?$compressed_pair_imp@V?$allocator@Unode@?$__list_deleter@PBXV?$allocator@PBX@std@@@std@@@std@@Unode_base@?$__list_deleter@PBXV?$allocator@PBX@std@@@2@$00@details@Metrowerks@@QAE...)
004db170 00000015 .text             CDataHandlerComponent.obj(?destroy@?$allocator@PBX@std@@QAEXPAPBX@Z)
004db190 0000001d .text             CDataHandlerComponent.obj(?alloc@?$__list_deleter@PBXV?$allocator@PBX@std@@@std@@QAEAAV?$allocator@PBX@2@XZ)
004db1b0 00000016 .text             CDataHandlerComponent.obj(?first@?$compressed_pair_imp@V?$allocator@PBX@std@@I$00@details@Metrowerks@@QAEAAV?$allocator@PBX@std@@XZ)
004db1d0 00000025 .text             CDataHandlerComponent.obj(?remove_nodes@?$__list_deleter@PBXV?$allocator@PBX@std@@@std@@CAXPAUnode_base@12@0@Z)
004db200 0000000a .text             CDataHandlerComponent.obj(?__iterator2pointer@?$__list_deleter@PBXV?$allocator@PBX@std@@@std@@SAPAUnode@12@AAV?$generic_iterator@$0A@@12@@Z)
004db210 000000b0 .text             CDataHandlerComponent.obj(?insert@?$__list_deleter@PBXV?$allocator@PBX@std@@@std@@QAE?AV?$generic_iterator@$0A@@12@V312@ABQBX@Z)
004db2c0 00000044 .text             CDataHandlerComponent.obj(??1?$alloc_ptr@Unode@?$__list_deleter@PBXV?$allocator@PBX@std@@@std@@AAV?$allocator@Unode@?$__list_deleter@PBXV?$allocator@PBX@std@@@std@@@3@U?$number@I$00@Metrowerks@@@Metrowerks@@QAE@...)
004db310 0000002b .text             CDataHandlerComponent.obj(?capacity@?$alloc_ptr@Unode@?$__list_deleter@PBXV?$allocator@PBX@std@@@std@@AAV?$allocator@Unode@?$__list_deleter@PBXV?$allocator@PBX@std@@@std@@@3@U?$number@I$00@Metrowerks@@@Metrowerk...)
004db340 00000018 .text             CDataHandlerComponent.obj(??B?$number@I$00@Metrowerks@@QBEIXZ)
004db360 00000016 .text             CDataHandlerComponent.obj(?first@?$compressed_pair_imp@U?$number@I$00@Metrowerks@@PAUnode@?$__list_deleter@PBXV?$allocator@PBX@std@@@std@@$00@details@Metrowerks@@QBEABU?$number@I$00@3@XZ)
004db380 00000019 .text             CDataHandlerComponent.obj(?second@?$compressed_pair_imp@AAV?$allocator@Unode@?$__list_deleter@PBXV?$allocator@PBX@std@@@std@@@std@@V?$compressed_pair@U?$number@I$00@Metrowerks@@PAUnode@?$__list_deleter@PBXV?$all...)
004db3a0 0000001d .text             CDataHandlerComponent.obj(?allocator@?$alloc_ptr@Unode@?$__list_deleter@PBXV?$allocator@PBX@std@@@std@@AAV?$allocator@Unode@?$__list_deleter@PBXV?$allocator@PBX@std@@@std@@@3@U?$number@I$00@Metrowerks@@@Metrower...)
004db3c0 00000018 .text             CDataHandlerComponent.obj(?first@?$compressed_pair_imp@AAV?$allocator@Unode@?$__list_deleter@PBXV?$allocator@PBX@std@@@std@@@std@@V?$compressed_pair@U?$number@I$00@Metrowerks@@PAUnode@?$__list_deleter@PBXV?$allo...)
004db3e0 00000024 .text             CDataHandlerComponent.obj(?get@?$alloc_ptr@Unode@?$__list_deleter@PBXV?$allocator@PBX@std@@@std@@AAV?$allocator@Unode@?$__list_deleter@PBXV?$allocator@PBX@std@@@std@@@3@U?$number@I$00@Metrowerks@@@Metrowerks@@QB...)
004db410 00000016 .text             CDataHandlerComponent.obj(?second@?$compressed_pair_imp@U?$number@I$00@Metrowerks@@PAUnode@?$__list_deleter@PBXV?$allocator@PBX@std@@@std@@$00@details@Metrowerks@@QBEABQAUnode@?$__list_deleter@PBXV?$allocator@PB...)
004db430 00000015 .text             CDataHandlerComponent.obj(?__pointer2iterator@?$__list_deleter@PBXV?$allocator@PBX@std@@@std@@SA?AV?$generic_iterator@$0A@@12@PAUnode@12@@Z)
004db450 0000002b .text             CDataHandlerComponent.obj(?insert_nodes@?$__list_deleter@PBXV?$allocator@PBX@std@@@std@@CAXPAUnode_base@12@00@Z)
004db480 0000003a .text             CDataHandlerComponent.obj(?release@?$alloc_ptr@Unode@?$__list_deleter@PBXV?$allocator@PBX@std@@@std@@AAV?$allocator@Unode@?$__list_deleter@PBXV?$allocator@PBX@std@@@std@@@3@U?$number@I$00@Metrowerks@@@Metrowerks...)
004db4c0 00000016 .text             CDataHandlerComponent.obj(?second@?$compressed_pair_imp@U?$number@I$00@Metrowerks@@PAUnode@?$__list_deleter@PBXV?$allocator@PBX@std@@@std@@$00@details@Metrowerks@@QAEAAPAUnode@?$__list_deleter@PBXV?$allocator@PB...)
004db4e0 00000019 .text             CDataHandlerComponent.obj(?second@?$compressed_pair_imp@AAV?$allocator@Unode@?$__list_deleter@PBXV?$allocator@PBX@std@@@std@@@std@@V?$compressed_pair@U?$number@I$00@Metrowerks@@PAUnode@?$__list_deleter@PBXV?$all...)
004db500 00000056 .text             CDataHandlerComponent.obj(?construct@?$allocator@PBX@std@@QAEXPAPBXABQBX@Z)
004db560 00000005 .text             CDataHandlerComponent.obj(??3@YAXPAX0@Z)
004db570 00000008 .text             CDataHandlerComponent.obj(??2@YAPAXIPAX@Z)
004db580 0000001d .text             CDataHandlerComponent.obj(??C?$alloc_ptr@Unode@?$__list_deleter@PBXV?$allocator@PBX@std@@@std@@AAV?$allocator@Unode@?$__list_deleter@PBXV?$allocator@PBX@std@@@std@@@3@U?$number@I$00@Metrowerks@@@Metrowerks@@QBEP...)
004db5a0 00000037 .text             CDataHandlerComponent.obj(??0?$alloc_ptr@Unode@?$__list_deleter@PBXV?$allocator@PBX@std@@@std@@AAV?$allocator@Unode@?$__list_deleter@PBXV?$allocator@PBX@std@@@std@@@3@U?$number@I$00@Metrowerks@@@Metrowerks@@QAE@...)
004db5e0 00000026 .text             CDataHandlerComponent.obj(??0?$compressed_pair@AAV?$allocator@Unode@?$__list_deleter@PBXV?$allocator@PBX@std@@@std@@@std@@V?$compressed_pair@U?$number@I$00@Metrowerks@@PAUnode@?$__list_deleter@PBXV?$allocator@PB...)
004db610 0000002e .text             CDataHandlerComponent.obj(??0?$compressed_pair_imp@AAV?$allocator@Unode@?$__list_deleter@PBXV?$allocator@PBX@std@@@std@@@std@@V?$compressed_pair@U?$number@I$00@Metrowerks@@PAUnode@?$__list_deleter@PBXV?$allocato...)
004db640 00000023 .text             CDataHandlerComponent.obj(??0?$compressed_pair@U?$number@I$00@Metrowerks@@PAUnode@?$__list_deleter@PBXV?$allocator@PBX@std@@@std@@@Metrowerks@@QAE@ABV01@@Z)
004db670 00000022 .text             CDataHandlerComponent.obj(??0?$compressed_pair_imp@U?$number@I$00@Metrowerks@@PAUnode@?$__list_deleter@PBXV?$allocator@PBX@std@@@std@@$00@details@Metrowerks@@QAE@ABV012@@Z)
004db6a0 00000026 .text             CDataHandlerComponent.obj(??0?$compressed_pair@U?$number@I$00@Metrowerks@@PAUnode@?$__list_deleter@PBXV?$allocator@PBX@std@@@std@@@Metrowerks@@QAE@ABU?$number@I$00@1@PAUnode@?$__list_deleter@PBXV?$allocator@PBX@...)
004db6d0 0000002b .text             CDataHandlerComponent.obj(??0?$compressed_pair_imp@U?$number@I$00@Metrowerks@@PAUnode@?$__list_deleter@PBXV?$allocator@PBX@std@@@std@@$00@details@Metrowerks@@QAE@ABU?$number@I$00@2@PAUnode@?$__list_deleter@PBXV?...)
004db700 00000030 .text             CDataHandlerComponent.obj(?allocate@?$allocator@Unode@?$__list_deleter@PBXV?$allocator@PBX@std@@@std@@@std@@QAEPAUnode@?$__list_deleter@PBXV?$allocator@PBX@std@@@2@IPBX@Z)
004db730 00000064 .text             CDataHandlerComponent.obj(??0?$__list_deleter@PBXV?$allocator@PBX@std@@@std@@QAE@XZ)
004db7a0 00000023 .text             CDataHandlerComponent.obj(??0?$compressed_pair@V?$allocator@Unode@?$__list_deleter@PBXV?$allocator@PBX@std@@@std@@@std@@Unode_base@?$__list_deleter@PBXV?$allocator@PBX@std@@@2@@Metrowerks@@QAE@ABV?$allocator@Uno...)
004db7d0 00000023 .text             CDataHandlerComponent.obj(??0?$compressed_pair_imp@V?$allocator@Unode@?$__list_deleter@PBXV?$allocator@PBX@std@@@std@@@std@@Unode_base@?$__list_deleter@PBXV?$allocator@PBX@std@@@2@$00@details@Metrowerks@@QAE@ABV...)
004db800 00000018 .text             CDataHandlerComponent.obj(??0?$allocator@Unode@?$__list_deleter@PBXV?$allocator@PBX@std@@@std@@@std@@QAE@ABV01@@Z)
004db820 00000018 .text             CDataHandlerComponent.obj(??0?$@PBX@?$allocator@Unode@?$__list_deleter@PBXV?$allocator@PBX@std@@@std@@@std@@QAE@ABV?$allocator@PBX@1@@Z)
004db840 00000023 .text             CDataHandlerComponent.obj(??0?$compressed_pair@V?$allocator@PBX@std@@I@Metrowerks@@QAE@I@Z)
004db870 00000028 .text             CDataHandlerComponent.obj(??0?$compressed_pair_imp@V?$allocator@PBX@std@@I$00@details@Metrowerks@@QAE@I@Z)
004db8a0 00000016 .text             CDataHandlerComponent.obj(??0?$allocator@PBX@std@@QAE@XZ)
004db8c0 00000066 .text             CDataHandlerComponent.obj(?increment@?$__red_black_tree@$00@std@@KAXAAPBUnode_base@12@@Z)
004db930 0000001b .text             CDataHandlerComponent.obj(??C?$__pointer_plus_bit@Unode_base@?$__red_black_tree@$00@std@@@std@@QBEPAUnode_base@?$__red_black_tree@$00@1@XZ)
004db950 0000001b .text             CDataHandlerComponent.obj(??B?$__pointer_plus_bit@Unode_base@?$__red_black_tree@$00@std@@@std@@QBEPAUnode_base@?$__red_black_tree@$00@1@XZ)
004db970 0000001a .text             CDataHandlerComponent.obj(?leftmost@?$__red_black_tree@$00@std@@KAPAUnode_base@12@PAU312@@Z)
004db990 0000006b .text             CDataHandlerComponent.obj(?destroy@?$__tree@U?$pair@$$CBVCString@BigRedH@@PAVCDataProvider@2@@std@@Vvalue_compare@?$map@VCString@BigRedH@@PAVCDataProvider@2@U?$less@VCString@BigRedH@@@std@@V?$allocator@U?$pair@$...)
004dba00 0000001e .text             CDataHandlerComponent.obj(?deallocate@?$allocator@Unode@?$__tree@U?$pair@$$CBVCString@BigRedH@@PAVCDataProvider@2@@std@@Vvalue_compare@?$map@VCString@BigRedH@@PAVCDataProvider@2@U?$less@VCString@BigRedH@@@std@@V...)
004dba20 00000020 .text             CDataHandlerComponent.obj(?node_alloc@?$__tree@U?$pair@$$CBVCString@BigRedH@@PAVCDataProvider@2@@std@@Vvalue_compare@?$map@VCString@BigRedH@@PAVCDataProvider@2@U?$less@VCString@BigRedH@@@std@@V?$allocator@U?$pai...)
004dba40 00000016 .text             CDataHandlerComponent.obj(?first@?$compressed_pair_imp@V?$allocator@Unode@?$__tree@U?$pair@$$CBVCString@BigRedH@@PAVCDataProvider@2@@std@@Vvalue_compare@?$map@VCString@BigRedH@@PAVCDataProvider@2@U?$less@VCStrin...)
004dba60 0000001d .text             CDataHandlerComponent.obj(?destroy@?$allocator@U?$pair@$$CBVCString@BigRedH@@PAVCDataProvider@2@@std@@@std@@QAEXPAU?$pair@$$CBVCString@BigRedH@@PAVCDataProvider@2@@2@@Z)
004dba80 0000001d .text             CDataHandlerComponent.obj(?alloc@?$__tree@U?$pair@$$CBVCString@BigRedH@@PAVCDataProvider@2@@std@@Vvalue_compare@?$map@VCString@BigRedH@@PAVCDataProvider@2@U?$less@VCString@BigRedH@@@std@@V?$allocator@U?$pair@$$C...)
004dbaa0 00000016 .text             CDataHandlerComponent.obj(?first@?$compressed_pair_imp@V?$allocator@U?$pair@$$CBVCString@BigRedH@@PAVCDataProvider@2@@std@@@std@@I$00@details@Metrowerks@@QAEAAV?$allocator@U?$pair@$$CBVCString@BigRedH@@PAVCDataP...)
004dbac0 00000067 .text             CDataHandlerComponent.obj(??0?$__tree@U?$pair@$$CBVCString@BigRedH@@PAVCDataProvider@2@@std@@Vvalue_compare@?$map@VCString@BigRedH@@PAVCDataProvider@2@U?$less@VCString@BigRedH@@@std@@V?$allocator@U?$pair@$$CBVCS...)
004dbb30 00000023 .text             CDataHandlerComponent.obj(??0?$compressed_pair@Vvalue_compare@?$map@VCString@BigRedH@@PAVCDataProvider@2@U?$less@VCString@BigRedH@@@std@@V?$allocator@U?$pair@$$CBVCString@BigRedH@@PAVCDataProvider@2@@std@@@5@@st...)
004dbb60 00000023 .text             CDataHandlerComponent.obj(??0?$compressed_pair_imp@Vvalue_compare@?$map@VCString@BigRedH@@PAVCDataProvider@2@U?$less@VCString@BigRedH@@@std@@V?$allocator@U?$pair@$$CBVCString@BigRedH@@PAVCDataProvider@2@@std@@@5...)
004dbb90 00000023 .text             CDataHandlerComponent.obj(??0value_compare@?$map@VCString@BigRedH@@PAVCDataProvider@2@U?$less@VCString@BigRedH@@@std@@V?$allocator@U?$pair@$$CBVCString@BigRedH@@PAVCDataProvider@2@@std@@@5@@std@@QAE@ABV012@@Z)
004dbbc0 00000023 .text             CDataHandlerComponent.obj(??0?$compressed_pair@V?$allocator@Unode@?$__tree@U?$pair@$$CBVCString@BigRedH@@PAVCDataProvider@2@@std@@Vvalue_compare@?$map@VCString@BigRedH@@PAVCDataProvider@2@U?$less@VCString@BigRed...)
004dbbf0 0000002d .text             CDataHandlerComponent.obj(??0?$compressed_pair_imp@V?$allocator@Unode@?$__tree@U?$pair@$$CBVCString@BigRedH@@PAVCDataProvider@2@@std@@Vvalue_compare@?$map@VCString@BigRedH@@PAVCDataProvider@2@U?$less@VCString@Bi...)
004dbc20 00000020 .text             CDataHandlerComponent.obj(??0anchor@?$__red_black_tree@$00@std@@QAE@PAUnode_base@12@@Z)
004dbc40 00000018 .text             CDataHandlerComponent.obj(??0?$allocator@Unode@?$__tree@U?$pair@$$CBVCString@BigRedH@@PAVCDataProvider@2@@std@@Vvalue_compare@?$map@VCString@BigRedH@@PAVCDataProvider@2@U?$less@VCString@BigRedH@@@std@@V?$allocat...)
004dbc60 00000018 .text             CDataHandlerComponent.obj(??0?$@U?$pair@$$CBVCString@BigRedH@@PAVCDataProvider@2@@std@@@?$allocator@Unode@?$__tree@U?$pair@$$CBVCString@BigRedH@@PAVCDataProvider@2@@std@@Vvalue_compare@?$map@VCString@BigRedH@@PA...)
004dbc80 00000026 .text             CDataHandlerComponent.obj(??0?$compressed_pair@V?$allocator@U?$pair@$$CBVCString@BigRedH@@PAVCDataProvider@2@@std@@@std@@I@Metrowerks@@QAE@ABV?$allocator@U?$pair@$$CBVCString@BigRedH@@PAVCDataProvider@2@@std@@@s...)
004dbcb0 0000002b .text             CDataHandlerComponent.obj(??0?$compressed_pair_imp@V?$allocator@U?$pair@$$CBVCString@BigRedH@@PAVCDataProvider@2@@std@@@std@@I$00@details@Metrowerks@@QAE@ABV?$allocator@U?$pair@$$CBVCString@BigRedH@@PAVCDataProv...)
004dbce0 00000018 .text             CDataHandlerComponent.obj(??0?$allocator@U?$pair@$$CBVCString@BigRedH@@PAVCDataProvider@2@@std@@@std@@QAE@ABV01@@Z)
004dbd00 00000047 .text             CDataHandlerComponent.obj(??_Elength_error@std@@UAE@I@Z)
004dbd50 00000020 .text             CDataHandlerComponent.obj(?what@logic_error@std@@UBEPBDXZ)
004dbd70 0000001d .text             CDataHandlerComponent.obj(?c_str@_MSLstring@std@@QBEPBDXZ)
004dbd90 00000047 .text             CDataHandlerComponent.obj(??_Elogic_error@std@@UAE@I@Z)
004dbde0 00000047 .text             CDataHandlerComponent.obj(??_Eout_of_range@std@@UAE@I@Z)
004dbe30 00000043 .text             CDataHandlerComponent.obj(??1?$_RefCountedPtr@DU?$_Array@D@std@@@std@@QAE@XZ)
004dbe80 0000000e .text             CDataHandlerComponent.obj(?destroy@?$_Array@D@std@@SAXPAD@Z)
004dbe90 00000086 .text             CDataHandlerComponent.obj(??0?$_RefCountedPtr@DU?$_Array@D@std@@@std@@QAE@PAD@Z)
004dbf20 00000136 .text             CDataHandlerComponent.obj(?change_size@?$basic_string@_WU?$char_traits@_W@std@@V?$allocator@_W@2@@std@@AAEXI_N@Z)
004dc060 00000011 .text             CDataHandlerComponent.obj(?assign@?$char_traits@_W@std@@SAXAA_WAB_W@Z)
004dc080 00000018 .text             CDataHandlerComponent.obj(?copy@?$@_W@std@@YAPA_WPA_W00@Z)
004dc0a0 00000042 .text             CDataHandlerComponent.obj(?copy@?$__copy@_W$00$00@std@@SAPA_WPA_W00@Z)
004dc0f0 00000024 .text             CDataHandlerComponent.obj(?allocate@?$allocator@_W@std@@QAEPA_WIPBX@Z)
004dc120 00000020 .text             CDataHandlerComponent.obj(?max@?$@I@std@@YAABIABI0@Z)
004dc140 00000013 .text             CDataHandlerComponent.obj(?recommend@?$basic_string@_WU?$char_traits@_W@std@@V?$allocator@_W@2@@std@@CAII@Z)
004dc160 00000030 .text             CDataHandlerComponent.obj(?max_size@?$basic_string@_WU?$char_traits@_W@std@@V?$allocator@_W@2@@std@@QBEIXZ)
004dc190 000000b3 .text             CDataHandlerComponent.obj(?init@?$basic_string@_WU?$char_traits@_W@std@@V?$allocator@_W@2@@std@@AAEXPB_W0ABV?$allocator@_W@2@Urandom_access_iterator_tag@2@@Z)
004dc250 00000279 .text             CDataHandlerComponent.obj(?replace@?$basic_string@_WU?$char_traits@_W@std@@V?$allocator@_W@2@@std@@QAEAAV12@III_W@Z)
004dc4d0 00000018 .text             CDataHandlerComponent.obj(?move@?$char_traits@_W@std@@SAPA_WPA_WPB_WI@Z)
004dc4f0 0000001a .text             CDataHandlerComponent.obj(?assign@?$char_traits@_W@std@@SAPA_WPA_WI_W@Z)
004dc510 00000019 .text             CDataHandlerComponent.obj(?capacity@?$basic_string@_WU?$char_traits@_W@std@@V?$allocator@_W@2@@std@@QBEIXZ)
004dc530 00000136 .text             CDataHandlerComponent.obj(?insert_node_at@?$__tree@U?$pair@$$CBVCString@BigRedH@@PAVCDataProvider@2@@std@@Vvalue_compare@?$map@VCString@BigRedH@@PAVCDataProvider@2@U?$less@VCString@BigRedH@@@std@@V?$allocator@U?...)
004dc670 0000001d .text             CDataHandlerComponent.obj(?sz@?$__tree@U?$pair@$$CBVCString@BigRedH@@PAVCDataProvider@2@@std@@Vvalue_compare@?$map@VCString@BigRedH@@PAVCDataProvider@2@U?$less@VCString@BigRedH@@@std@@V?$allocator@U?$pair@$$CBVC...)
004dc690 00000016 .text             CDataHandlerComponent.obj(?second@?$compressed_pair_imp@V?$allocator@U?$pair@$$CBVCString@BigRedH@@PAVCDataProvider@2@@std@@@std@@I$00@details@Metrowerks@@QAEAAIXZ)
004dc6b0 00000028 .text             CDataHandlerComponent.obj(??4?$__pointer_plus_bit@Unode_base@?$__red_black_tree@$00@std@@@std@@QAEAAV01@PAUnode_base@?$__red_black_tree@$00@1@@Z)
004dc6e0 00000062 .text             CDataHandlerComponent.obj(?construct@?$allocator@U?$pair@$$CBVCString@BigRedH@@PAVCDataProvider@2@@std@@@std@@QAEXPAU?$pair@$$CBVCString@BigRedH@@PAVCDataProvider@2@@2@ABU32@@Z)
004dc750 00000036 .text             CDataHandlerComponent.obj(??0?$pair@$$CBVCString@BigRedH@@PAVCDataProvider@2@@std@@QAE@ABU01@@Z)
004dc790 00000030 .text             CDataHandlerComponent.obj(?allocate@?$allocator@Unode@?$__tree@U?$pair@$$CBVCString@BigRedH@@PAVCDataProvider@2@@std@@Vvalue_compare@?$map@VCString@BigRedH@@PAVCDataProvider@2@U?$less@VCString@BigRedH@@@std@@V?$...)
004dc7c0 0000001a .text             CDataHandlerComponent.obj(?max_size@?$__tree@U?$pair@$$CBVCString@BigRedH@@PAVCDataProvider@2@@std@@Vvalue_compare@?$map@VCString@BigRedH@@PAVCDataProvider@2@U?$less@VCString@BigRedH@@@std@@V?$allocator@U?$pair@...)
004dc7e0 0000001d .text             CDataHandlerComponent.obj(?size@?$__tree@U?$pair@$$CBVCString@BigRedH@@PAVCDataProvider@2@@std@@Vvalue_compare@?$map@VCString@BigRedH@@PAVCDataProvider@2@U?$less@VCString@BigRedH@@@std@@V?$allocator@U?$pair@$$CB...)
004dc800 0000001d .text             CDataHandlerComponent.obj(?sz@?$__tree@U?$pair@$$CBVCString@BigRedH@@PAVCDataProvider@2@@std@@Vvalue_compare@?$map@VCString@BigRedH@@PAVCDataProvider@2@U?$less@VCString@BigRedH@@@std@@V?$allocator@U?$pair@$$CBVC...)
004dc820 00000016 .text             CDataHandlerComponent.obj(?second@?$compressed_pair_imp@V?$allocator@U?$pair@$$CBVCString@BigRedH@@PAVCDataProvider@2@@std@@@std@@I$00@details@Metrowerks@@QBEABIXZ)
004dc840 00000269 .text             CDataHandlerComponent.obj(?balance_insert@?$__red_black_tree@$00@std@@KAXPAUnode_base@12@0@Z)
004dcab0 00000020 .text             CDataHandlerComponent.obj(?color@node_base@?$__red_black_tree@$00@std@@QBE?AW1Color@23@XZ)
004dcad0 0000001f .text             CDataHandlerComponent.obj(?bit@?$__pointer_plus_bit@Unode_base@?$__red_black_tree@$00@std@@@std@@QBE_NXZ)
004dcaf0 0000002b .text             CDataHandlerComponent.obj(?set_color@node_base@?$__red_black_tree@$00@std@@QAEXW1Color@23@@Z)
004dcb20 00000037 .text             CDataHandlerComponent.obj(?bit@?$__pointer_plus_bit@Unode_base@?$__red_black_tree@$00@std@@@std@@QAEX_N@Z)
004dcb60 000000ad .text             CDataHandlerComponent.obj(?rotate_right@?$__red_black_tree@$00@std@@CAXPAUnode_base@12@AAPAU312@@Z)
004dcc10 00000034 .text             CDataHandlerComponent.obj(??4?$__pointer_plus_bit@Unode_base@?$__red_black_tree@$00@std@@@std@@QAEAAV01@ABV01@@Z)
004dcc50 000000ab .text             CDataHandlerComponent.obj(?rotate_left@?$__red_black_tree@$00@std@@CAXPAUnode_base@12@AAPAU312@@Z)
004dcd00 00000028 .text             CDataHandlerComponent.obj
004dcd30 000000ac .text             deflate.obj(?flush_pending@@YAXPAUz_stream_s@@@Z)
004dcde0 0000008c .text             deflate.obj(?read_buf@@YAHPAUz_stream_s@@PAEI@Z)
004dce70 0000028c .text             deflate.obj(?longest_match@@YAIPAUinternal_state@@I@Z)
004dd100 000000a9 .text             deflate.obj(?check_match@@YAXPAUinternal_state@@IIH@Z)
004dd1b0 000001d6 .text             deflate.obj(?fill_window@@YAXPAUinternal_state@@@Z)
004dd390 000002ad .text             deflate.obj(?deflate_stored@@YA?AW1block_state@@PAUinternal_state@@H@Z)
004dd640 00000409 .text             deflate.obj(?deflate_fast@@YA?AW1block_state@@PAUinternal_state@@H@Z)
004dda50 00000560 .text             deflate.obj(?deflate_slow@@YA?AW1block_state@@PAUinternal_state@@H@Z)
004ddfb0 0000004d .text             UOleAutomation(W).obj(?CreateObject@UOleAutomation@@SA_NPA_WPAPAUIDispatch@@@Z)
004de000 0000009f .text             UOleAutomation(W).obj(?CreateObject@UOleAutomation@@SA_NAAU_GUID@@PAPAUIDispatch@@@Z)
004de0a0 00000548 .text             UOleAutomation(W).obj(?Invoke@UOleAutomation@@SA_NPAUIDispatch@@GPAUtagVARIANT@@PA_WPADZZ)
004de5f0 000002b8 .text             UOleAutomation(W).obj(?RegisterServer@UOleAutomation@@SA_NPBD0_N@Z)
004de8b0 000003c7 .text             UOleAutomation(W).obj(?IsRegisteredServer@UOleAutomation@@SA_NPBD0_N@Z)
004dec80 00000076 .text             UOleAutomation(W).obj(?_CountArgsInFormat@@YA_NPADPAK@Z)
004ded00 00000104 .text             UOleAutomation(W).obj(?_GetNextVarType@@YAPADPADPAG@Z)
004dee10 0000001f .text             UOleAutomation(W).obj(??0_DProtocolHandler@@QAE@XZ)
004dee30 000000af .text             UOleAutomation(W).obj(?Initialize@_DProtocolHandler@@UAGFPBD0@Z)
004deee0 000000d2 .text             UOleAutomation(W).obj(?Open@_DProtocolHandler@@UAGXPBD@Z)
004defc0 0000003e .text             UOleAutomation(W).obj(??0_DIProtocolUnknown@@QAE@XZ)
004df000 000000de .text             UOleAutomation(W).obj(?Create@_DIProtocolUnknown@@SAPAV1@XZ)
004df0e0 00000090 .text             UOleAutomation(W).obj(?QueryInterface@_DIProtocolUnknown@@UAGJABU_GUID@@PAPAX@Z)
004df170 00000013 .text             UOleAutomation(W).obj(?AddRef@_DIProtocolUnknown@@UAGKXZ)
004df190 0000002e .text             UOleAutomation(W).obj(?Release@_DIProtocolUnknown@@UAGKXZ)
004df1c0 00000029 .text             UOleAutomation(W).obj(??0_DIProtocolClassFactory@@QAE@XZ)
004df1f0 00000050 .text             UOleAutomation(W).obj(?Create@_DIProtocolClassFactory@@SAPAV1@XZ)
004df240 00000078 .text             UOleAutomation(W).obj(?QueryInterface@_DIProtocolClassFactory@@UAGJABU_GUID@@PAPAX@Z)
004df2c0 00000013 .text             UOleAutomation(W).obj(?AddRef@_DIProtocolClassFactory@@UAGKXZ)
004df2e0 0000002e .text             UOleAutomation(W).obj(?Release@_DIProtocolClassFactory@@UAGKXZ)
004df310 00000040 .text             UOleAutomation(W).obj(?CreateInstance@_DIProtocolClassFactory@@UAGJPAUIUnknown@@ABU_GUID@@PAPAX@Z)
004df350 0000000c .text             UOleAutomation(W).obj(?LockServer@_DIProtocolClassFactory@@UAGJH@Z)
004df360 00000104 .text             UOleAutomation(W).obj(?_InitInterfaceData@@YAXXZ)
004df470 00000148 .text             UOleAutomation(W).obj(?_InitOleAutomationServer@@YA_NXZ)
004df5c0 00000045 .text             UOleAutomation(W).obj(?_UninitInterfaceData@@YAXXZ)
004df610 0000007e .text             UOleAutomation(W).obj(?_UninitOleAutomationServer@@YAXXZ)
004df690 0000022d .text             UIDVarArray.obj(?GetItem@UIDVarArray@@SAKPBXKKPAXK@Z)
004df8c0 00000025 .text             excrtl.obj(?__SEHUnwindHandler@@YA?AW4_EXCEPTION_DISPOSITION@@PAU_EXCEPTION_RECORD@@PAUTryExceptFrame@@PAU_CONTEXT@@PAPAU3@@Z)
004df8f0 000000ee .text             excrtl.obj(?SEHUnwindState@@YAXPAUTryExceptFrame@@PAU_CONTEXT@@H@Z)
004df9e0 0000024c .text             excrtl.obj(___SEHFrameHandler)
004dfc30 0000000f .text             excrtl.obj
004dfc40 0000002d .text             exchand.obj(__MWCHandler)
004dfc70 00000049 .text             exchand.obj(__HandleUnexpectedSEHException)
004dfcc0 00000045 .text             startup.win32.obj(___dup_core)
004dfd10 000001e3 .text             startup.win32.obj(___set_errno)
004dff00 0000000a .text             startup.win32.obj(___get_MSL_init_count)
004dff10 0000017f .text             startup.win32.obj(__InitStdHandles)
004e0090 00000044 .text             startup.win32.obj(__CRTStartup)
004e00e0 00000041 .text             startup.win32.obj(___init_critical_regions)
004e0130 00000038 .text             setupargs.obj(__FreeCommandLine)
004e0170 00000019 .text             setupargs.obj(__MemFailure)
004e0190 00000060 .text             setupargs.obj(__MoreArgs)
004e01f0 0000016d .text             setupargs.obj(__ExpandArgument)
004e0360 000002d9 .text             setupargs.obj(__SetupArgs)
004e063a 00000006 .text             WSOCK32.dll(_WSACleanup@0)
004e0640 00000006 .text             WSOCK32.dll(_WSAStartup@8)
004e0646 00000006 .text             WSOCK32.dll(_socket@12)
004e064c 00000006 .text             WSOCK32.dll(_WSAGetLastError@0)
004e0652 00000006 .text             WSOCK32.dll(_setsockopt@20)
004e0658 00000006 .text             WSOCK32.dll(_closesocket@4)
004e065e 00000006 .text             WSOCK32.dll(_WSAAsyncSelect@16)
004e0664 00000006 .text             WSOCK32.dll(_WSACancelAsyncRequest@4)
004e066a 00000006 .text             WSOCK32.dll(_gethostname@8)
004e0670 00000006 .text             WSOCK32.dll(_gethostbyname@4)
004e0676 00000006 .text             WSOCK32.dll(_getsockname@12)
004e067c 00000006 .text             WSOCK32.dll(_WSAAsyncGetHostByName@20)
004e0682 00000006 .text             WSOCK32.dll(_htons@4)
004e0688 00000006 .text             WSOCK32.dll(_connect@12)
004e068e 00000006 .text             WSOCK32.dll(_shutdown@8)
004e0694 00000006 .text             WSOCK32.dll(_accept@12)
004e069a 00000006 .text             WSOCK32.dll(_send@16)
004e06a0 00000006 .text             WSOCK32.dll(_ioctlsocket@12)
004e06a6 00000006 .text             WSOCK32.dll(_recv@16)
004e06ac 00000006 .text             WSOCK32.dll(_sendto@24)
004e06b2 00000006 .text             WSOCK32.dll(_inet_addr@4)
004e06b8 00000006 .text             WSOCK32.dll(_ntohs@4)
004e06be 00000006 .text             WSOCK32.dll(_bind@12)
004e06d0 000002c7 .text             UGUID.obj(?ToText@UGUID@@SAKABUSGUID@@PAXK@Z)
004e09a0 0000016c .text             UGUID.obj(?FromText@UGUID@@SA_NAAUSGUID@@PBXK@Z)
004e0b10 00000035 .text             ThreadLocalData.obj(__InitializeThreadDataIndex)
004e0b50 00000230 .text             ThreadLocalData.obj(__InitializeThreadData)
004e0d80 00000024 .text             ThreadLocalData.obj(___end_critical_region)
004e0db0 00000024 .text             ThreadLocalData.obj(___begin_critical_region)
004e0de0 00000028 .text             ThreadLocalData.obj(__InitializeMainThreadData)
004e0e10 00000067 .text             ThreadLocalData.obj(__GetThreadLocalData)
004e0e80 00000012 .text             math_x87.obj(_atan)
004e0ea0 0000001f .text             math_x87.obj(_cos)
004e0ec0 0000001f .text             math_x87.obj(_sin)
004e0ee0 0000003a .text             math_x87.obj(_sqrt)
004e0f20 00000337 .text             UScrollBar(W).obj(?UScrollBar_Draw@@YAXPAVTImageObj@@ABVSRect@@ABUSScrollBarInfo@@K@Z)
004e1260 000002f0 .text             UScrollBar(W).obj(?UScrollBar_DrawDisabled@@YAXPAVTImageObj@@ABVSRect@@ABUSScrollBarInfo@@@Z)
004e1550 00000159 .text             UScrollBar(W).obj(?_SBDrawBox@@YAXPAUHDC__@@PBUtagRECT@@@Z)
004e16b0 0000006d .text             UScrollBar(W).obj(?_SBDrawBoxHilited@@YAXPAUHDC__@@PBUtagRECT@@@Z)
004e1720 000000de .text             UScrollBar(W).obj(?_SBDrawBkgndBox@@YAXPAUHDC__@@PBUtagRECT@@_N@Z)
004e1800 0000012b .text             UScrollBar(W).obj(?_SBDrawDownArrow@@YAXPAUHDC__@@PBUtagRECT@@PAUHPEN__@@@Z)
004e1930 0000012b .text             UScrollBar(W).obj(?_SBDrawUpArrow@@YAXPAUHDC__@@PBUtagRECT@@PAUHPEN__@@@Z)
004e1a60 0000012b .text             UScrollBar(W).obj(?_SBDrawLeftArrow@@YAXPAUHDC__@@PBUtagRECT@@PAUHPEN__@@@Z)
004e1b90 0000012b .text             UScrollBar(W).obj(?_SBDrawRightArrow@@YAXPAUHDC__@@PBUtagRECT@@PAUHPEN__@@@Z)
004e1cc0 000001b2 .text             UCheckBox(W).obj(?UCheckBox_Draw@@YAXPAVTImageObj@@ABVSRect@@ABUSCheckBoxInfo@@@Z)
004e1e80 00000205 .text             UCheckBox(W).obj(?UCheckBox_DrawFocused@@YAXPAVTImageObj@@ABVSRect@@ABUSCheckBoxInfo@@@Z)
004e2090 00000205 .text             UCheckBox(W).obj(?UCheckBox_DrawHilited@@YAXPAVTImageObj@@ABVSRect@@ABUSCheckBoxInfo@@@Z)
004e22a0 000001fb .text             UCheckBox(W).obj(?UCheckBox_DrawDisabled@@YAXPAVTImageObj@@ABVSRect@@ABUSCheckBoxInfo@@@Z)
004e24a0 00000062 .text             UButton(W).obj(?UButton_Draw@@YAXPAVTImageObj@@ABVSRect@@ABUSButtonInfo@@@Z)
004e2510 00000062 .text             UButton(W).obj(?UButton_DrawFocused@@YAXPAVTImageObj@@ABVSRect@@ABUSButtonInfo@@@Z)
004e2580 00000027 .text             UButton(W).obj(?UButton_DrawHilited@@YAXPAVTImageObj@@ABVSRect@@ABUSButtonInfo@@@Z)
004e25b0 00000029 .text             UButton(W).obj(?UButton_DrawDisabled@@YAXPAVTImageObj@@ABVSRect@@ABUSButtonInfo@@@Z)
004e25e0 00000147 .text             UButton(W).obj(?_DrawButton@@YAXPAUHDC__@@PBUtagRECT@@PBXK_N3@Z)
004e2730 000000e2 .text             UButton(W).obj(?_DrawButtonHilited@@YAXPAUHDC__@@PBUtagRECT@@PBXK_N@Z)
004e2820 00000229 .text             UButton(W).obj(?_DrawButtonDefault@@YAXPAUHDC__@@PBUtagRECT@@PBXK_N@Z)
004e2a50 00000018 .text             UIconButton(W).obj(?UIconButton_Draw@@YAXPAVTImageObj@@ABVSRect@@ABUSIconButtonInfo@@@Z)
004e2a70 00000018 .text             UIconButton(W).obj(?UIconButton_DrawFocused@@YAXPAVTImageObj@@ABVSRect@@ABUSIconButtonInfo@@@Z)
004e2a90 0000014f .text             UIconButton(W).obj(?UIconButton_DrawHilited@@YAXPAVTImageObj@@ABVSRect@@ABUSIconButtonInfo@@@Z)
004e2be0 000001a5 .text             UIconButton(W).obj(?UIconButton_DrawDisabled@@YAXPAVTImageObj@@ABVSRect@@ABUSIconButtonInfo@@@Z)
004e2d90 00000165 .text             UIconButton(W).obj(?_DrawIconButton@@YAXPAVTImageObj@@ABVSRect@@ABUSIconButtonInfo@@_N@Z)
004e2f00 0000002e .text             jmemmgr.obj(?out_of_memory@@YAXPAUjpeg_common_struct@@H@Z)
004e2f30 000001ae .text             jmemmgr.obj(?alloc_small@@YAPAXPAUjpeg_common_struct@@HI@Z)
004e30e0 000000ea .text             jmemmgr.obj(?alloc_large@@YAPAXPAUjpeg_common_struct@@HI@Z)
004e31d0 0000011f .text             jmemmgr.obj(?alloc_sarray@@YAPAPAEPAUjpeg_common_struct@@HGG@Z)
004e32f0 00000128 .text             jmemmgr.obj(?alloc_barray@@YAPAPAY0EA@FPAUjpeg_common_struct@@HGG@Z)
004e3420 000000ad .text             jmemmgr.obj(?request_virt_sarray@@YAPAUjvirt_sarray_control@@PAUjpeg_common_struct@@H_NGGG@Z)
004e34d0 000000ad .text             jmemmgr.obj(?request_virt_barray@@YAPAUjvirt_barray_control@@PAUjpeg_common_struct@@H_NGGG@Z)
004e3580 000002f9 .text             jmemmgr.obj(?realize_virt_arrays@@YAXPAUjpeg_common_struct@@@Z)
004e3880 0000013e .text             jmemmgr.obj(?do_sarray_io@@YAXPAUjpeg_common_struct@@PAUjvirt_sarray_control@@_N@Z)
004e39c0 00000141 .text             jmemmgr.obj(?do_barray_io@@YAXPAUjpeg_common_struct@@PAUjvirt_barray_control@@_N@Z)
004e3b10 0000020e .text             jmemmgr.obj(?access_virt_sarray@@YAPAPAEPAUjpeg_common_struct@@PAUjvirt_sarray_control@@GG_N@Z)
004e3d20 00000211 .text             jmemmgr.obj(?access_virt_barray@@YAPAPAY0EA@FPAUjpeg_common_struct@@PAUjvirt_barray_control@@GG_N@Z)
004e3f40 000001aa .text             jmemmgr.obj(?free_pool@@YAXPAUjpeg_common_struct@@H@Z)
004e40f0 00000055 .text             jmemmgr.obj(?self_destruct@@YAXPAUjpeg_common_struct@@@Z)
004e4150 00000171 .text             jmemmgr.obj(?jinit_memory_mgr@@YAXPAUjpeg_common_struct@@@Z)
004e42d0 00000113 .text             jdmarker.obj(?get_soi@@YA_NPAUjpeg_decompress_struct@@@Z)
004e43f0 000004ef .text             jdmarker.obj(?get_sof@@YA_NPAUjpeg_decompress_struct@@_N1@Z)
004e48e0 00000453 .text             jdmarker.obj(?get_sos@@YA_NPAUjpeg_decompress_struct@@@Z)
004e4d40 00000539 .text             jdmarker.obj(?get_dht@@YA_NPAUjpeg_decompress_struct@@@Z)
004e5280 000003ae .text             jdmarker.obj(?get_dqt@@YA_NPAUjpeg_decompress_struct@@@Z)
004e5630 00000197 .text             jdmarker.obj(?get_dri@@YA_NPAUjpeg_decompress_struct@@@Z)
004e57d0 0000037b .text             jdmarker.obj(?examine_app0@@YAXPAUjpeg_decompress_struct@@PAEIJ@Z)
004e5b50 00000141 .text             jdmarker.obj(?examine_app14@@YAXPAUjpeg_decompress_struct@@PAEIJ@Z)
004e5ca0 000001d4 .text             jdmarker.obj(?get_interesting_appn@@YA_NPAUjpeg_decompress_struct@@@Z)
004e5e80 0000011c .text             jdmarker.obj(?skip_variable@@YA_NPAUjpeg_decompress_struct@@@Z)
004e5fa0 000001c3 .text             jdmarker.obj(?next_marker@@YA_NPAUjpeg_decompress_struct@@@Z)
004e6170 00000113 .text             jdmarker.obj(?first_marker@@YA_NPAUjpeg_decompress_struct@@@Z)
004e6290 000003c0 .text             jdmarker.obj(?read_markers@@YAHPAUjpeg_decompress_struct@@@Z)
004e6650 000000d0 .text             jdmarker.obj(?read_restart_marker@@YA_NPAUjpeg_decompress_struct@@@Z)
004e6720 00000178 .text             jdmarker.obj(?jpeg_resync_to_restart@@YA_NPAUjpeg_decompress_struct@@H@Z)
004e68a0 00000065 .text             jdmarker.obj(?reset_marker_reader@@YAXPAUjpeg_decompress_struct@@@Z)
004e6910 000000b9 .text             jdmarker.obj(?jinit_marker_reader@@YAXPAUjpeg_decompress_struct@@@Z)
004e69d0 00000308 .text             jdinput.obj(?initial_setup@@YAXPAUjpeg_decompress_struct@@@Z)
004e6ce0 000002b1 .text             jdinput.obj(?per_scan_setup@@YAXPAUjpeg_decompress_struct@@@Z)
004e6fa0 000000d7 .text             jdinput.obj(?latch_quant_tables@@YAXPAUjpeg_decompress_struct@@@Z)
004e7080 00000053 .text             jdinput.obj(?start_input_pass@@YAXPAUjpeg_decompress_struct@@@Z)
004e70e0 00000014 .text             jdinput.obj(?finish_input_pass@@YAXPAUjpeg_decompress_struct@@@Z)
004e7100 000000ff .text             jdinput.obj(?consume_markers@@YAHPAUjpeg_decompress_struct@@@Z)
004e7200 00000064 .text             jdinput.obj(?reset_input_controller@@YAXPAUjpeg_decompress_struct@@@Z)
004e7270 00000072 .text             jdinput.obj(?jinit_input_controller@@YAXPAUjpeg_decompress_struct@@@Z)
004e72f0 00000073 .text             jcomapi.obj(?jpeg_abort@@YAXPAUjpeg_common_struct@@@Z)
004e7370 00000034 .text             jcomapi.obj(?jpeg_destroy@@YAXPAUjpeg_common_struct@@@Z)
004e73b0 0000003a .text             jcomapi.obj(?jpeg_alloc_quant_table@@YAPAUJQUANT_TBL@@PAUjpeg_common_struct@@@Z)
004e73f0 0000003a .text             jcomapi.obj(?jpeg_alloc_huff_table@@YAPAUJHUFF_TBL@@PAUjpeg_common_struct@@@Z)
004e7430 00000113 .text             jdmaster.obj(?use_merged_upsample@@YA_NPAUjpeg_decompress_struct@@@Z)
004e7550 00000326 .text             jdmaster.obj(?jpeg_calc_output_dimensions@@YAXPAUjpeg_decompress_struct@@@Z)
004e7880 000000d4 .text             jdmaster.obj(?prepare_range_limit_table@@YAXPAUjpeg_decompress_struct@@@Z)
004e7960 0000032a .text             jdmaster.obj(?master_selection@@YAXPAUjpeg_decompress_struct@@@Z)
004e7c90 000001f4 .text             jdmaster.obj(?prepare_for_output_pass@@YAXPAUjpeg_decompress_struct@@@Z)
004e7e90 00000040 .text             jdmaster.obj(?finish_output_pass@@YAXPAUjpeg_decompress_struct@@@Z)
004e7ed0 00000059 .text             jdmaster.obj(?jinit_master_decompress@@YAXPAUjpeg_decompress_struct@@@Z)
004e7f30 0000007b .text             QTDispatcher.obj(?DataHandlerOpen@BigRedH@@YAJPAVCDataHandlerConnection@1@PAUComponentInstanceRecord@@@Z)
004e7fb0 00000060 .text             QTDispatcher.obj(?DataHandlerClose@BigRedH@@YAJPAVCDataHandlerConnection@1@PAUComponentInstanceRecord@@@Z)
004e8010 00000062 .text             QTDispatcher.obj(?DataHandlerCanDo@BigRedH@@YAJPAVCDataHandlerConnection@1@F@Z)
004e8080 0000005a .text             QTDispatcher.obj(?DataHandlerVersion@BigRedH@@YAJPAVCDataHandlerConnection@1@@Z)
004e80e0 00000078 .text             QTDispatcher.obj(?DataHandlerCanUseDataRef@BigRedH@@YAJPAVCDataHandlerConnection@1@PAPADPAJ@Z)
004e8160 00000059 .text             QTDispatcher.obj(?DataHandlerSetDataRef@BigRedH@@YAJPAVCDataHandlerConnection@1@PAPAD@Z)
004e81c0 00000059 .text             QTDispatcher.obj(?DataHandlerGetFileName@BigRedH@@YAJPAVCDataHandlerConnection@1@PAE@Z)
004e8220 00000059 .text             QTDispatcher.obj(?DataHandlerGetMimeType@BigRedH@@YAJPAVCDataHandlerConnection@1@PAE@Z)
004e8280 00000059 .text             QTDispatcher.obj(?DataHandlerGetFileType@BigRedH@@YAJPAVCDataHandlerConnection@1@PAK@Z)
004e82e0 00000059 .text             QTDispatcher.obj(?DataHandlerGetAvailableFileSize@BigRedH@@YAJPAVCDataHandlerConnection@1@PAJ@Z)
004e8340 00000059 .text             QTDispatcher.obj(?DataHandlerGetFileSize@BigRedH@@YAJPAVCDataHandlerConnection@1@PAJ@Z)
004e83a0 00000056 .text             QTDispatcher.obj(?DataHandlerOpenForRead@BigRedH@@YAJPAVCDataHandlerConnection@1@@Z)
004e8400 00000056 .text             QTDispatcher.obj(?DataHandlerCloseForRead@BigRedH@@YAJPAVCDataHandlerConnection@1@@Z)
004e8460 00000062 .text             QTDispatcher.obj(?DataHandlerGetScheduleAheadTime@BigRedH@@YAJPAVCDataHandlerConnection@1@PAJ@Z)
004e84d0 00000061 .text             QTDispatcher.obj(?DataHandlerCompareDataRef@BigRedH@@YAJPAVCDataHandlerConnection@1@PAPADPAE@Z)
004e8540 00000056 .text             QTDispatcher.obj(?DataHandlerDataTask@BigRedH@@YAJPAVCDataHandlerConnection@1@@Z)
004e85a0 00000068 .text             QTDispatcher.obj(?DataHandlerScheduleData@BigRedH@@YAJPAVCDataHandlerConnection@1@PADJJJPAUDataHScheduleRecord@@P6AX1JF@Z@Z)
004e8610 0000005e .text             QTDispatcher.obj(?DataHandlerFinishData@BigRedH@@YAJPAVCDataHandlerConnection@1@PADE@Z)
004e8670 00000056 .text             QTDispatcher.obj(?DataHandlerFlushData@BigRedH@@YAJPAVCDataHandlerConnection@1@@Z)
004e86d0 00000074 .text             CMutex_W.obj(??0CMutex@BigRedH@@QAE@XZ)
004e8750 00000027 .text             CMutex_W.obj(??1CThreadException@BigRedH@@UAE@XZ)
004e8780 0000003f .text             CMutex_W.obj(??0CThreadException@BigRedH@@QAE@W1ETask@01@W5EAWError@UAWError@1@PBDHK@Z)
004e87c0 0000006d .text             CMutex_W.obj(??1CMutex@BigRedH@@QAE@XZ)
004e8830 0000000b .text             CMutex_W.obj(?Breakpoint@UDebug@BigRedH@@SAXXZ)
004e8840 00000056 .text             CMutex_W.obj(?Acquire@CMutex@BigRedH@@QAEXXZ)
004e88a0 0000004d .text             CMutex_W.obj(?Release@CMutex@BigRedH@@QAEXXZ)
004e88f0 00000058 .text             CMutex_W.obj(??_ECThreadException@BigRedH@@UAE@I@Z)
004e8950 0000002d .text             UNetUtil_W.obj(?StartNetworking@UNetUtil@BigRedH@@SAXXZ)
004e8980 0000000a .text             UNetUtil_W.obj(?StopNetworking@UNetUtil@BigRedH@@SAXXZ)
004e8990 00000046 .text             CThreadManager.obj(?Instance@CThreadManager@BigRedH@@SAAAV12@XZ)
004e89e0 00000018 .text             CThreadManager.obj(??D?$auto_ptr@VCThreadManager@BigRedH@@@std@@QBEAAVCThreadManager@BigRedH@@XZ)
004e8a00 00000033 .text             CThreadManager.obj(?reset@?$auto_ptr@VCThreadManager@BigRedH@@@std@@QAEXPAVCThreadManager@BigRedH@@@Z)
004e8a40 00000058 .text             CThreadManager.obj(??_ECThreadManager@BigRedH@@QAE@I@Z)
004e8aa0 00000018 .text             CThreadManager.obj(?get@?$auto_ptr@VCThreadManager@BigRedH@@@std@@QBEPAVCThreadManager@BigRedH@@XZ)
004e8ac0 00000022 .text             CThreadManager.obj(??1?$auto_ptr@VCThreadManager@BigRedH@@@std@@QAE@XZ)
004e8af0 00000020 .text             CThreadManager.obj(??0?$auto_ptr@VCThreadManager@BigRedH@@@std@@QAE@PAVCThreadManager@BigRedH@@@Z)
004e8b10 0000002e .text             CThreadManager.obj(??0CThreadManager@BigRedH@@AAE@XZ)
004e8b40 0000001e .text             CThreadManager.obj(??1?$map@PAXPAVCThread@BigRedH@@U?$less@PAX@std@@V?$allocator@U?$pair@QAXPAVCThread@BigRedH@@@std@@@4@@std@@QAE@XZ)
004e8b60 00000035 .text             CThreadManager.obj(??1?$__tree@U?$pair@QAXPAVCThread@BigRedH@@@std@@Vvalue_compare@?$map@PAXPAVCThread@BigRedH@@U?$less@PAX@std@@V?$allocator@U?$pair@QAXPAVCThread@BigRedH@@@std@@@4@@2@V?$allocator@U?$pair@QAXPA...)
004e8ba0 0000001d .text             CThreadManager.obj(?root@?$__tree@U?$pair@QAXPAVCThread@BigRedH@@@std@@Vvalue_compare@?$map@PAXPAVCThread@BigRedH@@U?$less@PAX@std@@V?$allocator@U?$pair@QAXPAVCThread@BigRedH@@@std@@@4@@2@V?$allocator@U?$pair@QA...)
004e8bc0 00000020 .text             CThreadManager.obj(?tail@?$__tree@U?$pair@QAXPAVCThread@BigRedH@@@std@@Vvalue_compare@?$map@PAXPAVCThread@BigRedH@@U?$less@PAX@std@@V?$allocator@U?$pair@QAXPAVCThread@BigRedH@@@std@@@4@@2@V?$allocator@U?$pair@QA...)
004e8be0 00000016 .text             CThreadManager.obj(?second@?$compressed_pair_imp@V?$allocator@Unode@?$__tree@U?$pair@QAXPAVCThread@BigRedH@@@std@@Vvalue_compare@?$map@PAXPAVCThread@BigRedH@@U?$less@PAX@std@@V?$allocator@U?$pair@QAXPAVCThread@B...)
004e8c00 00000034 .text             CThreadManager.obj(??0?$map@PAXPAVCThread@BigRedH@@U?$less@PAX@std@@V?$allocator@U?$pair@QAXPAVCThread@BigRedH@@@std@@@4@@std@@QAE@XZ)
004e8c40 00000016 .text             CThreadManager.obj(??0?$allocator@U?$pair@QAXPAVCThread@BigRedH@@@std@@@std@@QAE@XZ)
004e8c60 00000016 .text             CThreadManager.obj(??0value_compare@?$map@PAXPAVCThread@BigRedH@@U?$less@PAX@std@@V?$allocator@U?$pair@QAXPAVCThread@BigRedH@@@std@@@4@@std@@IAE@XZ)
004e8c80 00000029 .text             CThreadManager.obj(??1CThreadManager@BigRedH@@QAE@XZ)
004e8cb0 00000095 .text             CThreadManager.obj(?GetCurrentThread@CThreadManager@BigRedH@@QAEPAVCThread@2@XZ)
004e8d50 00000025 .text             CThreadManager.obj(??A?$map@PAXPAVCThread@BigRedH@@U?$less@PAX@std@@V?$allocator@U?$pair@QAXPAVCThread@BigRedH@@@std@@@4@@std@@QAEAAPAVCThread@BigRedH@@ABQAX@Z)
004e8d80 00000019 .text             CThreadManager.obj(??9std@@YA_NABV?$__generic_iterator@$0A@@?$__tree@U?$pair@QAXPAVCThread@BigRedH@@@std@@Vvalue_compare@?$map@PAXPAVCThread@BigRedH@@U?$less@PAX@std@@V?$allocator@U?$pair@QAXPAVCThread@BigRedH@@...)
004e8da0 00000026 .text             CThreadManager.obj(?end@?$map@PAXPAVCThread@BigRedH@@U?$less@PAX@std@@V?$allocator@U?$pair@QAXPAVCThread@BigRedH@@@std@@@4@@std@@QAE?AV?$__generic_iterator@$0A@@?$__tree@U?$pair@QAXPAVCThread@BigRedH@@@std@@Vval...)
004e8dd0 0000002e .text             CThreadManager.obj(?end@?$__tree@U?$pair@QAXPAVCThread@BigRedH@@@std@@Vvalue_compare@?$map@PAXPAVCThread@BigRedH@@U?$less@PAX@std@@V?$allocator@U?$pair@QAXPAVCThread@BigRedH@@@std@@@4@@2@V?$allocator@U?$pair@QAX...)
004e8e00 00000015 .text             CThreadManager.obj(?__pointer2iterator@?$__tree@U?$pair@QAXPAVCThread@BigRedH@@@std@@Vvalue_compare@?$map@PAXPAVCThread@BigRedH@@U?$less@PAX@std@@V?$allocator@U?$pair@QAXPAVCThread@BigRedH@@@std@@@4@@2@V?$alloca...)
004e8e20 00000020 .text             CThreadManager.obj(??0?$__generic_iterator@$0A@@?$__tree@U?$pair@QAXPAVCThread@BigRedH@@@std@@Vvalue_compare@?$map@PAXPAVCThread@BigRedH@@U?$less@PAX@std@@V?$allocator@U?$pair@QAXPAVCThread@BigRedH@@@std@@@4@@2@...)
004e8e40 00000029 .text             CThreadManager.obj(?find@?$map@PAXPAVCThread@BigRedH@@U?$less@PAX@std@@V?$allocator@U?$pair@QAXPAVCThread@BigRedH@@@std@@@4@@std@@QAE?AV?$__generic_iterator@$0A@@?$__tree@U?$pair@QAXPAVCThread@BigRedH@@@std@@Vva...)
004e8e70 00000044 .text             CThreadManager.obj(?AddThread@CThreadManager@BigRedH@@QAEXPAVCThread@2@@Z)
004e8ec0 0000003f .text             CThreadManager.obj(?RemoveThread@CThreadManager@BigRedH@@QAEXPAVCThread@2@@Z)
004e8f00 00000022 .text             CThreadManager.obj(?erase@?$map@PAXPAVCThread@BigRedH@@U?$less@PAX@std@@V?$allocator@U?$pair@QAXPAVCThread@BigRedH@@@std@@@4@@std@@QAEIABQAX@Z)
004e8f30 0000001f .text             CThreadManager.obj(??E?$__generic_iterator@$0A@@?$__tree@U?$pair@QAXPAVCThread@BigRedH@@@std@@Vvalue_compare@?$map@PAXPAVCThread@BigRedH@@U?$less@PAX@std@@V?$allocator@U?$pair@QAXPAVCThread@BigRedH@@@std@@@4@@2@...)
004e8f50 00000022 .text             CThreadManager.obj(??0?$__generic_iterator@$0A@@?$__tree@U?$pair@QAXPAVCThread@BigRedH@@@std@@Vvalue_compare@?$map@PAXPAVCThread@BigRedH@@U?$less@PAX@std@@V?$allocator@U?$pair@QAXPAVCThread@BigRedH@@@std@@@4@@2@...)
004e8f80 0000002f .text             CThreadManager.obj(?begin@?$__tree@U?$pair@QAXPAVCThread@BigRedH@@@std@@Vvalue_compare@?$map@PAXPAVCThread@BigRedH@@U?$less@PAX@std@@V?$allocator@U?$pair@QAXPAVCThread@BigRedH@@@std@@@4@@2@V?$allocator@U?$pair@Q...)
004e8fb0 00000020 .text             CThreadManager.obj(?front@?$__tree@U?$pair@QAXPAVCThread@BigRedH@@@std@@Vvalue_compare@?$map@PAXPAVCThread@BigRedH@@U?$less@PAX@std@@V?$allocator@U?$pair@QAXPAVCThread@BigRedH@@@std@@@4@@2@V?$allocator@U?$pair@Q...)
004e8fd0 00000019 .text             CThreadManager.obj(?second@?$compressed_pair_imp@Vvalue_compare@?$map@PAXPAVCThread@BigRedH@@U?$less@PAX@std@@V?$allocator@U?$pair@QAXPAVCThread@BigRedH@@@std@@@4@@std@@PAUnode@?$__tree@U?$pair@QAXPAVCThread@Big...)
004e8ff0 00000058 .text             CThreadManager.obj(??_ECThread@BigRedH@@UAE@I@Z)
004e9050 00000016 .text             CThreadManager.obj(??0?$generic_iterator@$0A@@?$__list_deleter@PBXV?$allocator@PBX@std@@@std@@QAE@XZ)
004e9070 0000001d .text             CThreadManager.obj(?sz@?$__tree@U?$pair@QAXPAVCThread@BigRedH@@@std@@Vvalue_compare@?$map@PAXPAVCThread@BigRedH@@U?$less@PAX@std@@V?$allocator@U?$pair@QAXPAVCThread@BigRedH@@@std@@@4@@2@V?$allocator@U?$pair@QAXP...)
004e9090 00000016 .text             CThreadManager.obj(?second@?$compressed_pair_imp@V?$allocator@U?$pair@QAXPAVCThread@BigRedH@@@std@@@std@@I$00@details@Metrowerks@@QBEABIXZ)
004e90b0 0000006f .text             CThreadManager.obj(?erase_one@?$@PAX@?$__tree@U?$pair@QAXPAVCThread@BigRedH@@@std@@Vvalue_compare@?$map@PAXPAVCThread@BigRedH@@U?$less@PAX@std@@V?$allocator@U?$pair@QAXPAVCThread@BigRedH@@@std@@@4@@2@V?$allocato...)
004e9120 000000f6 .text             CThreadManager.obj(?find_or_insert@?$@PAXPAVCThread@BigRedH@@@?$__tree@U?$pair@QAXPAVCThread@BigRedH@@@std@@Vvalue_compare@?$map@PAXPAVCThread@BigRedH@@U?$less@PAX@std@@V?$allocator@U?$pair@QAXPAVCThread@BigRedH...)
004e9220 0000002d .text             CThreadManager.obj(??0?$pair@QAXPAVCThread@BigRedH@@@std@@QAE@ABQAXABQAVCThread@BigRedH@@@Z)
004e9250 00000025 .text             CThreadManager.obj(??Rvalue_compare@?$map@PAXPAVCThread@BigRedH@@U?$less@PAX@std@@V?$allocator@U?$pair@QAXPAVCThread@BigRedH@@@std@@@4@@std@@QBE_NABU?$pair@QAXPAVCThread@BigRedH@@@2@ABQAX@Z)
004e9280 00000029 .text             CThreadManager.obj(??R?$less@PAX@std@@QBE_NABQAX0@Z)
004e92b0 00000025 .text             CThreadManager.obj(??Rvalue_compare@?$map@PAXPAVCThread@BigRedH@@U?$less@PAX@std@@V?$allocator@U?$pair@QAXPAVCThread@BigRedH@@@std@@@4@@std@@QBE_NABQAXABU?$pair@QAXPAVCThread@BigRedH@@@2@@Z)
004e92e0 00000020 .text             CThreadManager.obj(?comp@?$__tree@U?$pair@QAXPAVCThread@BigRedH@@@std@@Vvalue_compare@?$map@PAXPAVCThread@BigRedH@@U?$less@PAX@std@@V?$allocator@U?$pair@QAXPAVCThread@BigRedH@@@std@@@4@@2@V?$allocator@U?$pair@QA...)
004e9300 00000016 .text             CThreadManager.obj(?first@?$compressed_pair_imp@Vvalue_compare@?$map@PAXPAVCThread@BigRedH@@U?$less@PAX@std@@V?$allocator@U?$pair@QAXPAVCThread@BigRedH@@@std@@@4@@std@@PAUnode@?$__tree@U?$pair@QAXPAVCThread@BigR...)
004e9320 00000019 .text             CThreadManager.obj(??8std@@YA_NABV?$__generic_iterator@$0A@@?$__tree@U?$pair@QAXPAVCThread@BigRedH@@@std@@Vvalue_compare@?$map@PAXPAVCThread@BigRedH@@U?$less@PAX@std@@V?$allocator@U?$pair@QAXPAVCThread@BigRedH@@...)
004e9340 000000c7 .text             CThreadManager.obj(?find@?$@PAX@?$__tree@U?$pair@QAXPAVCThread@BigRedH@@@std@@Vvalue_compare@?$map@PAXPAVCThread@BigRedH@@U?$less@PAX@std@@V?$allocator@U?$pair@QAXPAVCThread@BigRedH@@@std@@@4@@2@V?$allocator@U?$...)
004e9410 00000016 .text             CThreadManager.obj(?second@?$compressed_pair_imp@V?$allocator@U?$pair@QAXPAVCThread@BigRedH@@@std@@@std@@I$00@details@Metrowerks@@QAEAAIXZ)
004e9430 00000015 .text             CThreadManager.obj(?destroy@?$allocator@U?$pair@QAXPAVCThread@BigRedH@@@std@@@std@@QAEXPAU?$pair@QAXPAVCThread@BigRedH@@@2@@Z)
004e9450 00000016 .text             CThreadManager.obj(?first@?$compressed_pair_imp@V?$allocator@U?$pair@QAXPAVCThread@BigRedH@@@std@@@std@@I$00@details@Metrowerks@@QAEAAV?$allocator@U?$pair@QAXPAVCThread@BigRedH@@@std@@@std@@XZ)
004e9470 00000059 .text             CThreadManager.obj(?construct@?$allocator@U?$pair@QAXPAVCThread@BigRedH@@@std@@@std@@QAEXPAU?$pair@QAXPAVCThread@BigRedH@@@2@ABU32@@Z)
004e94d0 00000030 .text             CThreadManager.obj(??0?$pair@QAXPAVCThread@BigRedH@@@std@@QAE@ABU01@@Z)
004e9500 0000006b .text             CThreadManager.obj(?destroy@?$__tree@U?$pair@QAXPAVCThread@BigRedH@@@std@@Vvalue_compare@?$map@PAXPAVCThread@BigRedH@@U?$less@PAX@std@@V?$allocator@U?$pair@QAXPAVCThread@BigRedH@@@std@@@4@@2@V?$allocator@U?$pair...)
004e9570 0000001e .text             CThreadManager.obj(?deallocate@?$allocator@Unode@?$__tree@U?$pair@QAXPAVCThread@BigRedH@@@std@@Vvalue_compare@?$map@PAXPAVCThread@BigRedH@@U?$less@PAX@std@@V?$allocator@U?$pair@QAXPAVCThread@BigRedH@@@std@@@4@@2...)
004e9590 00000020 .text             CThreadManager.obj(?node_alloc@?$__tree@U?$pair@QAXPAVCThread@BigRedH@@@std@@Vvalue_compare@?$map@PAXPAVCThread@BigRedH@@U?$less@PAX@std@@V?$allocator@U?$pair@QAXPAVCThread@BigRedH@@@std@@@4@@2@V?$allocator@U?$p...)
004e95b0 00000016 .text             CThreadManager.obj(?first@?$compressed_pair_imp@V?$allocator@Unode@?$__tree@U?$pair@QAXPAVCThread@BigRedH@@@std@@Vvalue_compare@?$map@PAXPAVCThread@BigRedH@@U?$less@PAX@std@@V?$allocator@U?$pair@QAXPAVCThread@Bi...)
004e95d0 0000001d .text             CThreadManager.obj(?alloc@?$__tree@U?$pair@QAXPAVCThread@BigRedH@@@std@@Vvalue_compare@?$map@PAXPAVCThread@BigRedH@@U?$less@PAX@std@@V?$allocator@U?$pair@QAXPAVCThread@BigRedH@@@std@@@4@@2@V?$allocator@U?$pair@Q...)
004e95f0 0000001d .text             CThreadManager.obj(?sz@?$__tree@U?$pair@QAXPAVCThread@BigRedH@@@std@@Vvalue_compare@?$map@PAXPAVCThread@BigRedH@@U?$less@PAX@std@@V?$allocator@U?$pair@QAXPAVCThread@BigRedH@@@std@@@4@@2@V?$allocator@U?$pair@QAXP...)
004e9610 00000067 .text             CThreadManager.obj(??0?$__tree@U?$pair@QAXPAVCThread@BigRedH@@@std@@Vvalue_compare@?$map@PAXPAVCThread@BigRedH@@U?$less@PAX@std@@V?$allocator@U?$pair@QAXPAVCThread@BigRedH@@@std@@@4@@2@V?$allocator@U?$pair@QAXPA...)
004e9680 00000023 .text             CThreadManager.obj(??0?$compressed_pair@Vvalue_compare@?$map@PAXPAVCThread@BigRedH@@U?$less@PAX@std@@V?$allocator@U?$pair@QAXPAVCThread@BigRedH@@@std@@@4@@std@@PAUnode@?$__tree@U?$pair@QAXPAVCThread@BigRedH@@@st...)
004e96b0 00000023 .text             CThreadManager.obj(??0?$compressed_pair_imp@Vvalue_compare@?$map@PAXPAVCThread@BigRedH@@U?$less@PAX@std@@V?$allocator@U?$pair@QAXPAVCThread@BigRedH@@@std@@@4@@std@@PAUnode@?$__tree@U?$pair@QAXPAVCThread@BigRedH@...)
004e96e0 00000023 .text             CThreadManager.obj(??0value_compare@?$map@PAXPAVCThread@BigRedH@@U?$less@PAX@std@@V?$allocator@U?$pair@QAXPAVCThread@BigRedH@@@std@@@4@@std@@QAE@ABV012@@Z)
004e9710 00000023 .text             CThreadManager.obj(??0?$compressed_pair@V?$allocator@Unode@?$__tree@U?$pair@QAXPAVCThread@BigRedH@@@std@@Vvalue_compare@?$map@PAXPAVCThread@BigRedH@@U?$less@PAX@std@@V?$allocator@U?$pair@QAXPAVCThread@BigRedH@@@...)
004e9740 0000002d .text             CThreadManager.obj(??0?$compressed_pair_imp@V?$allocator@Unode@?$__tree@U?$pair@QAXPAVCThread@BigRedH@@@std@@Vvalue_compare@?$map@PAXPAVCThread@BigRedH@@U?$less@PAX@std@@V?$allocator@U?$pair@QAXPAVCThread@BigRed...)
004e9770 00000018 .text             CThreadManager.obj(??0?$allocator@Unode@?$__tree@U?$pair@QAXPAVCThread@BigRedH@@@std@@Vvalue_compare@?$map@PAXPAVCThread@BigRedH@@U?$less@PAX@std@@V?$allocator@U?$pair@QAXPAVCThread@BigRedH@@@std@@@4@@2@V?$alloc...)
004e9790 00000018 .text             CThreadManager.obj(??0?$@U?$pair@QAXPAVCThread@BigRedH@@@std@@@?$allocator@Unode@?$__tree@U?$pair@QAXPAVCThread@BigRedH@@@std@@Vvalue_compare@?$map@PAXPAVCThread@BigRedH@@U?$less@PAX@std@@V?$allocator@U?$pair@QA...)
004e97b0 00000026 .text             CThreadManager.obj(??0?$compressed_pair@V?$allocator@U?$pair@QAXPAVCThread@BigRedH@@@std@@@std@@I@Metrowerks@@QAE@ABV?$allocator@U?$pair@QAXPAVCThread@BigRedH@@@std@@@std@@I@Z)
004e97e0 0000002b .text             CThreadManager.obj(??0?$compressed_pair_imp@V?$allocator@U?$pair@QAXPAVCThread@BigRedH@@@std@@@std@@I$00@details@Metrowerks@@QAE@ABV?$allocator@U?$pair@QAXPAVCThread@BigRedH@@@std@@@std@@I@Z)
004e9810 00000018 .text             CThreadManager.obj(??0?$allocator@U?$pair@QAXPAVCThread@BigRedH@@@std@@@std@@QAE@ABV01@@Z)
004e9830 00000136 .text             CThreadManager.obj(?insert_node_at@?$__tree@U?$pair@QAXPAVCThread@BigRedH@@@std@@Vvalue_compare@?$map@PAXPAVCThread@BigRedH@@U?$less@PAX@std@@V?$allocator@U?$pair@QAXPAVCThread@BigRedH@@@std@@@4@@2@V?$allocator@...)
004e9970 00000030 .text             CThreadManager.obj(?allocate@?$allocator@Unode@?$__tree@U?$pair@QAXPAVCThread@BigRedH@@@std@@Vvalue_compare@?$map@PAXPAVCThread@BigRedH@@U?$less@PAX@std@@V?$allocator@U?$pair@QAXPAVCThread@BigRedH@@@std@@@4@@2@V...)
004e99a0 0000001a .text             CThreadManager.obj(?max_size@?$__tree@U?$pair@QAXPAVCThread@BigRedH@@@std@@Vvalue_compare@?$map@PAXPAVCThread@BigRedH@@U?$less@PAX@std@@V?$allocator@U?$pair@QAXPAVCThread@BigRedH@@@std@@@4@@2@V?$allocator@U?$pai...)
004e99c0 0000001d .text             CThreadManager.obj(?size@?$__tree@U?$pair@QAXPAVCThread@BigRedH@@@std@@Vvalue_compare@?$map@PAXPAVCThread@BigRedH@@U?$less@PAX@std@@V?$allocator@U?$pair@QAXPAVCThread@BigRedH@@@std@@@4@@2@V?$allocator@U?$pair@QA...)
004e99e0 000000af .text             CThreadManager.obj(?erase@?$__tree@U?$pair@QAXPAVCThread@BigRedH@@@std@@Vvalue_compare@?$map@PAXPAVCThread@BigRedH@@U?$less@PAX@std@@V?$allocator@U?$pair@QAXPAVCThread@BigRedH@@@std@@@4@@2@V?$allocator@U?$pair@Q...)
004e9a90 0000000a .text             CThreadManager.obj(?__iterator2pointer@?$__tree@U?$pair@QAXPAVCThread@BigRedH@@@std@@Vvalue_compare@?$map@PAXPAVCThread@BigRedH@@U?$less@PAX@std@@V?$allocator@U?$pair@QAXPAVCThread@BigRedH@@@std@@@4@@2@V?$alloca...)
004e9aa0 0000043c .text             CThreadManager.obj(?balance_erase@?$__red_black_tree@$00@std@@KAXPAUnode_base@12@0@Z)
004e9ee0 00000028 .text             CThreadManager.obj
004e9f10 000002e3 .text             CDataProvider.obj(??0CDataProvider@BigRedH@@IAE@AAVCString@1@0GKK00K@Z)
004ea200 00000033 .text             CDataProvider.obj(??1?$auto_ptr@VCFSRef@BigRedH@@@std@@QAE@XZ)
004ea240 00000058 .text             CDataProvider.obj(??_ECFSRef@BigRedH@@UAE@I@Z)
004ea2a0 00000027 .text             CDataProvider.obj(??1CFSRef@BigRedH@@UAE@XZ)
004ea2d0 0000003c .text             CDataProvider.obj(??1CSyncTCPIOStream@BigRedH@@UAE@XZ)
004ea310 0000003c .text             CDataProvider.obj(??1CIOStream@BigRedH@@UAE@XZ)
004ea350 0000001f .text             CDataProvider.obj(??1CInStream@BigRedH@@UAE@XZ)
004ea370 0000001f .text             CDataProvider.obj(??1COutStream@BigRedH@@UAE@XZ)
004ea390 0000001a .text             CDataProvider.obj(?StopListening@CListener@BigRedH@@QAEXXZ)
004ea3b0 00000058 .text             CDataProvider.obj(??_ECUnflattenFile@BigRedH@@UAE@I@Z)
004ea410 00000019 .text             CDataProvider.obj(?GetErrorCode@CException@BigRedH@@QBE?AW5EAWError@UAWError@2@XZ)
004ea430 00000030 .text             CDataProvider.obj(??6CIOStream@BigRedH@@QAEAAV01@J@Z)
004ea460 00000019 .text             CDataProvider.obj(?GetBuffer@COutStream@BigRedH@@QAEAAVCStreamBuffer@2@XZ)
004ea480 00000030 .text             CDataProvider.obj(??6CIOStream@BigRedH@@QAEAAV01@K@Z)
004ea4b0 0000002b .text             CDataProvider.obj(?IsOpen@CIOStream@BigRedH@@QAE_NXZ)
004ea4e0 00000019 .text             CDataProvider.obj(?GetBuffer@CInStream@BigRedH@@QAEAAVCStreamBuffer@2@XZ)
004ea500 00000023 .text             CDataProvider.obj(?Open@CSyncTCPIOStream@BigRedH@@QAEXABVCNetAddress@2@@Z)
004ea530 00000044 .text             CDataProvider.obj(?reset@?$auto_ptr@VCFSRef@BigRedH@@@std@@QAEXPAVCFSRef@BigRedH@@@Z)
004ea580 00000020 .text             CDataProvider.obj(??0?$auto_ptr@VCFSRef@BigRedH@@@std@@QAE@PAVCFSRef@BigRedH@@@Z)
004ea5a0 0000004a .text             CDataProvider.obj(??0CSyncTCPIOStream@BigRedH@@QAE@G@Z)
004ea5f0 0000003e .text             CDataProvider.obj(??0CSyncTCPStreamBuffer@BigRedH@@QAE@G@Z)
004ea630 00000027 .text             CDataProvider.obj(??1CSyncStreamBuffer@BigRedH@@UAE@XZ)
004ea660 0000002a .text             CDataProvider.obj(??1CStreamBuffer@BigRedH@@UAE@XZ)
004ea690 00000016 .text             CDataProvider.obj(??1CEndianOrder@BigRedH@@QAE@XZ)
004ea6b0 00000027 .text             CDataProvider.obj(??0CSyncStreamBuffer@BigRedH@@QAE@XZ)
004ea6e0 0000002a .text             CDataProvider.obj(??0CStreamBuffer@BigRedH@@QAE@XZ)
004ea710 0000001e .text             CDataProvider.obj(??0CEndianOrder@BigRedH@@QAE@XZ)
004ea730 00000020 .text             CDataProvider.obj(?SetOrderMSBF@CEndianOrder@BigRedH@@QAEXXZ)
004ea750 00000044 .text             CDataProvider.obj(??0CIOStream@BigRedH@@QAE@AAVCStreamBuffer@1@@Z)
004ea7a0 0000002a .text             CDataProvider.obj(??0COutStream@BigRedH@@QAE@AAVCStreamBuffer@1@@Z)
004ea7d0 0000002a .text             CDataProvider.obj(??0CInStream@BigRedH@@QAE@AAVCStreamBuffer@1@@Z)
004ea800 0000001f .text             CDataProvider.obj(?AddRef@CDataProvider@BigRedH@@QAEKXZ)
004ea820 0000005e .text             CDataProvider.obj(?Release@CDataProvider@BigRedH@@QAEKXZ)
004ea880 00000182 .text             CDataProvider.obj(??1CDataProvider@BigRedH@@MAE@XZ)
004eaa10 00000018 .text             CDataProvider.obj(??C?$auto_ptr@VCFSRef@BigRedH@@@std@@QBEPAVCFSRef@BigRedH@@XZ)
004eaa30 00000018 .text             CDataProvider.obj(?get@?$auto_ptr@VCFSRef@BigRedH@@@std@@QBEPAVCFSRef@BigRedH@@XZ)
004eaa50 00000058 .text             CDataProvider.obj(??_ECLocalFile@BigRedH@@UAE@I@Z)
004eaab0 00000029 .text             CDataProvider.obj(?Close@CIOStream@BigRedH@@QAEXXZ)
004eaae0 0000001a .text             CDataProvider.obj(?Quit@CThread@BigRedH@@IAEXXZ)
004eab00 00000039 .text             CDataProvider.obj(?IsOpen@CDataProvider@BigRedH@@QAE_NXZ)
004eab40 00000236 .text             CDataProvider.obj(?Run@CDataProvider@BigRedH@@MAEKXZ)
004ead80 00000021 .text             CDataProvider.obj(??1StPStyleString@BigRedH@@QAE@XZ)
004eadb0 0000001d .text             CDataProvider.obj(?GetAvailable@CIOStream@BigRedH@@QAEKXZ)
004eadd0 00000029 .text             CDataProvider.obj(?GetAvailable@CInStream@BigRedH@@QAEKXZ)
004eae00 00000018 .text             CDataProvider.obj(??BStPStyleString@BigRedH@@QAEPAEXZ)
004eae20 00000019 .text             CDataProvider.obj(?IsRunning@CThread@BigRedH@@IAE_NXZ)
004eae40 00000025 .text             CDataProvider.obj(?Read@CIOStream@BigRedH@@QAEKPAXK@Z)
004eae70 00000031 .text             CDataProvider.obj(?Read@CInStream@BigRedH@@QAEKPAXK@Z)
004eaeb0 00000057 .text             CDataProvider.obj(??0StPStyleString@BigRedH@@QAE@ABVCString@1@W1EStringEncoding@UStringConverter@1@_N@Z)
004eaf10 00000322 .text             CDataProvider.obj(?Read@CDataProvider@BigRedH@@QAE_NPAXKAAK@Z)
004eb240 0000001c .text             CDataProvider.obj(?GetFullSize@CDataProvider@BigRedH@@QAEKXZ)
004eb260 00000057 .text             CDataProvider.obj(?GetAvailableSize@CDataProvider@BigRedH@@QAEKXZ)
004eb2c0 00000033 .text             CDataProvider.obj(?GetLastError@CDataProvider@BigRedH@@QAE?AW5EAWError@UAWError@2@XZ)
004eb300 00000180 .text             CDataProvider.obj(?ListenToMessage@CDataProvider@BigRedH@@MAEXABVCMessage@2@@Z)
004eb480 00000023 .text             CDataProvider.obj(??4?$auto_ptr@VCFSRef@BigRedH@@@std@@QAEAAV01@U?$auto_ptr_ref@VCFSRef@BigRedH@@@1@@Z)
004eb4b0 00000025 .text             CDataProvider.obj(??B?$@VCFSRef@BigRedH@@@?$auto_ptr@VCFSRef@BigRedH@@@std@@QAE?AU?$auto_ptr_ref@VCFSRef@BigRedH@@@3@XZ)
004eb4e0 0000002b .text             CDataProvider.obj(?release@?$auto_ptr@VCFSRef@BigRedH@@@std@@QAEPAVCFSRef@BigRedH@@XZ)
004eb510 00000019 .text             CDataProvider.obj(?GetID@CMessage@BigRedH@@QBEKXZ)
004eb530 0000004b .text             CDataProvider.obj(?CloseConnection@CDataProvider@BigRedH@@QAEXXZ)
004eb580 00000058 .text             CDataProvider.obj(??_ECStreamBuffer@BigRedH@@UAE@I@Z)
004eb5e0 00000058 .text             CDataProvider.obj(??_ECSyncStreamBuffer@BigRedH@@UAE@I@Z)
004eb640 0000002e .text             CDataProvider.obj(?AddListener@CSyncStreamBuffer@BigRedH@@UAEXAAVCListener@2@@Z)
004eb670 00000015 .text             CDataProvider.obj(?CanWriteSomeMore@CSyncStreamBuffer@BigRedH@@UAE_NXZ)
004eb690 0000002e .text             CDataProvider.obj(?SetExpect@CSyncStreamBuffer@BigRedH@@UAEXK@Z)
004eb6c0 00000058 .text             CDataProvider.obj(??_ECSyncTCPStreamBuffer@BigRedH@@UAE@I@Z)
004eb720 00000029 .text             CDataProvider.obj(?IsOpen@CSyncTCPStreamBuffer@BigRedH@@UAE_NXZ)
004eb750 00000015 .text             CDataProvider.obj(?IsEOF@CSyncTCPStreamBuffer@BigRedH@@UAE_NXZ)
004eb770 00000058 .text             CDataProvider.obj(??_ECOutStream@BigRedH@@UAE@I@Z)
004eb7d0 00000058 .text             CDataProvider.obj(??_ECInStream@BigRedH@@UAE@I@Z)
004eb830 00000058 .text             CDataProvider.obj(??_ECIOStream@BigRedH@@UAE@I@Z)
004eb890 00000058 .text             CDataProvider.obj(??_ECSyncTCPIOStream@BigRedH@@UAE@I@Z)
004eb8f0 00000013 .text             CDataProvider.obj(?ThreadEnter@CThread@BigRedH@@MAEXXZ)
004eb910 00000015 .text             CDataProvider.obj(?ThreadExit@CThread@BigRedH@@MAEXK@Z)
004eb930 00000008 .text             CDataProvider.obj(@12@?ListenToMessage@CDataProvider@BigRedH@@MAEXABVCMessage@2@@Z)
004eb940 00000008 .text             CDataProvider.obj(@12@??_ECDataProvider@BigRedH@@UAE@I@Z)
004eb950 00000008 .text             CDataProvider.obj(@8@??_ECSyncTCPIOStream@BigRedH@@UAE@I@Z)
004eb960 00000008 .text             CDataProvider.obj(@8@??_ECIOStream@BigRedH@@UAE@I@Z)
004eb970 0000004b .text             CDataHandlerConnection.obj(?AWErrToQTErr@BigRedH@@YAJW5EAWError@UAWError@1@J@Z)
004eb9c0 0000001d .text             CDataHandlerConnection.obj(?PStrCopy@BigRedH@@YAXPAE0@Z)
004eb9e0 00000034 .text             CDataHandlerConnection.obj(??0CDataHandlerConnection@BigRedH@@QAE@XZ)
004eba20 0000003e .text             CDataHandlerConnection.obj(??1CDataHandlerConnection@BigRedH@@UAE@XZ)
004eba60 000000e5 .text             CDataHandlerConnection.obj(?SetDataRef@CDataHandlerConnection@BigRedH@@QAEJPAPAD@Z)
004ebb50 00000069 .text             CDataHandlerConnection.obj(?GetFileName@CDataHandlerConnection@BigRedH@@QAEJPAE@Z)
004ebbc0 0000001b .text             CDataHandlerConnection.obj(?GetFileName@CDataProvider@BigRedH@@QAEABVCString@2@XZ)
004ebbe0 00000069 .text             CDataHandlerConnection.obj(?GetMimeType@CDataHandlerConnection@BigRedH@@QAEJPAE@Z)
004ebc50 0000001b .text             CDataHandlerConnection.obj(?GetMimeType@CDataProvider@BigRedH@@QAEABVCString@2@XZ)
004ebc70 00000033 .text             CDataHandlerConnection.obj(?GetFileType@CDataHandlerConnection@BigRedH@@QAEJPAK@Z)
004ebcb0 0000001c .text             CDataHandlerConnection.obj(?GetFileType@CDataProvider@BigRedH@@QAEKXZ)
004ebcd0 00000039 .text             CDataHandlerConnection.obj(?GetFullSize@CDataHandlerConnection@BigRedH@@QAEJPAJ@Z)
004ebd10 0000002a .text             CDataHandlerConnection.obj(?GetAvailableSize@CDataHandlerConnection@BigRedH@@QAEJPAJ@Z)
004ebd40 00000040 .text             CDataHandlerConnection.obj(?OpenForRead@CDataHandlerConnection@BigRedH@@QAEJXZ)
004ebd80 00000018 .text             CDataHandlerConnection.obj(?CloseForRead@CDataHandlerConnection@BigRedH@@QAEJXZ)
004ebda0 00000060 .text             CDataHandlerConnection.obj(?CompareDataRef@CDataHandlerConnection@BigRedH@@QAE_NPAPAD@Z)
004ebe00 000000a8 .text             CDataHandlerConnection.obj(?ScheduleData@CDataHandlerConnection@BigRedH@@QAEJPADKKKPAUDataHScheduleRecord@@P6AX0JF@Z@Z)
004ebeb0 0000001a .text             CDataHandlerConnection.obj(?FinishData@CDataHandlerConnection@BigRedH@@QAEJPADE@Z)
004ebed0 00000020 .text             CDataHandlerConnection.obj(?DataTask@CDataHandlerConnection@BigRedH@@QAEJXZ)
004ebef0 00000048 .text             CDataHandlerConnection.obj(?FlushData@CDataHandlerConnection@BigRedH@@QAEJXZ)
004ebf40 00000024 .text             CString_W.obj(??8CString@BigRedH@@QBE_NABV01@@Z)
004ebf70 00000046 .text             CString_W.obj(??8?$@_WU?$char_traits@_W@std@@V?$allocator@_W@1@@1@YA_NABV?$basic_string@_WU?$char_traits@_W@std@@V?$allocator@_W@2@@1@0@Z)
004ebfc0 0000004e .text             CString_W.obj(?compare@?$basic_string@_WU?$char_traits@_W@std@@V?$allocator@_W@2@@std@@QBEHABV12@@Z)
004ec010 00000024 .text             CString_W.obj(??MCString@BigRedH@@QBE_NABV01@@Z)
004ec040 00000016 .text             CString_W.obj(??M?$@_WU?$char_traits@_W@std@@V?$allocator@_W@1@@1@YA_NABV?$basic_string@_WU?$char_traits@_W@std@@V?$allocator@_W@2@@1@0@Z)
004ec060 00000042 .text             CString_W.obj(??0CString@BigRedH@@QAE@PBD@Z)
004ec0b0 00000043 .text             CString_W.obj(??0CString@BigRedH@@QAE@PBE@Z)
004ec100 0000003b .text             CString_W.obj(??0CString@BigRedH@@QAE@PBXI@Z)
004ec140 00000046 .text             CString_W.obj(?Init@CString@BigRedH@@AAEXPBXI@Z)
004ec190 000000fd .text             CString_W.obj(?compare@?$basic_string@_WU?$char_traits@_W@std@@V?$allocator@_W@2@@std@@QBEHIIPB_WI@Z)
004ec290 00000018 .text             CString_W.obj(?compare@?$char_traits@_W@std@@SAHPB_W0I@Z)
004ec2b0 00000028 .text             UStringConverter.obj(?append@CString@BigRedH@@QAEAAV12@I_W@Z)
004ec2e0 000000f7 .text             UStringConverter.obj(?StringDataToUnistring@UStringConverter@BigRedH@@CA?AVCString@2@PBXKW1EStringEncoding@12@@Z)
004ec3e0 000000c8 .text             UStringConverter.obj(?UnistringToCStr@UStringConverter@BigRedH@@CAPADABVCString@2@W1EStringEncoding@12@_ND@Z)
004ec4b0 00000022 .text             UStringConverter.obj(??ACString@BigRedH@@QBEAB_WI@Z)
004ec4e0 0000002c .text             UStringConverter.obj(??A?$basic_string@_WU?$char_traits@_W@std@@V?$allocator@_W@2@@std@@QBEAB_WI@Z)
004ec510 000000d9 .text             UStringConverter.obj(?UnistringToPStr@UStringConverter@BigRedH@@CAPAEABVCString@2@W1EStringEncoding@12@_ND@Z)
004ec5f0 0000003e .text             UStringConverter.obj(?UnicharToChar@UStringConverter@BigRedH@@CAD_WW1EStringEncoding@12@_ND@Z)
