Address   Size      Name    Subname  Module

00401000 00000090 .text             TrackerServ.cp(_main)
00401090 000002f2 .text             TrackerServ.cp(?TextToIPAddressList@@YAPAVTPtrObj@@PBXKAAK@Z)
00401390 000001b1 .text             TrackerServ.cp(?TextToIPAddress@@YA?AUSIPAddress@@PBXK@Z)
00401550 00000149 .text             TrackerServ.cp(?TextToCRCList@@YAPAVTPtrObj@@PBXKAAK@Z)
004016a0 000000c0 .text             TrackerServ.cp(?TextToPasswordList@@YAXPBXKPAV?$CPtrList@USMyLoginInfo@@@@@Z)
00401760 00000109 .text             TrackerServ.cp(??0CMyApplication@@QAE@XZ)
00401870 0000001e .text             TrackerServ.cp(??1?$CPtrList@USMyClient@@@@QAE@XZ)
00401890 0000001e .text             TrackerServ.cp(??1?$CPtrList@USMyServerPerIP@@@@QAE@XZ)
004018b0 00000079 .text             TrackerServ.cp(??1CMyApplication@@UAE@XZ)
00401930 000002d3 .text             TrackerServ.cp(?StartUp@CMyApplication@@QAEXXZ)
00401c10 00000044 .text             TrackerServ.cp(?WindowHit@CMyApplication@@UAEXPAVCWindow@@ABUSHitMsgData@@@Z)
00401c60 00000079 .text             TrackerServ.cp(?HandleMessage@CMyApplication@@UAEXPAXKPBXK@Z)
00401ce0 0000002f .text             TrackerServ.cp(?Timer@CMyApplication@@UAEXPAVTTimerObj@@@Z)
00401d10 000000c2 .text             TrackerServ.cp(?Error@CMyApplication@@UAEXABUSError@@@Z)
00401de0 00000021 .text             TrackerServ.cp(??1StFileSysRef@@QAE@XZ)
00401e10 000002ae .text             TrackerServ.cp(?DoOptions@CMyApplication@@IAEXXZ)
004020c0 0000001e .text             TrackerServ.cp(??1?$CPtrList@USMyPermBanInfo@@@@QAE@XZ)
004020e0 0000001e .text             TrackerServ.cp(??1?$CPtrList@USMyLoginInfo@@@@QAE@XZ)
00402100 00000061 .text             TrackerServ.cp(??_ECMyOptionsWin@@UAE@I@Z)
00402170 00000027 .text             TrackerServ.cp(??1CMyOptionsWin@@UAE@XZ)
004021a0 0000004d .text             TrackerServ.cp(?ResetServer@CMyApplication@@IAEXXZ)
004021f0 0000004f .text             TrackerServ.cp(?UpdateDisplay@CMyApplication@@IAEXXZ)
00402240 00000349 .text             TrackerServ.cp(?ProcessRegister@CMyApplication@@IAEXXZ)
00402590 00000212 .text             TrackerServ.cp(?ProcessClients@CMyApplication@@IAEXXZ)
004027b0 000000db .text             TrackerServ.cp(?NewServerInfo@CMyApplication@@KAPAUSMyServerInfo@@PAU2@ABUSInternetAddress@@GGKKPBE2@Z)
00402890 0000004f .text             TrackerServ.cp(?GetServerInfoSize@CMyApplication@@KAKPBUSMyServerInfo@@@Z)
004028e0 00000456 .text             TrackerServ.cp(?RegisterServer@CMyApplication@@IAEXABUSInternetAddress@@GGKPBE11@Z)
00402d40 00000021 .text             TrackerServ.cp(??1StHandleLocker@@QAE@XZ)
00402d70 000000fe .text             TrackerServ.cp(?RemoveOldServers@CMyApplication@@IAEXXZ)
00402e70 000000d6 .text             TrackerServ.cp(?RemoveServer@CMyApplication@@IAE_NK@Z)
00402f50 0000015e .text             TrackerServ.cp(?FindServerByName@CMyApplication@@IAE_NKAAK@Z)
004030b0 000000ca .text             TrackerServ.cp(?FindServerByAddress@CMyApplication@@IAE_NABUSInternetAddress@@AAK@Z)
00403180 000003ed .text             TrackerServ.cp(?SendServerList@CMyApplication@@IAEXPAVTTransportObj@@@Z)
00403570 0000008b .text             TrackerServ.cp(?ClearServerList@CMyApplication@@IAEXXZ)
00403600 00000080 .text             TrackerServ.cp(?ClearClientList@CMyApplication@@IAEXXZ)
00403680 000000e2 .text             TrackerServ.cp(?ReadPasswords@CMyApplication@@IAEXXZ)
00403770 00000021 .text             TrackerServ.cp(??1StPtr@@QAE@XZ)
004037a0 00000084 .text             TrackerServ.cp(?IsInvalidPassword@CMyApplication@@IAE_NPBE@Z)
00403830 00000181 .text             TrackerServ.cp(?WriteLoginInfo@CMyApplication@@IAEXPAV?$CPtrList@USMyLoginInfo@@@@@Z)
004039c0 000000b3 .text             TrackerServ.cp(?ReadLoginInfo@CMyApplication@@IAEXPAV?$CPtrList@USMyLoginInfo@@@@@Z)
00403a80 000000e2 .text             TrackerServ.cp(?ReadBans@CMyApplication@@IAEXXZ)
00403b70 0000006b .text             TrackerServ.cp(?IsBannedAddress@CMyApplication@@IAE_NABUSInternetAddress@@@Z)
00403be0 000001a5 .text             TrackerServ.cp(?WritePermBanInfo@CMyApplication@@IAEXPAV?$CPtrList@USMyPermBanInfo@@@@@Z)
00403d90 0000006e .text             TrackerServ.cp(?ReadPermBanInfo@CMyApplication@@IAEXPAV?$CPtrList@USMyPermBanInfo@@@@@Z)
00403e00 000000fa .text             TrackerServ.cp(?WriteIPAddress@CMyApplication@@IAEXXZ)
00403f00 000000bd .text             TrackerServ.cp(?ReadIPAddress@CMyApplication@@IAEXXZ)
00403fc0 000000fc .text             TrackerServ.cp(?WriteMaxServersPerIP@CMyApplication@@IAEXXZ)
004040c0 000000b8 .text             TrackerServ.cp(?ReadMaxServersPerIP@CMyApplication@@IAEXXZ)
00404180 000000f9 .text             TrackerServ.cp(?BuildServerPerIPList@CMyApplication@@IAEXXZ)
00404280 0000015a .text             TrackerServ.cp(?FindServerByAddress@CMyApplication@@IAE_NKAAK@Z)
004043e0 000000d7 .text             TrackerServ.cp(?AddServerPerIP@CMyApplication@@IAE_NK@Z)
004044c0 000000ad .text             TrackerServ.cp(?RemoveServerPerIP@CMyApplication@@IAE_NK@Z)
00404570 00000074 .text             TrackerServ.cp(?ClearServerPerIPList@CMyApplication@@IAEXXZ)
004045f0 00000058 .text             TrackerServ.cp(??_ECMyApplication@@UAE@I@Z)
00404650 00000206 .text             TrackerServWindows.cp(??0CMyOptionsWin@@QAE@XZ)
00404860 00000634 .text             TrackerServWindows.cp(?MakeGeneralTab@CMyOptionsWin@@IAEPAVCContainerView@@XZ)
00404ea0 00000047 .text             TrackerServWindows.cp(??_ECContainerView@@UAE@I@Z)
00404ef0 000003d5 .text             TrackerServWindows.cp(?MakePasswordTab@CMyOptionsWin@@IAEPAVCContainerView@@XZ)
004052d0 000003d5 .text             TrackerServWindows.cp(?MakeBanTab@CMyOptionsWin@@IAEPAVCContainerView@@XZ)
004056b0 00000141 .text             TrackerServWindows.cp(?SetInfo@CMyOptionsWin@@QAEXUSIPAddress@@KPAV?$CPtrList@USMyLoginInfo@@@@PAV?$CPtrList@USMyPermBanInfo@@@@@Z)
00405800 000000a2 .text             TrackerServWindows.cp(?GetInfo@CMyOptionsWin@@QAEXPAUSIPAddress@@PAKPAV?$CPtrList@USMyLoginInfo@@@@PAV?$CPtrList@USMyPermBanInfo@@@@@Z)
004058b0 00000143 .text             TrackerServWindows.cp(?GetIPAddress@CMyOptionsWin@@QAE?AUSIPAddress@@XZ)
00405a00 0000004b .text             TrackerServWindows.cp(?AddLogin@CMyOptionsWin@@QAEXXZ)
00405a50 0000001e .text             TrackerServWindows.cp(?DeleteLogin@CMyOptionsWin@@QAEXXZ)
00405a70 0000004b .text             TrackerServWindows.cp(?AddPermBan@CMyOptionsWin@@QAEXXZ)
00405ac0 0000001e .text             TrackerServWindows.cp(?DeletePermBan@CMyOptionsWin@@QAEXXZ)
00405ae0 000004d6 .text             TrackerServWindows.cp(??0CMyStatsWin@@QAE@XZ)
00405fc0 00000071 .text             TrackerServWindows.cp(?SetServerCount@CMyStatsWin@@QAEXK@Z)
00406040 00000071 .text             TrackerServWindows.cp(?SetUserCount@CMyStatsWin@@QAEXK@Z)
004060c0 00000071 .text             TrackerServWindows.cp(?SetListingCounter@CMyStatsWin@@QAEXK@Z)
00406140 00000061 .text             TrackerServWindows.cp(??_ECMyStatsWin@@UAE@I@Z)
004061b0 00000027 .text             TrackerServWindows.cp(??1CMyStatsWin@@UAE@XZ)
004061e0 000000e8 .text             TrackerServWindows.cp(?GetItemsFromList@?$CGeneralListView@USMyLoginInfo@@@@QAEXPAV?$CPtrList@USMyLoginInfo@@@@@Z)
004062d0 000000db .text             TrackerServWindows.cp(?SetItemsFromList@?$CGeneralListView@USMyLoginInfo@@@@QAEXPAV?$CPtrList@USMyLoginInfo@@@@@Z)
004063b0 000000e8 .text             TrackerServWindows.cp(?GetItemsFromList@?$CGeneralListView@USMyPermBanInfo@@@@QAEXPAV?$CPtrList@USMyPermBanInfo@@@@@Z)
004064a0 000000db .text             TrackerServWindows.cp(?SetItemsFromList@?$CGeneralListView@USMyPermBanInfo@@@@QAEXPAV?$CPtrList@USMyPermBanInfo@@@@@Z)
00406580 0000004c .text             TrackerServViews.cp(??0CMyLoginListView@@QAE@PAVCViewHandler@@ABVSRect@@PAVCTextView@@@Z)
004065d0 00000091 .text             TrackerServViews.cp(?AddLogin@CMyLoginListView@@QAEKXZ)
00406670 000000af .text             TrackerServViews.cp(?ModifyLogin@CMyLoginListView@@QAE_NKPAE@Z)
00406720 00000019 .text             TrackerServViews.cp(?GetItemCount@?$CGeneralListView@USMyLoginInfo@@@@UBEKXZ)
00406740 0000007c .text             TrackerServViews.cp(?ModifySelectedLogin@CMyLoginListView@@QAE_NXZ)
004067c0 0000003a .text             TrackerServViews.cp(?DeleteSelectedLogin@CMyLoginListView@@QAE_NXZ)
00406800 00000072 .text             TrackerServViews.cp(?SetItemSelect@CMyLoginListView@@UAEXK_N@Z)
00406880 00000117 .text             TrackerServViews.cp(?ItemDraw@CMyLoginListView@@MAEXKPAVTImageObj@@ABVSRect@@1K@Z)
004069a0 0000004c .text             TrackerServViews.cp(??0CMyPermBanListView@@QAE@PAVCViewHandler@@ABVSRect@@PAVCTextView@@@Z)
004069f0 00000091 .text             TrackerServViews.cp(?AddPermBan@CMyPermBanListView@@QAEKXZ)
00406a90 00000097 .text             TrackerServViews.cp(?ModifyPermBan@CMyPermBanListView@@QAE_NKPAE@Z)
00406b30 00000019 .text             TrackerServViews.cp(?GetItemCount@?$CGeneralListView@USMyPermBanInfo@@@@UBEKXZ)
00406b50 0000007b .text             TrackerServViews.cp(?ModifySelectedPermBan@CMyPermBanListView@@QAE_NXZ)
00406bd0 0000003a .text             TrackerServViews.cp(?DeleteSelectedPermBan@CMyPermBanListView@@QAE_NXZ)
00406c10 00000097 .text             TrackerServViews.cp(?SetItemSelect@CMyPermBanListView@@UAEXK_N@Z)
00406cb0 00000134 .text             TrackerServViews.cp(?ItemDraw@CMyPermBanListView@@MAEXKPAVTImageObj@@ABVSRect@@1K@Z)
00406df0 0000006b .text             TrackerServViews.cp(??_ECMyPermBanListView@@UAE@I@Z)
00406e60 00000031 .text             TrackerServViews.cp(??1CMyPermBanListView@@UAE@XZ)
00406ea0 00000018 .text             TrackerServViews.cp(?GetTabHeight@CItemsView@@MBEKXZ)
00406ec0 0000006b .text             TrackerServViews.cp(??_ECMyLoginListView@@UAE@I@Z)
00406f30 00000031 .text             TrackerServViews.cp(??1CMyLoginListView@@UAE@XZ)
00406f70 00000074 .text             TrackerServViews.cp(?GetSelectedItem@?$CGeneralListView@USMyPermBanInfo@@@@QAEKPAPAUSMyPermBanInfo@@@Z)
00406ff0 00000042 .text             TrackerServViews.cp(?DeleteSelectedItem@?$CGeneralListView@USMyPermBanInfo@@@@QAEKXZ)
00407040 00000041 .text             TrackerServViews.cp(?GetFullSize@?$CGeneralListView@USMyPermBanInfo@@@@UBEXAAK0@Z)
00407090 00000041 .text             TrackerServViews.cp(?GetFullHeight@?$CGeneralListView@USMyPermBanInfo@@@@UBEKXZ)
004070e0 00000039 .text             TrackerServViews.cp(?Draw@?$CGeneralListView@USMyPermBanInfo@@@@UAEXPAVTImageObj@@ABVSRect@@K@Z)
00407120 00000177 .text             TrackerServViews.cp(?ItemDraw@?$CGeneralListView@USMyPermBanInfo@@@@MAEXKPAVTImageObj@@ABVSRect@@1K@Z)
004072a0 00000074 .text             TrackerServViews.cp(?GetSelectedItem@?$CGeneralListView@USMyLoginInfo@@@@QAEKPAPAUSMyLoginInfo@@@Z)
00407320 00000042 .text             TrackerServViews.cp(?DeleteSelectedItem@?$CGeneralListView@USMyLoginInfo@@@@QAEKXZ)
00407370 00000041 .text             TrackerServViews.cp(?GetFullSize@?$CGeneralListView@USMyLoginInfo@@@@UBEXAAK0@Z)
004073c0 00000041 .text             TrackerServViews.cp(?GetFullHeight@?$CGeneralListView@USMyLoginInfo@@@@UBEKXZ)
00407410 00000039 .text             TrackerServViews.cp(?Draw@?$CGeneralListView@USMyLoginInfo@@@@UAEXPAVTImageObj@@ABVSRect@@K@Z)
00407450 00000177 .text             TrackerServViews.cp(?ItemDraw@?$CGeneralListView@USMyLoginInfo@@@@MAEXKPAVTImageObj@@ABVSRect@@1K@Z)
004075d0 00000068 .text             TrackerServViews.cp(?GetItem@?$CGeneralListView@USMyLoginInfo@@@@QAEPAUSMyLoginInfo@@K@Z)
00407640 0000008b .text             TrackerServViews.cp(?AddItem@?$CGeneralListView@USMyLoginInfo@@@@QAEKPAUSMyLoginInfo@@_N@Z)
004076d0 00000080 .text             TrackerServViews.cp(??1?$CGeneralListView@USMyLoginInfo@@@@UAE@XZ)
00407750 00000069 .text             TrackerServViews.cp(??0?$CGeneralListView@USMyLoginInfo@@@@QAE@PAVCViewHandler@@ABVSRect@@@Z)
004077c0 0000003f .text             TrackerServViews.cp(??1CListView@@UAE@XZ)
00407800 00000068 .text             TrackerServViews.cp(?GetItem@?$CGeneralListView@USMyPermBanInfo@@@@QAEPAUSMyPermBanInfo@@K@Z)
00407870 0000008b .text             TrackerServViews.cp(?AddItem@?$CGeneralListView@USMyPermBanInfo@@@@QAEKPAUSMyPermBanInfo@@_N@Z)
00407900 00000080 .text             TrackerServViews.cp(??1?$CGeneralListView@USMyPermBanInfo@@@@UAE@XZ)
00407980 00000069 .text             TrackerServViews.cp(??0?$CGeneralListView@USMyPermBanInfo@@@@QAE@PAVCViewHandler@@ABVSRect@@@Z)
004079f0 00000058 .text             TrackerServViews.cp(??_E?$CGeneralListView@USMyPermBanInfo@@@@UAE@I@Z)
00407a50 0000004d .text             TrackerServViews.cp(??_ECItemsView@@UAE@I@Z)
00407aa0 0000001b .text             TrackerServViews.cp(??1CItemsView@@UAE@XZ)
00407ac0 0000005a .text             TrackerServViews.cp(??_ECSelectableItemsView@@UAE@I@Z)
00407b20 00000028 .text             TrackerServViews.cp(??1CSelectableItemsView@@UAE@XZ)
00407b50 00000071 .text             TrackerServViews.cp(??_ECListView@@UAE@I@Z)
00407bd0 00000058 .text             TrackerServViews.cp(??_E?$CGeneralListView@USMyLoginInfo@@@@UAE@I@Z)
00407c30 0000009e .text             TrackerServViews.cp(?ClearList@?$CGeneralListView@USMyLoginInfo@@@@QAEX_N@Z)
00407cd0 000000fa .text             TrackerServViews.cp(?DeleteItem@?$CGeneralListView@USMyLoginInfo@@@@QAE_NK@Z)
00407dd0 0000009e .text             TrackerServViews.cp(?ClearList@?$CGeneralListView@USMyPermBanInfo@@@@QAEX_N@Z)
00407e70 000000fa .text             TrackerServViews.cp(?DeleteItem@?$CGeneralListView@USMyPermBanInfo@@@@QAE_NK@Z)
00407f70 00000120 .text             UOperatingSystem(W).obj(?Init@UOperatingSystem@@SAXXZ)
00408090 000001b1 .text             UOperatingSystem(W).obj(_WinMain@16)
00408250 0000000b .text             UOperatingSystem(W).obj(?_ProgCleanupOLEUninitialize@@YAXXZ)
00408260 000000ab .text             UOperatingSystem(W).obj(?_SafeOLEInit@@YAXXZ)
00408310 0000000c .text             UTransport.obj(?HasTCP@UTransport@@SA_NXZ)
00408320 0000000f .text             UTransport.obj(?Init@UTransport@@SAXXZ)
00408330 00000057 .text             UTransport.obj(?New@UTransport@@SAPAVTTransportObj@@K_NK@Z)
00408390 00000035 .text             UTransport.obj(?Dispose@UTransport@@SAXPAVTTransportObj@@@Z)
004083d0 00000055 .text             UTransport.obj(?SetMessageHandler@UTransport@@SAXPAVTTransportObj@@P6AXPAX1KPBXK@Z1@Z)
00408430 0000004a .text             UTransport.obj(?SetIPAddress@UTransport@@SAXPAVTTransportObj@@USIPAddress@@@Z)
00408480 000000a5 .text             UTransport.obj(?GetPortFromAddressText@UTransport@@SAKGPBXK@Z)
00408530 00000041 .text             UTransport.obj(?IPAddressToText@UTransport@@SAKUSIPAddress@@PAXK@Z)
00408580 00000165 .text             UTransport.obj(?TextToIPAddress@UTransport@@SA_NPAEAAUSIPAddress@@@Z)
004086f0 00000046 .text             UTransport.obj(?IsConnected@UTransport@@SA_NPAVTTransportObj@@@Z)
00408740 00000042 .text             UTransport.obj(?Disconnect@UTransport@@SAXPAVTTransportObj@@@Z)
00408790 00000046 .text             UTransport.obj(?IsDisconnecting@UTransport@@SA_NPAVTTransportObj@@@Z)
004087e0 00000052 .text             UTransport.obj(?Listen@UTransport@@SAXPAVTTransportObj@@PBXK@Z)
00408840 000000c3 .text             UTransport.obj(?Accept@UTransport@@SAPAVTTransportObj@@PAV2@PAXPAK@Z)
00408910 00000052 .text             UTransport.obj(?Send@UTransport@@SAXPAVTTransportObj@@PBXK@Z)
00408970 00000056 .text             UTransport.obj(?Receive@UTransport@@SAKPAVTTransportObj@@PAXK@Z)
004089d0 00000046 .text             UTransport.obj(?GetReceiveSize@UTransport@@SAKPAVTTransportObj@@@Z)
00408a20 00000062 .text             UTransport.obj(?ReceiveUnit@UTransport@@SA_NPAVTTransportObj@@PAXAAK12@Z)
00408a90 0000001b .text             UTransport.obj(?LaunchURL@UTransport@@SA_NPBXKPAK1@Z)
00408ab0 000000bd .text             UTransport.obj(?_GetURLAddress@@YA_NPBXKAAK1@Z)
00408b70 000000e5 .text             UError.obj(?GetDetailMessage@UError@@SAKABUSError@@PAXK@Z)
00408c60 00000149 .text             UError.obj(?Log@UError@@SAXPAVTFSRefObj@@ABUSError@@@Z)
00408db0 00000021 .text             UError.obj(??1StFileOpener@@QAE@XZ)
00408de0 00000042 .text             UError.obj(?__Fail@@YAXFFPBDK@Z)
00408e30 00000067 .text             UError.obj(??0SError@@QAE@FFPBDK@Z)
00408ea0 00000005 .text             UError(W).obj(?Init@UError@@SAXXZ)
00408eb0 00000148 .text             UError(W).obj(?GetMessage@UError@@SAKABUSError@@PAXK@Z)
00409000 0000002f .text             UError(W).obj(??1StRezLoader@@QAE@XZ)
00409030 000000be .text             UError(W).obj(?Alert@UError@@SAXABUSError@@@Z)
004090f0 000000a9 .text             UError(W).obj(?_WinToGenError@@YAXJAAF0@Z)
004091a0 0000009f .text             UError(W).obj(?_FailLastWinError@@YAXPBDK@Z)
00409240 0000009c .text             UError(W).obj(?_FailWinError@@YAXJPBDK@Z)
004092e0 00000030 .text             stackall.obj(__chkstk)
00409310 0000000b .text             stackall.obj(__stack_alloc)
00409320 00000149 .text             UMemory.obj(?Fill@UMemory@@SAXPAXKE@Z)
00409470 00000015 .text             UMemory.obj(?Clear@UMemory@@SAXPAXK@Z)
00409490 00000050 .text             UMemory.obj(?Equal@UMemory@@SA_NPBX0K@Z)
004094e0 000000de .text             UMemory.obj(?Search@UMemory@@SAPAEPBXK0K@Z)
004095c0 00000049 .text             UMemory.obj(?SearchByte@UMemory@@SAPAEEPBXK@Z)
00409610 00000049 .text             UMemory.obj(?SearchByteBackwards@UMemory@@SAPAEEPBXK@Z)
00409660 00000030 .text             UMemory.obj(?SearchLongArray@UMemory@@SAPAKKPBKK@Z)
00409690 000001be .text             UMemory.obj(?SearchAndReplaceAll@UMemory@@SAKPAVTHdlObj@@KPBXK1K@Z)
00409850 00000079 .text             UMemory.obj(?Compare@UMemory@@SAFPBX0K@Z)
004098d0 00000036 .text             UMemory.obj(?Compare@UMemory@@SAFPBXK0K@Z)
00409910 00000040 .text             UMemory.obj(?CRC@UMemory@@SAKPBXKK@Z)
00409950 00000095 .text             UMemory.obj(?Token@UMemory@@SA_NPBXKPBDAAK2@Z)
004099f0 0000003e .text             UMemory.obj(?__copy_mem@@YAXPAXPBXK@Z)
00409a30 00000071 .text             UMemory.obj(?__move_mem@@YAXPAXPBXK@Z)
00409ab0 00000028 .text             UMemory.obj(?_IsDelim@@YA_NEPBD@Z)
00409ae0 00000010 .text             UMemory.obj(??2@YAPAXI@Z)
00409af0 00000032 .text             UMemory.obj(??3@YAXPAX@Z)
00409b30 0000009e .text             UText.obj(?CompareInsensitive@UText@@SAFPBX0KK@Z)
00409bd0 00000152 .text             UText.obj(?IntegerToText@UText@@SAKPAXKJK@Z)
00409d30 000000b3 .text             UText.obj(?TextToInteger@UText@@SAJPBXKKK@Z)
00409df0 000000b3 .text             UText.obj(?TextToUInteger@UText@@SAKPBXKKK@Z)
00409eb0 00000054 .text             UText.obj(?Format@UText@@SAKPAXKPBDZZ)
00409f10 0000001b .text             UText.obj(?FormatArg@UText@@SAKPAXKPBD0@Z)
00409f30 0000004f .text             UText.obj(?GetVisibleLength@UText@@SAKPBXKK@Z)
00409f80 000001a8 .text             UText.obj(?FindWord@UText@@SA_NPBXKKKAAK1@Z)
0040a130 00000024 .text             UText.obj(?IsPrinting@UText@@SA_NGK@Z)
0040a160 00000024 .text             UText.obj(?IsSpace@UText@@SA_NGK@Z)
0040a190 00000886 .text             UText.obj(?_FormatTextArg@@YAKPADKPBD0@Z)
0040aa20 0000012f .text             UText.obj(?HexToData@UMemory@@SAKPBXKPAXK@Z)
0040ab50 00000005 .text             UMemory(W).obj(?Init@UMemory@@SAXXZ)
0040ab60 00000063 .text             UMemory(W).obj(?New@UMemory@@SAPAVTPtrObj@@K@Z)
0040abd0 00000030 .text             UMemory(W).obj(?New@UMemory@@SAPAVTPtrObj@@PBXK@Z)
0040ac00 00000056 .text             UMemory(W).obj(?NewClear@UMemory@@SAPAVTPtrObj@@K@Z)
0040ac60 00000044 .text             UMemory(W).obj(?Dispose@UMemory@@SAXPAVTPtrObj@@@Z)
0040acb0 00000095 .text             UMemory(W).obj(?NewHandle@UMemory@@SAPAVTHdlObj@@KK@Z)
0040ad50 00000096 .text             UMemory(W).obj(?NewHandle@UMemory@@SAPAVTHdlObj@@PBXKK@Z)
0040adf0 00000077 .text             UMemory(W).obj(?NewHandleClear@UMemory@@SAPAVTHdlObj@@KK@Z)
0040ae70 00000090 .text             UMemory(W).obj(?Dispose@UMemory@@SAXPAVTHdlObj@@@Z)
0040af00 00000108 .text             UMemory(W).obj(?SetSize@UMemory@@SAXPAVTHdlObj@@K@Z)
0040b010 0000005d .text             UMemory(W).obj(?GetSize@UMemory@@SAKPAVTHdlObj@@@Z)
0040b070 00000091 .text             UMemory(W).obj(?Reallocate@UMemory@@SAPAVTPtrObj@@PAV2@K@Z)
0040b110 000000ea .text             UMemory(W).obj(?Reallocate@UMemory@@SAXPAVTHdlObj@@K@Z)
0040b200 000000ea .text             UMemory(W).obj(?ReallocateClear@UMemory@@SAXPAVTHdlObj@@K@Z)
0040b2f0 0000002f .text             UMemory(W).obj(?Lock@UMemory@@SAPAEPAVTHdlObj@@@Z)
0040b320 00000062 .text             UMemory(W).obj(?Unlock@UMemory@@SAXPAVTHdlObj@@@Z)
0040b390 00000031 .text             UMemory(W).obj(?SetDiscardable@UMemory@@SAXPAVTHdlObj@@@Z)
0040b3d0 00000042 .text             UMemory(W).obj(?ClearDiscardable@UMemory@@SA_NPAVTHdlObj@@@Z)
0040b420 000000bc .text             UMemory(W).obj(?Set@UMemory@@SAXPAVTHdlObj@@PBXK@Z)
0040b4e0 000000ef .text             UMemory(W).obj(?Append@UMemory@@SAXPAVTHdlObj@@PBXK@Z)
0040b5d0 00000124 .text             UMemory(W).obj(?Insert@UMemory@@SAKPAVTHdlObj@@KPBXK@Z)
0040b700 00000125 .text             UMemory(W).obj(?Remove@UMemory@@SAKPAVTHdlObj@@KK@Z)
0040b830 000001fc .text             UMemory(W).obj(?Replace@UMemory@@SAKPAVTHdlObj@@KKPBXK@Z)
0040ba30 00000085 .text             UMemory(W).obj(?Read@UMemory@@SAKPAVTHdlObj@@KPAXK@Z)
0040bac0 0000005d .text             UMemory(W).obj(?ReadLong@UMemory@@SAKPAVTHdlObj@@K@Z)
0040bb20 00000019 .text             UMemory(W).obj(?Copy@UMemory@@SAKPAXPBXK@Z)
0040bb40 00000073 .text             UMemory(W).obj(?_HdlToWinHdl@@YAPAXPAVTHdlObj@@PAK@Z)
0040bbc0 00000035 .text             CPtrList.obj(??0CVoidPtrList@@QAE@XZ)
0040bc00 00000021 .text             CPtrList.obj(??1CVoidPtrList@@QAE@XZ)
0040bc30 000000cf .text             CPtrList.obj(?AddItem@CVoidPtrList@@QAEKPAX@Z)
0040bd00 00000151 .text             CPtrList.obj(?InsertItem@CVoidPtrList@@QAEKKPAX@Z)
0040be60 0000012f .text             CPtrList.obj(?RemoveItem@CVoidPtrList@@QAEKPAX@Z)
0040bf90 00000109 .text             CPtrList.obj(?RemoveItem@CVoidPtrList@@QAEPAXK@Z)
0040c0a0 0000003d .text             CPtrList.obj(?Clear@CVoidPtrList@@QAEXXZ)
0040c0e0 00000062 .text             CPtrList.obj(?GetItemIndex@CVoidPtrList@@QBEKPAX@Z)
0040c150 00000097 .text             CApplication.obj(??0CApplication@@QAE@XZ)
0040c1f0 00000049 .text             CApplication.obj(??1CApplication@@UAE@XZ)
0040c240 00000018 .text             CApplication.obj(?Run@CApplication@@UAEXXZ)
0040c260 00000024 .text             CApplication.obj(?UserQuit@CApplication@@UAEXXZ)
0040c290 00000018 .text             CApplication.obj(?Quit@CApplication@@UAEXXZ)
0040c2b0 0000002f .text             CApplication.obj(?KeyCommand@CApplication@@UAEXKABUSKeyMsgData@@@Z)
0040c2e0 0000002c .text             CApplication.obj(?Error@CApplication@@UAEXABUSError@@@Z)
0040c310 00000015 .text             CApplication.obj(?Timer@CApplication@@UAEXPAVTTimerObj@@@Z)
0040c330 00000055 .text             CApplication.obj(?OpenDocuments@CApplication@@UAEXXZ)
0040c390 0000002a .text             CApplication.obj(??1?$scopekiller@VTFSRefObj@@@@QAE@XZ)
0040c3c0 00000015 .text             CApplication.obj(?OpenDocument@CApplication@@UAEXPAVTFSRefObj@@@Z)
0040c3e0 00000013 .text             CApplication.obj(?ShowPreferences@CApplication@@UAEXXZ)
0040c400 00000015 .text             CApplication.obj(?WindowHit@CApplication@@UAEXPAVCWindow@@ABUSHitMsgData@@@Z)
0040c420 0000001f .text             CApplication.obj(?WindowHitHandler@CApplication@@SAXPAX0KPBXK@Z)
0040c440 0000008e .text             CApplication.obj(?HandleMessage@CApplication@@MAEXPAXKPBXK@Z)
0040c4d0 00000022 .text             CApplication.obj(?MessageHandler@CApplication@@KAXPAX0KPBXK@Z)
0040c500 00000047 .text             CApplication.obj(??_ECApplication@@UAE@I@Z)
0040c550 00000005 .text             UTimer(W).obj(?Init@UTimer@@SAXXZ)
0040c560 00000043 .text             UTimer(W).obj(?New@UTimer@@SAPAVTTimerObj@@P6AXPAX0KPBXK@Z0@Z)
0040c5b0 0000008d .text             UTimer(W).obj(?StartNew@UTimer@@SAPAVTTimerObj@@P6AXPAX0KPBXK@Z0KK@Z)
0040c640 000000a1 .text             UTimer(W).obj(?Dispose@UTimer@@SAXPAVTTimerObj@@@Z)
0040c6f0 00000076 .text             UTimer(W).obj(?Start@UTimer@@SAXPAVTTimerObj@@KK@Z)
0040c770 00000014 .text             UTimer(W).obj(?WasStarted@UTimer@@SA_NPAVTTimerObj@@@Z)
0040c790 0000002c .text             UTimer(W).obj(?Stop@UTimer@@SAXPAVTTimerObj@@@Z)
0040c7c0 0000009b .text             UTimer(W).obj(?_APTimerProc@@YGXPAUHWND__@@IIK@Z)
0040c860 00000047 .text             MsgBox.obj(??_ECWindow@@UAE@I@Z)
0040c8b0 000000bd .text             MsgBox.obj(?MsgBox@@YAGABUSMsgBox@@@Z)
0040c970 00000063 .text             MsgBox.obj(?TrackMsgBoxWin@@YAGPAVCWindow@@@Z)
0040c9e0 000007f1 .text             MsgBox.obj(?MakeMsgBoxWin@@YAPAVCWindow@@ABUSMsgBox@@@Z)
0040d1e0 00000061 .text             MsgBox.obj(?DisplayMessage@@YAXPBE0FF_N@Z)
0040d250 00000031 .text             UWindow(W).obj(?_UninitWindow@@YAXXZ)
0040d290 000002cd .text             UWindow(W).obj(?Init@UWindow@@SAXXZ)
0040d560 000004c3 .text             UWindow(W).obj(?New@UWindow@@SAPAVTWindowObj@@ABVSRect@@GGGPAV2@@Z)
0040da30 000000d7 .text             UWindow(W).obj(?Dispose@UWindow@@SAXPAVTWindowObj@@@Z)
0040db10 0000008e .text             UWindow(W).obj(?SetTitle@UWindow@@SAXPAVTWindowObj@@PBE@Z)
0040dba0 0000002a .text             UWindow(W).obj(?SetRef@UWindow@@SAXPAVTWindowObj@@PAX@Z)
0040dbd0 0000014c .text             UWindow(W).obj(?SetVisible@UWindow@@SAXPAVTWindowObj@@G@Z)
0040dd20 00000032 .text             UWindow(W).obj(?IsVisible@UWindow@@SA_NPAVTWindowObj@@@Z)
0040dd60 0000003c .text             UWindow(W).obj(?IsChild@UWindow@@SA_NPAVTWindowObj@@0@Z)
0040dda0 0000009b .text             UWindow(W).obj(?SetBackColor@UWindow@@SAXPAVTWindowObj@@ABVSColor@@@Z)
0040de40 00000028 .text             UWindow(W).obj(?GetLayer@UWindow@@SAGPAVTWindowObj@@@Z)
0040de70 000000ca .text             UWindow(W).obj(?SetBounds@UWindow@@SAXPAVTWindowObj@@ABVSRect@@@Z)
0040df40 000000ed .text             UWindow(W).obj(?GetBounds@UWindow@@SAXPAVTWindowObj@@AAVSRect@@@Z)
0040e030 00000592 .text             UWindow(W).obj(?GetAutoBounds@UWindow@@SA_NPAVTWindowObj@@GABVSRect@@AAV3@@Z)
0040e5d0 000000f6 .text             UWindow(W).obj(?GetAutoBounds@UWindow@@SA_NPAVTWindowObj@@GGAAVSRect@@@Z)
0040e6d0 00000030 .text             UWindow(W).obj(?GetZoomBounds@UWindow@@SA_NPAVTWindowObj@@ABVSRect@@AAV3@@Z)
0040e700 00000028 .text             UWindow(W).obj(?GetState@UWindow@@SAGPAVTWindowObj@@@Z)
0040e730 00000053 .text             UWindow(W).obj(?SetMessageHandler@UWindow@@SAXPAVTWindowObj@@P6AXPAX1KPBXK@Z1@Z)
0040e790 0000004f .text             UWindow(W).obj(?PostMessage@UWindow@@SAXPAVTWindowObj@@KPBXKF@Z)
0040e7e0 00000056 .text             UWindow(W).obj(?InstallKeyCommands@UWindow@@SAXPBUSKeyCmd@@KP6AXPAX1KPBXK@Z1@Z)
0040e840 0000007d .text             UWindow(W).obj(?BringToFront@UWindow@@SA_NPAVTWindowObj@@_N@Z)
0040e8c0 00000055 .text             UWindow(W).obj(?SetMouseCaptureWindow@UWindow@@SAXPAVTWindowObj@@@Z)
0040e920 0000005f .text             UWindow(W).obj(?ReleaseMouseCaptureWindow@UWindow@@SAXPAVTWindowObj@@@Z)
0040e980 00000032 .text             UWindow(W).obj(?IsCollapsed@UWindow@@SA_NPAVTWindowObj@@@Z)
0040e9c0 00000032 .text             UWindow(W).obj(?IsZoomed@UWindow@@SA_NPAVTWindowObj@@@Z)
0040ea00 0000002f .text             UWindow(W).obj(?GlobalToLocal@UWindow@@SAXPAVTWindowObj@@AAVSPoint@@@Z)
0040ea30 00000050 .text             UWindow(W).obj(?GetRedrawRect@UWindow@@SA_NPAVTWindowObj@@AAVSRect@@@Z)
0040ea80 00000030 .text             UWindow(W).obj(?Refresh@UWindow@@SAXPAVTWindowObj@@@Z)
0040eab0 00000075 .text             UWindow(W).obj(?Refresh@UWindow@@SAXPAVTWindowObj@@ABVSRect@@@Z)
0040eb30 00000026 .text             UWindow(W).obj(?GetDepth@UWindow@@SAGPAVTWindowObj@@@Z)
0040eb60 0000032c .text             UWindow(W).obj(?BeginDraw@UWindow@@SAPAVTImageObj@@PAVTWindowObj@@ABVSRect@@@Z)
0040ee90 000000d1 .text             UWindow(W).obj(?EndDraw@UWindow@@SAXPAVTWindowObj@@@Z)
0040ef70 00000090 .text             UWindow(W).obj(?AbortDraw@UWindow@@SAXPAVTWindowObj@@@Z)
0040f000 000001ca .text             UWindow(W).obj(?_WNMyMaximize@@YAXPAVTWindowObj@@@Z)
0040f1d0 00001b5a .text             UWindow(W).obj(?_WNWndProc@@YGJPAUHWND__@@IIJ@Z)
00410d30 0000003e .text             UWindow(W).obj(?_WNSendMessageToMDIKids@@YAXGIJ@Z)
00410d70 00000215 .text             UWindow(W).obj(?_WNFrameWndProc@@YGJPAUHWND__@@IIJ@Z)
00410f90 00000052 .text             UWindow(W).obj(?_RemoveFromLayer@@YAXPAUSWindow@@@Z)
00410ff0 0000011a .text             UWindow(W).obj(?_AddToLayerAndGetInsertAfter@@YAPAUHWND__@@PAUSWindow@@PAU1@@Z)
00411110 000000c3 .text             UWindow(W).obj(?_PutInLayer@@YAXPAUSWindow@@@Z)
004111e0 00000071 .text             UWindow(W).obj(?_GetTopVisibleModalWindow@@YAPAUSWindow@@XZ)
00411260 0000009a .text             UWindow(W).obj(?_GetPrevVisibleWindow@@YAPAUHWND__@@PAUSWindow@@PAU1@@Z)
00411300 00000080 .text             UWindow(W).obj(?_GetBottomWindow@@YAPAUHWND__@@PAUSWindow@@@Z)
00411380 00000064 .text             UWindow(W).obj(?_IsTopVisibleModalWindow@@YA_NXZ)
004113f0 00000043 .text             UWindow(W).obj(?_IsInWindowList@@YA_NPAUHWND__@@@Z)
00411440 00000010 .text             UWindow(W).obj(?_StateTimerProc@@YAXPAX0KPBXK@Z)
00411450 0000005d .text             UWindow(W).obj(?_FlashTimerProc@@YAXPAX0KPBXK@Z)
004114b0 00000484 .text             UWindow(W).obj(?_CheckWindowStates@@YAXXZ)
00411940 00000099 .text             UWindow(W).obj(?_StandardDialogBox@@YA_NE@Z)
004119e0 00000124 .text             UWindow(W).obj(?_WNDispatchDrag@@YAXPAVTWindowObj@@PAVTDragObj@@KKU_POINTL@@@Z)
00411b10 0000004c .text             UWindow(W).obj(?_WNPostMouseUp@@YAXXZ)
00411b60 00000072 .text             UWindow(W).obj(?_GetRealWinBounds@@YAXPAVTWindowObj@@AAVSRect@@@Z)
00411be0 00000016 .text             UWindow(W).obj(?_GetRealWinBounds@@YAXPAVCWindow@@AAVSRect@@@Z)
00411c00 0000006b .text             UWindow(W).obj(?_SetRealWinLocation@@YAXPAVCWindow@@VSPoint@@0@Z)
00411c70 000000cc .text             UWindow(W).obj(?_GetScreenBounds@@YAXAAVSRect@@@Z)
00411d40 000003b3 .text             UWindow(W).obj(?_WNCalcUnobstructedBounds@@YAXPAVTWindowObj@@AAVSRect@@@Z)
00412100 000000e3 .text             UWindow(W).obj(?_SendToQuickTime@@YA_NPAVTWindowObj@@IIJ@Z)
004121f0 0000003c .text             UWindow(W).obj(?_UnregisterWithQuickTime@@YAXPAVTWindowObj@@@Z)
00412230 0000000b .text             UDebug(W).obj(?Break@UDebug@@SAXXZ)
00412240 00000155 .text             UDebug(W).obj(?LogToDebugFile@UDebug@@SAXPBDZZ)
004123a0 00000086 .text             UDebug(W).obj(?DebugBreak@@YAXPBDZZ)
00412430 00000135 .text             UApplication(W).obj(?Init@UApplication@@SAXXZ)
00412570 00000052 .text             UApplication(W).obj(?Process@UApplication@@SAXXZ)
004125d0 0000007f .text             UApplication(W).obj(?ProcessAndSleep@UApplication@@SAXXZ)
00412650 00000053 .text             UApplication(W).obj(?ProcessOnly@UApplication@@SAXPBK@Z)
004126b0 00000023 .text             UApplication(W).obj(?Run@UApplication@@SAXXZ)
004126e0 00000011 .text             UApplication(W).obj(?Quit@UApplication@@SAXXZ)
00412700 0000000d .text             UApplication(W).obj(?Abort@UApplication@@SAXXZ)
00412710 0000000a .text             UApplication(W).obj(?IsQuit@UApplication@@SA_NXZ)
00412720 00000019 .text             UApplication(W).obj(?SetMessageHandler@UApplication@@SAXP6AXPAX0KPBXK@Z0@Z)
00412740 000000a3 .text             UApplication(W).obj(?SendMessage@UApplication@@SAXKPBXKFP6AXPAX1K0K@Z11@Z)
004127f0 00000046 .text             UApplication(W).obj(?PostMessage@UApplication@@SAXKPBXKFP6AXPAX1K0K@Z11@Z)
00412840 0000002b .text             UApplication(W).obj(?ReplaceMessage@UApplication@@SAXKPBXKFP6AXPAX1K0K@Z11@Z)
00412870 0000001c .text             UApplication(W).obj(?FlushMessages@UApplication@@SAXP6AXPAX0KPBXK@Z00@Z)
00412890 00000232 .text             UApplication(W).obj(?GetDocumentToOpen@UApplication@@SAPAVTFSRefObj@@XZ)
00412ad0 00000007 .text             UApplication(W).obj(?_DispatchThreadMessage@@YA_NK@Z)
00412ae0 00000026 .text             UApplication(W).obj(?_APProcess@@YAXPAUtagMSG@@@Z)
00412b10 0000001b .text             UApplication(W).obj(?_APDummyProc@@YGJPAUHWND__@@IIJ@Z)
00412b30 000003a0 .text             UFileSys(W).obj(?New@UFileSys@@SAPAVTFSRefObj@@PAV2@PBE1KPAG@Z)
00412ed0 0000004b .text             UFileSys(W).obj(?Dispose@UFileSys@@SAXPAVTFSRefObj@@@Z)
00412f20 0000006d .text             UFileSys(W).obj(?CreateFile@UFileSys@@SAXPAVTFSRefObj@@KK@Z)
00412f90 000000e1 .text             UFileSys(W).obj(?CreateFileAndOpen@UFileSys@@SAXPAVTFSRefObj@@KKKK@Z)
00413080 00000052 .text             UFileSys(W).obj(?Exists@UFileSys@@SA_NPAVTFSRefObj@@PA_N@Z)
004130e0 0000008b .text             UFileSys(W).obj(?DeleteFile@UFileSys@@SAXPAVTFSRefObj@@@Z)
00413170 000000a1 .text             UFileSys(W).obj(?Open@UFileSys@@SAXPAVTFSRefObj@@K@Z)
00413220 00000065 .text             UFileSys(W).obj(?Close@UFileSys@@SAXPAVTFSRefObj@@@Z)
00413290 000000a4 .text             UFileSys(W).obj(?Read@UFileSys@@SAKPAVTFSRefObj@@KPAXKK@Z)
00413340 000000a6 .text             UFileSys(W).obj(?Write@UFileSys@@SAKPAVTFSRefObj@@KPBXKK@Z)
004133f0 000000dd .text             UFileSys(W).obj(?GetSize@UFileSys@@SAKPAVTFSRefObj@@K@Z)
004134d0 00000069 .text             UFileSys(W).obj(?_FSFindPathTargetName@@YAXPBXKAAPAEAAK@Z)
00413540 00000099 .text             UFileSys(W).obj(?_FSIsLinkFile@@YA_NPBXK@Z)
004135e0 00000049 .text             UFileSys(W).obj(?_FSStripName@@YAXPAXK@Z)
00413630 00000085 .text             UFileSys(W).obj(?_FSAccessToWinAccess@@YAXKAAK0@Z)
004136c0 00000082 .text             UFileSys(W).obj(?_FSParentExists@@YA_NPBD@Z)
00413750 000000cf .text             UFileSys(W).obj(?_FSConvertPathString@@YAKPBEPAX@Z)
00413820 0000037c .text             UFileSys(W).obj(?_FSDoNewOptions@@YA_NPBDPADKPAG@Z)
00413ba0 0000023c .text             UFileSys(W).obj(?_FSResolveLink@@YAJPAUHWND__@@PBDPADPAU_WIN32_FIND_DATAA@@H@Z)
00413de0 0000027b .text             UFileSys(W).obj(?_FSResolveLinksInPath@@YAJPAUHWND__@@PBDPADPAU_WIN32_FIND_DATAA@@@Z)
00414060 00000094 .text             UFileSys(W).obj(?_FSNewRefFromWinPath@@YAPAVTFSRefObj@@PBXK@Z)
00414100 0000004c .text             USound.obj(?_SNPlayRezMsgHandler@@YAXPAX0KPBXK@Z)
00414150 000002b3 .text             USound.obj(?Play@USound@@SAXPAVTRezObj@@JK@Z)
00414410 00000126 .text             CWindow.obj(??0CWindow@@QAE@ABVSRect@@GGGPAV0@@Z)
00414540 0000008f .text             CWindow.obj(??1CWindow@@UAE@XZ)
004145d0 000000eb .text             CWindow.obj(?Draw@CWindow@@UAEXABVSRect@@@Z)
004146c0 00000035 .text             CWindow.obj(?MouseDown@CWindow@@UAEXABUSMouseMsgData@@@Z)
00414700 00000035 .text             CWindow.obj(?MouseUp@CWindow@@UAEXABUSMouseMsgData@@@Z)
00414740 0000003d .text             CWindow.obj(?MouseEnter@CWindow@@UAEXABUSMouseMsgData@@@Z)
00414780 00000035 .text             CWindow.obj(?MouseMove@CWindow@@UAEXABUSMouseMsgData@@@Z)
004147c0 00000035 .text             CWindow.obj(?MouseLeave@CWindow@@UAEXABUSMouseMsgData@@@Z)
00414800 00000035 .text             CWindow.obj(?KeyDown@CWindow@@UAEXABUSKeyMsgData@@@Z)
00414840 00000035 .text             CWindow.obj(?KeyUp@CWindow@@UAEXABUSKeyMsgData@@@Z)
00414880 00000035 .text             CWindow.obj(?KeyRepeat@CWindow@@UAEXABUSKeyMsgData@@@Z)
004148c0 00000035 .text             CWindow.obj(?DragEnter@CWindow@@UAEXABUSDragMsgData@@@Z)
00414900 00000035 .text             CWindow.obj(?DragMove@CWindow@@UAEXABUSDragMsgData@@@Z)
00414940 00000035 .text             CWindow.obj(?DragLeave@CWindow@@UAEXABUSDragMsgData@@@Z)
00414980 0000005e .text             CWindow.obj(?Drop@CWindow@@UAE_NABUSDragMsgData@@@Z)
004149e0 0000006f .text             CWindow.obj(?SendToQuickTime@CWindow@@UAEXABUEventRecord@@@Z)
00414a50 00000068 .text             CWindow.obj(?UserClose@CWindow@@UAEXABUSMouseMsgData@@@Z)
00414ac0 0000006a .text             CWindow.obj(?UserZoom@CWindow@@UAEXABUSMouseMsgData@@@Z)
00414b30 0000006e .text             CWindow.obj(?BoundsChanged@CWindow@@UAEXXZ)
00414ba0 00000040 .text             CWindow.obj(?StateChanged@CWindow@@UAEXXZ)
00414be0 0000008a .text             CWindow.obj(?Hit@CWindow@@UAEXABUSHitMsgData@@@Z)
00414c70 00000048 .text             CWindow.obj(?ProcessModal@CWindow@@QAEXXZ)
00414cc0 00000015 .text             CWindow.obj(?Timer@CWindow@@UAEXPAVTTimerObj@@@Z)
00414ce0 00000025 .text             CWindow.obj(?MessageHandler@CWindow@@KAXPAX0KPBXK@Z)
00414d10 0000033d .text             CWindow.obj(?HandleMessage@CWindow@@UAEXPAXKPBXK@Z)
00415050 00000055 .text             CWindow.obj(?GetHitID@CWindow@@QAEKXZ)
004150b0 0000007a .text             CWindow.obj(?SetBounds@CWindow@@UAEXABVSRect@@@Z)
00415130 00000054 .text             CWindow.obj(?SetAutoBounds@CWindow@@QAEXGG@Z)
00415190 0000004e .text             CWindow.obj(?MouseCaptureReleased@CWindow@@UAEXXZ)
004151e0 00000075 .text             CWindow.obj(?HandleInstall@CWindow@@MAEXPAVCView@@@Z)
00415260 00000077 .text             CWindow.obj(?HandleRemove@CWindow@@MAEXPAVCView@@@Z)
004152e0 00000025 .text             CWindow.obj(?HandleRefresh@CWindow@@MAEXPAVCView@@ABVSRect@@@Z)
00415310 00000035 .text             CWindow.obj(?HandleHit@CWindow@@MAEXPAVCView@@ABUSHitMsgData@@@Z)
00415350 00000040 .text             CWindow.obj(?HandleGetScreenDelta@CWindow@@MAEXPAVCView@@AAJ1@Z)
00415390 0000005d .text             CWindow.obj(?HandleGetVisibleRect@CWindow@@MAEXPAVCView@@AAVSRect@@@Z)
004153f0 00000054 .text             CWindow.obj(?HandleCaptureMouse@CWindow@@MAEXPAVCView@@@Z)
00415450 00000041 .text             CWindow.obj(?HandleReleaseMouse@CWindow@@MAEXPAVCView@@@Z)
004154a0 0000002e .text             CWindow.obj(?HandleGetCaptureMouseView@CWindow@@MAEPAVCView@@XZ)
004154d0 00000016 .text             CWindow.obj(?HandleGetParentWindow@CWindow@@MAEPAV1@XZ)
004154f0 0000001e .text             CWindow.obj(??0CWindowList@@QAE@XZ)
00415510 00000015 .text             CWindow.obj(??1?$CPtrList@VCWindow@@@@QAE@XZ)
00415530 00000026 .text             CWindow.obj(??1CWindowList@@QAE@XZ)
00415560 00000031 .text             CWindow.obj(?AddWindow@CWindowList@@QAEKPAVCWindow@@@Z)
004155a0 00000031 .text             CWindow.obj(?RemoveWindow@CWindowList@@QAEKPAVCWindow@@@Z)
004155e0 0000006f .text             CWindow.obj(?ClearWindowList@CWindowList@@QAEXXZ)
00415650 0000012f .text             CWindow.obj(??0CSnapWindows@@QAE@XZ)
00415780 0000006e .text             CWindow.obj(??1CSnapWindows@@QAE@XZ)
004157f0 00000018 .text             CWindow.obj(?IsEnableSnapWindows@CSnapWindows@@QAE_NXZ)
00415810 00000049 .text             CWindow.obj(?RemoveWindow@CSnapWindows@@QAEXPAVCWindow@@@Z)
00415860 000000db .text             CWindow.obj(?CreateSnapWinList@CSnapWindows@@QAEXPAVCWindow@@@Z)
00415940 0000005a .text             CWindow.obj(?CreateSnapSound@CSnapWindows@@QAEXPAVCWindow@@@Z)
004159a0 0000012a .text             CWindow.obj(?DestroySnapWinListSound@CSnapWindows@@QAEX_N@Z)
00415ad0 00000304 .text             CWindow.obj(?WinSnapTogether@CSnapWindows@@QAE_NPAVCWindow@@AAVSRect@@_N@Z)
00415de0 0000007c .text             CWindow.obj(?WinMoveTogether@CSnapWindows@@QAEXPAVCWindow@@@Z)
00415e60 0000025a .text             CWindow.obj(?WinMoveTogether@CSnapWindows@@QAEXPAVCWindow@@VSRect@@@Z)
004160c0 00000054 .text             CWindow.obj(?WinKeepOnScreen@CSnapWindows@@QAE_NPAVCWindow@@AAVSRect@@@Z)
00416120 00000920 .text             CWindow.obj(?RectSnapTogether@CSnapWindows@@IAE_NAAVSRect@@V2@_N@Z)
00416a40 0000015e .text             CWindow.obj(?RectSnapScreen@CSnapWindows@@IAE_NAAVSRect@@_N@Z)
00416ba0 00000100 .text             CWindow.obj(?RectKeepOnScreen@CSnapWindows@@IAE_NAAVSRect@@@Z)
00416ca0 00000279 .text             CWindow.obj(?ComposeSnapWinList@CSnapWindows@@IAEXPAVCWindow@@VSRect@@@Z)
00416f20 00000564 .text             CWindow.obj(?ComposeSnapSound@CSnapWindows@@IAEXPAVCWindow@@VSRect@@_N2@Z)
00417490 00000047 .text             CWindow.obj
004174e0 00000080 .text             destroy.obj(___destroy_new_array)
00417560 00000075 .text             ExceptionX86.obj(__RegisterExceptionTables)
004175e0 00000205 .text             ExceptionX86.obj(?ExX86_FindExceptionRecord@@YAXPADPAUExceptionInfo@@@Z)
004177f0 00000023 .text             ExceptionX86.obj(?ExX86_CurrentAction@@YAGPBUActionIterator@@@Z)
00417820 00000178 .text             ExceptionX86.obj(?ExX86_NextAction@@YAGPAUActionIterator@@@Z)
004179a0 00000131 .text             ExceptionX86.obj(?ExX86_PopStackFrame@@YAPADPAUThrowContext@@PAUExceptionInfo@@@Z)
00417ae0 000000bb .text             ExceptionX86.obj(?ExX86_GetLocalAddr@@YAPADPAUThrowContext@@J@Z)
00417ba0 00000045 .text             ExceptionX86.obj(?ExX86_GetOuterLocalAddr@@YAPADPAUThrowContext@@PAUActionIterator@@J@Z)
00417bf0 00000060 .text             ExceptionX86.obj(?ExX86_GetValue@@YAJPAUThrowContext@@JF@Z)
00417c50 0000002c .text             ExceptionX86.obj(?ExX86_DestroyLocal@@YAXPAUThrowContext@@PBUex_destroylocal@@@Z)
00417c80 00000044 .text             ExceptionX86.obj(?ExX86_DestroyLocalCond@@YAXPAUThrowContext@@PBUex_destroylocalcond@@@Z)
00417cd0 0000002f .text             ExceptionX86.obj(?ExX86_DestroyLocalPointer@@YAXPAUThrowContext@@PBUex_destroylocalpointer@@@Z)
00417d00 0000006b .text             ExceptionX86.obj(?ExX86_DestroyLocalArray@@YAXPAUThrowContext@@PBUex_destroylocalarray@@@Z)
00417d70 00000095 .text             ExceptionX86.obj(?ExX86_DestroyPartialArray@@YAXPAUThrowContext@@PBUex_destroypartialarray@@@Z)
00417e10 00000035 .text             ExceptionX86.obj(?ExX86_DestroyMember@@YAXPAUThrowContext@@PBUex_destroymember@@H@Z)
00417e50 0000004d .text             ExceptionX86.obj(?ExX86_DestroyMemberCond@@YAXPAUThrowContext@@PBUex_destroymembercond@@@Z)
00417ea0 00000074 .text             ExceptionX86.obj(?ExX86_DestroyMemberArray@@YAXPAUThrowContext@@PBUex_destroymemberarray@@@Z)
00417f20 00000025 .text             ExceptionX86.obj(?ExX86_DeletePointer@@YAXPAUThrowContext@@PBUex_deletepointer@@@Z)
00417f50 0000003d .text             ExceptionX86.obj(?ExX86_DeletePointerCond@@YAXPAUThrowContext@@PBUex_deletepointercond@@@Z)
00417f90 00000274 .text             ExceptionX86.obj(?ExX86_UnwindStack@@YAXPAUThrowContext@@PAUExceptionInfo@@PAX@Z)
00418210 00000055 .text             ExceptionX86.obj(?ExX86_IsInSpecification@@YAHPADPAUex_specification@@@Z)
00418270 00000097 .text             ExceptionX86.obj(___unexpected)
00418310 00000041 .text             ExceptionX86.obj(??1bad_exception@std@@UAE@XZ)
00418360 0000001f .text             ExceptionX86.obj(??1exception@std@@UAE@XZ)
00418380 00000027 .text             ExceptionX86.obj(??0bad_exception@std@@QAE@XZ)
004183b0 0000001f .text             ExceptionX86.obj(??0exception@std@@QAE@XZ)
004183d0 000000a9 .text             ExceptionX86.obj(?ExX86_HandleUnexpected@@YAXPAUThrowContext@@PAUExceptionInfo@@PAUex_specification@@@Z)
00418480 00000275 .text             ExceptionX86.obj(?ExX86_ThrowHandler@@YAXPAUThrowContext@@@Z)
00418700 00000039 .text             ExceptionX86.obj(??4ExceptionInfo@@QAEAAU0@ABU0@@Z)
00418740 0000005b .text             ExceptionX86.obj(___throw)
004187a0 00000013 .text             ExceptionX86.obj(?ignore@@YAXXZ)
004187c0 000000f2 .text             ExceptionX86.obj(_ExX86_FindCatcher)
004188c0 00000058 .text             ExceptionX86.obj(??_Eexception@std@@UAE@I@Z)
00418920 00000018 .text             ExceptionX86.obj(?what@exception@std@@UBEPBDXZ)
00418940 00000058 .text             ExceptionX86.obj(??_Ebad_exception@std@@UAE@I@Z)
004189a0 00000018 .text             ExceptionX86.obj(?what@bad_exception@std@@UBEPBDXZ)
004189c0 0000000f .text             ExceptionX86.obj
004189d0 00000019 .text             UDateTime(W).obj(?GetSeconds@UDateTime@@SAKXZ)
004189f0 0000000d .text             UDateTime(W).obj(?GetMilliseconds@UDateTime@@SAKXZ)
00418a00 00000080 .text             UDateTime(W).obj(?GetCalendarDate@UDateTime@@SAXKAAUSCalendarDate@@@Z)
00418a80 000001cc .text             UDateTime(W).obj(?DateToText@UDateTime@@SAKABUSCalendarDate@@PAXKK@Z)
00418c50 0000003d .text             UDateTime(W).obj(?DateToText@UDateTime@@SAKPAXKK@Z)
00418c90 0000021e .text             CView.obj(??0CView@@QAE@PAVCViewHandler@@ABVSRect@@@Z)
00418eb0 0000009c .text             CView.obj(??1CView@@UAE@XZ)
00418f50 00000093 .text             CView.obj(?SetHandler@CView@@UAEXPAVCViewHandler@@@Z)
00418ff0 00000026 .text             CView.obj(?GetRegion@CView@@UBEXPAVTRegionObj@@@Z)
00419020 000001bf .text             CView.obj(?SetBounds@CView@@UAE_NABVSRect@@@Z)
004191e0 0000010e .text             CView.obj(?SetVisible@CView@@UAE_N_N@Z)
004192f0 00000059 .text             CView.obj(?SetEnable@CView@@UAE_N_N@Z)
00419350 00000036 .text             CView.obj(?SetCanFocus@CView@@UAEX_N@Z)
00419390 00000076 .text             CView.obj(?ChangeState@CView@@UAE_NG@Z)
00419410 00000080 .text             CView.obj(?TabFocusNext@CView@@UAE_NXZ)
00419490 00000080 .text             CView.obj(?TabFocusPrev@CView@@UAE_NXZ)
00419510 00000015 .text             CView.obj(?Draw@CView@@UAEXPAVTImageObj@@ABVSRect@@K@Z)
00419530 000000f9 .text             CView.obj(?Hit@CView@@QAEXKKKPBXK@Z)
00419630 0000006c .text             CView.obj(?MouseDown@CView@@UAEXABUSMouseMsgData@@@Z)
004196a0 0000008e .text             CView.obj(?MouseUp@CView@@UAEXABUSMouseMsgData@@@Z)
00419730 000000a1 .text             CView.obj(?MouseEnter@CView@@UAEXABUSMouseMsgData@@@Z)
004197e0 000000ae .text             CView.obj(?MouseMove@CView@@UAEXABUSMouseMsgData@@@Z)
00419890 0000006e .text             CView.obj(?MouseLeave@CView@@UAEXABUSMouseMsgData@@@Z)
00419900 00000046 .text             CView.obj(?CaptureMouse@CView@@QAEXXZ)
00419950 00000043 .text             CView.obj(?ReleaseMouse@CView@@QAEXXZ)
004199a0 00000036 .text             CView.obj(?MouseCaptureReleased@CView@@UAEXXZ)
004199e0 00000017 .text             CView.obj(?KeyDown@CView@@UAE_NABUSKeyMsgData@@@Z)
00419a00 00000015 .text             CView.obj(?KeyUp@CView@@UAEXABUSKeyMsgData@@@Z)
00419a20 00000017 .text             CView.obj(?KeyRepeat@CView@@UAE_NABUSKeyMsgData@@@Z)
00419a40 00000017 .text             CView.obj(?IsSelfDrag@CView@@UBE_NPAVTDragObj@@@Z)
00419a60 00000052 .text             CView.obj(?DragEnter@CView@@UAEXABUSDragMsgData@@@Z)
00419ac0 00000025 .text             CView.obj(?DragMove@CView@@UAEXABUSDragMsgData@@@Z)
00419af0 00000043 .text             CView.obj(?DragLeave@CView@@UAEXABUSDragMsgData@@@Z)
00419b40 00000017 .text             CView.obj(?Drop@CView@@UAE_NABUSDragMsgData@@@Z)
00419b60 00000013 .text             CView.obj(?UpdateQuickTime@CView@@UAEXXZ)
00419b80 00000015 .text             CView.obj(?SendToQuickTime@CView@@UAEXABUEventRecord@@@Z)
00419ba0 00000019 .text             CView.obj(?TimerHandler@CView@@KAXPAX0KPBXK@Z)
00419bc0 00000015 .text             CView.obj(?Timer@CView@@UAEXPAVTTimerObj@@@Z)
00419be0 0000003c .text             CView.obj(?GetFullSize@CView@@UBEXAAK0@Z)
00419c20 0000001f .text             CView.obj(?GetFullHeight@CView@@UBEKXZ)
00419c40 0000001f .text             CView.obj(?GetFullWidth@CView@@UBEKXZ)
00419c60 0000006c .text             CView.obj(?SetFullSize@CView@@QAEXXZ)
00419cd0 0000005f .text             CView.obj(?SetFullHeight@CView@@QAEXXZ)
00419d30 0000005f .text             CView.obj(?SetFullWidth@CView@@QAEXXZ)
00419d90 000000ac .text             CView.obj(?Refresh@CView@@MAEXABVSRect@@@Z)
00419e40 00000050 .text             CView.obj(?GetScreenDelta@CView@@QBEXAAJ0@Z)
00419e90 0000007c .text             CView.obj(?IsPointWithin@CView@@UBE_NABVSPoint@@@Z)
00419f10 00000038 .text             CView.obj(?SetHasChanged@CView@@UAEX_N@Z)
00419f50 0000003a .text             CView.obj(?MakeRectVisible@CView@@QAEXABVSRect@@G@Z)
00419f90 00000086 .text             CView.obj(?GetVisibleRect@CView@@QBEXAAVSRect@@@Z)
0041a020 00000039 .text             CView.obj(?GetParentWindow@CView@@QAEPAVCWindow@@XZ)
0041a060 00000015 .text             CView.obj(?HandleInstall@CViewHandler@@UAEXPAVCView@@@Z)
0041a080 00000015 .text             CView.obj(?HandleRemove@CViewHandler@@UAEXPAVCView@@@Z)
0041a0a0 00000015 .text             CView.obj(?HandleSetBounds@CViewHandler@@UAEXPAVCView@@ABVSRect@@@Z)
0041a0c0 00000015 .text             CView.obj(?HandleRefresh@CViewHandler@@UAEXPAVCView@@ABVSRect@@@Z)
0041a0e0 00000015 .text             CView.obj(?HandleSetVisible@CViewHandler@@UAEXPAVCView@@_N@Z)
0041a100 00000015 .text             CView.obj(?HandleHit@CViewHandler@@UAEXPAVCView@@ABUSHitMsgData@@@Z)
0041a120 00000015 .text             CView.obj(?HandleMakeRectVisible@CViewHandler@@UAEXABVSRect@@G@Z)
0041a140 00000015 .text             CView.obj(?HandleCaptureMouse@CViewHandler@@UAEXPAVCView@@@Z)
0041a160 00000015 .text             CView.obj(?HandleReleaseMouse@CViewHandler@@UAEXPAVCView@@@Z)
0041a180 00000018 .text             CView.obj(?HandleGetCaptureMouseView@CViewHandler@@UAEPAVCView@@XZ)
0041a1a0 00000018 .text             CView.obj(?HandleGetParentWindow@CViewHandler@@UAEPAVCWindow@@XZ)
0041a1c0 00000028 .text             CView.obj(?HandleGetScreenDelta@CViewHandler@@UAEXPAVCView@@AAJ1@Z)
0041a1f0 00000078 .text             CView.obj(?HandleGetVisibleRect@CViewHandler@@UAEXPAVCView@@AAVSRect@@@Z)
0041a270 00000028 .text             CView.obj(?HandleGetOrigin@CViewHandler@@UAEXAAVSPoint@@@Z)
0041a2a0 00000047 .text             CView.obj(??_ECView@@UAE@I@Z)
0041a2f0 0000003b .text             CViewContainer.obj(??0CSingleViewContainer@@QAE@XZ)
0041a330 0000005a .text             CViewContainer.obj(??1CSingleViewContainer@@UAE@XZ)
0041a390 0000003e .text             CViewContainer.obj(?SetView@CSingleViewContainer@@UAEXPAVCView@@@Z)
0041a3d0 0000004a .text             CViewContainer.obj(?DetachView@CSingleViewContainer@@UAEPAVCView@@XZ)
0041a420 00000038 .text             CViewContainer.obj(?GetNextView@CSingleViewContainer@@UBE_NAAPAVCView@@AAK@Z)
0041a460 00000064 .text             CViewContainer.obj(?HandleInstall@CSingleViewContainer@@MAEXPAVCView@@@Z)
0041a4d0 0000002c .text             CViewContainer.obj(?HandleRemove@CSingleViewContainer@@MAEXPAVCView@@@Z)
0041a500 0000004c .text             CViewContainer.obj(??0CMultiViewContainer@@QAE@XZ)
0041a550 000000b8 .text             CViewContainer.obj(??1CMultiViewContainer@@UAE@XZ)
0041a610 0000005a .text             CViewContainer.obj(?GetNextView@CMultiViewContainer@@UBE_NAAPAVCView@@AAK@Z)
0041a670 00000023 .text             CViewContainer.obj(?HandleInstall@CMultiViewContainer@@MAEXPAVCView@@@Z)
0041a6a0 0000002f .text             CViewContainer.obj(?HandleRemove@CMultiViewContainer@@MAEXPAVCView@@@Z)
0041a6d0 00000047 .text             CViewContainer.obj(??_ECMultiViewContainer@@UAE@I@Z)
0041a720 00000047 .text             CViewContainer.obj(??_ECSingleViewContainer@@UAE@I@Z)
0041a770 000000ed .text             CContainerView.obj(??0CContainerView@@QAE@PAVCViewHandler@@ABVSRect@@@Z)
0041a860 00000054 .text             CContainerView.obj(??1CContainerView@@UAE@XZ)
0041a8c0 00000164 .text             CContainerView.obj(?GetNextTabView@CContainerView@@MBEPAVCView@@XZ)
0041aa30 000001b8 .text             CContainerView.obj(?GetPrevTabView@CContainerView@@MBEPAVCView@@XZ)
0041abf0 00000094 .text             CContainerView.obj(?PointToView@CContainerView@@QBEPAVCView@@ABVSPoint@@@Z)
0041ac90 00000237 .text             CContainerView.obj(?Draw@CContainerView@@UAEXPAVTImageObj@@ABVSRect@@K@Z)
0041aed0 00000021 .text             CContainerView.obj(??1StRegion@@QAE@XZ)
0041af00 00000029 .text             CContainerView.obj(??1StOriginSaver@@QAE@XZ)
0041af30 000002a2 .text             CContainerView.obj(?MouseDown@CContainerView@@UAEXABUSMouseMsgData@@@Z)
0041b1e0 0000014e .text             CContainerView.obj(?MouseUp@CContainerView@@UAEXABUSMouseMsgData@@@Z)
0041b330 0000002b .text             CContainerView.obj(?MouseEnter@CContainerView@@UAEXABUSMouseMsgData@@@Z)
0041b360 0000011d .text             CContainerView.obj(?MouseMove@CContainerView@@UAEXABUSMouseMsgData@@@Z)
0041b480 000000a5 .text             CContainerView.obj(?MouseLeave@CContainerView@@UAEXABUSMouseMsgData@@@Z)
0041b530 0000034e .text             CContainerView.obj(?KeyDown@CContainerView@@UAE_NABUSKeyMsgData@@@Z)
0041b880 000000f7 .text             CContainerView.obj(?KeyUp@CContainerView@@UAEXABUSKeyMsgData@@@Z)
0041b980 0000004c .text             CContainerView.obj(?KeyRepeat@CContainerView@@UAE_NABUSKeyMsgData@@@Z)
0041b9d0 0000002b .text             CContainerView.obj(?DragEnter@CContainerView@@UAEXABUSDragMsgData@@@Z)
0041ba00 0000011a .text             CContainerView.obj(?DragMove@CContainerView@@UAEXABUSDragMsgData@@@Z)
0041bb20 000000a5 .text             CContainerView.obj(?DragLeave@CContainerView@@UAEXABUSDragMsgData@@@Z)
0041bbd0 00000041 .text             CContainerView.obj(?Drop@CContainerView@@UAE_NABUSDragMsgData@@@Z)
0041bc20 0000007b .text             CContainerView.obj(?UpdateQuickTime@CContainerView@@UAEXXZ)
0041bca0 00000080 .text             CContainerView.obj(?SendToQuickTime@CContainerView@@UAEXABUEventRecord@@@Z)
0041bd20 0000019f .text             CContainerView.obj(?ChangeState@CContainerView@@UAE_NG@Z)
0041bec0 000000e9 .text             CContainerView.obj(?SetFocusView@CContainerView@@UAE_NPAVCView@@@Z)
0041bfb0 00000207 .text             CContainerView.obj(?TabFocusNext@CContainerView@@UAE_NXZ)
0041c1c0 00000248 .text             CContainerView.obj(?TabFocusPrev@CContainerView@@UAE_NXZ)
0041c410 000001b4 .text             CContainerView.obj(?SetBounds@CContainerView@@UAE_NABVSRect@@@Z)
0041c5d0 00000042 .text             CContainerView.obj(?MouseCaptureReleased@CContainerView@@UAEXXZ)
0041c620 0000007c .text             CContainerView.obj(?HandleInstall@CContainerView@@MAEXPAVCView@@@Z)
0041c6a0 00000215 .text             CContainerView.obj(?HandleRemove@CContainerView@@MAEXPAVCView@@@Z)
0041c8c0 00000074 .text             CContainerView.obj(?HandleRefresh@CContainerView@@MAEXPAVCView@@ABVSRect@@@Z)
0041c940 00000038 .text             CContainerView.obj(?HandleHit@CContainerView@@MAEXPAVCView@@ABUSHitMsgData@@@Z)
0041c980 00000039 .text             CContainerView.obj(?HandleGetScreenDelta@CContainerView@@MAEXPAVCView@@AAJ1@Z)
0041c9c0 0000004c .text             CContainerView.obj(?HandleGetVisibleRect@CContainerView@@MAEXPAVCView@@AAVSRect@@@Z)
0041ca10 0000003e .text             CContainerView.obj(?HandleCaptureMouse@CContainerView@@MAEXPAVCView@@@Z)
0041ca50 00000042 .text             CContainerView.obj(?HandleReleaseMouse@CContainerView@@MAEXPAVCView@@@Z)
0041caa0 0000004c .text             CContainerView.obj(?HandleGetOrigin@CContainerView@@MAEXAAVSPoint@@@Z)
0041caf0 00000019 .text             CContainerView.obj(?HandleGetCaptureMouseView@CContainerView@@MAEPAVCView@@XZ)
0041cb10 0000001d .text             CContainerView.obj(?HandleGetParentWindow@CContainerView@@MAEPAVCWindow@@XZ)
0041cb30 00000008 .text             CContainerView.obj(@44@?HandleGetParentWindow@CContainerView@@MAEPAVCWindow@@XZ)
0041cb40 00000008 .text             CContainerView.obj(@44@?HandleGetCaptureMouseView@CContainerView@@MAEPAVCView@@XZ)
0041cb50 00000008 .text             CContainerView.obj(@44@?HandleGetOrigin@CContainerView@@MAEXAAVSPoint@@@Z)
0041cb60 00000008 .text             CContainerView.obj(@44@?HandleReleaseMouse@CContainerView@@MAEXPAVCView@@@Z)
0041cb70 00000008 .text             CContainerView.obj(@44@?HandleCaptureMouse@CContainerView@@MAEXPAVCView@@@Z)
0041cb80 00000008 .text             CContainerView.obj(@44@?HandleGetVisibleRect@CContainerView@@MAEXPAVCView@@AAVSRect@@@Z)
0041cb90 00000008 .text             CContainerView.obj(@44@?HandleGetScreenDelta@CContainerView@@MAEXPAVCView@@AAJ1@Z)
0041cba0 00000008 .text             CContainerView.obj(@44@?HandleHit@CContainerView@@MAEXPAVCView@@ABUSHitMsgData@@@Z)
0041cbb0 00000008 .text             CContainerView.obj(@44@?HandleRefresh@CContainerView@@MAEXPAVCView@@ABVSRect@@@Z)
0041cbc0 00000008 .text             CContainerView.obj(@44@?HandleRemove@CContainerView@@MAEXPAVCView@@@Z)
0041cbd0 00000008 .text             CContainerView.obj(@44@?HandleInstall@CContainerView@@MAEXPAVCView@@@Z)
0041cbe0 00000008 .text             CContainerView.obj(@44@??_ECContainerView@@UAE@I@Z)
0041cbf0 000000da .text             CTabbedView.obj(??0CTabbedView@@QAE@PAVCViewHandler@@ABVSRect@@@Z)
0041ccd0 000000b1 .text             CTabbedView.obj(??1CTabbedView@@UAE@XZ)
0041cd90 00000126 .text             CTabbedView.obj(?InsertTab@CTabbedView@@QAEXGPBXK@Z)
0041cec0 00000030 .text             CTabbedView.obj(?AddTab@CTabbedView@@QAEXPBE@Z)
0041cef0 0000002d .text             CTabbedView.obj(?IsValidTab@CTabbedView@@QBE_NG@Z)
0041cf20 0000002b .text             CTabbedView.obj(?SetFont@CTabbedView@@QAEXPAVTFontDescObj@@@Z)
0041cf50 00000138 .text             CTabbedView.obj(?SetTabView@CTabbedView@@QAEXGPAVCView@@@Z)
0041d090 0000007b .text             CTabbedView.obj(?GetTabView@CTabbedView@@QBEPAVCView@@G@Z)
0041d110 000000e3 .text             CTabbedView.obj(?SetCurrentTab@CTabbedView@@QAEXG@Z)
0041d200 00000057 .text             CTabbedView.obj(?GetContentRect@CTabbedView@@QBEXAAVSRect@@@Z)
0041d260 00000041 .text             CTabbedView.obj(?RefreshContent@CTabbedView@@IAEXXZ)
0041d2b0 000000b6 .text             CTabbedView.obj(?RefreshTabs@CTabbedView@@IAEXGG@Z)
0041d370 0000004f .text             CTabbedView.obj(?RefreshTab@CTabbedView@@IAEXG@Z)
0041d3c0 0000004a .text             CTabbedView.obj(?GetTabWidth@CTabbedView@@MBEGPBXK@Z)
0041d410 000000a9 .text             CTabbedView.obj(?GetTabLeft@CTabbedView@@MBEJG@Z)
0041d4c0 00000070 .text             CTabbedView.obj(?GetTabRight@CTabbedView@@MBEJG@Z)
0041d530 00000097 .text             CTabbedView.obj(?GetTabRect@CTabbedView@@MBEXGAAVSRect@@@Z)
0041d5d0 00000169 .text             CTabbedView.obj(?PointToTab@CTabbedView@@MBEGABVSPoint@@PAVSRect@@@Z)
0041d740 00000d63 .text             CTabbedView.obj(?Draw@CTabbedView@@UAEXPAVTImageObj@@ABVSRect@@K@Z)
0041e4b0 00000035 .text             CTabbedView.obj(??1StClipSaver@@QAE@XZ)
0041e4f0 00000472 .text             CTabbedView.obj(?DrawTab@CTabbedView@@MAEXPAVTImageObj@@ABVSRect@@PBXKABVSColor@@3333@Z)
0041e970 0000008a .text             CTabbedView.obj(?DrawEnabledTab@CTabbedView@@MAEXPAVTImageObj@@ABVSRect@@PBXK_N@Z)
0041ea00 0000008a .text             CTabbedView.obj(?DrawDisabledTab@CTabbedView@@MAEXPAVTImageObj@@ABVSRect@@PBXK_N@Z)
0041ea90 00000264 .text             CTabbedView.obj(?MouseDown@CTabbedView@@UAEXABUSMouseMsgData@@@Z)
0041ed00 00000255 .text             CTabbedView.obj(?MouseUp@CTabbedView@@UAEXABUSMouseMsgData@@@Z)
0041ef60 0000002b .text             CTabbedView.obj(?MouseEnter@CTabbedView@@UAEXABUSMouseMsgData@@@Z)
0041ef90 000000f2 .text             CTabbedView.obj(?MouseLeave@CTabbedView@@UAEXABUSMouseMsgData@@@Z)
0041f090 000002b6 .text             CTabbedView.obj(?MouseMove@CTabbedView@@UAEXABUSMouseMsgData@@@Z)
0041f350 0000005c .text             CTabbedView.obj(?KeyDown@CTabbedView@@UAE_NABUSKeyMsgData@@@Z)
0041f3b0 00000050 .text             CTabbedView.obj(?KeyUp@CTabbedView@@UAEXABUSKeyMsgData@@@Z)
0041f400 0000005c .text             CTabbedView.obj(?KeyRepeat@CTabbedView@@UAE_NABUSKeyMsgData@@@Z)
0041f460 00000085 .text             CTabbedView.obj(?UpdateActive@CTabbedView@@IAEXXZ)
0041f4f0 00000081 .text             CTabbedView.obj(?ChangeState@CTabbedView@@UAE_NG@Z)
0041f580 000000b8 .text             CTabbedView.obj(?TabFocusPrev@CTabbedView@@UAE_NXZ)
0041f640 000000b8 .text             CTabbedView.obj(?TabFocusNext@CTabbedView@@UAE_NXZ)
0041f700 00000061 .text             CTabbedView.obj(?SetEnable@CTabbedView@@UAE_N_N@Z)
0041f770 000001b4 .text             CTabbedView.obj(?SetBounds@CTabbedView@@UAE_NABVSRect@@@Z)
0041f930 0000004b .text             CTabbedView.obj(?MouseCaptureReleased@CTabbedView@@UAEXXZ)
0041f980 0000002b .text             CTabbedView.obj(?DragEnter@CTabbedView@@UAEXABUSDragMsgData@@@Z)
0041f9b0 000001c5 .text             CTabbedView.obj(?DragMove@CTabbedView@@UAEXABUSDragMsgData@@@Z)
0041fb80 000000c8 .text             CTabbedView.obj(?DragLeave@CTabbedView@@UAEXABUSDragMsgData@@@Z)
0041fc50 000000c9 .text             CTabbedView.obj(?Drop@CTabbedView@@UAE_NABUSDragMsgData@@@Z)
0041fd20 0000007b .text             CTabbedView.obj(?UpdateQuickTime@CTabbedView@@UAEXXZ)
0041fda0 00000080 .text             CTabbedView.obj(?SendToQuickTime@CTabbedView@@UAEXABUEventRecord@@@Z)
0041fe20 000000cd .text             CTabbedView.obj(?HandleRemove@CTabbedView@@MAEXPAVCView@@@Z)
0041fef0 00000099 .text             CTabbedView.obj(?HandleRefresh@CTabbedView@@MAEXPAVCView@@ABVSRect@@@Z)
0041ff90 00000038 .text             CTabbedView.obj(?HandleHit@CTabbedView@@MAEXPAVCView@@ABUSHitMsgData@@@Z)
0041ffd0 00000049 .text             CTabbedView.obj(?HandleGetScreenDelta@CTabbedView@@MAEXPAVCView@@AAJ1@Z)
00420020 00000074 .text             CTabbedView.obj(?HandleGetVisibleRect@CTabbedView@@MAEXPAVCView@@AAVSRect@@@Z)
004200a0 000000aa .text             CTabbedView.obj(?HandleCaptureMouse@CTabbedView@@MAEXPAVCView@@@Z)
00420150 00000042 .text             CTabbedView.obj(?HandleReleaseMouse@CTabbedView@@MAEXPAVCView@@@Z)
004201a0 0000004c .text             CTabbedView.obj(?HandleGetOrigin@CTabbedView@@MAEXAAVSPoint@@@Z)
004201f0 00000019 .text             CTabbedView.obj(?HandleGetCaptureMouseView@CTabbedView@@MAEPAVCView@@XZ)
00420210 0000001d .text             CTabbedView.obj(?HandleGetParentWindow@CTabbedView@@MAEPAVCWindow@@XZ)
00420230 00000047 .text             CTabbedView.obj(??_ECTabbedView@@UAE@I@Z)
00420280 00000008 .text             CTabbedView.obj(@44@?HandleGetParentWindow@CTabbedView@@MAEPAVCWindow@@XZ)
00420290 00000008 .text             CTabbedView.obj(@44@?HandleGetCaptureMouseView@CTabbedView@@MAEPAVCView@@XZ)
004202a0 00000008 .text             CTabbedView.obj(@44@?HandleGetOrigin@CTabbedView@@MAEXAAVSPoint@@@Z)
004202b0 00000008 .text             CTabbedView.obj(@44@?HandleReleaseMouse@CTabbedView@@MAEXPAVCView@@@Z)
004202c0 00000008 .text             CTabbedView.obj(@44@?HandleCaptureMouse@CTabbedView@@MAEXPAVCView@@@Z)
004202d0 00000008 .text             CTabbedView.obj(@44@?HandleGetVisibleRect@CTabbedView@@MAEXPAVCView@@AAVSRect@@@Z)
004202e0 00000008 .text             CTabbedView.obj(@44@?HandleGetScreenDelta@CTabbedView@@MAEXPAVCView@@AAJ1@Z)
004202f0 00000008 .text             CTabbedView.obj(@44@?HandleHit@CTabbedView@@MAEXPAVCView@@ABUSHitMsgData@@@Z)
00420300 00000008 .text             CTabbedView.obj(@44@?HandleRefresh@CTabbedView@@MAEXPAVCView@@ABVSRect@@@Z)
00420310 00000008 .text             CTabbedView.obj(@44@?HandleRemove@CTabbedView@@MAEXPAVCView@@@Z)
00420320 00000008 .text             CTabbedView.obj(@44@??_ECTabbedView@@UAE@I@Z)
00420330 00000291 .text             UGraphics(W).obj(?Init@UGraphics@@SAXXZ)
004205d0 0000007c .text             UGraphics(W).obj(?SetOrigin@UGraphics@@SAXPAVTImageObj@@ABVSPoint@@@Z)
00420650 00000030 .text             UGraphics(W).obj(?GetOrigin@UGraphics@@SAXPAVTImageObj@@AAVSPoint@@@Z)
00420680 00000055 .text             UGraphics(W).obj(?AddOrigin@UGraphics@@SAXPAVTImageObj@@JJ@Z)
004206e0 000000b8 .text             UGraphics(W).obj(?SetClip@UGraphics@@SAXPAVTImageObj@@PAVTRegionObj@@@Z)
004207a0 000000a5 .text             UGraphics(W).obj(?GetClip@UGraphics@@SAXPAVTImageObj@@PAVTRegionObj@@@Z)
00420850 00000044 .text             UGraphics(W).obj(?IntersectClip@UGraphics@@SAXPAVTImageObj@@ABVSRect@@@Z)
004208a0 000000e3 .text             UGraphics(W).obj(?IntersectClip@UGraphics@@SAXPAVTImageObj@@PAVTRegionObj@@ABVSRect@@@Z)
00420990 0000003f .text             UGraphics(W).obj(?MoveClip@UGraphics@@SAXPAVTImageObj@@JJ@Z)
004209d0 0000009c .text             UGraphics(W).obj(?Reset@UGraphics@@SAXPAVTImageObj@@@Z)
00420a70 0000004f .text             UGraphics(W).obj(?SetPenSize@UGraphics@@SAXPAVTImageObj@@K@Z)
00420ac0 000000fc .text             UGraphics(W).obj(?SetInkColor@UGraphics@@SAXPAVTImageObj@@ABVSColor@@@Z)
00420bc0 00000076 .text             UGraphics(W).obj(?SetInkMode@UGraphics@@SAXPAVTImageObj@@KPBVSColor@@@Z)
00420c40 00000056 .text             UGraphics(W).obj(?GetInkColor@UGraphics@@SAXPAVTImageObj@@AAVSColor@@@Z)
00420ca0 0000015c .text             UGraphics(W).obj(?UGraphics_DrawLine@@YAXPAVTImageObj@@ABUSLine@@K@Z)
00420e00 00000069 .text             UGraphics(W).obj(?UGraphics_DrawRegion@@YAXPAVTImageObj@@PAVTRegionObj@@K@Z)
00420e70 00000063 .text             UGraphics(W).obj(?UGraphics_FillRect@@YAXPAVTImageObj@@ABVSRect@@@Z)
00420ee0 00000142 .text             UGraphics(W).obj(?UGraphics_FrameRect@@YAXPAVTImageObj@@ABVSRect@@@Z)
00421030 00000077 .text             UGraphics(W).obj(?UGraphics_SetPixel@@YAXPAVTImageObj@@ABVSPoint@@ABVSColor@@@Z)
004210b0 00000053 .text             UGraphics(W).obj(?ResetFont@UGraphics@@SAXPAVTImageObj@@@Z)
00421110 00000115 .text             UGraphics(W).obj(?SetFontEffect@UGraphics@@SAXPAVTImageObj@@K@Z)
00421230 0000011d .text             UGraphics(W).obj(?SetFont@UGraphics@@SAXPAVTImageObj@@PBE1KK@Z)
00421350 000000b4 .text             UGraphics(W).obj(?SetFont@UGraphics@@SAXPAVTImageObj@@PAVTFontDescObj@@@Z)
00421410 0000004b .text             UGraphics(W).obj(?GetFontHeight@UGraphics@@SAKPAVTImageObj@@@Z)
00421460 00000051 .text             UGraphics(W).obj(?GetFontLineHeight@UGraphics@@SAKPAVTImageObj@@@Z)
004214c0 00000049 .text             UGraphics(W).obj(?GetTextWidth@UGraphics@@SAKPAVTImageObj@@PBXKK@Z)
00421510 000000e8 .text             UGraphics(W).obj(?_GRCalcMaxFit@@YAKPAUHDC__@@PBXKK@Z)
00421600 000000bb .text             UGraphics(W).obj(?GetTextLineBreak@UGraphics@@SAKPAVTImageObj@@PBXKK@Z)
004216c0 0000022e .text             UGraphics(W).obj(?WidthToChar@UGraphics@@SAKPAVTImageObj@@PBXKKPA_N@Z)
004218f0 000000f4 .text             UGraphics(W).obj(?UGraphics_DrawText@@YAXPAVTImageObj@@ABVSRect@@PBXKKK@Z)
004219f0 000000f6 .text             UGraphics(W).obj(?UGraphics_DrawTruncText@@YAXPAVTImageObj@@ABVSRect@@PBXKKK@Z)
00421af0 000000d0 .text             UGraphics(W).obj(?UGraphics_DrawTextBox@@YAXPAVTImageObj@@ABVSRect@@1PBXKKK@Z)
00421bc0 000000a6 .text             UGraphics(W).obj(?UGraphics_GetTextBoxHeight@@YAKPAVTImageObj@@ABVSRect@@PBXKKK@Z)
00421c70 000003b6 .text             UGraphics(W).obj(?UGraphics_DrawTextLines@@YAXPAVTImageObj@@ABVSRect@@PBXKPBKKKKK@Z)
00422030 00000d30 .text             UGraphics(W).obj(?UGraphics_CopyPixels@@YAXPAVTImageObj@@ABVSPoint@@ABUSPixmap@@1KKK@Z)
00422d60 00000044 .text             UGraphics(W).obj(?_GRConvertBGRAandRGBA@@YAXPAXK@Z)
00422db0 00000062 .text             UGraphics(W).obj(?_GRCopyRGBAandBGRA@@YAXPBXPAXK@Z)
00422e20 0000056f .text             UGraphics(W).obj(?UGraphics_CopyPixelsTrans@@YAXPAVTImageObj@@ABVSPoint@@ABUSPixmap@@1KKKK@Z)
00423390 0000000a .text             UGraphics(W).obj(?GetDummyImage@UGraphics@@SAPAVTImageObj@@XZ)
004233a0 0000000a .text             UGraphics(W).obj(?_ImageToDC@@YAPAUHDC__@@PAVTImageObj@@@Z)
004233b0 00000055 .text             UGraphics(W).obj(?_NewDCImage@@YAPAVTImageObj@@PAUHDC__@@KK@Z)
00423410 0000006c .text             UGraphics(W).obj(?_DisposeDCImage@@YAXPAVTImageObj@@@Z)
00423480 00000039 .text             UGraphics(W).obj(?_SetVirtualOrigin@@YAXPAVTImageObj@@ABVSPoint@@@Z)
004234c0 00000039 .text             UGraphics(W).obj(?_GetVirtualOrigin@@YAXPAVTImageObj@@AAVSPoint@@@Z)
00423500 00000039 .text             UGraphics(W).obj(?_AddVirtualOrigin@@YAXPAVTImageObj@@ABVSPoint@@@Z)
00423540 00000036 .text             UGraphics(W).obj(?_ResetVirtualOrigin@@YAXPAVTImageObj@@@Z)
00423580 0000009b .text             UGraphics(W).obj(?_FontNameToWinName@@YAKPBEPADK@Z)
00423620 0000009b .text             UGraphics(W).obj(?New@UFontDesc@@SAPAVTFontDescObj@@PBE0KK@Z)
004236c0 0000001d .text             UGraphics(W).obj(?Dispose@UFontDesc@@SAXPAVTFontDescObj@@@Z)
004236e0 00000018 .text             UGraphics(W).obj(?GetAlign@UFontDesc@@SAKPAVTFontDescObj@@@Z)
00423700 00000069 .text             UGraphics(W).obj(?SetColor@UFontDesc@@SAXPAVTFontDescObj@@ABVSColor@@@Z)
00423770 00000005 .text             UGraphics(W).obj
00423780 00000117 .text             CButtonView.obj(??0CButtonView@@QAE@PAVCViewHandler@@ABVSRect@@@Z)
004238a0 0000004e .text             CButtonView.obj(??1CButtonView@@UAE@XZ)
004238f0 00000065 .text             CButtonView.obj(?SetTitle@CButtonView@@UAEXPBXK@Z)
00423960 00000046 .text             CButtonView.obj(?SetFont@CButtonView@@UAEXPAVTFontDescObj@@@Z)
004239b0 00000062 .text             CButtonView.obj(?SetDefault@CButtonView@@UAEX_N@Z)
00423a20 0000007c .text             CButtonView.obj(?Flash@CButtonView@@UAEXXZ)
00423aa0 0000015f .text             CButtonView.obj(?Draw@CButtonView@@UAEXPAVTImageObj@@ABVSRect@@K@Z)
00423c00 00000086 .text             CButtonView.obj(?MouseDown@CButtonView@@UAEXABUSMouseMsgData@@@Z)
00423c90 0000009d .text             CButtonView.obj(?MouseUp@CButtonView@@UAEXABUSMouseMsgData@@@Z)
00423d30 000000c6 .text             CButtonView.obj(?MouseEnter@CButtonView@@UAEXABUSMouseMsgData@@@Z)
00423e00 0000005a .text             CButtonView.obj(?MouseLeave@CButtonView@@UAEXABUSMouseMsgData@@@Z)
00423e60 000000de .text             CButtonView.obj(?KeyDown@CButtonView@@UAE_NABUSKeyMsgData@@@Z)
00423f40 00000181 .text             CButtonView.obj(?UpdateActive@CButtonView@@IAEXXZ)
004240d0 00000046 .text             CButtonView.obj(?ChangeState@CButtonView@@UAE_NG@Z)
00424120 00000061 .text             CButtonView.obj(?SetEnable@CButtonView@@UAE_N_N@Z)
00424190 0000009e .text             CButtonView.obj(?Timer@CButtonView@@UAEXPAVTTimerObj@@@Z)
00424230 00000282 .text             CButtonView.obj(?BuildButtons@CButtonView@@SA_NPAVCContainerView@@ABVSRect@@PAUSButtons@@@Z)
004244c0 00000047 .text             CButtonView.obj(??_ECButtonView@@UAE@I@Z)
00424510 00000077 .text             CBoxView.obj(??0CBoxView@@QAE@PAVCViewHandler@@ABVSRect@@GPBEPAVTFontDescObj@@@Z)
00424590 00000040 .text             CBoxView.obj(??1CBoxView@@UAE@XZ)
004245d0 00000065 .text             CBoxView.obj(?SetTitle@CBoxView@@UAEXPBXK@Z)
00424640 00000046 .text             CBoxView.obj(?SetFont@CBoxView@@UAEXPAVTFontDescObj@@@Z)
00424690 00000048 .text             CBoxView.obj(?SetStyle@CBoxView@@UAEXG@Z)
004246e0 00000015 .text             CBoxView.obj(?SetPattern@CBoxView@@UAEXF@Z)
00424700 000000ff .text             CBoxView.obj(?Draw@CBoxView@@UAEXPAVTImageObj@@ABVSRect@@K@Z)
00424800 00000047 .text             CBoxView.obj(??_ECBoxView@@UAE@I@Z)
00424850 00000043 .text             CLabelView.obj(??0CLabelView@@QAE@PAVCViewHandler@@ABVSRect@@@Z)
004248a0 00000040 .text             CLabelView.obj(??1CLabelView@@UAE@XZ)
004248e0 00000065 .text             CLabelView.obj(?SetText@CLabelView@@UAEXPBXK@Z)
00424950 00000090 .text             CLabelView.obj(?Draw@CLabelView@@UAEXPAVTImageObj@@ABVSRect@@K@Z)
004249e0 00000047 .text             CLabelView.obj(??_ECLabelView@@UAE@I@Z)
00424a30 000000e6 .text             CTextView.obj(??0CTextView@@QAE@PAVCViewHandler@@ABVSRect@@G@Z)
00424b20 00000040 .text             CTextView.obj(??1CTextView@@UAE@XZ)
00424b60 00000045 .text             CTextView.obj(?SetFont@CTextView@@QAEXPBE0KK@Z)
00424bb0 0000003f .text             CTextView.obj(?SetText@CTextView@@QAEXPBXK@Z)
00424bf0 0000002e .text             CTextView.obj(?Draw@CTextView@@UAEXPAVTImageObj@@ABVSRect@@K@Z)
00424c20 00000030 .text             CTextView.obj(?MouseDown@CTextView@@UAEXABUSMouseMsgData@@@Z)
00424c50 00000030 .text             CTextView.obj(?MouseUp@CTextView@@UAEXABUSMouseMsgData@@@Z)
00424c80 00000030 .text             CTextView.obj(?MouseEnter@CTextView@@UAEXABUSMouseMsgData@@@Z)
00424cb0 00000030 .text             CTextView.obj(?MouseLeave@CTextView@@UAEXABUSMouseMsgData@@@Z)
00424ce0 00000030 .text             CTextView.obj(?MouseMove@CTextView@@UAEXABUSMouseMsgData@@@Z)
00424d10 00000165 .text             CTextView.obj(?KeyDown@CTextView@@UAE_NABUSKeyMsgData@@@Z)
00424e80 00000015 .text             CTextView.obj(?KeyUp@CTextView@@UAEXABUSKeyMsgData@@@Z)
00424ea0 00000022 .text             CTextView.obj(?KeyRepeat@CTextView@@UAE_NABUSKeyMsgData@@@Z)
00424ed0 0000003c .text             CTextView.obj(?SetBounds@CTextView@@UAE_NABVSRect@@@Z)
00424f10 000000a1 .text             CTextView.obj(?UpdateActive@CTextView@@IAEXXZ)
00424fc0 00000046 .text             CTextView.obj(?ChangeState@CTextView@@UAE_NG@Z)
00425010 0000001f .text             CTextView.obj(?SetTabSelectText@CTextView@@QAEX_N@Z)
00425030 00000052 .text             CTextView.obj(?TabFocusNext@CTextView@@UAE_NXZ)
00425090 00000052 .text             CTextView.obj(?TabFocusPrev@CTextView@@UAE_NXZ)
004250f0 00000061 .text             CTextView.obj(?SetEnable@CTextView@@UAE_N_N@Z)
00425160 00000030 .text             CTextView.obj(?DragEnter@CTextView@@UAEXABUSDragMsgData@@@Z)
00425190 00000030 .text             CTextView.obj(?DragMove@CTextView@@UAEXABUSDragMsgData@@@Z)
004251c0 00000030 .text             CTextView.obj(?DragLeave@CTextView@@UAEXABUSDragMsgData@@@Z)
004251f0 0000008a .text             CTextView.obj(?Drop@CTextView@@UAE_NABUSDragMsgData@@@Z)
00425280 00000033 .text             CTextView.obj(?TextDrawHandler@CTextView@@KAXPAUSEditText@@ABVSRect@@@Z)
004252c0 0000002a .text             CTextView.obj(?TextScreenDeltaHandler@CTextView@@KAXPAUSEditText@@AAJ1@Z)
004252f0 00000021 .text             CTextView.obj(?Timer@CTextView@@UAEXPAVTTimerObj@@@Z)
00425320 00000027 .text             CTextView.obj(?IsSelfDrag@CTextView@@UBE_NPAVTDragObj@@@Z)
00425350 00000021 .text             CTextView.obj(?GetFullHeight@CTextView@@UBEKXZ)
00425380 00000029 .text             CTextView.obj(?SetEnterKeyAction@CTextView@@QAEXGG@Z)
004253b0 00000118 .text             CTextView.obj(?MakeTextBoxView@@YAPAVCScrollerView@@PAVCViewHandler@@ABVSRect@@GPAPAVCTextView@@@Z)
004254d0 00000047 .text             CTextView.obj(??_ECScrollerView@@UAE@I@Z)
00425520 00000047 .text             CTextView.obj(??_ECTextView@@UAE@I@Z)
00425570 000001d4 .text             CScrollerView.obj(??0CScrollerView@@QAE@PAVCViewHandler@@ABVSRect@@KG@Z)
00425750 0000004c .text             CScrollerView.obj(??1CScrollerView@@UAE@XZ)
004257a0 00000086 .text             CScrollerView.obj(?SetOptions@CScrollerView@@UAEXG@Z)
00425830 00000069 .text             CScrollerView.obj(?SetCanFocus@CScrollerView@@UAEX_N@Z)
004258a0 00000064 .text             CScrollerView.obj(?SetMargin@CScrollerView@@UAEXG@Z)
00425910 00000027 .text             CScrollerView.obj(?GetVisibleContentHeight@CScrollerView@@QBEJXZ)
00425940 00000027 .text             CScrollerView.obj(?GetVisibleContentWidth@CScrollerView@@QBEJXZ)
00425970 000001bb .text             CScrollerView.obj(?SetScroll@CScrollerView@@UAEXKK@Z)
00425b30 00000033 .text             CScrollerView.obj(?GetScroll@CScrollerView@@QBEXAAK0@Z)
00425b70 0000006d .text             CScrollerView.obj(?Scroll@CScrollerView@@QAEXJJ@Z)
00425be0 00000044 .text             CScrollerView.obj(?ScrollToTop@CScrollerView@@QAEXXZ)
00425c30 00000044 .text             CScrollerView.obj(?ScrollToLeft@CScrollerView@@QAEXXZ)
00425c80 00000044 .text             CScrollerView.obj(?ScrollToBottom@CScrollerView@@QAEXXZ)
00425cd0 00000044 .text             CScrollerView.obj(?ScrollToRight@CScrollerView@@QAEXXZ)
00425d20 00000145 .text             CScrollerView.obj(?ScrollToRect@CScrollerView@@QAEXABVSRect@@G@Z)
00425e70 00000620 .text             CScrollerView.obj(?Draw@CScrollerView@@UAEXPAVTImageObj@@ABVSRect@@K@Z)
00426490 000005fe .text             CScrollerView.obj(?MouseDown@CScrollerView@@UAEXABUSMouseMsgData@@@Z)
00426a90 00000394 .text             CScrollerView.obj(?MouseUp@CScrollerView@@UAEXABUSMouseMsgData@@@Z)
00426e30 0000002b .text             CScrollerView.obj(?MouseEnter@CScrollerView@@UAEXABUSMouseMsgData@@@Z)
00426e60 000002af .text             CScrollerView.obj(?MouseMove@CScrollerView@@UAEXABUSMouseMsgData@@@Z)
00427110 000000b1 .text             CScrollerView.obj(?MouseLeave@CScrollerView@@UAEXABUSMouseMsgData@@@Z)
004271d0 000000ac .text             CScrollerView.obj(?KeyDown@CScrollerView@@UAE_NABUSKeyMsgData@@@Z)
00427280 0000004e .text             CScrollerView.obj(?KeyUp@CScrollerView@@UAEXABUSKeyMsgData@@@Z)
004272d0 000000ac .text             CScrollerView.obj(?KeyRepeat@CScrollerView@@UAE_NABUSKeyMsgData@@@Z)
00427380 0000002b .text             CScrollerView.obj(?DragEnter@CScrollerView@@UAEXABUSDragMsgData@@@Z)
004273b0 0000020b .text             CScrollerView.obj(?DragMove@CScrollerView@@UAEXABUSDragMsgData@@@Z)
004275c0 0000012a .text             CScrollerView.obj(?DragLeave@CScrollerView@@UAEXABUSDragMsgData@@@Z)
004276f0 000000a0 .text             CScrollerView.obj(?Drop@CScrollerView@@UAE_NABUSDragMsgData@@@Z)
00427790 00000042 .text             CScrollerView.obj(?UpdateQuickTime@CScrollerView@@UAEXXZ)
004277e0 00000047 .text             CScrollerView.obj(?SendToQuickTime@CScrollerView@@UAEXABUEventRecord@@@Z)
00427830 000001d2 .text             CScrollerView.obj(?Timer@CScrollerView@@UAEXPAVTTimerObj@@@Z)
00427a10 00000081 .text             CScrollerView.obj(?SetEnable@CScrollerView@@UAE_N_N@Z)
00427aa0 000001c7 .text             CScrollerView.obj(?UpdateActive@CScrollerView@@IAEXXZ)
00427c70 00000066 .text             CScrollerView.obj(?ChangeState@CScrollerView@@UAE_NG@Z)
00427ce0 0000004f .text             CScrollerView.obj(?TabFocusNext@CScrollerView@@UAE_NXZ)
00427d30 0000004f .text             CScrollerView.obj(?TabFocusPrev@CScrollerView@@UAE_NXZ)
00427d80 000002d8 .text             CScrollerView.obj(?SetBounds@CScrollerView@@UAE_NABVSRect@@@Z)
00428060 0000005e .text             CScrollerView.obj(?MouseCaptureReleased@CScrollerView@@UAEXXZ)
004280c0 0000004f .text             CScrollerView.obj(?CalcRects@CScrollerView@@IAEXXZ)
00428110 00000512 .text             CScrollerView.obj(?IntCalcRects@CScrollerView@@MAEXXZ)
00428630 0000008d .text             CScrollerView.obj(?CalcValues@CScrollerView@@IAEXXZ)
004286c0 0000018a .text             CScrollerView.obj(?CalcValuesAndRefresh@CScrollerView@@IAEXXZ)
00428850 000000eb .text             CScrollerView.obj(?IntCalcValues@CScrollerView@@MAEXXZ)
00428940 000000b5 .text             CScrollerView.obj(?HandleInstall@CScrollerView@@MAEXPAVCView@@@Z)
00428a00 00000097 .text             CScrollerView.obj(?HandleRemove@CScrollerView@@MAEXPAVCView@@@Z)
00428aa0 0000008b .text             CScrollerView.obj(?HandleRefresh@CScrollerView@@MAEXPAVCView@@ABVSRect@@@Z)
00428b30 00000038 .text             CScrollerView.obj(?HandleHit@CScrollerView@@MAEXPAVCView@@ABUSHitMsgData@@@Z)
00428b70 00000039 .text             CScrollerView.obj(?HandleGetScreenDelta@CScrollerView@@MAEXPAVCView@@AAJ1@Z)
00428bb0 00000094 .text             CScrollerView.obj(?HandleGetVisibleRect@CScrollerView@@MAEXPAVCView@@AAVSRect@@@Z)
00428c50 00000058 .text             CScrollerView.obj(?HandleSetBounds@CScrollerView@@MAEXPAVCView@@ABVSRect@@@Z)
00428cb0 00000025 .text             CScrollerView.obj(?HandleMakeRectVisible@CScrollerView@@MAEXABVSRect@@G@Z)
00428ce0 0000006b .text             CScrollerView.obj(?HandleCaptureMouse@CScrollerView@@MAEXPAVCView@@@Z)
00428d50 00000052 .text             CScrollerView.obj(?HandleReleaseMouse@CScrollerView@@MAEXPAVCView@@@Z)
00428db0 0000004c .text             CScrollerView.obj(?HandleGetOrigin@CScrollerView@@MAEXAAVSPoint@@@Z)
00428e00 00000030 .text             CScrollerView.obj(?HandleGetCaptureMouseView@CScrollerView@@MAEPAVCView@@XZ)
00428e30 0000001d .text             CScrollerView.obj(?HandleGetParentWindow@CScrollerView@@MAEPAVCWindow@@XZ)
00428e50 00000008 .text             CScrollerView.obj(@44@?HandleGetParentWindow@CScrollerView@@MAEPAVCWindow@@XZ)
00428e60 00000008 .text             CScrollerView.obj(@44@?HandleGetCaptureMouseView@CScrollerView@@MAEPAVCView@@XZ)
00428e70 00000008 .text             CScrollerView.obj(@44@?HandleGetOrigin@CScrollerView@@MAEXAAVSPoint@@@Z)
00428e80 00000008 .text             CScrollerView.obj(@44@?HandleReleaseMouse@CScrollerView@@MAEXPAVCView@@@Z)
00428e90 00000008 .text             CScrollerView.obj(@44@?HandleCaptureMouse@CScrollerView@@MAEXPAVCView@@@Z)
00428ea0 00000008 .text             CScrollerView.obj(@44@?HandleMakeRectVisible@CScrollerView@@MAEXABVSRect@@G@Z)
00428eb0 00000008 .text             CScrollerView.obj(@44@?HandleGetVisibleRect@CScrollerView@@MAEXPAVCView@@AAVSRect@@@Z)
00428ec0 00000008 .text             CScrollerView.obj(@44@?HandleGetScreenDelta@CScrollerView@@MAEXPAVCView@@AAJ1@Z)
00428ed0 00000008 .text             CScrollerView.obj(@44@?HandleHit@CScrollerView@@MAEXPAVCView@@ABUSHitMsgData@@@Z)
00428ee0 00000008 .text             CScrollerView.obj(@44@?HandleRefresh@CScrollerView@@MAEXPAVCView@@ABVSRect@@@Z)
00428ef0 00000008 .text             CScrollerView.obj(@44@?HandleSetBounds@CScrollerView@@MAEXPAVCView@@ABVSRect@@@Z)
00428f00 00000008 .text             CScrollerView.obj(@44@?HandleRemove@CScrollerView@@MAEXPAVCView@@@Z)
00428f10 00000008 .text             CScrollerView.obj(@44@?HandleInstall@CScrollerView@@MAEXPAVCView@@@Z)
00428f20 00000008 .text             CScrollerView.obj(@44@??_ECScrollerView@@UAE@I@Z)
00428f30 00000184 .text             UEditText.obj(?New@UEditText@@SAPAUSEditText@@ABVSRect@@G@Z)
004290c0 0000004a .text             UEditText.obj(?Dispose@UEditText@@SAXPAUSEditText@@@Z)
00429110 0000014e .text             UEditText.obj(?SetBounds@UEditText@@SAXPAUSEditText@@ABVSRect@@@Z)
00429260 00000062 .text             UEditText.obj(?GetFullHeight@UEditText@@SAKPAUSEditText@@@Z)
004292d0 000000b7 .text             UEditText.obj(?SetFont@UEditText@@SAXPAUSEditText@@PBE1KK@Z)
00429390 00000080 .text             UEditText.obj(?SetSelect@UEditText@@SAXPAUSEditText@@KK@Z)
00429410 000000e7 .text             UEditText.obj(?SetActive@UEditText@@SA_NPAUSEditText@@_N@Z)
00429500 0000002a .text             UEditText.obj(?SetRef@UEditText@@SAXPAUSEditText@@PAX@Z)
00429530 00000027 .text             UEditText.obj(?GetRef@UEditText@@SAPAXPAUSEditText@@@Z)
00429560 00000078 .text             UEditText.obj(?SetEditable@UEditText@@SAXPAUSEditText@@_N@Z)
004295e0 0000002f .text             UEditText.obj(?IsEditable@UEditText@@SA_NPAUSEditText@@@Z)
00429610 00000140 .text             UEditText.obj(?SetText@UEditText@@SAXPAUSEditText@@PBXK@Z)
00429750 0000002d .text             UEditText.obj(?GetText@UEditText@@SAKPAUSEditText@@PAXK@Z)
00429780 000000d2 .text             UEditText.obj(?GetText@UEditText@@SAKPAUSEditText@@KKPAXK@Z)
00429860 000001bc .text             UEditText.obj(?InsertText@UEditText@@SAXPAUSEditText@@KPBXK_N@Z)
00429a20 000001ed .text             UEditText.obj(?ReplaceTextA@UEditText@@SAXPAUSEditText@@KKPBXK_N@Z)
00429c10 000001df .text             UEditText.obj(?DeleteText@UEditText@@SAXPAUSEditText@@KK_N@Z)
00429df0 00000105 .text             UEditText.obj(?MoveText@UEditText@@SAKPAUSEditText@@KKK_N@Z)
00429f00 0000002e .text             UEditText.obj(?ClipCut@UEditText@@SAXPAUSEditText@@@Z)
00429f30 000000c8 .text             UEditText.obj(?ClipCopy@UEditText@@SAXPAUSEditText@@@Z)
0042a000 000000d1 .text             UEditText.obj(?ClipPaste@UEditText@@SAXPAUSEditText@@@Z)
0042a0e0 0000002a .text             UEditText.obj(?SetDrawHandler@UEditText@@SAXPAUSEditText@@P6AX0ABVSRect@@@Z@Z)
0042a110 00000775 .text             UEditText.obj(?Draw@UEditText@@SAXPAUSEditText@@PAVTImageObj@@ABVSRect@@G@Z)
0042a890 0000002a .text             UEditText.obj(?SetScreenDeltaHandler@UEditText@@SAXPAUSEditText@@P6AX0AAJ1@Z@Z)
0042a8c0 0000029e .text             UEditText.obj(?MouseDown@UEditText@@SAXPAUSEditText@@ABUSMouseMsgData@@@Z)
0042ab60 00000098 .text             UEditText.obj(?MouseUp@UEditText@@SAXPAUSEditText@@ABUSMouseMsgData@@@Z)
0042ac00 0000009f .text             UEditText.obj(?MouseEnter@UEditText@@SAXPAUSEditText@@ABUSMouseMsgData@@@Z)
0042aca0 0000004c .text             UEditText.obj(?MouseLeave@UEditText@@SAXPAUSEditText@@ABUSMouseMsgData@@@Z)
0042acf0 00000199 .text             UEditText.obj(?MouseMove@UEditText@@SAXPAUSEditText@@ABUSMouseMsgData@@@Z)
0042ae90 000005e4 .text             UEditText.obj(?KeyChar@UEditText@@SA_NPAUSEditText@@ABUSKeyMsgData@@@Z)
0042b480 0000004d .text             UEditText.obj(?DragEnter@UEditText@@SAXPAUSEditText@@ABUSDragMsgData@@@Z)
0042b4d0 000000a5 .text             UEditText.obj(?DragLeave@UEditText@@SAXPAUSEditText@@ABUSDragMsgData@@@Z)
0042b580 0000015e .text             UEditText.obj(?DragMove@UEditText@@SAXPAUSEditText@@ABUSDragMsgData@@@Z)
0042b6e0 00000250 .text             UEditText.obj(?Drop@UEditText@@SA_NPAUSEditText@@ABUSDragMsgData@@@Z)
0042b930 0000002a .text             UEditText.obj(??1?$scopekiller@VTHdlObj@@@@QAE@XZ)
0042b960 00000031 .text             UEditText.obj(?IsSelfDrag@UEditText@@SA_NPAUSEditText@@PAVTDragObj@@@Z)
0042b9a0 000000e0 .text             UEditText.obj(?BlinkCaret@UEditText@@SAXPAUSEditText@@@Z)
0042ba80 00000081 .text             UEditText.obj(?GetCaretRect@UEditText@@SA_NPAUSEditText@@AAVSRect@@@Z)
0042bb10 0000022e .text             UEditText.obj(?LowCalcLines@UEditText@@SAXPAVTImageObj@@PAVTHdlObj@@1KAAK@Z)
0042bd40 000003d5 .text             UEditText.obj(?LowInsert@UEditText@@SA_NPAVTImageObj@@PAVTHdlObj@@1KAAKKPBXKPAK4@Z)
0042c120 000005e3 .text             UEditText.obj(?LowDelete@UEditText@@SA_NPAVTImageObj@@PAVTHdlObj@@1KAAKKKPAK3@Z)
0042c710 00000662 .text             UEditText.obj(?LowReplace@UEditText@@SA_NPAVTImageObj@@PAVTHdlObj@@1KAAKKKPBXKPAK4@Z)
0042cd80 000000e1 .text             UEditText.obj(?_ETCalcLineStarts@@YAXPAUSEditText@@@Z)
0042ce70 00000038 .text             UEditText.obj(?_ETCalcLineHeight@@YAXPAUSEditText@@@Z)
0042ceb0 00000043 .text             UEditText.obj(?_ETCalcSelectRgn@@YAXPAUSEditText@@@Z)
0042cf00 000000b6 .text             UEditText.obj(?_ETCalcCaretRect@@YAXPAUSEditText@@@Z)
0042cfc0 000000a7 .text             UEditText.obj(?_ETGetLineHoriz@@YAJPAVTImageObj@@PBXKABVSRect@@F@Z)
0042d070 000000c6 .text             UEditText.obj(?_ETOffsetToLine@@YAKPAUSEditText@@K@Z)
0042d140 0000017b .text             UEditText.obj(?_ETOffsetToPoint@@YAXPAUSEditText@@KAAVSPoint@@@Z)
0042d2c0 00000077 .text             UEditText.obj(?_ETPointToLine@@YAKPAUSEditText@@ABVSPoint@@@Z)
0042d340 00000159 .text             UEditText.obj(?_ETPointToOffset@@YAKPAUSEditText@@ABVSPoint@@@Z)
0042d4a0 000000a3 .text             UEditText.obj(?_ETVerifySelect@@YAXPAUSEditText@@@Z)
0042d550 00000181 .text             UEditText.obj(?_ETGetRangeRgn@@YAXPAUSEditText@@KKPAVTRegionObj@@@Z)
0042d6e0 00000172 .text             UEditText.obj(?_ETGetRangeRect@@YAXPAUSEditText@@KKAAVSRect@@@Z)
0042d860 0000003d .text             UEditText.obj(?_ETReorder@@YAXAAK0@Z)
0042d8a0 0000018e .text             UEditText.obj(?_ETSetDragInsertPos@@YAXPAUSEditText@@K@Z)
0042da30 00000300 .text             UEditText.obj(?_ETSetSelect@@YA_NPAUSEditText@@KKPAVSRect@@@Z)
0042dd30 00000059 .text             UEditText.obj(?_ETRedrawAll@@YAXPAUSEditText@@@Z)
0042dd90 0000005c .text             UEditText.obj(?_ETFindWord@@YAXPAUSEditText@@KAAK1@Z)
0042ddf0 00000097 .text             UEditText.obj(?_ETFindLine@@YAXPAUSEditText@@KAAK1@Z)
0042de90 000000ce .text             UEditText.obj(?_ETSetCaretBlinkVis@@YAXPAUSEditText@@_N@Z)
0042df60 000001fb .text             UEditText.obj(?_ETDrag@@YAXPAUSEditText@@ABVSPoint@@@Z)
0042e160 0000002a .text             UEditText.obj(??1?$scopekiller@VTDragObj@@@@QAE@XZ)
0042e190 00000045 .text             CItemsView.obj(??0CItemsView@@QAE@PAVCViewHandler@@ABVSRect@@@Z)
0042e1e0 00000048 .text             CItemsView.obj(?GetItemRegion@CItemsView@@UBEXKPAVTRegionObj@@@Z)
0042e230 000000ca .text             CItemsView.obj(?PointToItem@CItemsView@@UBEKABVSPoint@@@Z)
0042e300 0000004d .text             CItemsView.obj(?RefreshItem@CItemsView@@QAEXK@Z)
0042e350 00000088 .text             CItemsView.obj(?MakeItemVisible@CItemsView@@QAEXKG@Z)
0042e3e0 000000a6 .text             CItemsView.obj(?GetFullSize@CItemsView@@UBEXAAK0@Z)
0042e490 0000007a .text             CItemsView.obj(?GetFullHeight@CItemsView@@UBEKXZ)
0042e510 0000007a .text             CItemsView.obj(?GetFullWidth@CItemsView@@UBEKXZ)
0042e590 00000088 .text             CItemsView.obj(?Draw@CItemsView@@UAEXPAVTImageObj@@ABVSRect@@K@Z)
0042e620 000000d8 .text             CItemsView.obj(?MouseDown@CItemsView@@UAEXABUSMouseMsgData@@@Z)
0042e700 00000057 .text             CItemsView.obj(?MouseUp@CItemsView@@UAEXABUSMouseMsgData@@@Z)
0042e760 0000002b .text             CItemsView.obj(?MouseEnter@CItemsView@@UAEXABUSMouseMsgData@@@Z)
0042e790 000000c0 .text             CItemsView.obj(?MouseMove@CItemsView@@UAEXABUSMouseMsgData@@@Z)
0042e850 00000057 .text             CItemsView.obj(?MouseLeave@CItemsView@@UAEXABUSMouseMsgData@@@Z)
0042e8b0 00000015 .text             CItemsView.obj(?ItemDraw@CItemsView@@MAEXKPAVTImageObj@@ABVSRect@@1K@Z)
0042e8d0 00000015 .text             CItemsView.obj(?ItemMouseDown@CItemsView@@MAEXKABUSMouseMsgData@@@Z)
0042e8f0 00000015 .text             CItemsView.obj(?ItemMouseUp@CItemsView@@MAEXKABUSMouseMsgData@@@Z)
0042e910 00000015 .text             CItemsView.obj(?ItemMouseEnter@CItemsView@@MAEXKABUSMouseMsgData@@@Z)
0042e930 00000015 .text             CItemsView.obj(?ItemMouseMove@CItemsView@@MAEXKABUSMouseMsgData@@@Z)
0042e950 00000015 .text             CItemsView.obj(?ItemMouseLeave@CItemsView@@MAEXKABUSMouseMsgData@@@Z)
0042e970 00000069 .text             CItemsView.obj(?ItemsInserted@CItemsView@@MAEXKK@Z)
0042e9e0 00000069 .text             CItemsView.obj(?ItemsRemoved@CItemsView@@MAEXKK@Z)
0042ea50 00000015 .text             CItemsView.obj(?ItemsMoved@CItemsView@@MAEXKKK@Z)
0042ea70 00000015 .text             CItemsView.obj(?ItemsSwapped@CItemsView@@MAEXKKK@Z)
0042ea90 00000073 .text             CItemsView.obj(??0CSelectableItemsView@@QAE@PAVCViewHandler@@ABVSRect@@@Z)
0042eb10 00000048 .text             CItemsView.obj(?GetFirstSelectedItem@CSelectableItemsView@@UBEKXZ)
0042eb60 00000060 .text             CItemsView.obj(?GetLastSelectedItem@CSelectableItemsView@@UBEKXZ)
0042ebc0 00000052 .text             CItemsView.obj(?SetItemRangeSelect@CSelectableItemsView@@UAEXKK_N@Z)
0042ec20 00000072 .text             CItemsView.obj(?DeselectAll@CSelectableItemsView@@QAEXXZ)
0042eca0 0000001f .text             CItemsView.obj(?SetBehaviour@CSelectableItemsView@@UAEXG@Z)
0042ecc0 00000080 .text             CItemsView.obj(?GetSelectedItemsRegion@CSelectableItemsView@@UBEXPAVTRegionObj@@@Z)
0042ed40 000000af .text             CItemsView.obj(?GetSelectedItemsRect@CSelectableItemsView@@UBEXAAVSRect@@@Z)
0042edf0 00000030 .text             CItemsView.obj(?GetSelectedItemsImage@CSelectableItemsView@@UBEPAVTImageObj@@AAVSPoint@@@Z)
0042ee20 00000056 .text             CItemsView.obj(?GetNextSelectedItem@CSelectableItemsView@@UBE_NAAK@Z)
0042ee80 0000032b .text             CItemsView.obj(?KeyDown@CSelectableItemsView@@UAE_NABUSKeyMsgData@@@Z)
0042f1b0 00000015 .text             CItemsView.obj(?KeyUp@CSelectableItemsView@@UAEXABUSKeyMsgData@@@Z)
0042f1d0 00000022 .text             CItemsView.obj(?KeyRepeat@CSelectableItemsView@@UAE_NABUSKeyMsgData@@@Z)
0042f200 0000004f .text             CItemsView.obj(?Drop@CSelectableItemsView@@UAE_NABUSDragMsgData@@@Z)
0042f250 00000086 .text             CItemsView.obj(?ChangeState@CSelectableItemsView@@UAE_NG@Z)
0042f2e0 0000052e .text             CItemsView.obj(?ItemMouseDown@CSelectableItemsView@@MAEXKABUSMouseMsgData@@@Z)
0042f810 00000056 .text             CItemsView.obj(?ItemMouseUp@CSelectableItemsView@@MAEXKABUSMouseMsgData@@@Z)
0042f870 00000023 .text             CItemsView.obj(?ItemMouseEnter@CSelectableItemsView@@MAEXKABUSMouseMsgData@@@Z)
0042f8a0 00000224 .text             CItemsView.obj(?ItemMouseMove@CSelectableItemsView@@MAEXKABUSMouseMsgData@@@Z)
0042fad0 00000015 .text             CItemsView.obj(?ItemMouseLeave@CSelectableItemsView@@MAEXKABUSMouseMsgData@@@Z)
0042faf0 00000042 .text             CItemsView.obj(?ItemDrag@CSelectableItemsView@@MAEXKABUSMouseMsgData@@@Z)
0042fb40 0000004d .text             CListView.obj(??0CListView@@QAE@PAVCViewHandler@@ABVSRect@@@Z)
0042fb90 0000003c .text             CListView.obj(?IsValidItem@CListView@@UBE_NK@Z)
0042fbd0 00000036 .text             CListView.obj(?GetNextItem@CListView@@UBE_NAAK@Z)
0042fc10 00000073 .text             CListView.obj(?GetPrevItem@CListView@@UBE_NAAK@Z)
0042fc90 0000007a .text             CListView.obj(?SetItemSelect@CListView@@UAEXK_N@Z)
0042fd10 00000025 .text             CListView.obj(?IsItemSelected@CListView@@UBE_NK@Z)
0042fd40 00000020 .text             CListView.obj(?GetFirstSelectedItem@CListView@@UBEKXZ)
0042fd60 00000020 .text             CListView.obj(?GetLastSelectedItem@CListView@@UBEKXZ)
0042fd80 00000119 .text             CListView.obj(?SetItemRangeSelect@CListView@@UAEXKK_N@Z)
0042fea0 00000073 .text             CListView.obj(?GetItemRect@CListView@@UBEXKAAVSRect@@@Z)
0042ff20 000000ee .text             CListView.obj(?GetSelectedItemsRect@CListView@@UBEXAAVSRect@@@Z)
00430010 0000008f .text             CListView.obj(?PointToItem@CListView@@UBEKABVSPoint@@@Z)
004300a0 0000003c .text             CListView.obj(?GetFullSize@CListView@@UBEXAAK0@Z)
004300e0 0000006a .text             CListView.obj(?GetFullHeight@CListView@@UBEKXZ)
00430150 0000001f .text             CListView.obj(?GetFullWidth@CListView@@UBEKXZ)
00430170 00000161 .text             CListView.obj(?Draw@CListView@@UAEXPAVTImageObj@@ABVSRect@@K@Z)
004302e0 00000020 .text             CListView.obj(?DragEnter@CListView@@UAEXABUSDragMsgData@@@Z)
00430300 00000020 .text             CListView.obj(?DragLeave@CListView@@UAEXABUSDragMsgData@@@Z)
00430320 000000a8 .text             CListView.obj(?ItemsInserted@CListView@@MAEXKK@Z)
004303d0 000000a6 .text             CListView.obj(?ItemsRemoved@CListView@@MAEXKK@Z)
00430480 000000dd .text             CListView.obj(?ItemsMoved@CListView@@MAEXKKK@Z)
00430560 000000dd .text             CListView.obj(?ItemsSwapped@CListView@@MAEXKKK@Z)
00430640 00000033 .text             CBoolArray.obj(??0CBoolArray@@QAE@XZ)
00430680 00000021 .text             CBoolArray.obj(??1CBoolArray@@QAE@XZ)
004306b0 0000007c .text             CBoolArray.obj(?ExpandData@CBoolArray@@IAEXK@Z)
00430730 0000008c .text             CBoolArray.obj(?ShrinkData@CBoolArray@@IAEXK@Z)
004307c0 0000005d .text             CBoolArray.obj(?ShiftItems@CBoolArray@@IAEXKKK@Z)
00430820 000000be .text             CBoolArray.obj(?InsertItems@CBoolArray@@QAEKKK_N@Z)
004308e0 00000064 .text             CBoolArray.obj(?RemoveItems@CBoolArray@@QAEXKK@Z)
00430950 0000003b .text             CBoolArray.obj(?Clear@CBoolArray@@QAEXXZ)
00430990 0000006d .text             CBoolArray.obj(?GetItem@CBoolArray@@QBE_NK@Z)
00430a00 00000060 .text             CBoolArray.obj(?SetItem@CBoolArray@@QAEXK_N@Z)
00430a60 00000079 .text             CBoolArray.obj(?GetFirstSet@CBoolArray@@QBEKXZ)
00430ae0 00000079 .text             CBoolArray.obj(?GetLastSet@CBoolArray@@QBEKXZ)
00430b60 0000010d .text             CBoolArray.obj(?MoveItems@CBoolArray@@QAEXKKK@Z)
00430c70 0000006c .text             CBoolArray.obj(?SwapItems@CBoolArray@@QAEXKKK@Z)
00430ce0 000002bf .text             UUserInterface(W).obj(?UUserInterface_DrawStandardBox@@YAXPAVTImageObj@@ABVSRect@@PBVSColor@@_N33@Z)
00430fa0 000003f6 .text             UUserInterface(W).obj(?UUserInterface_DrawEtchedBox@@YAXPAVTImageObj@@ABVSRect@@PBXK@Z)
004313a0 00000349 .text             UUserInterface(W).obj(?UUserInterface_DrawSunkenBox@@YAXPAVTImageObj@@ABVSRect@@PBVSColor@@@Z)
004316f0 00000349 .text             UUserInterface(W).obj(?UUserInterface_DrawRaisedBox@@YAXPAVTImageObj@@ABVSRect@@PBVSColor@@@Z)
00431a40 000001db .text             UUserInterface(W).obj(?UUserInterface_DrawBarBox@@YAXPAVTImageObj@@ABVSRect@@@Z)
00431c20 000000ac .text             UUserInterface(W).obj(?GetHighlightColor@UUserInterface@@SAXPAVSColor@@0@Z)
00431cd0 000000eb .text             UUserInterface(W).obj(?GetSysColor@UUserInterface@@SA_NKAAVSColor@@@Z)
00431dc0 000000b4 .text             UGraphics.obj(?DrawLine@UGraphics@@SAXPAVTImageObj@@ABUSLine@@K@Z)
00431e80 000000ce .text             UGraphics.obj(?DrawRegion@UGraphics@@SAXPAVTImageObj@@PAVTRegionObj@@K@Z)
00431f50 000000a6 .text             UGraphics.obj(?FillRect@UGraphics@@SAXPAVTImageObj@@ABVSRect@@@Z)
00432000 000000a6 .text             UGraphics.obj(?FrameRect@UGraphics@@SAXPAVTImageObj@@ABVSRect@@@Z)
004320b0 00000094 .text             UGraphics.obj(?SetPixel@UGraphics@@SAXPAVTImageObj@@ABVSPoint@@ABVSColor@@@Z)
00432150 000000ce .text             UGraphics.obj(?DrawText@UGraphics@@SAXPAVTImageObj@@ABVSRect@@PBXKKK@Z)
00432220 000000ce .text             UGraphics.obj(?DrawTruncText@UGraphics@@SAXPAVTImageObj@@ABVSRect@@PBXKKK@Z)
004322f0 0000010e .text             UGraphics.obj(?DrawTextBox@UGraphics@@SAXPAVTImageObj@@ABVSRect@@1PBXKKK@Z)
00432400 000000dc .text             UGraphics.obj(?GetTextBoxHeight@UGraphics@@SAKPAVTImageObj@@ABVSRect@@PBXKKK@Z)
004324e0 000000e2 .text             UGraphics.obj(?DrawTextLines@UGraphics@@SAXPAVTImageObj@@ABVSRect@@PBXKPBKKKKK@Z)
004325d0 000000ac .text             UGraphics.obj(?CopyPixels@UGraphics@@SAXPAVTImageObj@@ABVSPoint@@ABUSPixmap@@1KKK@Z)
00432680 000000b2 .text             UGraphics.obj(?CopyPixelsTrans@UGraphics@@SAXPAVTImageObj@@ABVSPoint@@ABUSPixmap@@1KKKK@Z)
00432740 00000637 .text             UGraphics.obj(?GetLinePoly@UGraphics@@SAXABVSPoint@@0KPAV2@@Z)
00432d80 000000da .text             UGraphics.obj(?MergeColorTable@UGraphics@@SAKPAKKKPBKK@Z)
00432e60 000000ed .text             UGraphics.obj(?GetNearestColor@UGraphics@@SAKKPBKKK@Z)
00432f50 00000054 .text             UGraphics.obj(?GetExactColor@UGraphics@@SA_NKPBKKAAK@Z)
00432fb0 0000016f .text             UGraphics.obj(?ValidateCopyRects@UGraphics@@SA_NABVSRect@@0AAVSPoint@@1AAK2@Z)
00433120 00000029 .text             CDragAndDroppable.obj(??0CDragAndDroppable@@QAE@XZ)
00433150 0000001e .text             CDragAndDroppable.obj(?SetDragAndDropHandler@CDragAndDroppable@@UAEXPAVCDragAndDropHandler@@@Z)
00433170 00000118 .text             winmaincrt.obj(_WinMainCRTStartup)
00433290 0000001a .text             \qtml\buildresults\NoSym\obj\qtmlClientPublic\ClientToolboxAPI.obj(_DestroyPortAssociation)
004332b0 0000001a .text             \qtml\buildresults\NoSym\obj\qtmlClientPublic\ClientToolboxAPI.obj(_GetNativeWindowPort)
004332d0 0000001a .text             \qtml\buildresults\NoSym\obj\qtmlClientPublic\ClientToolboxAPI.obj(_NativeEventToMacEvent)
004332f0 00000010 .text             \qtml\buildresults\NoSym\obj\qtmlClientPublic\ClientToolboxAPI.obj(_BogusDispatcher)
00433300 00000150 .text             \qtml\buildresults\NoSym\obj\qtmlClientPublic\ClientToolboxAPI.obj(_autoPatchThoseAddresses)
00433450 00000048 .text             ANSI.obj(_malloc)
004334a0 0000004c .text             ANSI.obj(_realloc)
004334f0 0000000e .text             ANSI.obj(_free)
00433500 00000019 .text             ANSI.obj(_memcpy)
00433520 00000019 .text             ANSI.obj(_memmove)
00433540 0000009c .text             ANSI.obj(_memcmp)
004335e0 00000035 .text             ANSI.obj(_strlen)
00433620 00000061 .text             ANSI.obj(_strcpy)
00433690 00000079 .text             ANSI.obj(_strchr)
00433710 0000004f .text             ANSI.obj(_pstrcpy)
00433760 000001c4 .text             ANSI.obj(_strtol)
00433930 000001ac .text             ANSI.obj(_strtoul)
00433ae0 00000031 .text             ANSI.obj(_exit)
00433b20 00000039 .text             ANSI.obj(_atexit)
00433b60 0000000d .text             ANSI.obj(_abort)
00433b70 0000003b .text             UProgramCleanup.obj(??0Cleanup@UProgramCleanup@@IAE@XZ)
00433bb0 0000008f .text             UProgramCleanup.obj(??1Cleanup@UProgramCleanup@@IAE@XZ)
00433c40 00000049 .text             UProgramCleanup.obj(?InstallSystem@Cleanup@UProgramCleanup@@IAEXP6AXXZ@Z)
00433c90 0000004a .text             UProgramCleanup.obj(?InstallAppl@Cleanup@UProgramCleanup@@IAEXP6AXXZ@Z)
00433ce0 00000097 .text             UProgramCleanup.obj(?CleanupAppl@Cleanup@UProgramCleanup@@IAEXXZ)
00433d80 00000012 .text             UProgramCleanup.obj(?InstallSystem@UProgramCleanup@@SAXP6AXXZ@Z)
00433da0 00000012 .text             UProgramCleanup.obj(?InstallAppl@UProgramCleanup@@SAXP6AXXZ@Z)
00433dc0 0000000f .text             UProgramCleanup.obj(?CleanupAppl@UProgramCleanup@@SAXXZ)
00433dd0 00000026 .text             UProgramCleanup.obj
00433e00 000000c7 .text             UService(W).obj(?Init@UService@@SAXPAEE@Z)
00433ed0 00000066 .text             UService(W).obj(?IsInstalled@UService@@SA_NXZ)
00433f40 0000015a .text             UService(W).obj(?Install@UService@@SA_NE@Z)
004340a0 000000e5 .text             UService(W).obj(?Uninstall@UService@@SA_NXZ)
00434190 00000014 .text             UService(W).obj(?IsService@UService@@SA_NXZ)
004341b0 00000032 .text             UService(W).obj(?PostMessage@UService@@SAXKPBXKF@Z)
004341f0 00000069 .text             UService(W).obj(?Start@UService@@SA_NXZ)
00434260 00000033 .text             UService(W).obj(?Register@UService@@SA_NXZ)
004342a0 00000040 .text             UService(W).obj(?SetStatus@UService@@SAXKKKK@Z)
004342e0 00000016 .text             UService(W).obj(?UpdateStatus@UService@@SAXXZ)
00434300 00000075 .text             UService(W).obj(?_ServiceMain@@YGXKPAPAD@Z)
00434380 000000de .text             UService(W).obj(?_ServiceMessageHandler@@YGXK@Z)
00434460 000002b8 .text             UOleAutomation(W).obj(?RegisterServer@UOleAutomation@@SA_NPBD0_N@Z)
00434720 000003c7 .text             UOleAutomation(W).obj(?IsRegisteredServer@UOleAutomation@@SA_NPBD0_N@Z)
00434af0 0000001f .text             UOleAutomation(W).obj(??0_DProtocolHandler@@QAE@XZ)
00434b10 000000af .text             UOleAutomation(W).obj(?Initialize@_DProtocolHandler@@UAGFPBD0@Z)
00434bc0 000000d2 .text             UOleAutomation(W).obj(?Open@_DProtocolHandler@@UAGXPBD@Z)
00434ca0 0000003e .text             UOleAutomation(W).obj(??0_DIProtocolUnknown@@QAE@XZ)
00434ce0 000000de .text             UOleAutomation(W).obj(?Create@_DIProtocolUnknown@@SAPAV1@XZ)
00434dc0 00000090 .text             UOleAutomation(W).obj(?QueryInterface@_DIProtocolUnknown@@UAGJABU_GUID@@PAPAX@Z)
00434e50 00000013 .text             UOleAutomation(W).obj(?AddRef@_DIProtocolUnknown@@UAGKXZ)
00434e70 0000002e .text             UOleAutomation(W).obj(?Release@_DIProtocolUnknown@@UAGKXZ)
00434ea0 00000029 .text             UOleAutomation(W).obj(??0_DIProtocolClassFactory@@QAE@XZ)
00434ed0 00000050 .text             UOleAutomation(W).obj(?Create@_DIProtocolClassFactory@@SAPAV1@XZ)
00434f20 00000078 .text             UOleAutomation(W).obj(?QueryInterface@_DIProtocolClassFactory@@UAGJABU_GUID@@PAPAX@Z)
00434fa0 00000013 .text             UOleAutomation(W).obj(?AddRef@_DIProtocolClassFactory@@UAGKXZ)
00434fc0 0000002e .text             UOleAutomation(W).obj(?Release@_DIProtocolClassFactory@@UAGKXZ)
00434ff0 00000040 .text             UOleAutomation(W).obj(?CreateInstance@_DIProtocolClassFactory@@UAGJPAUIUnknown@@ABU_GUID@@PAPAX@Z)
00435030 0000000c .text             UOleAutomation(W).obj(?LockServer@_DIProtocolClassFactory@@UAGJH@Z)
00435040 00000104 .text             UOleAutomation(W).obj(?_InitInterfaceData@@YAXXZ)
00435150 00000148 .text             UOleAutomation(W).obj(?_InitOleAutomationServer@@YA_NXZ)
004352a0 00000045 .text             UOleAutomation(W).obj(?_UninitInterfaceData@@YAXXZ)
004352f0 0000007e .text             UOleAutomation(W).obj(?_UninitOleAutomationServer@@YAXXZ)
00435370 00000007 .text             URegularTransport(W).obj(?HasTCP@URegularTransport@@SA_NXZ)
00435380 00000029 .text             URegularTransport(W).obj(?_Deinit@@YAXXZ)
004353b0 0000028e .text             URegularTransport(W).obj(?Init@URegularTransport@@SAXXZ)
00435640 00000160 .text             URegularTransport(W).obj(?New@URegularTransport@@SAPAVTRegularTransportObj@@KK@Z)
004357a0 00000194 .text             URegularTransport(W).obj(?Dispose@URegularTransport@@SAXPAVTRegularTransportObj@@@Z)
00435940 0000003c .text             URegularTransport(W).obj(?SetMessageHandler@URegularTransport@@SAXPAVTRegularTransportObj@@P6AXPAX1KPBXK@Z11@Z)
00435980 00000052 .text             URegularTransport(W).obj(?PostMessage@URegularTransport@@SAXPAVTRegularTransportObj@@KPBXKF@Z)
004359e0 0000003e .text             URegularTransport(W).obj(?SetIPAddress@URegularTransport@@SAXPAVTRegularTransportObj@@USIPAddress@@@Z)
00435a20 0000014d .text             URegularTransport(W).obj(?GetLocalAddress@URegularTransport@@SAKPAVTRegularTransportObj@@PAXK@Z)
00435b70 000003d4 .text             URegularTransport(W).obj(?GetProxyServerAddress@URegularTransport@@SAKGPAXKPBXK@Z)
00435f50 00000018 .text             URegularTransport(W).obj(?IsConnected@URegularTransport@@SA_NPAVTRegularTransportObj@@@Z)
00435f70 000001fc .text             URegularTransport(W).obj(?StartConnect@URegularTransport@@SAXPAVTRegularTransportObj@@PBXKK@Z)
00436170 0000008d .text             URegularTransport(W).obj(?Disconnect@URegularTransport@@SAXPAVTRegularTransportObj@@@Z)
00436200 00000026 .text             URegularTransport(W).obj(?StartDisconnect@URegularTransport@@SAXPAVTRegularTransportObj@@@Z)
00436230 00000018 .text             URegularTransport(W).obj(?IsDisconnecting@URegularTransport@@SA_NPAVTRegularTransportObj@@@Z)
00436250 0000008d .text             URegularTransport(W).obj(?Listen@URegularTransport@@SAXPAVTRegularTransportObj@@PBXK@Z)
004362e0 00000128 .text             URegularTransport(W).obj(?Accept@URegularTransport@@SAPAVTRegularTransportObj@@PAV2@PAXPAK@Z)
00436410 00000042 .text             URegularTransport(W).obj(?NewBuffer@URegularTransport@@SAPAXK@Z)
00436460 00000018 .text             URegularTransport(W).obj(?DisposeBuffer@URegularTransport@@SAXPAX@Z)
00436480 00000018 .text             URegularTransport(W).obj(?GetBufferSize@URegularTransport@@SAKPAX@Z)
004364a0 00000106 .text             URegularTransport(W).obj(?SendBuffer@URegularTransport@@SAXPAVTRegularTransportObj@@PAX@Z)
004365b0 00000164 .text             URegularTransport(W).obj(?Send@URegularTransport@@SAXPAVTRegularTransportObj@@PBXK@Z)
00436720 00000207 .text             URegularTransport(W).obj(?ReceiveBuffer@URegularTransport@@SA_NPAVTRegularTransportObj@@AAPAXAAK@Z)
00436930 00000137 .text             URegularTransport(W).obj(?Receive@URegularTransport@@SAKPAVTRegularTransportObj@@PAXK@Z)
00436a70 00000054 .text             URegularTransport(W).obj(?GetReceiveSize@URegularTransport@@SAKPAVTRegularTransportObj@@@Z)
00436ad0 00000053 .text             URegularTransport(W).obj(?GetUnsentSize@URegularTransport@@SAKPAVTRegularTransportObj@@@Z)
00436b30 00000071 .text             URegularTransport(W).obj(?NotifyReadyToReceive@URegularTransport@@SAXPAVTRegularTransportObj@@K@Z)
00436bb0 000000dd .text             URegularTransport(W).obj(?ReceiveUnit@URegularTransport@@SA_NPAVTRegularTransportObj@@PAXAAK12@Z)
00436c90 000001dd .text             URegularTransport(W).obj(?LaunchURL@URegularTransport@@SA_NPBXKPAK1@Z)
00436e70 0000025a .text             URegularTransport(W).obj(?_TRStdToWinAddr@@YAKPBXKPAXK@Z)
004370d0 00000081 .text             URegularTransport(W).obj(?_TRWinToStdAddr@@YAKPBXKPAXK@Z)
00437160 0000003f .text             URegularTransport(W).obj(?_TRLookupSock@@YAPAUSRegularTransport@@I@Z)
004371a0 0000003f .text             URegularTransport(W).obj(?_TRLookupSockByLTHdl@@YAPAUSRegularTransport@@PAX@Z)
004371e0 0000003f .text             URegularTransport(W).obj(?_TRLookupSockByULTHdl@@YAPAUSRegularTransport@@PAX@Z)
00437220 0000004b .text             URegularTransport(W).obj(?_TRLookupSockByFWLTHdl@@YAPAUSRegularTransport@@PAX@Z)
00437270 00000133 .text             URegularTransport(W).obj(?_TRNotifyReadyToReceive@@YA_NPAVTRegularTransportObj@@K_N@Z)
004373b0 000003cf .text             URegularTransport(W).obj(?_TRSockProc@@YGJPAUHWND__@@IIJ@Z)
00437780 0000049d .text             URegularTransport(W).obj(?_TRAsyncProc@@YGJPAUHWND__@@IIJ@Z)
00437c20 000000bd .text             URegularTransport(W).obj(?_TRExtractNameAddr@@YAXABUSInternetNameAddress@@PADPAG@Z)
00437ce0 0000009c .text             URegularTransport(W).obj(?_TRCappedSend@@YAKIPBXK@Z)
00437d80 000001b9 .text             URegularTransport(W).obj(?_TRSendQueued@@YAXPAVTRegularTransportObj@@@Z)
00437f40 000000a0 .text             URegularTransport(W).obj(?_TRGetUnsentData@@YAXPAVTRegularTransportObj@@PAV?$CPtrList@USSendData@@@@@Z)
00437fe0 00000094 .text             URegularTransport(W).obj(?_TRBindIPAddress@@YAXPAVTRegularTransportObj@@G@Z)
00438080 00000104 .text             URegularTransport(W).obj(?_TRTryConnectViaFirewall@@YAXPAUSRegularTransport@@@Z)
00438190 00000025 .text             UHttpTransport.obj(?_Deinit@@YAXXZ)
004381c0 00000039 .text             UHttpTransport.obj(?Init@UHttpTransport@@SAXXZ)
00438200 00000139 .text             UHttpTransport.obj(?New@UHttpTransport@@SAPAVTHttpTransportObj@@KK@Z)
00438340 00000116 .text             UHttpTransport.obj(?Dispose@UHttpTransport@@SAXPAVTHttpTransportObj@@@Z)
00438460 0000003c .text             UHttpTransport.obj(?SetMessageHandler@UHttpTransport@@SAXPAVTHttpTransportObj@@P6AXPAX1KPBXK@Z11@Z)
004384a0 00000052 .text             UHttpTransport.obj(?PostMessage@UHttpTransport@@SAXPAVTHttpTransportObj@@KPBXKF@Z)
00438500 00000051 .text             UHttpTransport.obj(?SetIPAddress@UHttpTransport@@SAXPAVTHttpTransportObj@@USIPAddress@@@Z)
00438560 00000039 .text             UHttpTransport.obj(?IsConnected@UHttpTransport@@SA_NPAVTHttpTransportObj@@@Z)
004385a0 000000a0 .text             UHttpTransport.obj(?Disconnect@UHttpTransport@@SAXPAVTHttpTransportObj@@@Z)
00438640 00000027 .text             UHttpTransport.obj(?IsDisconnecting@UHttpTransport@@SA_NPAVTHttpTransportObj@@@Z)
00438670 0000003e .text             UHttpTransport.obj(?Listen@UHttpTransport@@SAXPAVTHttpTransportObj@@PBXK@Z)
004386b0 00000150 .text             UHttpTransport.obj(?Accept@UHttpTransport@@SAPAVTHttpTransportObj@@PAV2@PAXPAK@Z)
00438800 00000116 .text             UHttpTransport.obj(?SendBuffer@UHttpTransport@@SAXPAVTHttpTransportObj@@PAX@Z)
00438920 0000013f .text             UHttpTransport.obj(?Send@UHttpTransport@@SAXPAVTHttpTransportObj@@PBXK@Z)
00438a60 000001b8 .text             UHttpTransport.obj(?Receive@UHttpTransport@@SAKPAVTHttpTransportObj@@PAXK@Z)
00438c20 000000c5 .text             UHttpTransport.obj(?GetReceiveSize@UHttpTransport@@SAKPAVTHttpTransportObj@@@Z)
00438cf0 0000004a .text             UHttpTransport.obj(?ReceiveUnit@UHttpTransport@@SA_NPAVTHttpTransportObj@@PAXAAK12@Z)
00438d40 00000080 .text             UHttpTransport.obj(?_HttpConnectionOpenMessageHandler@@YAXPAX0KPBXK@Z)
00438dc0 00000124 .text             UHttpTransport.obj(?_HttpConnectionMessageHandler@@YAXPAX0KPBXK@Z)
00438ef0 00000074 .text             UHttpTransport.obj(?_HttpConnectionTimerHandler@@YAXPAX0KPBXK@Z)
00438f70 00000015 .text             UHttpTransport.obj(?_HttpConnectionOpenCloseTimerHandler@@YAXPAX0KPBXK@Z)
00438f90 0000016c .text             UHttpTransport.obj(?_CheckAddress@@YA_NPAVTHttpTransportObj@@_N@Z)
00439100 0000020b .text             UHttpTransport.obj(?_GetAddress@@YA_NPAVTHttpTransportObj@@PAEK1K@Z)
00439310 0000010f .text             UHttpTransport.obj(?_GetProxyAddresss@@YA_NAAUSInternetNameAddress@@@Z)
00439420 000000d9 .text             UHttpTransport.obj(?_AcceptConnection@@YA_NPAVTHttpTransportObj@@@Z)
00439500 000000bc .text             UHttpTransport.obj(?_CheckConnectionEstabilished@@YA_NPAVTHttpTransportObj@@@Z)
004395c0 00000210 .text             UHttpTransport.obj(?_SearchConnectionOpenPair@@YA_NPAVTHttpTransportObj@@AAPAVTRegularTransportObj@@1AAUSGUID@@PAXPAK@Z)
004397d0 00000239 .text             UHttpTransport.obj(?_TryReconnect@@YA_NPAVTHttpTransportObj@@@Z)
00439a10 000000db .text             UHttpTransport.obj(?_WaitReconnect@@YA_NPAVTHttpTransportObj@@@Z)
00439af0 00000168 .text             UHttpTransport.obj(?_SearchReconnect@@YA_NPAUSConnectionInfo@@@Z)
00439c60 00000213 .text             UHttpTransport.obj(?_ReceiveDisconnectData@@YA_NPAVTHttpTransportObj@@@Z)
00439e80 0000007b .text             UHttpTransport.obj(?_Disconnect@@YAXPAVTHttpTransportObj@@@Z)
00439f00 000001f9 .text             UHttpTransport.obj(?_SendHttpPostHeader@@YA_NPAVTHttpTransportObj@@@Z)
0043a100 0000010f .text             UHttpTransport.obj(?_SendHttpResponsePostHeader@@YA_NPAVTRegularTransportObj@@@Z)
0043a210 00000190 .text             UHttpTransport.obj(?_SendHttpGetHeader@@YA_NPAVTHttpTransportObj@@@Z)
0043a3a0 00000107 .text             UHttpTransport.obj(?_SendHttpResponseGetHeader@@YA_NPAVTRegularTransportObj@@@Z)
0043a4b0 000000d9 .text             UHttpTransport.obj(?_SendHttpPadding@@YA_NPAVTRegularTransportObj@@K@Z)
0043a590 00000035 .text             UHttpTransport.obj(?_SendDisconnectPost@@YAXPAVTRegularTransportObj@@@Z)
0043a5d0 0000005a .text             UHttpTransport.obj(?_SendDisconnectGet@@YAXPAVTRegularTransportObj@@@Z)
0043a630 0000048f .text             UHttpTransport.obj(?_ReceiveHttpHeader@@YA_NPAUSConnectionInfo@@@Z)
0043aac0 00000352 .text             UHttpTransport.obj(?_ReceiveHttpHeader@@YA_NPAVTHttpTransportObj@@@Z)
0043ae20 000001ed .text             UHttpTransport.obj(?_ReceiveHttpData@@YA_NPAVTHttpTransportObj@@@Z)
0043b010 00000084 .text             UHttpTransport.obj(?_ReceiveHttpPadding@@YA_NPAUSConnectionInfo@@K@Z)
0043b0a0 00000085 .text             UHttpTransport.obj(?_ReceiveHttpPadding@@YA_NPAVTHttpTransportObj@@K@Z)
0043b130 0000010b .text             UHttpTransport.obj(?_AddField_General@@YA_NPAPAXAAKPBE22@Z)
0043b240 0000006e .text             UHttpTransport.obj(?_AddField_End@@YA_NPAPAXAAK@Z)
0043b2b0 000000c6 .text             UHttpTransport.obj(?_GetHeaderSize@@YA_NPAXKAAK@Z)
0043b380 00000090 .text             UHttpTransport.obj(?_AddSendDataList@@YAXPAVTHttpTransportObj@@K@Z)
0043b410 000000f7 .text             UHttpTransport.obj(?_ClearSendDataList@@YA_NPAVTHttpTransportObj@@@Z)
0043b510 0000009a .text             UHttpTransport.obj(?_CleanConnectionOpenList@@YAXXZ)
0043b5b0 00000076 .text             UHttpTransport.obj(?_ClearConnectionOpenList@@YAXXZ)
0043b630 0000007f .text             UHttpTransport.obj(?_CleanConnectionCloseList@@YAXXZ)
0043b6b0 00000099 .text             UHttpTransport.obj(?_ClearConnectionCloseList@@YAXXZ)
0043b750 00000068 .text             UHttpTransport.obj
0043b7c0 0000001e .text             UHttpTransport.obj(??1?$CPtrList@USHttpTransport@@@@QAE@XZ)
0043b7e0 0000001e .text             UHttpTransport.obj(??1?$CPtrList@VTRegularTransportObj@@@@QAE@XZ)
0043b800 0000001e .text             UHttpTransport.obj(??1?$CPtrList@USConnectionInfo@@@@QAE@XZ)
0043b820 00000022 .text             URez.obj(?_RZGetNthItemListHdl@@YAPAVTHdlObj@@PAVTRezObj@@K@Z)
0043b850 00000065 .text             URez.obj(?ItemExists@URez@@SA_NPAVTRezObj@@KJ@Z)
0043b8c0 00000216 .text             URez.obj(?LoadItem@URez@@SAPAVTHdlObj@@PAVTRezObj@@KJK@Z)
0043bae0 000000d9 .text             URez.obj(?ReleaseItem@URez@@SAXPAVTRezObj@@KJ@Z)
0043bbc0 00000047 .text             URez.obj(?SearchChain@URez@@SAPAVTRezObj@@KJK@Z)
0043bc10 000000ab .text             URez.obj(?Reload@URez@@SAPAVTHdlObj@@AAUSRezStub@@KJ@Z)
0043bcc0 00000191 .text             URez.obj(?_RZSearchTypeList@@YA_NPAVTRezObj@@KAAK@Z)
0043be60 000001bc .text             URez.obj(?_RZSearchItemList@@YA_NPAVTHdlObj@@KAAK@Z)
0043c020 0000022d .text             UIDVarArray.obj(?GetItem@UIDVarArray@@SAKPBXKKPAXK@Z)
0043c250 00000005 .text             URegion(W).obj(?Init@URegion@@SAXXZ)
0043c260 0000003d .text             URegion(W).obj(?New@URegion@@SAPAVTRegionObj@@XZ)
0043c2a0 0000006e .text             URegion(W).obj(?New@URegion@@SAPAVTRegionObj@@PAV2@@Z)
0043c310 00000014 .text             URegion(W).obj(?Dispose@URegion@@SAXPAVTRegionObj@@@Z)
0043c330 00000011 .text             URegion(W).obj(?GetBounds@URegion@@SAXPAVTRegionObj@@AAVSRect@@@Z)
0043c350 00000042 .text             URegion(W).obj(?SetBounds@URegion@@SAXPAVTRegionObj@@ABVSRect@@@Z)
0043c3a0 00000014 .text             URegion(W).obj(?Move@URegion@@SAXPAVTRegionObj@@JJ@Z)
0043c3c0 00000031 .text             URegion(W).obj(?Add@URegion@@SAXPAVTRegionObj@@0@Z)
0043c400 00000076 .text             URegion(W).obj(?AddRect@URegion@@SAXPAVTRegionObj@@ABVSRect@@@Z)
0043c480 00000075 .text             URegion(W).obj(?SetRect@URegion@@SAXPAVTRegionObj@@ABVSRect@@@Z)
0043c500 0000001f .text             URegion(W).obj(?IsPointWithin@URegion@@SA_NPAVTRegionObj@@ABVSPoint@@@Z)
0043c520 0000007a .text             URegion(W).obj(?SetEmpty@URegion@@SAXPAVTRegionObj@@@Z)
0043c5a0 00000005 .text             URegion(W).obj(?SetOutline@URegion@@SAXPAVTRegionObj@@FF@Z)
0043c5b0 00000015 .text             UDragAndDrop(W).obj(?Init@UDragAndDrop@@SAXXZ)
0043c5d0 00000007 .text             UDragAndDrop(W).obj(?IsAvailable@UDragAndDrop@@SA_NXZ)
0043c5e0 00000065 .text             UDragAndDrop(W).obj(?New@UDragAndDrop@@SAPAVTDragObj@@XZ)
0043c650 000000a6 .text             UDragAndDrop(W).obj(?Dispose@UDragAndDrop@@SAXPAVTDragObj@@@Z)
0043c700 000000fe .text             UDragAndDrop(W).obj(?Track@UDragAndDrop@@SA_NPAVTDragObj@@ABVSPoint@@PAVTRegionObj@@@Z)
0043c800 00000015 .text             UDragAndDrop(W).obj(?SetDragAction@UDragAndDrop@@SAXPAVTDragObj@@G@Z)
0043c820 00000019 .text             UDragAndDrop(W).obj(?GetDragAction@UDragAndDrop@@SAGPAVTDragObj@@@Z)
0043c840 00000015 .text             UDragAndDrop(W).obj(?AcceptDrop@UDragAndDrop@@SAXPAVTDragObj@@@Z)
0043c860 00000015 .text             UDragAndDrop(W).obj(?RejectDrop@UDragAndDrop@@SAXPAVTDragObj@@@Z)
0043c880 00000042 .text             UDragAndDrop(W).obj(?GetItemCount@UDragAndDrop@@SAKPAVTDragObj@@@Z)
0043c8d0 00000008 .text             UDragAndDrop(W).obj(?GetItem@UDragAndDrop@@SAKPAVTDragObj@@K@Z)
0043c8e0 000000ba .text             UDragAndDrop(W).obj(?HasFlavor@UDragAndDrop@@SA_NPAVTDragObj@@K@Z)
0043c9a0 0000027d .text             UDragAndDrop(W).obj(?AddTextFlavor@UDragAndDrop@@SAXPAVTDragObj@@KPBXKKK@Z)
0043cc20 0000021f .text             UDragAndDrop(W).obj(?GetFlavorData@UDragAndDrop@@SAKPAVTDragObj@@KKPAXKK@Z)
0043ce40 000001b0 .text             UDragAndDrop(W).obj(?GetFlavorDataSize@UDragAndDrop@@SAKPAVTDragObj@@KK@Z)
0043cff0 00000007 .text             UDragAndDrop(W).obj(?DropLocationIsTrash@UDragAndDrop@@SA_NPAVTDragObj@@@Z)
0043d000 00000046 .text             UDragAndDrop(W).obj(?DrawHilite@UDragAndDrop@@SAXPAVTImageObj@@ABVSRect@@ABVSColor@@@Z)
0043d050 00000038 .text             UDragAndDrop(W).obj(?DrawHilite@UDragAndDrop@@SAXPAVTImageObj@@ABVSRect@@@Z)
0043d090 000000b9 .text             UDragAndDrop(W).obj(?Equals@UDragAndDrop@@SA_NPAVTDragObj@@0@Z)
0043d150 00000058 .text             UDragAndDrop(W).obj(?_DDLookupAWFlav@@YAPBUFlavMap@@K@Z)
0043d1b0 0000005a .text             UDragAndDrop(W).obj(?_DDLookupWinFlav@@YAPBUFlavMap@@G@Z)
0043d210 00000068 .text             UDragAndDrop(W).obj(?_DDRegisterWinForDrop@@YAXPAUHWND__@@PAX@Z)
0043d280 00000034 .text             UDragAndDrop(W).obj(??0_DDDataObject@@QAE@PAPAUSDDFlav@@@Z)
0043d2c0 000000b7 .text             UDragAndDrop(W).obj(?QueryInterface@_DDDataObject@@UAGJABU_GUID@@PAPAX@Z)
0043d380 00000013 .text             UDragAndDrop(W).obj(?AddRef@_DDDataObject@@UAGKXZ)
0043d3a0 0000002e .text             UDragAndDrop(W).obj(?Release@_DDDataObject@@UAGKXZ)
0043d3d0 0000026b .text             UDragAndDrop(W).obj(?GetData@_DDDataObject@@UAGJPAUtagFORMATETC@@PAUtagSTGMEDIUM@@@Z)
0043d640 0000035f .text             UDragAndDrop(W).obj(?GetDataHere@_DDDataObject@@UAGJPAUtagFORMATETC@@PAUtagSTGMEDIUM@@@Z)
0043d9a0 000000f5 .text             UDragAndDrop(W).obj(?QueryGetData@_DDDataObject@@UAGJPAUtagFORMATETC@@@Z)
0043daa0 0000001b .text             UDragAndDrop(W).obj(?GetCanonicalFormatEtc@_DDDataObject@@UAGJPAUtagFORMATETC@@0@Z)
0043dac0 000001fb .text             UDragAndDrop(W).obj(?SetData@_DDDataObject@@UAGJPAUtagFORMATETC@@PAUtagSTGMEDIUM@@H@Z)
0043dcc0 0000014c .text             UDragAndDrop(W).obj(?EnumFormatEtc@_DDDataObject@@UAGJKPAPAUIEnumFORMATETC@@@Z)
0043de10 0000000c .text             UDragAndDrop(W).obj(?DAdvise@_DDDataObject@@UAGJPAUtagFORMATETC@@KPAUIAdviseSink@@PAK@Z)
0043de20 0000000c .text             UDragAndDrop(W).obj(?DUnadvise@_DDDataObject@@UAGJK@Z)
0043de30 0000000c .text             UDragAndDrop(W).obj(?EnumDAdvise@_DDDataObject@@UAGJPAPAUIEnumSTATDATA@@@Z)
0043de40 00000029 .text             UDragAndDrop(W).obj(??0_DDDropSource@@QAE@XZ)
0043de70 00000068 .text             UDragAndDrop(W).obj(?QueryInterface@_DDDropSource@@UAGJABU_GUID@@PAPAX@Z)
0043dee0 00000013 .text             UDragAndDrop(W).obj(?AddRef@_DDDropSource@@UAGKXZ)
0043df00 0000002e .text             UDragAndDrop(W).obj(?Release@_DDDropSource@@UAGKXZ)
0043df30 00000034 .text             UDragAndDrop(W).obj(?QueryContinueDrag@_DDDropSource@@UAGJHK@Z)
0043df70 0000000c .text             UDragAndDrop(W).obj(?GiveFeedback@_DDDropSource@@UAGJK@Z)
0043df80 000000b7 .text             UDragAndDrop(W).obj(??0_DDFormatEtcEnum@@QAE@KPAUtagFORMATETC@@@Z)
0043e040 00000068 .text             UDragAndDrop(W).obj(?QueryInterface@_DDFormatEtcEnum@@UAGJABU_GUID@@PAPAX@Z)
0043e0b0 00000013 .text             UDragAndDrop(W).obj(?AddRef@_DDFormatEtcEnum@@UAGKXZ)
0043e0d0 0000002e .text             UDragAndDrop(W).obj(?Release@_DDFormatEtcEnum@@UAGKXZ)
0043e100 000000d7 .text             UDragAndDrop(W).obj(?Next@_DDFormatEtcEnum@@UAGJKPAUtagFORMATETC@@PAK@Z)
0043e1e0 0000007f .text             UDragAndDrop(W).obj(?Skip@_DDFormatEtcEnum@@UAGJK@Z)
0043e260 00000018 .text             UDragAndDrop(W).obj(?Reset@_DDFormatEtcEnum@@UAGJXZ)
0043e280 0000007b .text             UDragAndDrop(W).obj(?Clone@_DDFormatEtcEnum@@UAGJPAPAUIEnumFORMATETC@@@Z)
0043e300 00000066 .text             UDragAndDrop(W).obj(??0_DDDropTarget@@QAE@PAX@Z)
0043e370 00000068 .text             UDragAndDrop(W).obj(?QueryInterface@_DDDropTarget@@UAGJABU_GUID@@PAPAX@Z)
0043e3e0 00000013 .text             UDragAndDrop(W).obj(?AddRef@_DDDropTarget@@UAGKXZ)
0043e400 0000002e .text             UDragAndDrop(W).obj(?Release@_DDDropTarget@@UAGKXZ)
0043e430 0000009e .text             UDragAndDrop(W).obj(?DragEnter@_DDDropTarget@@UAGJPAUIDataObject@@KU_POINTL@@PAK@Z)
0043e4d0 00000084 .text             UDragAndDrop(W).obj(?DragOver@_DDDropTarget@@UAGJKU_POINTL@@PAK@Z)
0043e560 00000063 .text             UDragAndDrop(W).obj(?DragLeave@_DDDropTarget@@UAGJXZ)
0043e5d0 000000d2 .text             UDragAndDrop(W).obj(?Drop@_DDDropTarget@@UAGJPAUIDataObject@@KU_POINTL@@PAK@Z)
0043e6b0 00000073 .text             UDragAndDrop(W).obj(?DispatchDrag@_DDDropTarget@@UAGHKKU_POINTL@@PAK@Z)
0043e730 00000056 .text             UTooltip.obj(??0_TTCToolTipView@@QAE@PAVCViewHandler@@ABVSRect@@ABVSColor@@@Z)
0043e790 00000034 .text             UTooltip.obj(??1_TTCToolTipView@@UAE@XZ)
0043e7d0 0000004b .text             UTooltip.obj(?Draw@_TTCToolTipView@@UAEXPAVTImageObj@@ABVSRect@@K@Z)
0043e820 000000e2 .text             UTooltip.obj(??0_TTCToolTipWin@@QAE@XZ)
0043e910 00000031 .text             UTooltip.obj(?SetText@_TTCToolTipWin@@QAEXPBE@Z)
0043e950 00000141 .text             UTooltip.obj(?RecalcDims@_TTCToolTipWin@@QAEXXZ)
0043eaa0 00000062 .text             UTooltip.obj(?_TTTimerHandler@@YAXPAX0KPBXK@Z)
0043eb10 0000004e .text             UTooltip.obj(?_TTTimerStop@@YAXXZ)
0043eb60 00000055 .text             UTooltip.obj(?Init@UTooltip@@SAXXZ)
0043ebc0 00000101 .text             UTooltip.obj(?Activate@UTooltip@@SAXPAVCView@@PBE@Z)
0043ecd0 00000068 .text             UTooltip.obj(?Hide@UTooltip@@SAXXZ)
0043ed40 0000000b .text             UTooltip.obj(?GetState@UTooltip@@SAGXZ)
0043ed50 00000012 .text             UTooltip.obj(?IsEnabled@UTooltip@@SA_NXZ)
0043ed70 00000061 .text             UTooltip.obj(??_E_TTCToolTipWin@@UAE@I@Z)
0043ede0 00000027 .text             UTooltip.obj(??1_TTCToolTipWin@@UAE@XZ)
0043ee10 00000058 .text             UTooltip.obj(??_E_TTCToolTipView@@UAE@I@Z)
0043ee70 0000000d .text             USound(W).obj(?Beep@USound@@SAXXZ)
0043ee80 000001e0 .text             USound(W).obj(?NewOutput@USound@@SAPAVTSoundOutputObj@@KKKKKP6AXPAX0KPBXK@Z0K@Z)
0043f060 000000ab .text             USound(W).obj(?DisposeOutput@USound@@SAXPAVTSoundOutputObj@@@Z)
0043f110 000000d9 .text             USound(W).obj(?EnqueueOutput@USound@@SAXPAVTSoundOutputObj@@PBXK@Z)
0043f1f0 00000027 .text             USound(W).obj(?GetOutputScratch@USound@@SAPAEPAVTSoundOutputObj@@@Z)
0043f220 0000003f .text             USound(W).obj(?_SNLookupWaveOut@@YAPAUSSoundOutput@@PAUHWAVEOUT__@@@Z)
0043f260 000000be .text             USound(W).obj(?_SNWaveOutProc@@YGJPAUHWND__@@IIJ@Z)
0043f320 000000ff .text             GrafTypes.obj(??_5SRect@@QAEAAV0@ABV0@@Z)
0043f420 00000076 .text             GrafTypes.obj(?Intersects@SRect@@QBE_NABV1@@Z)
0043f4a0 000000d6 .text             GrafTypes.obj(?GetIntersection@SRect@@QBE_NABV1@AAV1@@Z)
0043f580 0000012d .text             GrafTypes.obj(?Constrain@SRect@@QAEXABV1@@Z)
0043f6b0 00000091 .text             GrafTypes.obj(?Center@SRect@@QAEXABV1@@Z)
0043f750 00000053 .text             GrafTypes.obj(?CenterHoriz@SRect@@QAEXABV1@@Z)
0043f7b0 00000057 .text             GrafTypes.obj(?CenterVert@SRect@@QAEXABV1@@Z)
0043f810 00000068 .text             GrafTypes.obj(?MoveTo@SRect@@QAEXJJ@Z)
0043f880 00000273 .text             GrafTypes.obj(?Align@SRect@@QAEXGABV1@@Z)
0043fb00 000000c6 .text             GrafTypes.obj(?SetIdentity@SMatrix3@@QAEXXZ)
0043fbd0 00000128 .text             GrafTypes.obj(?Rotate@SMatrix3@@QAEXN@Z)
0043fd00 000000ed .text             GrafTypes.obj(?TransformPoints@SMatrix3@@QBEXPAUSFloatPoint@@K@Z)
0043fdf0 00000d1f .text             GrafTypes.obj
00440b10 00000039 .text             CIconView.obj(??0CIconView@@QAE@PAVCViewHandler@@ABVSRect@@@Z)
00440b50 00000033 .text             CIconView.obj(?SetIconID@CIconView@@QAEXJ@Z)
00440b90 0000005b .text             CIconView.obj(?SetIcon@CIconView@@UAEXPAVTIconObj@@@Z)
00440bf0 00000032 .text             CIconView.obj(?Draw@CIconView@@UAEXPAVTImageObj@@ABVSRect@@K@Z)
00440c30 0000004d .text             CIconView.obj(??_ECIconView@@UAE@I@Z)
00440c80 0000001b .text             CIconView.obj(??1CIconView@@UAE@XZ)
00440ca0 00000057 .text             CPictureView.obj(??0CPictureView@@QAE@PAVCViewHandler@@ABVSRect@@@Z)
00440d00 00000034 .text             CPictureView.obj(?Draw@CPictureView@@UAEXPAVTImageObj@@ABVSRect@@K@Z)
00440d40 0000005e .text             CPictureView.obj(??_ECPictureView@@UAE@I@Z)
00440da0 0000002c .text             CPictureView.obj(??1CPictureView@@UAE@XZ)
00440dd0 00000014 .text             UKeyboard(W).obj(?IsOptionKeyDown@UKeyboard@@SA_NXZ)
00440df0 00000034 .text             UKeyboard(W).obj(?KeyToChar@UKeyboard@@SAGGGK@Z)
00440e30 0000001f .text             UKeyboard(W).obj(?_WinKeyCodeToStd@@YAGG@Z)
00440e50 000000db .text             UKeyboard.obj(?FindKeyCommand@UKeyboard@@SAKABUSKeyMsgData@@PBUSKeyCmd@@K@Z)
00440f30 000001e9 .text             UMouse(W).obj(?SetImage@UMouse@@SAXJ@Z)
00441120 0000000a .text             UMouse(W).obj(?GetImage@UMouse@@SAJXZ)
00441130 0000000e .text             UMouse(W).obj(?GetLocation@UMouse@@SAXAAVSPoint@@@Z)
00441140 0000000d .text             UMouse(W).obj(?GetDoubleClickTime@UMouse@@SAKXZ)
00441150 0000000f .text             UMessageSys.obj(?New@UMessageSys@@SAPAVTMessageSysObj@@XZ)
00441160 00000030 .text             UMessageSys.obj(?SetDefaultProc@UMessageSys@@SAXPAVTMessageSysObj@@P6AXPAX1KPBXK@Z1@Z)
00441190 00000034 .text             UMessageSys.obj(?GetDefaultProc@UMessageSys@@SAXPAVTMessageSysObj@@AAP6AXPAX1KPBXK@ZAAPAX@Z)
004411d0 000000ff .text             UMessageSys.obj(?Post@UMessageSys@@SAXPAVTMessageSysObj@@KPBXKFP6AXPAX2K1K@Z22@Z)
004412d0 000001d9 .text             UMessageSys.obj(?Replace@UMessageSys@@SAXPAVTMessageSysObj@@KPBXKFP6AXPAX2K1K@Z22@Z)
004414b0 00000108 .text             UMessageSys.obj(?Flush@UMessageSys@@SAXPAVTMessageSysObj@@P6AXPAX1KPBXK@Z11@Z)
004415c0 00000212 .text             UMessageSys.obj(?Execute@UMessageSys@@SA_NPAVTMessageSysObj@@PBK@Z)
004417e0 00000040 .text             ctype.obj(_tolower)
00441820 00000040 .text             ctype.obj(_toupper)
00441860 00000038 .text             MWRTTI.obj(?strequal@@YAHPBD0@Z)
004418a0 000001ab .text             MWRTTI.obj(___dynamic_cast)
00441a50 00000041 .text             MWRTTI.obj(??1bad_cast@std@@UAE@XZ)
00441aa0 00000027 .text             MWRTTI.obj(??0bad_cast@std@@QAE@XZ)
00441ad0 00000058 .text             MWRTTI.obj(??_Ebad_cast@std@@UAE@I@Z)
00441b30 00000018 .text             MWRTTI.obj(?what@bad_cast@std@@UBEPBDXZ)
00441b50 0000005a .text             CLinkedList.obj(?AddLast@CLinkedList@@QAEXPAVCLink@@@Z)
00441bb0 0000003b .text             CLinkedList.obj(?RemoveFirst@CLinkedList@@QAEPAVCLink@@XZ)
00441bf0 00000015 .text             arith.obj(_labs)
00441c10 0000002d .text             globdest.obj(___register_global_object)
00441c40 0000000e .text             delarrop.obj(??_V@YAXPAX@Z)
00441c50 0000000a .text             NMWException.obj(?dthandler@std@@YAXXZ)
00441c60 0000000a .text             NMWException.obj(?duhandler@std@@YAXXZ)
00441c70 00000024 .text             NMWException.obj(?set_terminate@std@@YAP6AXXZP6AXXZ@Z)
00441ca0 0000000b .text             NMWException.obj(?terminate@std@@YAXXZ)
00441cb0 00000024 .text             NMWException.obj(?set_unexpected@std@@YAP6AXXZP6AXXZ@Z)
00441ce0 0000000b .text             NMWException.obj(?unexpected@std@@YAXXZ)
00441cf0 000001ea .text             NMWException.obj(___throw_catch_compare)
00441ee0 00000018 .text             setjmp.x86.obj(__Setjmp)
00441f00 0000001f .text             setjmp.x86.obj(_longjmp)
00441f20 0000003d .text             runinit.obj(__RunInit)
00441f60 0000004b .text             runinit.obj(___detect_cpu_instruction_set)
00441fb0 0000000d .text             UText(W).obj(?GetCaretTime@UText@@SAKXZ)
00441fc0 000007b0 .text             UPixmap.obj(?Draw@UPixmap@@SAXPAVTHdlObj@@KPAVTImageObj@@ABVSRect@@GG@Z)
00442770 000000aa .text             UPixmap.obj(?IsValid@UPixmap@@SA_NABUSPixmap@@@Z)
00442820 0000018c .text             UPixmap.obj(?_GRTransCopy8To32@@YAXKPAXKPBXKKKPBKK@Z)
004429b0 00000266 .text             UPixmap.obj(?_GRTransCopy8To8@@YAXKPAXKPBXKKKPBKK2K@Z)
00442c20 000000ae .text             UButton.obj(?Draw@UButton@@SAXPAVTImageObj@@ABVSRect@@ABUSButtonInfo@@@Z)
00442cd0 000000ae .text             UButton.obj(?DrawFocused@UButton@@SAXPAVTImageObj@@ABVSRect@@ABUSButtonInfo@@@Z)
00442d80 000000ae .text             UButton.obj(?DrawHilited@UButton@@SAXPAVTImageObj@@ABVSRect@@ABUSButtonInfo@@@Z)
00442e30 000000ae .text             UButton.obj(?DrawDisabled@UButton@@SAXPAVTImageObj@@ABVSRect@@ABUSButtonInfo@@@Z)
00442ee0 000000cc .text             UUserInterface.obj(?DrawStandardBox@UUserInterface@@SAXPAVTImageObj@@ABVSRect@@PBVSColor@@_N33@Z)
00442fb0 000000b4 .text             UUserInterface.obj(?DrawEtchedBox@UUserInterface@@SAXPAVTImageObj@@ABVSRect@@PBXK@Z)
00443070 000000ae .text             UUserInterface.obj(?DrawSunkenBox@UUserInterface@@SAXPAVTImageObj@@ABVSRect@@PBVSColor@@@Z)
00443120 000000ae .text             UUserInterface.obj(?DrawRaisedBox@UUserInterface@@SAXPAVTImageObj@@ABVSRect@@PBVSColor@@@Z)
004431d0 000000a6 .text             UUserInterface.obj(?DrawBarBox@UUserInterface@@SAXPAVTImageObj@@ABVSRect@@@Z)
00443280 000000b4 .text             UScrollBar.obj(?Draw@UScrollBar@@SAXPAVTImageObj@@ABVSRect@@ABUSScrollBarInfo@@K@Z)
00443340 000000ae .text             UScrollBar.obj(?DrawDisabled@UScrollBar@@SAXPAVTImageObj@@ABVSRect@@ABUSScrollBarInfo@@@Z)
004433f0 00000473 .text             UScrollBar.obj(?CalcVertRects@UScrollBar@@SAKABVSRect@@KKKKKKKPAV2@K@Z)
00443870 00000473 .text             UScrollBar.obj(?CalcHorizRects@UScrollBar@@SAKABVSRect@@KKKKKKKPAV2@K@Z)
00443cf0 000000af .text             UScrollBar.obj(?GetThumbDelta@UScrollBar@@SAJABVSRect@@ABUSScrollBarInfo@@ABVSPoint@@@Z)
00443da0 00000112 .text             UScrollBar.obj(?GetThumbValue@UScrollBar@@SAKABVSRect@@ABUSScrollBarInfo@@ABVSPoint@@J@Z)
00443ec0 000003a4 .text             UScrollBar.obj(?PointToPart@UScrollBar@@SAKABVSRect@@ABUSScrollBarInfo@@ABVSPoint@@@Z)
00444270 000001e9 .text             UScrollBar.obj(?GetPartRect@UScrollBar@@SAXABVSRect@@ABUSScrollBarInfo@@KAAV2@@Z)
00444460 0000010e .text             UClipboard(W).obj(?GetData@UClipboard@@SAPAVTHdlObj@@PBD@Z)
00444570 00000220 .text             UClipboard(W).obj(?SetData@UClipboard@@SAXPBDPBXK@Z)
00444790 0000002d .text             UClipboard(W).obj(?_MIMEToWinClipFormat@@YAKPBXK@Z)
004447c0 00000029 .text             UBitString.obj(?Get@UBitString@@SA_NPBXK@Z)
004447f0 0000003e .text             UBitString.obj(?Set@UBitString@@SAXPAXK_N@Z)
00444830 000000dc .text             UBitString.obj(?Copy@UBitString@@SAXPAXKKK@Z)
00444910 0000005a .text             UBitString.obj(?GetFirstSet@UBitString@@SA_NPBXKAAK@Z)
00444970 00000049 .text             UBitString.obj(?GetLastSet@UBitString@@SA_NPBXKAAK@Z)
004449c0 00000012 .text             UMath(W).obj(?Cosine@UMath@@SANN@Z)
004449e0 00000012 .text             UMath(W).obj(?Sine@UMath@@SANN@Z)
00444a00 00000012 .text             UMath(W).obj(?ArcTangent@UMath@@SANN@Z)
00444a20 00000012 .text             UMath(W).obj(?SquareRoot@UMath@@SANN@Z)
00444a40 00000025 .text             excrtl.obj(?__SEHUnwindHandler@@YA?AW4_EXCEPTION_DISPOSITION@@PAU_EXCEPTION_RECORD@@PAUTryExceptFrame@@PAU_CONTEXT@@PAPAU3@@Z)
00444a70 000000ee .text             excrtl.obj(?SEHUnwindState@@YAXPAUTryExceptFrame@@PAU_CONTEXT@@H@Z)
00444b60 0000024c .text             excrtl.obj(___SEHFrameHandler)
00444db0 0000000f .text             excrtl.obj
00444dc0 0000002d .text             exchand.obj(__MWCHandler)
00444df0 00000049 .text             exchand.obj(__HandleUnexpectedSEHException)
00444e40 00000045 .text             startup.win32.obj(___dup_core)
00444e90 000001e3 .text             startup.win32.obj(___set_errno)
00445080 0000000a .text             startup.win32.obj(___get_MSL_init_count)
00445090 0000017f .text             startup.win32.obj(__InitStdHandles)
00445210 00000044 .text             startup.win32.obj(__CRTStartup)
00445260 00000041 .text             startup.win32.obj(___init_critical_regions)
004452b0 00000038 .text             setupargs.obj(__FreeCommandLine)
004452f0 00000019 .text             setupargs.obj(__MemFailure)
00445310 00000060 .text             setupargs.obj(__MoreArgs)
00445370 0000016d .text             setupargs.obj(__ExpandArgument)
004454e0 000002d9 .text             setupargs.obj(__SetupArgs)
004457c0 0000006b .text             QTDispatcherW.obj(?Message@UDebug@BigRedH@@SAXPBDZZ)
00445830 0000002a .text             QTDispatcherW.obj(??0?$TGuard@VCMutex@BigRedH@@@BigRedH@@QAE@ABVCMutex@1@@Z)
00445860 00000020 .text             QTDispatcherW.obj(??1?$TGuard@VCMutex@BigRedH@@@BigRedH@@QAE@XZ)
00445880 00000033 .text             CDataHandlerComponent.obj(??1?$auto_ptr@VCDataHandlerComponent@BigRedH@@@std@@QAE@XZ)
004458c0 00000020 .text             CDataHandlerComponent.obj(??0?$auto_ptr@VCDataHandlerComponent@BigRedH@@@std@@QAE@PAVCDataHandlerComponent@BigRedH@@@Z)
004458e0 0000001e .text             CDataHandlerComponent.obj(??1?$__list_imp@PBXV?$allocator@PBX@std@@@std@@QAE@XZ)
00445900 0000004b .text             CDataHandlerComponent.obj(??1?$__list_deleter@PBXV?$allocator@PBX@std@@@std@@QAE@XZ)
00445950 0000002b .text             CDataHandlerComponent.obj(?end@?$__list_deleter@PBXV?$allocator@PBX@std@@@std@@QAE?AV?$generic_iterator@$0A@@12@XZ)
00445980 00000020 .text             CDataHandlerComponent.obj(??0?$generic_iterator@$0A@@?$__list_deleter@PBXV?$allocator@PBX@std@@@std@@AAE@PAUnode_base@12@@Z)
004459a0 00000020 .text             CDataHandlerComponent.obj(?tail@?$__list_deleter@PBXV?$allocator@PBX@std@@@std@@QAEAAUnode_base@12@XZ)
004459c0 00000016 .text             CDataHandlerComponent.obj(?second@?$compressed_pair_imp@V?$allocator@Unode@?$__list_deleter@PBXV?$allocator@PBX@std@@@std@@@std@@Unode_base@?$__list_deleter@PBXV?$allocator@PBX@std@@@2@$00@details@Metrowerks@@QA...)
004459e0 0000002d .text             CDataHandlerComponent.obj(?begin@?$__list_deleter@PBXV?$allocator@PBX@std@@@std@@QAE?AV?$generic_iterator@$0A@@12@XZ)
00445a10 00000020 .text             CDataHandlerComponent.obj(??0?$generic_iterator@$0A@@?$__list_deleter@PBXV?$allocator@PBX@std@@@std@@AAE@PAUnode@12@@Z)
00445a30 0000001e .text             CDataHandlerComponent.obj(??0?$__list_imp@PBXV?$allocator@PBX@std@@@std@@IAE@XZ)
00445a50 0000003c .text             CDataHandlerComponent.obj(?push_back@?$__list_imp@PBXV?$allocator@PBX@std@@@std@@IAEXABQBX@Z)
00445a90 0000003a .text             CDataHandlerComponent.obj(?remove@?$__list_imp@PBXV?$allocator@PBX@std@@@std@@IAEXABQBX@Z)
00445ad0 0000002c .text             CDataHandlerComponent.obj(??0?$binder2nd@U?$equal_to@PBX@std@@ABQBX@std@@QAE@ABU?$equal_to@PBX@1@ABQBX@Z)
00445b00 00000015 .text             CDataHandlerComponent.obj(??1CString@BigRedH@@QAE@XZ)
00445b20 00000018 .text             CDataHandlerComponent.obj(?size@?$basic_string@_WU?$char_traits@_W@std@@V?$allocator@_W@2@@std@@QBEIXZ)
00445b40 00000019 .text             CDataHandlerComponent.obj(?__data@?$basic_string@_WU?$char_traits@_W@std@@V?$allocator@_W@2@@std@@ABEPB_WXZ)
00445b60 0000001d .text             CDataHandlerComponent.obj(?c_str@CString@BigRedH@@QBEPB_WXZ)
00445b80 0000001d .text             CDataHandlerComponent.obj(?c_str@?$basic_string@_WU?$char_traits@_W@std@@V?$allocator@_W@2@@std@@QBEPB_WXZ)
00445ba0 00000010 .text             CDataHandlerComponent.obj(?length@?$char_traits@_W@std@@SAIPB_W@Z)
00445bb0 00000023 .text             CDataHandlerComponent.obj(??4CString@BigRedH@@QAEAAV01@ABV01@@Z)
00445be0 00000022 .text             CDataHandlerComponent.obj(??4?$basic_string@_WU?$char_traits@_W@std@@V?$allocator@_W@2@@std@@QAEAAV01@ABV01@@Z)
00445c10 00000026 .text             CDataHandlerComponent.obj(?assign@?$basic_string@_WU?$char_traits@_W@std@@V?$allocator@_W@2@@std@@QAEAAV12@ABV12@@Z)
00445c40 00000030 .text             CDataHandlerComponent.obj(??0CString@BigRedH@@QAE@PB_W@Z)
00445c70 00000016 .text             CDataHandlerComponent.obj(??0?$allocator@_W@std@@QAE@XZ)
00445c90 00000035 .text             CDataHandlerComponent.obj(??0CString@BigRedH@@QAE@ABV01@II@Z)
00445cd0 0000002b .text             CDataHandlerComponent.obj(??0CString@BigRedH@@QAE@XZ)
00445d00 00000043 .text             CDataHandlerComponent.obj(??0?$basic_string@_WU?$char_traits@_W@std@@V?$allocator@_W@2@@std@@QAE@ABV?$allocator@_W@1@@Z)
00445d50 0000002c .text             CDataHandlerComponent.obj(??0?$_EmptyMemberOpt@V?$allocator@_W@std@@I@std@@QAE@ABV?$allocator@_W@1@@Z)
00445d80 00000018 .text             CDataHandlerComponent.obj(??0?$allocator@_W@std@@QAE@ABV01@@Z)
00445da0 00000029 .text             CDataHandlerComponent.obj(?data@?$basic_string@_WU?$char_traits@_W@std@@V?$allocator@_W@2@@std@@QBEPB_WXZ)
00445dd0 00000101 .text             CDataHandlerComponent.obj(?remove_if@?$@V?$binder2nd@U?$equal_to@PBX@std@@ABQBX@std@@@?$__list_imp@PBXV?$allocator@PBX@std@@@2@IAEXV12@@Z)
00445ee0 00000019 .text             CDataHandlerComponent.obj(??8std@@YA_NABV?$generic_iterator@$0A@@?$__list_deleter@PBXV?$allocator@PBX@std@@@0@0@Z)
00445f00 00000022 .text             CDataHandlerComponent.obj(??4?$generic_iterator@$0A@@?$__list_deleter@PBXV?$allocator@PBX@std@@@std@@QAEAAV012@ABV012@@Z)
00445f30 00000019 .text             CDataHandlerComponent.obj(??9std@@YA_NABV?$generic_iterator@$0A@@?$__list_deleter@PBXV?$allocator@PBX@std@@@0@0@Z)
00445f50 00000023 .text             CDataHandlerComponent.obj(??E?$generic_iterator@$0A@@?$__list_deleter@PBXV?$allocator@PBX@std@@@std@@QAEAAV012@XZ)
00445f80 00000022 .text             CDataHandlerComponent.obj(??0?$generic_iterator@$0A@@?$__list_deleter@PBXV?$allocator@PBX@std@@@std@@QAE@ABV012@@Z)
00445fb0 00000028 .text             CDataHandlerComponent.obj(??R?$binder2nd@U?$equal_to@PBX@std@@ABQBX@std@@QAE_NAAPBX@Z)
00445fe0 00000029 .text             CDataHandlerComponent.obj(??R?$equal_to@PBX@std@@QBE_NABQBX0@Z)
00446010 0000001b .text             CDataHandlerComponent.obj(??D?$generic_iterator@$0A@@?$__list_deleter@PBXV?$allocator@PBX@std@@@std@@QBEAAPBXXZ)
00446030 00000020 .text             CDataHandlerComponent.obj(?min@?$@I@std@@YAABIABI0@Z)
00446050 0000001b .text             CDataHandlerComponent.obj(??1out_of_range@std@@UAE@XZ)
00446070 00000032 .text             CDataHandlerComponent.obj(??1logic_error@std@@UAE@XZ)
004460b0 0000001e .text             CDataHandlerComponent.obj(??1_MSLstring@std@@QAE@XZ)
004460d0 0000002c .text             CDataHandlerComponent.obj(??0out_of_range@std@@QAE@PBD@Z)
00446100 00000037 .text             CDataHandlerComponent.obj(??0logic_error@std@@QAE@PBD@Z)
00446140 00000047 .text             CDataHandlerComponent.obj(??0_MSLstring@std@@QAE@PBD@Z)
00446190 00000018 .text             CDataHandlerComponent.obj(??B?$_RefCountedPtr@DU?$_Array@D@std@@@std@@QBEPBDXZ)
004461b0 000000cd .text             CDataHandlerComponent.obj(?assign@?$basic_string@_WU?$char_traits@_W@std@@V?$allocator@_W@2@@std@@QAEAAV12@ABV12@II@Z)
00446280 00000018 .text             CDataHandlerComponent.obj(?copy@?$char_traits@_W@std@@SAPA_WPA_WPB_WI@Z)
004462a0 00000019 .text             CDataHandlerComponent.obj(?__data@?$basic_string@_WU?$char_traits@_W@std@@V?$allocator@_W@2@@std@@AAEPA_WXZ)
004462c0 00000029 .text             CDataHandlerComponent.obj(?erase@?$basic_string@_WU?$char_traits@_W@std@@V?$allocator@_W@2@@std@@QAEAAV12@II@Z)
004462f0 0000003a .text             CDataHandlerComponent.obj(??1?$basic_string@_WU?$char_traits@_W@std@@V?$allocator@_W@2@@std@@QAE@XZ)
00446330 0000001e .text             CDataHandlerComponent.obj(?deallocate@?$allocator@_W@std@@QAEXPA_WI@Z)
00446350 00000089 .text             CDataHandlerComponent.obj(??0?$basic_string@_WU?$char_traits@_W@std@@V?$allocator@_W@2@@std@@QAE@PB_WABV?$allocator@_W@1@@Z)
004463e0 0000001b .text             CDataHandlerComponent.obj(??1length_error@std@@UAE@XZ)
00446400 0000002c .text             CDataHandlerComponent.obj(??0length_error@std@@QAE@PBD@Z)
00446430 0000001c .text             CDataHandlerComponent.obj(?max_size@?$allocator@_W@std@@QBEIXZ)
00446450 0000000a .text             CDataHandlerComponent.obj(?max@?$numeric_limits@I@std@@SAIXZ)
00446460 000000b2 .text             CDataHandlerComponent.obj(??0?$basic_string@_WU?$char_traits@_W@std@@V?$allocator@_W@2@@std@@QAE@ABV01@IIABV?$allocator@_W@1@@Z)
00446520 0000002e .text             CDataHandlerComponent.obj(?init@?$basic_string@_WU?$char_traits@_W@std@@V?$allocator@_W@2@@std@@AAEXPA_W0ABV?$allocator@_W@2@Urandom_access_iterator_tag@2@@Z)
00446550 00000029 .text             CDataHandlerComponent.obj(?get_allocator@?$basic_string@_WU?$char_traits@_W@std@@V?$allocator@_W@2@@std@@QBE?AV?$allocator@_W@2@XZ)
00446580 000000d1 .text             CDataHandlerComponent.obj(?erase@?$__list_deleter@PBXV?$allocator@PBX@std@@@std@@QAE?AV?$generic_iterator@$0A@@12@V312@0@Z)
00446660 0000001d .text             CDataHandlerComponent.obj(?sz@?$__list_deleter@PBXV?$allocator@PBX@std@@@std@@QAEAAIXZ)
00446680 00000016 .text             CDataHandlerComponent.obj(?second@?$compressed_pair_imp@V?$allocator@PBX@std@@I$00@details@Metrowerks@@QAEAAIXZ)
004466a0 0000001e .text             CDataHandlerComponent.obj(?deallocate@?$allocator@Unode@?$__list_deleter@PBXV?$allocator@PBX@std@@@std@@@std@@QAEXPAUnode@?$__list_deleter@PBXV?$allocator@PBX@std@@@2@I@Z)
004466c0 00000020 .text             CDataHandlerComponent.obj(?node_alloc@?$__list_deleter@PBXV?$allocator@PBX@std@@@std@@QAEAAV?$allocator@Unode@?$__list_deleter@PBXV?$allocator@PBX@std@@@std@@@2@XZ)
004466e0 00000016 .text             CDataHandlerComponent.obj(?first@?$compressed_pair_imp@V?$allocator@Unode@?$__list_deleter@PBXV?$allocator@PBX@std@@@std@@@std@@Unode_base@?$__list_deleter@PBXV?$allocator@PBX@std@@@2@$00@details@Metrowerks@@QAE...)
00446700 00000015 .text             CDataHandlerComponent.obj(?destroy@?$allocator@PBX@std@@QAEXPAPBX@Z)
00446720 0000001d .text             CDataHandlerComponent.obj(?alloc@?$__list_deleter@PBXV?$allocator@PBX@std@@@std@@QAEAAV?$allocator@PBX@2@XZ)
00446740 00000016 .text             CDataHandlerComponent.obj(?first@?$compressed_pair_imp@V?$allocator@PBX@std@@I$00@details@Metrowerks@@QAEAAV?$allocator@PBX@std@@XZ)
00446760 00000025 .text             CDataHandlerComponent.obj(?remove_nodes@?$__list_deleter@PBXV?$allocator@PBX@std@@@std@@CAXPAUnode_base@12@0@Z)
00446790 0000000a .text             CDataHandlerComponent.obj(?__iterator2pointer@?$__list_deleter@PBXV?$allocator@PBX@std@@@std@@SAPAUnode@12@AAV?$generic_iterator@$0A@@12@@Z)
004467a0 000000b0 .text             CDataHandlerComponent.obj(?insert@?$__list_deleter@PBXV?$allocator@PBX@std@@@std@@QAE?AV?$generic_iterator@$0A@@12@V312@ABQBX@Z)
00446850 00000044 .text             CDataHandlerComponent.obj(??1?$alloc_ptr@Unode@?$__list_deleter@PBXV?$allocator@PBX@std@@@std@@AAV?$allocator@Unode@?$__list_deleter@PBXV?$allocator@PBX@std@@@std@@@3@U?$number@I$00@Metrowerks@@@Metrowerks@@QAE@...)
004468a0 0000002b .text             CDataHandlerComponent.obj(?capacity@?$alloc_ptr@Unode@?$__list_deleter@PBXV?$allocator@PBX@std@@@std@@AAV?$allocator@Unode@?$__list_deleter@PBXV?$allocator@PBX@std@@@std@@@3@U?$number@I$00@Metrowerks@@@Metrowerk...)
004468d0 00000018 .text             CDataHandlerComponent.obj(??B?$number@I$00@Metrowerks@@QBEIXZ)
004468f0 00000016 .text             CDataHandlerComponent.obj(?first@?$compressed_pair_imp@U?$number@I$00@Metrowerks@@PAUnode@?$__list_deleter@PBXV?$allocator@PBX@std@@@std@@$00@details@Metrowerks@@QBEABU?$number@I$00@3@XZ)
00446910 00000019 .text             CDataHandlerComponent.obj(?second@?$compressed_pair_imp@AAV?$allocator@Unode@?$__list_deleter@PBXV?$allocator@PBX@std@@@std@@@std@@V?$compressed_pair@U?$number@I$00@Metrowerks@@PAUnode@?$__list_deleter@PBXV?$all...)
00446930 0000001d .text             CDataHandlerComponent.obj(?allocator@?$alloc_ptr@Unode@?$__list_deleter@PBXV?$allocator@PBX@std@@@std@@AAV?$allocator@Unode@?$__list_deleter@PBXV?$allocator@PBX@std@@@std@@@3@U?$number@I$00@Metrowerks@@@Metrower...)
00446950 00000018 .text             CDataHandlerComponent.obj(?first@?$compressed_pair_imp@AAV?$allocator@Unode@?$__list_deleter@PBXV?$allocator@PBX@std@@@std@@@std@@V?$compressed_pair@U?$number@I$00@Metrowerks@@PAUnode@?$__list_deleter@PBXV?$allo...)
00446970 00000024 .text             CDataHandlerComponent.obj(?get@?$alloc_ptr@Unode@?$__list_deleter@PBXV?$allocator@PBX@std@@@std@@AAV?$allocator@Unode@?$__list_deleter@PBXV?$allocator@PBX@std@@@std@@@3@U?$number@I$00@Metrowerks@@@Metrowerks@@QB...)
004469a0 00000016 .text             CDataHandlerComponent.obj(?second@?$compressed_pair_imp@U?$number@I$00@Metrowerks@@PAUnode@?$__list_deleter@PBXV?$allocator@PBX@std@@@std@@$00@details@Metrowerks@@QBEABQAUnode@?$__list_deleter@PBXV?$allocator@PB...)
004469c0 00000015 .text             CDataHandlerComponent.obj(?__pointer2iterator@?$__list_deleter@PBXV?$allocator@PBX@std@@@std@@SA?AV?$generic_iterator@$0A@@12@PAUnode@12@@Z)
004469e0 0000002b .text             CDataHandlerComponent.obj(?insert_nodes@?$__list_deleter@PBXV?$allocator@PBX@std@@@std@@CAXPAUnode_base@12@00@Z)
00446a10 0000003a .text             CDataHandlerComponent.obj(?release@?$alloc_ptr@Unode@?$__list_deleter@PBXV?$allocator@PBX@std@@@std@@AAV?$allocator@Unode@?$__list_deleter@PBXV?$allocator@PBX@std@@@std@@@3@U?$number@I$00@Metrowerks@@@Metrowerks...)
00446a50 00000016 .text             CDataHandlerComponent.obj(?second@?$compressed_pair_imp@U?$number@I$00@Metrowerks@@PAUnode@?$__list_deleter@PBXV?$allocator@PBX@std@@@std@@$00@details@Metrowerks@@QAEAAPAUnode@?$__list_deleter@PBXV?$allocator@PB...)
00446a70 00000019 .text             CDataHandlerComponent.obj(?second@?$compressed_pair_imp@AAV?$allocator@Unode@?$__list_deleter@PBXV?$allocator@PBX@std@@@std@@@std@@V?$compressed_pair@U?$number@I$00@Metrowerks@@PAUnode@?$__list_deleter@PBXV?$all...)
00446a90 00000056 .text             CDataHandlerComponent.obj(?construct@?$allocator@PBX@std@@QAEXPAPBXABQBX@Z)
00446af0 00000005 .text             CDataHandlerComponent.obj(??3@YAXPAX0@Z)
00446b00 00000008 .text             CDataHandlerComponent.obj(??2@YAPAXIPAX@Z)
00446b10 0000001d .text             CDataHandlerComponent.obj(??C?$alloc_ptr@Unode@?$__list_deleter@PBXV?$allocator@PBX@std@@@std@@AAV?$allocator@Unode@?$__list_deleter@PBXV?$allocator@PBX@std@@@std@@@3@U?$number@I$00@Metrowerks@@@Metrowerks@@QBEP...)
00446b30 00000037 .text             CDataHandlerComponent.obj(??0?$alloc_ptr@Unode@?$__list_deleter@PBXV?$allocator@PBX@std@@@std@@AAV?$allocator@Unode@?$__list_deleter@PBXV?$allocator@PBX@std@@@std@@@3@U?$number@I$00@Metrowerks@@@Metrowerks@@QAE@...)
00446b70 00000026 .text             CDataHandlerComponent.obj(??0?$compressed_pair@AAV?$allocator@Unode@?$__list_deleter@PBXV?$allocator@PBX@std@@@std@@@std@@V?$compressed_pair@U?$number@I$00@Metrowerks@@PAUnode@?$__list_deleter@PBXV?$allocator@PB...)
00446ba0 0000002e .text             CDataHandlerComponent.obj(??0?$compressed_pair_imp@AAV?$allocator@Unode@?$__list_deleter@PBXV?$allocator@PBX@std@@@std@@@std@@V?$compressed_pair@U?$number@I$00@Metrowerks@@PAUnode@?$__list_deleter@PBXV?$allocato...)
00446bd0 00000023 .text             CDataHandlerComponent.obj(??0?$compressed_pair@U?$number@I$00@Metrowerks@@PAUnode@?$__list_deleter@PBXV?$allocator@PBX@std@@@std@@@Metrowerks@@QAE@ABV01@@Z)
00446c00 00000022 .text             CDataHandlerComponent.obj(??0?$compressed_pair_imp@U?$number@I$00@Metrowerks@@PAUnode@?$__list_deleter@PBXV?$allocator@PBX@std@@@std@@$00@details@Metrowerks@@QAE@ABV012@@Z)
00446c30 00000026 .text             CDataHandlerComponent.obj(??0?$compressed_pair@U?$number@I$00@Metrowerks@@PAUnode@?$__list_deleter@PBXV?$allocator@PBX@std@@@std@@@Metrowerks@@QAE@ABU?$number@I$00@1@PAUnode@?$__list_deleter@PBXV?$allocator@PBX@...)
00446c60 0000002b .text             CDataHandlerComponent.obj(??0?$compressed_pair_imp@U?$number@I$00@Metrowerks@@PAUnode@?$__list_deleter@PBXV?$allocator@PBX@std@@@std@@$00@details@Metrowerks@@QAE@ABU?$number@I$00@2@PAUnode@?$__list_deleter@PBXV?...)
00446c90 00000030 .text             CDataHandlerComponent.obj(?allocate@?$allocator@Unode@?$__list_deleter@PBXV?$allocator@PBX@std@@@std@@@std@@QAEPAUnode@?$__list_deleter@PBXV?$allocator@PBX@std@@@2@IPBX@Z)
00446cc0 00000064 .text             CDataHandlerComponent.obj(??0?$__list_deleter@PBXV?$allocator@PBX@std@@@std@@QAE@XZ)
00446d30 00000023 .text             CDataHandlerComponent.obj(??0?$compressed_pair@V?$allocator@Unode@?$__list_deleter@PBXV?$allocator@PBX@std@@@std@@@std@@Unode_base@?$__list_deleter@PBXV?$allocator@PBX@std@@@2@@Metrowerks@@QAE@ABV?$allocator@Uno...)
00446d60 00000023 .text             CDataHandlerComponent.obj(??0?$compressed_pair_imp@V?$allocator@Unode@?$__list_deleter@PBXV?$allocator@PBX@std@@@std@@@std@@Unode_base@?$__list_deleter@PBXV?$allocator@PBX@std@@@2@$00@details@Metrowerks@@QAE@ABV...)
00446d90 00000018 .text             CDataHandlerComponent.obj(??0?$allocator@Unode@?$__list_deleter@PBXV?$allocator@PBX@std@@@std@@@std@@QAE@ABV01@@Z)
00446db0 00000018 .text             CDataHandlerComponent.obj(??0?$@PBX@?$allocator@Unode@?$__list_deleter@PBXV?$allocator@PBX@std@@@std@@@std@@QAE@ABV?$allocator@PBX@1@@Z)
00446dd0 00000023 .text             CDataHandlerComponent.obj(??0?$compressed_pair@V?$allocator@PBX@std@@I@Metrowerks@@QAE@I@Z)
00446e00 00000028 .text             CDataHandlerComponent.obj(??0?$compressed_pair_imp@V?$allocator@PBX@std@@I$00@details@Metrowerks@@QAE@I@Z)
00446e30 00000016 .text             CDataHandlerComponent.obj(??0?$allocator@PBX@std@@QAE@XZ)
00446e50 0000001b .text             CDataHandlerComponent.obj(??C?$__pointer_plus_bit@Unode_base@?$__red_black_tree@$00@std@@@std@@QBEPAUnode_base@?$__red_black_tree@$00@1@XZ)
00446e70 0000001b .text             CDataHandlerComponent.obj(??B?$__pointer_plus_bit@Unode_base@?$__red_black_tree@$00@std@@@std@@QBEPAUnode_base@?$__red_black_tree@$00@1@XZ)
00446e90 00000020 .text             CDataHandlerComponent.obj(??0anchor@?$__red_black_tree@$00@std@@QAE@PAUnode_base@12@@Z)
00446eb0 00000047 .text             CDataHandlerComponent.obj(??_Elength_error@std@@UAE@I@Z)
00446f00 00000020 .text             CDataHandlerComponent.obj(?what@logic_error@std@@UBEPBDXZ)
00446f20 0000001d .text             CDataHandlerComponent.obj(?c_str@_MSLstring@std@@QBEPBDXZ)
00446f40 00000047 .text             CDataHandlerComponent.obj(??_Elogic_error@std@@UAE@I@Z)
00446f90 00000047 .text             CDataHandlerComponent.obj(??_Eout_of_range@std@@UAE@I@Z)
00446fe0 00000043 .text             CDataHandlerComponent.obj(??1?$_RefCountedPtr@DU?$_Array@D@std@@@std@@QAE@XZ)
00447030 0000000e .text             CDataHandlerComponent.obj(?destroy@?$_Array@D@std@@SAXPAD@Z)
00447040 00000086 .text             CDataHandlerComponent.obj(??0?$_RefCountedPtr@DU?$_Array@D@std@@@std@@QAE@PAD@Z)
004470d0 00000136 .text             CDataHandlerComponent.obj(?change_size@?$basic_string@_WU?$char_traits@_W@std@@V?$allocator@_W@2@@std@@AAEXI_N@Z)
00447210 00000011 .text             CDataHandlerComponent.obj(?assign@?$char_traits@_W@std@@SAXAA_WAB_W@Z)
00447230 00000018 .text             CDataHandlerComponent.obj(?copy@?$@_W@std@@YAPA_WPA_W00@Z)
00447250 00000042 .text             CDataHandlerComponent.obj(?copy@?$__copy@_W$00$00@std@@SAPA_WPA_W00@Z)
004472a0 00000024 .text             CDataHandlerComponent.obj(?allocate@?$allocator@_W@std@@QAEPA_WIPBX@Z)
004472d0 00000020 .text             CDataHandlerComponent.obj(?max@?$@I@std@@YAABIABI0@Z)
004472f0 00000013 .text             CDataHandlerComponent.obj(?recommend@?$basic_string@_WU?$char_traits@_W@std@@V?$allocator@_W@2@@std@@CAII@Z)
00447310 00000030 .text             CDataHandlerComponent.obj(?max_size@?$basic_string@_WU?$char_traits@_W@std@@V?$allocator@_W@2@@std@@QBEIXZ)
00447340 000000b3 .text             CDataHandlerComponent.obj(?init@?$basic_string@_WU?$char_traits@_W@std@@V?$allocator@_W@2@@std@@AAEXPB_W0ABV?$allocator@_W@2@Urandom_access_iterator_tag@2@@Z)
00447400 00000279 .text             CDataHandlerComponent.obj(?replace@?$basic_string@_WU?$char_traits@_W@std@@V?$allocator@_W@2@@std@@QAEAAV12@III_W@Z)
00447680 00000018 .text             CDataHandlerComponent.obj(?move@?$char_traits@_W@std@@SAPA_WPA_WPB_WI@Z)
004476a0 0000001a .text             CDataHandlerComponent.obj(?assign@?$char_traits@_W@std@@SAPA_WPA_WI_W@Z)
004476c0 00000019 .text             CDataHandlerComponent.obj(?capacity@?$basic_string@_WU?$char_traits@_W@std@@V?$allocator@_W@2@@std@@QBEIXZ)
004476e0 00000028 .text             CDataHandlerComponent.obj(??4?$__pointer_plus_bit@Unode_base@?$__red_black_tree@$00@std@@@std@@QAEAAV01@PAUnode_base@?$__red_black_tree@$00@1@@Z)
00447710 00000269 .text             CDataHandlerComponent.obj(?balance_insert@?$__red_black_tree@$00@std@@KAXPAUnode_base@12@0@Z)
00447980 00000020 .text             CDataHandlerComponent.obj(?color@node_base@?$__red_black_tree@$00@std@@QBE?AW1Color@23@XZ)
004479a0 0000001f .text             CDataHandlerComponent.obj(?bit@?$__pointer_plus_bit@Unode_base@?$__red_black_tree@$00@std@@@std@@QBE_NXZ)
004479c0 0000002b .text             CDataHandlerComponent.obj(?set_color@node_base@?$__red_black_tree@$00@std@@QAEXW1Color@23@@Z)
004479f0 00000037 .text             CDataHandlerComponent.obj(?bit@?$__pointer_plus_bit@Unode_base@?$__red_black_tree@$00@std@@@std@@QAEX_N@Z)
00447a30 000000ad .text             CDataHandlerComponent.obj(?rotate_right@?$__red_black_tree@$00@std@@CAXPAUnode_base@12@AAPAU312@@Z)
00447ae0 00000034 .text             CDataHandlerComponent.obj(??4?$__pointer_plus_bit@Unode_base@?$__red_black_tree@$00@std@@@std@@QAEAAV01@ABV01@@Z)
00447b20 000000ab .text             CDataHandlerComponent.obj(?rotate_left@?$__red_black_tree@$00@std@@CAXPAUnode_base@12@AAPAU312@@Z)
00447bd0 00000028 .text             CDataHandlerComponent.obj
00447c00 00000010 .text             newarrop.obj(??_U@YAPAXI@Z)
00447c10 0000002a .text             wstring.obj(_wcslen)
00447c3a 00000006 .text             WSOCK32.dll(_WSACleanup@0)
00447c40 00000006 .text             WSOCK32.dll(_WSAStartup@8)
00447c46 00000006 .text             WSOCK32.dll(_socket@12)
00447c4c 00000006 .text             WSOCK32.dll(_WSAGetLastError@0)
00447c52 00000006 .text             WSOCK32.dll(_setsockopt@20)
00447c58 00000006 .text             WSOCK32.dll(_closesocket@4)
00447c5e 00000006 .text             WSOCK32.dll(_WSAAsyncSelect@16)
00447c64 00000006 .text             WSOCK32.dll(_WSACancelAsyncRequest@4)
00447c6a 00000006 .text             WSOCK32.dll(_gethostname@8)
00447c70 00000006 .text             WSOCK32.dll(_gethostbyname@4)
00447c76 00000006 .text             WSOCK32.dll(_getsockname@12)
00447c7c 00000006 .text             WSOCK32.dll(_WSAAsyncGetHostByName@20)
00447c82 00000006 .text             WSOCK32.dll(_htons@4)
00447c88 00000006 .text             WSOCK32.dll(_connect@12)
00447c8e 00000006 .text             WSOCK32.dll(_shutdown@8)
00447c94 00000006 .text             WSOCK32.dll(_listen@8)
00447c9a 00000006 .text             WSOCK32.dll(_accept@12)
00447ca0 00000006 .text             WSOCK32.dll(_send@16)
00447ca6 00000006 .text             WSOCK32.dll(_ioctlsocket@12)
00447cac 00000006 .text             WSOCK32.dll(_recv@16)
00447cb2 00000006 .text             WSOCK32.dll(_sendto@24)
00447cb8 00000006 .text             WSOCK32.dll(_recvfrom@24)
00447cbe 00000006 .text             WSOCK32.dll(_inet_addr@4)
00447cc4 00000006 .text             WSOCK32.dll(_ntohs@4)
00447cca 00000006 .text             WSOCK32.dll(_bind@12)
00447cd0 00000026 .text             UGUID(W).obj(?Generate@UGUID@@SAXAAUSGUID@@@Z)
00447d00 00000017 .text             UGUID(W).obj(?IsEqual@UGUID@@SA_NABUSGUID@@0@Z)
00447d20 0000008b .text             UGUID(W).obj(?Flatten@UGUID@@SAKABUSGUID@@PAX@Z)
00447db0 00000086 .text             UGUID(W).obj(?Unflatten@UGUID@@SAXAAUSGUID@@PBX@Z)
00447e40 000002c7 .text             UGUID.obj(?ToText@UGUID@@SAKABUSGUID@@PAXK@Z)
00448110 0000016c .text             UGUID.obj(?FromText@UGUID@@SA_NAAUSGUID@@PBXK@Z)
00448280 000000e1 .text             UIcon(W).obj(?Load@UIcon@@SAPAVTIconObj@@J@Z)
00448370 00000033 .text             UIcon(W).obj(?Release@UIcon@@SAXPAVTIconObj@@@Z)
004483b0 0000002c .text             UIcon(W).obj(?UIcon_Draw@@YAXPAVTIconObj@@PAVTImageObj@@ABVSRect@@GG@Z)
004483e0 000000c2 .text             UIcon.obj(?Draw@UIcon@@SAXPAVTIconObj@@PAVTImageObj@@ABVSRect@@GG@Z)
004484b0 00000035 .text             ThreadLocalData.obj(__InitializeThreadDataIndex)
004484f0 00000230 .text             ThreadLocalData.obj(__InitializeThreadData)
00448720 00000024 .text             ThreadLocalData.obj(___end_critical_region)
00448750 00000024 .text             ThreadLocalData.obj(___begin_critical_region)
00448780 00000028 .text             ThreadLocalData.obj(__InitializeMainThreadData)
004487b0 00000067 .text             ThreadLocalData.obj(__GetThreadLocalData)
00448820 00000062 .text             UButton(W).obj(?UButton_Draw@@YAXPAVTImageObj@@ABVSRect@@ABUSButtonInfo@@@Z)
00448890 00000062 .text             UButton(W).obj(?UButton_DrawFocused@@YAXPAVTImageObj@@ABVSRect@@ABUSButtonInfo@@@Z)
00448900 00000027 .text             UButton(W).obj(?UButton_DrawHilited@@YAXPAVTImageObj@@ABVSRect@@ABUSButtonInfo@@@Z)
00448930 00000029 .text             UButton(W).obj(?UButton_DrawDisabled@@YAXPAVTImageObj@@ABVSRect@@ABUSButtonInfo@@@Z)
00448960 00000147 .text             UButton(W).obj(?_DrawButton@@YAXPAUHDC__@@PBUtagRECT@@PBXK_N3@Z)
00448ab0 000000e2 .text             UButton(W).obj(?_DrawButtonHilited@@YAXPAUHDC__@@PBUtagRECT@@PBXK_N@Z)
00448ba0 00000229 .text             UButton(W).obj(?_DrawButtonDefault@@YAXPAUHDC__@@PBUtagRECT@@PBXK_N@Z)
00448dd0 00000337 .text             UScrollBar(W).obj(?UScrollBar_Draw@@YAXPAVTImageObj@@ABVSRect@@ABUSScrollBarInfo@@K@Z)
00449110 000002f0 .text             UScrollBar(W).obj(?UScrollBar_DrawDisabled@@YAXPAVTImageObj@@ABVSRect@@ABUSScrollBarInfo@@@Z)
00449400 00000159 .text             UScrollBar(W).obj(?_SBDrawBox@@YAXPAUHDC__@@PBUtagRECT@@@Z)
00449560 0000006d .text             UScrollBar(W).obj(?_SBDrawBoxHilited@@YAXPAUHDC__@@PBUtagRECT@@@Z)
004495d0 000000de .text             UScrollBar(W).obj(?_SBDrawBkgndBox@@YAXPAUHDC__@@PBUtagRECT@@_N@Z)
004496b0 0000012b .text             UScrollBar(W).obj(?_SBDrawDownArrow@@YAXPAUHDC__@@PBUtagRECT@@PAUHPEN__@@@Z)
004497e0 0000012b .text             UScrollBar(W).obj(?_SBDrawUpArrow@@YAXPAUHDC__@@PBUtagRECT@@PAUHPEN__@@@Z)
00449910 0000012b .text             UScrollBar(W).obj(?_SBDrawLeftArrow@@YAXPAUHDC__@@PBUtagRECT@@PAUHPEN__@@@Z)
00449a40 0000012b .text             UScrollBar(W).obj(?_SBDrawRightArrow@@YAXPAUHDC__@@PBUtagRECT@@PAUHPEN__@@@Z)
00449b70 00000012 .text             math_x87.obj(_atan)
00449b90 0000001f .text             math_x87.obj(_cos)
00449bb0 0000001f .text             math_x87.obj(_sin)
00449bd0 0000003a .text             math_x87.obj(_sqrt)
00449c0a 00000006 .text             KERNEL32.dll(_RtlUnwind@16)
00449c10 00000062 .text             ansi_files.obj(___flush_all)
00449c80 00000089 .text             sysenv.win32.obj(___env_stricmp)
00449d10 0000007e .text             sysenv.win32.obj(_init_environ)
00449d90 0000005d .text             sysenv.win32.obj(_resize_environ)
00449df0 0000002b .text             sysenv.win32.obj(__SetupEnv)
00449e20 000000cd .text             sysenv.win32.obj(_search_env)
00449ef0 00000187 .text             sysenv.win32.obj(___msl_putenv)
0044a080 00000074 .text             CMutex_W.obj(??0CMutex@BigRedH@@QAE@XZ)
0044a100 00000027 .text             CMutex_W.obj(??1CThreadException@BigRedH@@UAE@XZ)
0044a130 0000003f .text             CMutex_W.obj(??0CThreadException@BigRedH@@QAE@W1ETask@01@W5EAWError@UAWError@1@PBDHK@Z)
0044a170 0000006d .text             CMutex_W.obj(??1CMutex@BigRedH@@QAE@XZ)
0044a1e0 0000000b .text             CMutex_W.obj(?Breakpoint@UDebug@BigRedH@@SAXXZ)
0044a1f0 00000056 .text             CMutex_W.obj(?Acquire@CMutex@BigRedH@@QAEXXZ)
0044a250 0000004d .text             CMutex_W.obj(?Release@CMutex@BigRedH@@QAEXXZ)
0044a2a0 00000058 .text             CMutex_W.obj(??_ECThreadException@BigRedH@@UAE@I@Z)
0044a300 00000046 .text             CThreadManager.obj(?Instance@CThreadManager@BigRedH@@SAAAV12@XZ)
0044a350 00000018 .text             CThreadManager.obj(??D?$auto_ptr@VCThreadManager@BigRedH@@@std@@QBEAAVCThreadManager@BigRedH@@XZ)
0044a370 00000033 .text             CThreadManager.obj(?reset@?$auto_ptr@VCThreadManager@BigRedH@@@std@@QAEXPAVCThreadManager@BigRedH@@@Z)
0044a3b0 00000058 .text             CThreadManager.obj(??_ECThreadManager@BigRedH@@QAE@I@Z)
0044a410 00000018 .text             CThreadManager.obj(?get@?$auto_ptr@VCThreadManager@BigRedH@@@std@@QBEPAVCThreadManager@BigRedH@@XZ)
0044a430 00000022 .text             CThreadManager.obj(??1?$auto_ptr@VCThreadManager@BigRedH@@@std@@QAE@XZ)
0044a460 00000020 .text             CThreadManager.obj(??0?$auto_ptr@VCThreadManager@BigRedH@@@std@@QAE@PAVCThreadManager@BigRedH@@@Z)
0044a480 0000002e .text             CThreadManager.obj(??0CThreadManager@BigRedH@@AAE@XZ)
0044a4b0 0000001e .text             CThreadManager.obj(??1?$map@PAXPAVCThread@BigRedH@@U?$less@PAX@std@@V?$allocator@U?$pair@QAXPAVCThread@BigRedH@@@std@@@4@@std@@QAE@XZ)
0044a4d0 00000035 .text             CThreadManager.obj(??1?$__tree@U?$pair@QAXPAVCThread@BigRedH@@@std@@Vvalue_compare@?$map@PAXPAVCThread@BigRedH@@U?$less@PAX@std@@V?$allocator@U?$pair@QAXPAVCThread@BigRedH@@@std@@@4@@2@V?$allocator@U?$pair@QAXPA...)
0044a510 0000001d .text             CThreadManager.obj(?root@?$__tree@U?$pair@QAXPAVCThread@BigRedH@@@std@@Vvalue_compare@?$map@PAXPAVCThread@BigRedH@@U?$less@PAX@std@@V?$allocator@U?$pair@QAXPAVCThread@BigRedH@@@std@@@4@@2@V?$allocator@U?$pair@QA...)
0044a530 00000020 .text             CThreadManager.obj(?tail@?$__tree@U?$pair@QAXPAVCThread@BigRedH@@@std@@Vvalue_compare@?$map@PAXPAVCThread@BigRedH@@U?$less@PAX@std@@V?$allocator@U?$pair@QAXPAVCThread@BigRedH@@@std@@@4@@2@V?$allocator@U?$pair@QA...)
0044a550 00000016 .text             CThreadManager.obj(?second@?$compressed_pair_imp@V?$allocator@Unode@?$__tree@U?$pair@QAXPAVCThread@BigRedH@@@std@@Vvalue_compare@?$map@PAXPAVCThread@BigRedH@@U?$less@PAX@std@@V?$allocator@U?$pair@QAXPAVCThread@B...)
0044a570 00000034 .text             CThreadManager.obj(??0?$map@PAXPAVCThread@BigRedH@@U?$less@PAX@std@@V?$allocator@U?$pair@QAXPAVCThread@BigRedH@@@std@@@4@@std@@QAE@XZ)
0044a5b0 00000016 .text             CThreadManager.obj(??0?$allocator@U?$pair@QAXPAVCThread@BigRedH@@@std@@@std@@QAE@XZ)
0044a5d0 00000016 .text             CThreadManager.obj(??0value_compare@?$map@PAXPAVCThread@BigRedH@@U?$less@PAX@std@@V?$allocator@U?$pair@QAXPAVCThread@BigRedH@@@std@@@4@@std@@IAE@XZ)
0044a5f0 00000029 .text             CThreadManager.obj(??1CThreadManager@BigRedH@@QAE@XZ)
0044a620 00000095 .text             CThreadManager.obj(?GetCurrentThread@CThreadManager@BigRedH@@QAEPAVCThread@2@XZ)
0044a6c0 00000025 .text             CThreadManager.obj(??A?$map@PAXPAVCThread@BigRedH@@U?$less@PAX@std@@V?$allocator@U?$pair@QAXPAVCThread@BigRedH@@@std@@@4@@std@@QAEAAPAVCThread@BigRedH@@ABQAX@Z)
0044a6f0 00000019 .text             CThreadManager.obj(??9std@@YA_NABV?$__generic_iterator@$0A@@?$__tree@U?$pair@QAXPAVCThread@BigRedH@@@std@@Vvalue_compare@?$map@PAXPAVCThread@BigRedH@@U?$less@PAX@std@@V?$allocator@U?$pair@QAXPAVCThread@BigRedH@@...)
0044a710 00000026 .text             CThreadManager.obj(?end@?$map@PAXPAVCThread@BigRedH@@U?$less@PAX@std@@V?$allocator@U?$pair@QAXPAVCThread@BigRedH@@@std@@@4@@std@@QAE?AV?$__generic_iterator@$0A@@?$__tree@U?$pair@QAXPAVCThread@BigRedH@@@std@@Vval...)
0044a740 0000002e .text             CThreadManager.obj(?end@?$__tree@U?$pair@QAXPAVCThread@BigRedH@@@std@@Vvalue_compare@?$map@PAXPAVCThread@BigRedH@@U?$less@PAX@std@@V?$allocator@U?$pair@QAXPAVCThread@BigRedH@@@std@@@4@@2@V?$allocator@U?$pair@QAX...)
0044a770 00000015 .text             CThreadManager.obj(?__pointer2iterator@?$__tree@U?$pair@QAXPAVCThread@BigRedH@@@std@@Vvalue_compare@?$map@PAXPAVCThread@BigRedH@@U?$less@PAX@std@@V?$allocator@U?$pair@QAXPAVCThread@BigRedH@@@std@@@4@@2@V?$alloca...)
0044a790 00000020 .text             CThreadManager.obj(??0?$__generic_iterator@$0A@@?$__tree@U?$pair@QAXPAVCThread@BigRedH@@@std@@Vvalue_compare@?$map@PAXPAVCThread@BigRedH@@U?$less@PAX@std@@V?$allocator@U?$pair@QAXPAVCThread@BigRedH@@@std@@@4@@2@...)
0044a7b0 00000029 .text             CThreadManager.obj(?find@?$map@PAXPAVCThread@BigRedH@@U?$less@PAX@std@@V?$allocator@U?$pair@QAXPAVCThread@BigRedH@@@std@@@4@@std@@QAE?AV?$__generic_iterator@$0A@@?$__tree@U?$pair@QAXPAVCThread@BigRedH@@@std@@Vva...)
0044a7e0 00000020 .text             CThreadManager.obj(?front@?$__tree@U?$pair@QAXPAVCThread@BigRedH@@@std@@Vvalue_compare@?$map@PAXPAVCThread@BigRedH@@U?$less@PAX@std@@V?$allocator@U?$pair@QAXPAVCThread@BigRedH@@@std@@@4@@2@V?$allocator@U?$pair@Q...)
0044a800 00000019 .text             CThreadManager.obj(?second@?$compressed_pair_imp@Vvalue_compare@?$map@PAXPAVCThread@BigRedH@@U?$less@PAX@std@@V?$allocator@U?$pair@QAXPAVCThread@BigRedH@@@std@@@4@@std@@PAUnode@?$__tree@U?$pair@QAXPAVCThread@Big...)
0044a820 00000016 .text             CThreadManager.obj(??0?$generic_iterator@$0A@@?$__list_deleter@PBXV?$allocator@PBX@std@@@std@@QAE@XZ)
0044a840 0000001d .text             CThreadManager.obj(?sz@?$__tree@U?$pair@QAXPAVCThread@BigRedH@@@std@@Vvalue_compare@?$map@PAXPAVCThread@BigRedH@@U?$less@PAX@std@@V?$allocator@U?$pair@QAXPAVCThread@BigRedH@@@std@@@4@@2@V?$allocator@U?$pair@QAXP...)
0044a860 00000016 .text             CThreadManager.obj(?second@?$compressed_pair_imp@V?$allocator@U?$pair@QAXPAVCThread@BigRedH@@@std@@@std@@I$00@details@Metrowerks@@QBEABIXZ)
0044a880 000000f6 .text             CThreadManager.obj(?find_or_insert@?$@PAXPAVCThread@BigRedH@@@?$__tree@U?$pair@QAXPAVCThread@BigRedH@@@std@@Vvalue_compare@?$map@PAXPAVCThread@BigRedH@@U?$less@PAX@std@@V?$allocator@U?$pair@QAXPAVCThread@BigRedH...)
0044a980 0000002d .text             CThreadManager.obj(??0?$pair@QAXPAVCThread@BigRedH@@@std@@QAE@ABQAXABQAVCThread@BigRedH@@@Z)
0044a9b0 00000025 .text             CThreadManager.obj(??Rvalue_compare@?$map@PAXPAVCThread@BigRedH@@U?$less@PAX@std@@V?$allocator@U?$pair@QAXPAVCThread@BigRedH@@@std@@@4@@std@@QBE_NABU?$pair@QAXPAVCThread@BigRedH@@@2@ABQAX@Z)
0044a9e0 00000029 .text             CThreadManager.obj(??R?$less@PAX@std@@QBE_NABQAX0@Z)
0044aa10 00000025 .text             CThreadManager.obj(??Rvalue_compare@?$map@PAXPAVCThread@BigRedH@@U?$less@PAX@std@@V?$allocator@U?$pair@QAXPAVCThread@BigRedH@@@std@@@4@@std@@QBE_NABQAXABU?$pair@QAXPAVCThread@BigRedH@@@2@@Z)
0044aa40 00000020 .text             CThreadManager.obj(?comp@?$__tree@U?$pair@QAXPAVCThread@BigRedH@@@std@@Vvalue_compare@?$map@PAXPAVCThread@BigRedH@@U?$less@PAX@std@@V?$allocator@U?$pair@QAXPAVCThread@BigRedH@@@std@@@4@@2@V?$allocator@U?$pair@QA...)
0044aa60 00000016 .text             CThreadManager.obj(?first@?$compressed_pair_imp@Vvalue_compare@?$map@PAXPAVCThread@BigRedH@@U?$less@PAX@std@@V?$allocator@U?$pair@QAXPAVCThread@BigRedH@@@std@@@4@@std@@PAUnode@?$__tree@U?$pair@QAXPAVCThread@BigR...)
0044aa80 000000c7 .text             CThreadManager.obj(?find@?$@PAX@?$__tree@U?$pair@QAXPAVCThread@BigRedH@@@std@@Vvalue_compare@?$map@PAXPAVCThread@BigRedH@@U?$less@PAX@std@@V?$allocator@U?$pair@QAXPAVCThread@BigRedH@@@std@@@4@@2@V?$allocator@U?$...)
0044ab50 00000016 .text             CThreadManager.obj(?second@?$compressed_pair_imp@V?$allocator@U?$pair@QAXPAVCThread@BigRedH@@@std@@@std@@I$00@details@Metrowerks@@QAEAAIXZ)
0044ab70 00000015 .text             CThreadManager.obj(?destroy@?$allocator@U?$pair@QAXPAVCThread@BigRedH@@@std@@@std@@QAEXPAU?$pair@QAXPAVCThread@BigRedH@@@2@@Z)
0044ab90 00000016 .text             CThreadManager.obj(?first@?$compressed_pair_imp@V?$allocator@U?$pair@QAXPAVCThread@BigRedH@@@std@@@std@@I$00@details@Metrowerks@@QAEAAV?$allocator@U?$pair@QAXPAVCThread@BigRedH@@@std@@@std@@XZ)
0044abb0 00000059 .text             CThreadManager.obj(?construct@?$allocator@U?$pair@QAXPAVCThread@BigRedH@@@std@@@std@@QAEXPAU?$pair@QAXPAVCThread@BigRedH@@@2@ABU32@@Z)
0044ac10 00000030 .text             CThreadManager.obj(??0?$pair@QAXPAVCThread@BigRedH@@@std@@QAE@ABU01@@Z)
0044ac40 0000006b .text             CThreadManager.obj(?destroy@?$__tree@U?$pair@QAXPAVCThread@BigRedH@@@std@@Vvalue_compare@?$map@PAXPAVCThread@BigRedH@@U?$less@PAX@std@@V?$allocator@U?$pair@QAXPAVCThread@BigRedH@@@std@@@4@@2@V?$allocator@U?$pair...)
0044acb0 0000001e .text             CThreadManager.obj(?deallocate@?$allocator@Unode@?$__tree@U?$pair@QAXPAVCThread@BigRedH@@@std@@Vvalue_compare@?$map@PAXPAVCThread@BigRedH@@U?$less@PAX@std@@V?$allocator@U?$pair@QAXPAVCThread@BigRedH@@@std@@@4@@2...)
0044acd0 00000020 .text             CThreadManager.obj(?node_alloc@?$__tree@U?$pair@QAXPAVCThread@BigRedH@@@std@@Vvalue_compare@?$map@PAXPAVCThread@BigRedH@@U?$less@PAX@std@@V?$allocator@U?$pair@QAXPAVCThread@BigRedH@@@std@@@4@@2@V?$allocator@U?$p...)
0044acf0 00000016 .text             CThreadManager.obj(?first@?$compressed_pair_imp@V?$allocator@Unode@?$__tree@U?$pair@QAXPAVCThread@BigRedH@@@std@@Vvalue_compare@?$map@PAXPAVCThread@BigRedH@@U?$less@PAX@std@@V?$allocator@U?$pair@QAXPAVCThread@Bi...)
0044ad10 0000001d .text             CThreadManager.obj(?alloc@?$__tree@U?$pair@QAXPAVCThread@BigRedH@@@std@@Vvalue_compare@?$map@PAXPAVCThread@BigRedH@@U?$less@PAX@std@@V?$allocator@U?$pair@QAXPAVCThread@BigRedH@@@std@@@4@@2@V?$allocator@U?$pair@Q...)
0044ad30 0000001d .text             CThreadManager.obj(?sz@?$__tree@U?$pair@QAXPAVCThread@BigRedH@@@std@@Vvalue_compare@?$map@PAXPAVCThread@BigRedH@@U?$less@PAX@std@@V?$allocator@U?$pair@QAXPAVCThread@BigRedH@@@std@@@4@@2@V?$allocator@U?$pair@QAXP...)
0044ad50 00000067 .text             CThreadManager.obj(??0?$__tree@U?$pair@QAXPAVCThread@BigRedH@@@std@@Vvalue_compare@?$map@PAXPAVCThread@BigRedH@@U?$less@PAX@std@@V?$allocator@U?$pair@QAXPAVCThread@BigRedH@@@std@@@4@@2@V?$allocator@U?$pair@QAXPA...)
0044adc0 00000023 .text             CThreadManager.obj(??0?$compressed_pair@Vvalue_compare@?$map@PAXPAVCThread@BigRedH@@U?$less@PAX@std@@V?$allocator@U?$pair@QAXPAVCThread@BigRedH@@@std@@@4@@std@@PAUnode@?$__tree@U?$pair@QAXPAVCThread@BigRedH@@@st...)
0044adf0 00000023 .text             CThreadManager.obj(??0?$compressed_pair_imp@Vvalue_compare@?$map@PAXPAVCThread@BigRedH@@U?$less@PAX@std@@V?$allocator@U?$pair@QAXPAVCThread@BigRedH@@@std@@@4@@std@@PAUnode@?$__tree@U?$pair@QAXPAVCThread@BigRedH@...)
0044ae20 00000023 .text             CThreadManager.obj(??0value_compare@?$map@PAXPAVCThread@BigRedH@@U?$less@PAX@std@@V?$allocator@U?$pair@QAXPAVCThread@BigRedH@@@std@@@4@@std@@QAE@ABV012@@Z)
0044ae50 00000023 .text             CThreadManager.obj(??0?$compressed_pair@V?$allocator@Unode@?$__tree@U?$pair@QAXPAVCThread@BigRedH@@@std@@Vvalue_compare@?$map@PAXPAVCThread@BigRedH@@U?$less@PAX@std@@V?$allocator@U?$pair@QAXPAVCThread@BigRedH@@@...)
0044ae80 0000002d .text             CThreadManager.obj(??0?$compressed_pair_imp@V?$allocator@Unode@?$__tree@U?$pair@QAXPAVCThread@BigRedH@@@std@@Vvalue_compare@?$map@PAXPAVCThread@BigRedH@@U?$less@PAX@std@@V?$allocator@U?$pair@QAXPAVCThread@BigRed...)
0044aeb0 00000018 .text             CThreadManager.obj(??0?$allocator@Unode@?$__tree@U?$pair@QAXPAVCThread@BigRedH@@@std@@Vvalue_compare@?$map@PAXPAVCThread@BigRedH@@U?$less@PAX@std@@V?$allocator@U?$pair@QAXPAVCThread@BigRedH@@@std@@@4@@2@V?$alloc...)
0044aed0 00000018 .text             CThreadManager.obj(??0?$@U?$pair@QAXPAVCThread@BigRedH@@@std@@@?$allocator@Unode@?$__tree@U?$pair@QAXPAVCThread@BigRedH@@@std@@Vvalue_compare@?$map@PAXPAVCThread@BigRedH@@U?$less@PAX@std@@V?$allocator@U?$pair@QA...)
0044aef0 00000026 .text             CThreadManager.obj(??0?$compressed_pair@V?$allocator@U?$pair@QAXPAVCThread@BigRedH@@@std@@@std@@I@Metrowerks@@QAE@ABV?$allocator@U?$pair@QAXPAVCThread@BigRedH@@@std@@@std@@I@Z)
0044af20 0000002b .text             CThreadManager.obj(??0?$compressed_pair_imp@V?$allocator@U?$pair@QAXPAVCThread@BigRedH@@@std@@@std@@I$00@details@Metrowerks@@QAE@ABV?$allocator@U?$pair@QAXPAVCThread@BigRedH@@@std@@@std@@I@Z)
0044af50 00000018 .text             CThreadManager.obj(??0?$allocator@U?$pair@QAXPAVCThread@BigRedH@@@std@@@std@@QAE@ABV01@@Z)
0044af70 00000136 .text             CThreadManager.obj(?insert_node_at@?$__tree@U?$pair@QAXPAVCThread@BigRedH@@@std@@Vvalue_compare@?$map@PAXPAVCThread@BigRedH@@U?$less@PAX@std@@V?$allocator@U?$pair@QAXPAVCThread@BigRedH@@@std@@@4@@2@V?$allocator@...)
0044b0b0 00000030 .text             CThreadManager.obj(?allocate@?$allocator@Unode@?$__tree@U?$pair@QAXPAVCThread@BigRedH@@@std@@Vvalue_compare@?$map@PAXPAVCThread@BigRedH@@U?$less@PAX@std@@V?$allocator@U?$pair@QAXPAVCThread@BigRedH@@@std@@@4@@2@V...)
0044b0e0 0000001a .text             CThreadManager.obj(?max_size@?$__tree@U?$pair@QAXPAVCThread@BigRedH@@@std@@Vvalue_compare@?$map@PAXPAVCThread@BigRedH@@U?$less@PAX@std@@V?$allocator@U?$pair@QAXPAVCThread@BigRedH@@@std@@@4@@2@V?$allocator@U?$pai...)
0044b100 0000001d .text             CThreadManager.obj(?size@?$__tree@U?$pair@QAXPAVCThread@BigRedH@@@std@@Vvalue_compare@?$map@PAXPAVCThread@BigRedH@@U?$less@PAX@std@@V?$allocator@U?$pair@QAXPAVCThread@BigRedH@@@std@@@4@@2@V?$allocator@U?$pair@QA...)
0044b120 00000028 .text             CThreadManager.obj
0044b150 00000029 .text             CDataProvider.obj(?GetAvailable@CInStream@BigRedH@@QAEKXZ)
0044b180 00000031 .text             CDataProvider.obj(?Read@CInStream@BigRedH@@QAEKPAXK@Z)
0044b1c0 00000019 .text             CDataProvider.obj(?GetID@CMessage@BigRedH@@QBEKXZ)
0044b1e0 00000042 .text             CString_W.obj(??0CString@BigRedH@@QAE@PBD@Z)
0044b230 00000046 .text             CString_W.obj(?Init@CString@BigRedH@@AAEXPBXI@Z)
0044b280 00000028 .text             UStringConverter.obj(?append@CString@BigRedH@@QAEAAV12@I_W@Z)
0044b2b0 000000f7 .text             UStringConverter.obj(?StringDataToUnistring@UStringConverter@BigRedH@@CA?AVCString@2@PBXKW1EStringEncoding@12@@Z)
0044b3b0 000000b4 .text             UStringConverter.obj(?append@?$basic_string@_WU?$char_traits@_W@std@@V?$allocator@_W@2@@std@@QAEAAV12@I_W@Z)
0044b470 0000001c .text             wmem.obj(_wmemcpy)
0044b490 0000001c .text             wmem.obj(_wmemmove)
0044b4b0 00000036 .text             wmem.obj(_wmemset)
0044b4f0 00000019 .text             compiler_math.obj(__reduce)
0044b510 0000004f .text             file_io.win32.obj(_find_temp_info)
0044b560 0000008a .text             file_io.win32.obj(___msl_lseek)
0044b5f0 00000170 .text             file_io.win32.obj(___msl_write)
0044b760 00000081 .text             file_io.win32.obj(___msl_close)
0044b7f0 00000151 .text             file_io.win32.obj(___msl_read)
0044b950 00000039 .text             file_io.win32.obj(___read_file)
0044b990 0000004c .text             file_io.win32.obj(___write_file)
0044b9e0 0000006f .text             file_io.win32.obj(___close_file)
0044ba50 0000001c .text             file_io.win32.obj(___delete_file)
0044ba70 00000005 .text             buffer_io.obj(___convert_from_newlines)
0044ba80 0000003b .text             buffer_io.obj(___prep_buffer)
0044bac0 000000b8 .text             buffer_io.obj(___flush_buffer)
0044bb80 0000015e .text             file_io.obj(_fflush)
0044bce0 0000003c .text             file_io.obj(___msl_strdup)
0044bd20 00000061 .text             CException.obj(??0CException@BigRedH@@QAE@W5EAWError@UAWError@1@PBDHK@Z)
0044bd90 0000005b .text             CException.obj(??0CException@BigRedH@@QAE@ABV01@@Z)
0044bdf0 0000002a .text             CException.obj(??1CException@BigRedH@@UAE@XZ)
0044be20 00000049 .text             CException.obj(?SetSource@CException@BigRedH@@QAEXPBDH@Z)
0044be70 0000006f .text             CException.obj(?GetMessageA@CException@BigRedH@@UBE?AVCString@2@XZ)
0044bee0 00000023 .text             CException.obj(??YCString@BigRedH@@QAEAAV01@PB_W@Z)
0044bf10 00000022 .text             CException.obj(??Y?$basic_string@_WU?$char_traits@_W@std@@V?$allocator@_W@2@@std@@QAEAAV01@PB_W@Z)
0044bf40 0000002c .text             CException.obj(?append@?$basic_string@_WU?$char_traits@_W@std@@V?$allocator@_W@2@@std@@QAEAAV12@PB_W@Z)
0044bf70 00000023 .text             CException.obj(??4CString@BigRedH@@QAEAAV01@PB_W@Z)
0044bfa0 00000022 .text             CException.obj(??4?$basic_string@_WU?$char_traits@_W@std@@V?$allocator@_W@2@@std@@QAEAAV01@PB_W@Z)
0044bfd0 0000002c .text             CException.obj(?assign@?$basic_string@_WU?$char_traits@_W@std@@V?$allocator@_W@2@@std@@QAEAAV12@PB_W@Z)
0044c000 00000058 .text             CException.obj(??_ECException@BigRedH@@UAE@I@Z)
0044c060 000000ce .text             CException.obj(?append@?$basic_string@_WU?$char_traits@_W@std@@V?$allocator@_W@2@@std@@QAEAAV12@PB_WI@Z)
0044c130 0000003c .text             CException.obj(?assign@?$basic_string@_WU?$char_traits@_W@std@@V?$allocator@_W@2@@std@@QAEAAV12@PB_WI@Z)
0044c170 00000026 .text             CException.obj(?append@?$basic_string@_WU?$char_traits@_W@std@@V?$allocator@_W@2@@std@@QAEAAV12@ABV12@@Z)
0044c1a0 0000007c .text             CException.obj(??0?$basic_string@_WU?$char_traits@_W@std@@V?$allocator@_W@2@@std@@QAE@PB_WIABV?$allocator@_W@1@@Z)
0044c220 000000c7 .text             CException.obj(?append@?$basic_string@_WU?$char_traits@_W@std@@V?$allocator@_W@2@@std@@QAEAAV12@ABV12@II@Z)
0044c2f0 00000005 .text             CThread_W.obj(?Initialize@CThread@BigRedH@@CAXXZ)
0044c300 0000000d .text             CThread_W.obj(?GetCurrentID@CThread@BigRedH@@CAPAXXZ)
0044c310 0000013b .text             CListener.obj(??0CListener@BigRedH@@QAE@XZ)
0044c450 0000001e .text             CListener.obj(??1?$list@PAVCBroadcaster@BigRedH@@V?$allocator@PAVCBroadcaster@BigRedH@@@std@@@std@@QAE@XZ)
0044c470 0000003f .text             CListener.obj(??0CMessageException@BigRedH@@QAE@W1ETask@01@W5EAWError@UAWError@1@PBDHK@Z)
0044c4b0 00000027 .text             CListener.obj(??1CMessageException@BigRedH@@UAE@XZ)
0044c4e0 00000036 .text             CListener.obj(??0CMessageException@BigRedH@@QAE@ABVCException@1@W1ETask@01@@Z)
0044c520 0000001e .text             CListener.obj(??0?$list@PAVCBroadcaster@BigRedH@@V?$allocator@PAVCBroadcaster@BigRedH@@@std@@@std@@QAE@XZ)
0044c540 000000db .text             CListener.obj(??1CListener@BigRedH@@UAE@XZ)
0044c620 00000014 .text             CListener.obj(??9std@@YA_NABV?$generic_iterator@$0A@@?$list@PAVCBroadcaster@BigRedH@@V?$allocator@PAVCBroadcaster@BigRedH@@@std@@@0@0@Z)
0044c640 00000036 .text             CListener.obj(?end@?$list@PAVCBroadcaster@BigRedH@@V?$allocator@PAVCBroadcaster@BigRedH@@@std@@@std@@QAE?AV?$generic_iterator@$0A@@12@XZ)
0044c680 00000023 .text             CListener.obj(??0?$generic_iterator@$0A@@?$list@PAVCBroadcaster@BigRedH@@V?$allocator@PAVCBroadcaster@BigRedH@@@std@@@std@@AAE@V0?$__list_deleter@PBXV?$allocator@PBX@std@@@2@@Z)
0044c6b0 0000003d .text             CListener.obj(??E?$generic_iterator@$0A@@?$list@PAVCBroadcaster@BigRedH@@V?$allocator@PAVCBroadcaster@BigRedH@@@std@@@std@@QAE?AV012@H@Z)
0044c6f0 00000023 .text             CListener.obj(??0?$generic_iterator@$0A@@?$list@PAVCBroadcaster@BigRedH@@V?$allocator@PAVCBroadcaster@BigRedH@@@std@@@std@@QAE@ABV012@@Z)
0044c720 0000001d .text             CListener.obj(??D?$generic_iterator@$0A@@?$list@PAVCBroadcaster@BigRedH@@V?$allocator@PAVCBroadcaster@BigRedH@@@std@@@std@@QBEAAPAVCBroadcaster@BigRedH@@XZ)
0044c740 00000022 .text             CListener.obj(??4?$generic_iterator@$0A@@?$list@PAVCBroadcaster@BigRedH@@V?$allocator@PAVCBroadcaster@BigRedH@@@std@@@std@@QAEAAV012@ABV012@@Z)
0044c770 00000036 .text             CListener.obj(?begin@?$list@PAVCBroadcaster@BigRedH@@V?$allocator@PAVCBroadcaster@BigRedH@@@std@@@std@@QAE?AV?$generic_iterator@$0A@@12@XZ)
0044c7b0 0000001e .text             CListener.obj(??0?$generic_iterator@$0A@@?$list@PAVCBroadcaster@BigRedH@@V?$allocator@PAVCBroadcaster@BigRedH@@@std@@@std@@QAE@XZ)
0044c7d0 00000023 .text             CListener.obj(??0?$list@PAVCBroadcaster@BigRedH@@V?$allocator@PAVCBroadcaster@BigRedH@@@std@@@std@@QAE@ABV01@@Z)
0044c800 00000057 .text             CListener.obj(??0?$__list_imp@PBXV?$allocator@PBX@std@@@std@@IAE@ABV01@@Z)
0044c860 0000002b .text             CListener.obj(?end@?$__list_deleter@PBXV?$allocator@PBX@std@@@std@@QBE?AV?$generic_iterator@$00@12@XZ)
0044c890 00000020 .text             CListener.obj(??0?$generic_iterator@$00@?$__list_deleter@PBXV?$allocator@PBX@std@@@std@@AAE@PBUnode_base@12@@Z)
0044c8b0 00000020 .text             CListener.obj(?tail@?$__list_deleter@PBXV?$allocator@PBX@std@@@std@@QBEABUnode_base@12@XZ)
0044c8d0 00000016 .text             CListener.obj(?second@?$compressed_pair_imp@V?$allocator@Unode@?$__list_deleter@PBXV?$allocator@PBX@std@@@std@@@std@@Unode_base@?$__list_deleter@PBXV?$allocator@PBX@std@@@2@$00@details@Metrowerks@@QBEABUnode_bas...)
0044c8f0 0000002d .text             CListener.obj(?begin@?$__list_deleter@PBXV?$allocator@PBX@std@@@std@@QBE?AV?$generic_iterator@$00@12@XZ)
0044c920 00000020 .text             CListener.obj(??0?$generic_iterator@$00@?$__list_deleter@PBXV?$allocator@PBX@std@@@std@@AAE@PBUnode@12@@Z)
0044c940 0000001d .text             CListener.obj(?alloc@?$__list_deleter@PBXV?$allocator@PBX@std@@@std@@QBEABV?$allocator@PBX@2@XZ)
0044c960 00000016 .text             CListener.obj(?first@?$compressed_pair_imp@V?$allocator@PBX@std@@I$00@details@Metrowerks@@QBEABV?$allocator@PBX@std@@XZ)
0044c980 000000d0 .text             CListener.obj(?RemoveBroadcaster@CListener@BigRedH@@IAEXAAVCBroadcaster@2@@Z)
0044ca50 00000020 .text             CListener.obj(?remove@?$list@PAVCBroadcaster@BigRedH@@V?$allocator@PAVCBroadcaster@BigRedH@@@std@@@std@@QAEXABQAVCBroadcaster@BigRedH@@@Z)
0044ca70 00000058 .text             CListener.obj(??_ECMessageException@BigRedH@@UAE@I@Z)
0044cad0 00000058 .text             CListener.obj(??_ECListener@BigRedH@@UAE@I@Z)
0044cb30 00000043 .text             CListener.obj(?init@?$@V?$generic_iterator@$00@?$__list_deleter@PBXV?$allocator@PBX@std@@@std@@@?$__list_imp@PBXV?$allocator@PBX@std@@@3@IAEXV123@0@Z)
0044cb80 00000019 .text             CListener.obj(??9std@@YA_NABV?$generic_iterator@$00@?$__list_deleter@PBXV?$allocator@PBX@std@@@0@0@Z)
0044cba0 00000023 .text             CListener.obj(??E?$generic_iterator@$00@?$__list_deleter@PBXV?$allocator@PBX@std@@@std@@QAEAAV012@XZ)
0044cbd0 0000001b .text             CListener.obj(??D?$generic_iterator@$00@?$__list_deleter@PBXV?$allocator@PBX@std@@@std@@QBEABQBXXZ)
0044cbf0 00000069 .text             CListener.obj(??0?$__list_deleter@PBXV?$allocator@PBX@std@@@std@@QAE@ABV?$allocator@PBX@1@@Z)
0044cc60 00000026 .text             CListener.obj(??0?$compressed_pair@V?$allocator@PBX@std@@I@Metrowerks@@QAE@ABV?$allocator@PBX@std@@I@Z)
0044cc90 0000002b .text             CListener.obj(??0?$compressed_pair_imp@V?$allocator@PBX@std@@I$00@details@Metrowerks@@QAE@ABV?$allocator@PBX@std@@I@Z)
0044ccc0 00000018 .text             CListener.obj(??0?$allocator@PBX@std@@QAE@ABV01@@Z)
0044cce0 0000001d .text             CBroadcaster.obj(?root@?$__tree@PAVCListener@BigRedH@@U?$less@PAVCListener@BigRedH@@@std@@V?$allocator@PAVCListener@BigRedH@@@4@@std@@AAEAAPAUnode@12@XZ)
0044cd00 00000020 .text             CBroadcaster.obj(?tail@?$__tree@PAVCListener@BigRedH@@U?$less@PAVCListener@BigRedH@@@std@@V?$allocator@PAVCListener@BigRedH@@@4@@std@@AAEAAUanchor@?$__red_black_tree@$00@2@XZ)
0044cd20 00000016 .text             CBroadcaster.obj(?second@?$compressed_pair_imp@V?$allocator@Unode@?$__tree@PAVCListener@BigRedH@@U?$less@PAVCListener@BigRedH@@@std@@V?$allocator@PAVCListener@BigRedH@@@4@@std@@@std@@Uanchor@?$__red_black_tree@$...)
0044cd40 00000014 .text             CBroadcaster.obj(??9std@@YA_NABV?$generic_iterator@$0A@@?$list@PAVCListener@BigRedH@@V?$allocator@PAVCListener@BigRedH@@@std@@@0@0@Z)
0044cd60 00000036 .text             CBroadcaster.obj(?end@?$list@PAVCListener@BigRedH@@V?$allocator@PAVCListener@BigRedH@@@std@@@std@@QAE?AV?$generic_iterator@$0A@@12@XZ)
0044cda0 00000023 .text             CBroadcaster.obj(??0?$generic_iterator@$0A@@?$list@PAVCListener@BigRedH@@V?$allocator@PAVCListener@BigRedH@@@std@@@std@@AAE@V0?$__list_deleter@PBXV?$allocator@PBX@std@@@2@@Z)
0044cdd0 00000023 .text             CBroadcaster.obj(??0?$generic_iterator@$0A@@?$list@PAVCListener@BigRedH@@V?$allocator@PAVCListener@BigRedH@@@std@@@std@@QAE@ABV012@@Z)
0044ce00 0000001d .text             CBroadcaster.obj(??D?$generic_iterator@$0A@@?$list@PAVCListener@BigRedH@@V?$allocator@PAVCListener@BigRedH@@@std@@@std@@QBEAAPAVCListener@BigRedH@@XZ)
0044ce20 00000022 .text             CBroadcaster.obj(??4?$generic_iterator@$0A@@?$list@PAVCListener@BigRedH@@V?$allocator@PAVCListener@BigRedH@@@std@@@std@@QAEAAV012@ABV012@@Z)
0044ce50 00000036 .text             CBroadcaster.obj(?begin@?$list@PAVCListener@BigRedH@@V?$allocator@PAVCListener@BigRedH@@@std@@@std@@QAE?AV?$generic_iterator@$0A@@12@XZ)
0044ce90 0000001e .text             CBroadcaster.obj(??0?$generic_iterator@$0A@@?$list@PAVCListener@BigRedH@@V?$allocator@PAVCListener@BigRedH@@@std@@@std@@QAE@XZ)
0044ceb0 00000020 .text             CBroadcaster.obj(?push_back@?$list@PAVCListener@BigRedH@@V?$allocator@PAVCListener@BigRedH@@@std@@@std@@QAEXABQAVCListener@BigRedH@@@Z)
0044ced0 00000022 .text             CBroadcaster.obj(??0?$__generic_iterator@$00@?$__tree@PAVCListener@BigRedH@@U?$less@PAVCListener@BigRedH@@@std@@V?$allocator@PAVCListener@BigRedH@@@4@@std@@QAE@ABV?$__generic_iterator@$0A@@12@@Z)
0044cf00 00000125 .text             CBroadcaster.obj(?RemoveListener@CBroadcaster@BigRedH@@QAEXAAVCListener@2@@Z)
0044d030 0000004e .text             CBroadcaster.obj(?insert@?$set@PAVCListener@BigRedH@@U?$less@PAVCListener@BigRedH@@@std@@V?$allocator@PAVCListener@BigRedH@@@4@@std@@QAE?AU?$pair@V?$__generic_iterator@$00@?$__tree@PAVCListener@BigRedH@@U?$less@...)
0044d080 0000002f .text             CBroadcaster.obj(??0?$pair@V?$__generic_iterator@$00@?$__tree@PAVCListener@BigRedH@@U?$less@PAVCListener@BigRedH@@@std@@V?$allocator@PAVCListener@BigRedH@@@4@@std@@_N@std@@QAE@ABV?$__generic_iterator@$00@?$__tre...)
0044d0b0 00000022 .text             CBroadcaster.obj(??0?$__generic_iterator@$00@?$__tree@PAVCListener@BigRedH@@U?$less@PAVCListener@BigRedH@@@std@@V?$allocator@PAVCListener@BigRedH@@@4@@std@@QAE@ABV012@@Z)
0044d0e0 00000020 .text             CBroadcaster.obj(?remove@?$list@PAVCListener@BigRedH@@V?$allocator@PAVCListener@BigRedH@@@std@@@std@@QAEXABQAVCListener@BigRedH@@@Z)
0044d100 0000001e .text             CBroadcaster.obj(??E?$generic_iterator@$0A@@?$list@PAVCListener@BigRedH@@V?$allocator@PAVCListener@BigRedH@@@std@@@std@@QAEAAV012@XZ)
0044d120 00000015 .text             CBroadcaster.obj(?__pointer2iterator@?$__tree@PAVCListener@BigRedH@@U?$less@PAVCListener@BigRedH@@@std@@V?$allocator@PAVCListener@BigRedH@@@4@@std@@SA?AV?$__generic_iterator@$0A@@12@PAUnode@12@@Z)
0044d140 00000020 .text             CBroadcaster.obj(??0?$__generic_iterator@$0A@@?$__tree@PAVCListener@BigRedH@@U?$less@PAVCListener@BigRedH@@@std@@V?$allocator@PAVCListener@BigRedH@@@4@@std@@AAE@PAUnode@12@@Z)
0044d160 00000020 .text             CBroadcaster.obj(?front@?$__tree@PAVCListener@BigRedH@@U?$less@PAVCListener@BigRedH@@@std@@V?$allocator@PAVCListener@BigRedH@@@4@@std@@AAEAAPAUnode@12@XZ)
0044d180 00000016 .text             CBroadcaster.obj(?second@?$compressed_pair_imp@U?$less@PAVCListener@BigRedH@@@std@@PAUnode@?$__tree@PAVCListener@BigRedH@@U?$less@PAVCListener@BigRedH@@@std@@V?$allocator@PAVCListener@BigRedH@@@4@@2@$00@details@...)
0044d1a0 00000022 .text             CBroadcaster.obj(??0?$__generic_iterator@$0A@@?$__tree@PAVCListener@BigRedH@@U?$less@PAVCListener@BigRedH@@@std@@V?$allocator@PAVCListener@BigRedH@@@4@@std@@QAE@ABV012@@Z)
0044d1d0 00000029 .text             CBroadcaster.obj(??R?$less@PAVCListener@BigRedH@@@std@@QBE_NABQAVCListener@BigRedH@@0@Z)
0044d200 00000020 .text             CBroadcaster.obj(?comp@?$__tree@PAVCListener@BigRedH@@U?$less@PAVCListener@BigRedH@@@std@@V?$allocator@PAVCListener@BigRedH@@@4@@std@@AAEAAU?$less@PAVCListener@BigRedH@@@2@XZ)
0044d220 00000016 .text             CBroadcaster.obj(?first@?$compressed_pair_imp@U?$less@PAVCListener@BigRedH@@@std@@PAUnode@?$__tree@PAVCListener@BigRedH@@U?$less@PAVCListener@BigRedH@@@std@@V?$allocator@PAVCListener@BigRedH@@@4@@2@$00@details@M...)
0044d240 0000001e .text             CBroadcaster.obj(?deallocate@?$allocator@Unode@?$__tree@PAVCListener@BigRedH@@U?$less@PAVCListener@BigRedH@@@std@@V?$allocator@PAVCListener@BigRedH@@@4@@std@@@std@@QAEXPAUnode@?$__tree@PAVCListener@BigRedH@@U?$l...)
0044d260 00000020 .text             CBroadcaster.obj(?node_alloc@?$__tree@PAVCListener@BigRedH@@U?$less@PAVCListener@BigRedH@@@std@@V?$allocator@PAVCListener@BigRedH@@@4@@std@@AAEAAV?$allocator@Unode@?$__tree@PAVCListener@BigRedH@@U?$less@PAVCList...)
0044d280 00000016 .text             CBroadcaster.obj(?first@?$compressed_pair_imp@V?$allocator@Unode@?$__tree@PAVCListener@BigRedH@@U?$less@PAVCListener@BigRedH@@@std@@V?$allocator@PAVCListener@BigRedH@@@4@@std@@@std@@Uanchor@?$__red_black_tree@$0...)
0044d2a0 0000001d .text             CBroadcaster.obj(?alloc@?$__tree@PAVCListener@BigRedH@@U?$less@PAVCListener@BigRedH@@@std@@V?$allocator@PAVCListener@BigRedH@@@4@@std@@AAEAAV?$allocator@PAVCListener@BigRedH@@@2@XZ)
0044d2c0 00000016 .text             CBroadcaster.obj(?first@?$compressed_pair_imp@V?$allocator@PAVCListener@BigRedH@@@std@@I$00@details@Metrowerks@@QAEAAV?$allocator@PAVCListener@BigRedH@@@std@@XZ)
0044d2e0 0000012c .text             CBroadcaster.obj(?insert_one@?$__tree@PAVCListener@BigRedH@@U?$less@PAVCListener@BigRedH@@@std@@V?$allocator@PAVCListener@BigRedH@@@4@@std@@QAE?AU?$pair@V?$__generic_iterator@$0A@@?$__tree@PAVCListener@BigRedH@@...)
0044d410 0000002f .text             CBroadcaster.obj(??0?$pair@V?$__generic_iterator@$0A@@?$__tree@PAVCListener@BigRedH@@U?$less@PAVCListener@BigRedH@@@std@@V?$allocator@PAVCListener@BigRedH@@@4@@std@@_N@std@@QAE@ABV?$__generic_iterator@$0A@@?$__t...)
0044d440 00000136 .text             CBroadcaster.obj(?insert_node_at@?$__tree@PAVCListener@BigRedH@@U?$less@PAVCListener@BigRedH@@@std@@V?$allocator@PAVCListener@BigRedH@@@4@@std@@AAEPAUnode@12@PAU312@_N1ABQAVCListener@BigRedH@@@Z)
0044d580 0000001d .text             CBroadcaster.obj(?sz@?$__tree@PAVCListener@BigRedH@@U?$less@PAVCListener@BigRedH@@@std@@V?$allocator@PAVCListener@BigRedH@@@4@@std@@AAEAAIXZ)
0044d5a0 00000016 .text             CBroadcaster.obj(?second@?$compressed_pair_imp@V?$allocator@PAVCListener@BigRedH@@@std@@I$00@details@Metrowerks@@QAEAAIXZ)
0044d5c0 00000056 .text             CBroadcaster.obj(?construct@?$allocator@PAVCListener@BigRedH@@@std@@QAEXPAPAVCListener@BigRedH@@ABQAV34@@Z)
0044d620 00000024 .text             CBroadcaster.obj(?allocate@?$allocator@Unode@?$__tree@PAVCListener@BigRedH@@U?$less@PAVCListener@BigRedH@@@std@@V?$allocator@PAVCListener@BigRedH@@@4@@std@@@std@@QAEPAUnode@?$__tree@PAVCListener@BigRedH@@U?$less...)
0044d650 0000001a .text             CBroadcaster.obj(?max_size@?$__tree@PAVCListener@BigRedH@@U?$less@PAVCListener@BigRedH@@@std@@V?$allocator@PAVCListener@BigRedH@@@4@@std@@QBEIXZ)
0044d670 0000001d .text             CBroadcaster.obj(?size@?$__tree@PAVCListener@BigRedH@@U?$less@PAVCListener@BigRedH@@@std@@V?$allocator@PAVCListener@BigRedH@@@4@@std@@QBEIXZ)
0044d690 0000001d .text             CBroadcaster.obj(?sz@?$__tree@PAVCListener@BigRedH@@U?$less@PAVCListener@BigRedH@@@std@@V?$allocator@PAVCListener@BigRedH@@@4@@std@@ABEABIXZ)
0044d6b0 00000016 .text             CBroadcaster.obj(?second@?$compressed_pair_imp@V?$allocator@PAVCListener@BigRedH@@@std@@I$00@details@Metrowerks@@QBEABIXZ)
0044d6d0 0000003f .text             CSyncTCPStreamBuffer.obj(??0CStreamException@BigRedH@@QAE@W1ETask@01@W5EAWError@UAWError@1@PBDHK@Z)
0044d710 00000027 .text             CSyncTCPStreamBuffer.obj(??1CStreamException@BigRedH@@UAE@XZ)
0044d740 00000036 .text             CSyncTCPStreamBuffer.obj(??0CStreamException@BigRedH@@QAE@ABVCException@1@W1ETask@01@@Z)
0044d780 00000058 .text             CSyncTCPStreamBuffer.obj(??_ECStreamException@BigRedH@@UAE@I@Z)
0044d7e0 00000034 .text             CStreamBuffer.obj(?GetWithEndianOrdering@CStreamBuffer@BigRedH@@QAEXPAXK@Z)
0044d820 0000007a .text             CStreamBuffer.obj(?ArrangeOrder@CEndianOrder@BigRedH@@QAEXPAEK@Z)
0044d8a0 00000065 .text             CStreamBuffer.obj(?GetAll@CStreamBuffer@BigRedH@@QAEXPAXK@Z)
0044d910 00000133 .text             CStreamBuffer.obj(?IsSourceFor@CStreamBuffer@BigRedH@@QAE_NABVCMessage@2@@Z)
0044da50 00000019 .text             CStreamBuffer.obj(?GetSource@?$TObjectMessageS@_NAAVCAsyncStreamBuffer@BigRedH@@@BigRedH@@QBEAAVCAsyncStreamBuffer@2@XZ)
0044da70 00000045 .text             mbstring.obj(___mbtowc_noconv)
0044dac0 00000020 .text             mbstring.obj(___wctomb_noconv)
0044dae0 000000ee .text             file_pos.obj(__ftell)
0044dbd0 0000002f .text             file_pos.obj(_ftell)
0044dc00 00000024 .text             file_pos.obj(___end_critical_region)
0044dc30 00000024 .text             file_pos.obj(___begin_critical_region)
0044dc60 00000066 .text             UAWError_W.obj(?TranslateErrorCode@UAWError@BigRedH@@SA?AW5EAWError@12@K@Z)
0044dcd0 0000002b .text             CMessageWrangler.obj(?end@?$__list_deleter@U?$pair@PAVCListener@BigRedH@@PAVCMessage@2@@std@@V?$allocator@U?$pair@PAVCListener@BigRedH@@PAVCMessage@2@@std@@@2@@std@@QAE?AV?$generic_iterator@$0A@@12@XZ)
0044dd00 00000020 .text             CMessageWrangler.obj(??0?$generic_iterator@$0A@@?$__list_deleter@U?$pair@PAVCListener@BigRedH@@PAVCMessage@2@@std@@V?$allocator@U?$pair@PAVCListener@BigRedH@@PAVCMessage@2@@std@@@2@@std@@AAE@PAUnode_base@12@@Z)
0044dd20 00000020 .text             CMessageWrangler.obj(?tail@?$__list_deleter@U?$pair@PAVCListener@BigRedH@@PAVCMessage@2@@std@@V?$allocator@U?$pair@PAVCListener@BigRedH@@PAVCMessage@2@@std@@@2@@std@@QAEAAUnode_base@12@XZ)
0044dd40 00000016 .text             CMessageWrangler.obj(?second@?$compressed_pair_imp@V?$allocator@Unode@?$__list_deleter@U?$pair@PAVCListener@BigRedH@@PAVCMessage@2@@std@@V?$allocator@U?$pair@PAVCListener@BigRedH@@PAVCMessage@2@@std@@@2@@std@@@s...)
0044dd60 0000002d .text             CMessageWrangler.obj(?begin@?$__list_deleter@U?$pair@PAVCListener@BigRedH@@PAVCMessage@2@@std@@V?$allocator@U?$pair@PAVCListener@BigRedH@@PAVCMessage@2@@std@@@2@@std@@QAE?AV?$generic_iterator@$0A@@12@XZ)
0044dd90 00000020 .text             CMessageWrangler.obj(??0?$generic_iterator@$0A@@?$__list_deleter@U?$pair@PAVCListener@BigRedH@@PAVCMessage@2@@std@@V?$allocator@U?$pair@PAVCListener@BigRedH@@PAVCMessage@2@@std@@@2@@std@@AAE@PAUnode@12@@Z)
0044ddb0 00000177 .text             CMessageWrangler.obj(?RegisterListener@CMessageWrangler@BigRedH@@AAEXAAVCListener@2@@Z)
0044df30 00000014 .text             CMessageWrangler.obj(??8std@@YA_NABV?$generic_iterator@$0A@@?$list@PAVCListener@BigRedH@@V?$allocator@PAVCListener@BigRedH@@@std@@@0@0@Z)
0044df50 00000048 .text             CMessageWrangler.obj(?find@?$@V?$generic_iterator@$0A@@?$list@PAVCListener@BigRedH@@V?$allocator@PAVCListener@BigRedH@@@std@@@std@@PAVCListener@BigRedH@@@3@YA?AV123@V123@0ABQAV45@@Z)
0044dfa0 0000021c .text             CMessageWrangler.obj(?UnregisterListener@CMessageWrangler@BigRedH@@AAEXAAVCListener@2@@Z)
0044e1c0 00000019 .text             CMessageWrangler.obj(??8std@@YA_NABV?$generic_iterator@$0A@@?$__list_deleter@U?$pair@PAVCListener@BigRedH@@PAVCMessage@2@@std@@V?$allocator@U?$pair@PAVCListener@BigRedH@@PAVCMessage@2@@std@@@2@@0@0@Z)
0044e1e0 00000022 .text             CMessageWrangler.obj(??4?$generic_iterator@$0A@@?$__list_deleter@U?$pair@PAVCListener@BigRedH@@PAVCMessage@2@@std@@V?$allocator@U?$pair@PAVCListener@BigRedH@@PAVCMessage@2@@std@@@2@@std@@QAEAAV012@ABV012@@Z)
0044e210 00000019 .text             CMessageWrangler.obj(??9std@@YA_NABV?$generic_iterator@$0A@@?$__list_deleter@U?$pair@PAVCListener@BigRedH@@PAVCMessage@2@@std@@V?$allocator@U?$pair@PAVCListener@BigRedH@@PAVCMessage@2@@std@@@2@@0@0@Z)
0044e230 00000023 .text             CMessageWrangler.obj(??E?$generic_iterator@$0A@@?$__list_deleter@U?$pair@PAVCListener@BigRedH@@PAVCMessage@2@@std@@V?$allocator@U?$pair@PAVCListener@BigRedH@@PAVCMessage@2@@std@@@2@@std@@QAEAAV012@XZ)
0044e260 00000022 .text             CMessageWrangler.obj(??0?$generic_iterator@$0A@@?$__list_deleter@U?$pair@PAVCListener@BigRedH@@PAVCMessage@2@@std@@V?$allocator@U?$pair@PAVCListener@BigRedH@@PAVCMessage@2@@std@@@2@@std@@QAE@ABV012@@Z)
0044e290 00000029 .text             CMessageWrangler.obj(??RFindListener@CMessageWrangler@BigRedH@@QBE_NABU?$pair@PAVCListener@BigRedH@@PAVCMessage@2@@std@@@Z)
0044e2c0 0000001b .text             CMessageWrangler.obj(??D?$generic_iterator@$0A@@?$__list_deleter@U?$pair@PAVCListener@BigRedH@@PAVCMessage@2@@std@@V?$allocator@U?$pair@PAVCListener@BigRedH@@PAVCMessage@2@@std@@@2@@std@@QBEAAU?$pair@PAVCListene...)
0044e2e0 00000020 .text             CMessageWrangler.obj(??0FindListener@CMessageWrangler@BigRedH@@QAE@PAVCListener@2@@Z)
0044e300 000000d1 .text             CMessageWrangler.obj(?erase@?$__list_deleter@U?$pair@PAVCListener@BigRedH@@PAVCMessage@2@@std@@V?$allocator@U?$pair@PAVCListener@BigRedH@@PAVCMessage@2@@std@@@2@@std@@QAE?AV?$generic_iterator@$0A@@12@V312@0@Z)
0044e3e0 0000001d .text             CMessageWrangler.obj(?sz@?$__list_deleter@U?$pair@PAVCListener@BigRedH@@PAVCMessage@2@@std@@V?$allocator@U?$pair@PAVCListener@BigRedH@@PAVCMessage@2@@std@@@2@@std@@QAEAAIXZ)
0044e400 00000016 .text             CMessageWrangler.obj(?second@?$compressed_pair_imp@V?$allocator@U?$pair@PAVCListener@BigRedH@@PAVCMessage@2@@std@@@std@@I$00@details@Metrowerks@@QAEAAIXZ)
0044e420 0000001e .text             CMessageWrangler.obj(?deallocate@?$allocator@Unode@?$__list_deleter@U?$pair@PAVCListener@BigRedH@@PAVCMessage@2@@std@@V?$allocator@U?$pair@PAVCListener@BigRedH@@PAVCMessage@2@@std@@@2@@std@@@std@@QAEXPAUnode@?$_...)
0044e440 00000020 .text             CMessageWrangler.obj(?node_alloc@?$__list_deleter@U?$pair@PAVCListener@BigRedH@@PAVCMessage@2@@std@@V?$allocator@U?$pair@PAVCListener@BigRedH@@PAVCMessage@2@@std@@@2@@std@@QAEAAV?$allocator@Unode@?$__list_delete...)
0044e460 00000016 .text             CMessageWrangler.obj(?first@?$compressed_pair_imp@V?$allocator@Unode@?$__list_deleter@U?$pair@PAVCListener@BigRedH@@PAVCMessage@2@@std@@V?$allocator@U?$pair@PAVCListener@BigRedH@@PAVCMessage@2@@std@@@2@@std@@@st...)
0044e480 00000015 .text             CMessageWrangler.obj(?destroy@?$allocator@U?$pair@PAVCListener@BigRedH@@PAVCMessage@2@@std@@@std@@QAEXPAU?$pair@PAVCListener@BigRedH@@PAVCMessage@2@@2@@Z)
0044e4a0 0000001d .text             CMessageWrangler.obj(?alloc@?$__list_deleter@U?$pair@PAVCListener@BigRedH@@PAVCMessage@2@@std@@V?$allocator@U?$pair@PAVCListener@BigRedH@@PAVCMessage@2@@std@@@2@@std@@QAEAAV?$allocator@U?$pair@PAVCListener@BigRe...)
0044e4c0 00000016 .text             CMessageWrangler.obj(?first@?$compressed_pair_imp@V?$allocator@U?$pair@PAVCListener@BigRedH@@PAVCMessage@2@@std@@@std@@I$00@details@Metrowerks@@QAEAAV?$allocator@U?$pair@PAVCListener@BigRedH@@PAVCMessage@2@@std@...)
0044e4e0 00000025 .text             CMessageWrangler.obj(?remove_nodes@?$__list_deleter@U?$pair@PAVCListener@BigRedH@@PAVCMessage@2@@std@@V?$allocator@U?$pair@PAVCListener@BigRedH@@PAVCMessage@2@@std@@@2@@std@@CAXPAUnode_base@12@0@Z)
0044e510 0000000a .text             CMessageWrangler.obj(?__iterator2pointer@?$__list_deleter@U?$pair@PAVCListener@BigRedH@@PAVCMessage@2@@std@@V?$allocator@U?$pair@PAVCListener@BigRedH@@PAVCMessage@2@@std@@@2@@std@@SAPAUnode@12@AAV?$generic_itera...)
0044e520 00000033 .text             CFSLocalFileRefWin.obj(??1?$auto_ptr@VCInStream@BigRedH@@@std@@QAE@XZ)
0044e560 00000020 .text             CFSLocalFileRefWin.obj(??0?$auto_ptr@VCInStream@BigRedH@@@std@@QAE@PAVCInStream@BigRedH@@@Z)
0044e580 00000023 .text             CFSLocalFileRefWin.obj(??4?$auto_ptr@VCInStream@BigRedH@@@std@@QAEAAV01@U?$auto_ptr_ref@VCInStream@BigRedH@@@1@@Z)
0044e5b0 00000044 .text             CFSLocalFileRefWin.obj(?reset@?$auto_ptr@VCInStream@BigRedH@@@std@@QAEXPAVCInStream@BigRedH@@@Z)
0044e600 00000025 .text             CFSLocalFileRefWin.obj(??B?$@VCInStream@BigRedH@@@?$auto_ptr@VCInStream@BigRedH@@@std@@QAE?AU?$auto_ptr_ref@VCInStream@BigRedH@@@3@XZ)
0044e630 0000002b .text             CFSLocalFileRefWin.obj(?release@?$auto_ptr@VCInStream@BigRedH@@@std@@QAEPAVCInStream@BigRedH@@XZ)
0044e660 00000018 .text             CFSLocalFileRefWin.obj(?get@?$auto_ptr@VCInStream@BigRedH@@@std@@QBEPAVCInStream@BigRedH@@XZ)
0044e680 00000033 .text             CMemoryObjectCache.obj(??1?$auto_ptr@VCMemoryObjectCache@BigRedH@@@std@@QAE@XZ)
0044e6c0 00000020 .text             CMemoryObjectCache.obj(??0?$auto_ptr@VCMemoryObjectCache@BigRedH@@@std@@QAE@PAVCMemoryObjectCache@BigRedH@@@Z)
0044e6e0 00000058 .text             CMemoryObjectCache.obj(??_ECFlattenable@BigRedH@@UAE@I@Z)
0044e740 00000028 .text             CMemoryObjectCache.obj
0044e770 00000034 .text             CFlattenable.obj(??0CFlattenable@BigRedH@@QAE@XZ)
0044e7b0 00000032 .text             CFlattenable.obj(??1CFlattenable@BigRedH@@UAE@XZ)
0044e7f0 00000064 .text             CFlattenable.obj(?GetInStream@CFlattenable@BigRedH@@IAEAAVCInStream@2@XZ)
0044e860 00000034 .text             CFlattenable.obj(?AttachInStream@CFlattenable@BigRedH@@UAEXAAV?$auto_ptr@VCInStream@BigRedH@@@std@@@Z)
0044e8a0 0000002c .text             CFlattenable.obj(?AddListener@CInStream@BigRedH@@QAEXAAVCListener@2@@Z)
0044e8d0 00000018 .text             CFlattenable.obj(??C?$auto_ptr@VCInStream@BigRedH@@@std@@QBEPAVCInStream@BigRedH@@XZ)
0044e8f0 00000029 .text             CFlattenable.obj(??4?$auto_ptr@VCInStream@BigRedH@@@std@@QAEAAV01@AAV01@@Z)
0044e920 00000147 .text             CFlattenable.obj(?ListenToMessage@CFlattenable@BigRedH@@MAEXABVCMessage@2@@Z)
0044ea70 00000025 .text             CFlattenable.obj(?IsSourceFor@CInStream@BigRedH@@QAE_NABVCMessage@2@@Z)
0044eaa0 00000022 .text             CFlattenable.obj(?Create@?$TObjectFunctor@VCStringObject@BigRedH@@VCFlattenable@2@@BigRedH@@SAPAVCFlattenable@2@XZ)
0044ead0 00000022 .text             CFlattenable.obj(?Create@?$TObjectFunctor@VCResourceList@BigRedH@@VCFlattenable@2@@BigRedH@@SAPAVCFlattenable@2@XZ)
0044eb00 00000027 .text             CGenericObject.obj(?Close@CInStream@BigRedH@@QAEXXZ)
0044eb30 00000029 .text             CGenericObject.obj(?IsEOF@CInStream@BigRedH@@QAE_NXZ)
0044eb60 00000029 .text             CGenericObject.obj(?IsOpen@CInStream@BigRedH@@QAE_NXZ)
0044eb90 00000039 .text             CStringObject.obj(??0CStringObject@BigRedH@@QAE@XZ)
0044ebd0 00000032 .text             CStringObject.obj(??1CStringObject@BigRedH@@UAE@XZ)
0044ec10 000000d1 .text             CStringObject.obj(?AttachInStream@CStringObject@BigRedH@@MAEXAAV?$auto_ptr@VCInStream@BigRedH@@@std@@@Z)
0044ecf0 000000e5 .text             CStringObject.obj(?ListenToMessage@CStringObject@BigRedH@@MAEXABVCMessage@2@@Z)
0044ede0 00000186 .text             CStringObject.obj(?TryToReadSomeMore@CStringObject@BigRedH@@AAEXXZ)
0044ef70 00000058 .text             CStringObject.obj(??_ECStringObject@BigRedH@@UAE@I@Z)
0044efd0 0000003c .text             CResourceList.obj(??0CResourceList@BigRedH@@QAE@XZ)
0044f010 0000001e .text             CResourceList.obj(??1?$vector@UListEntry@CResourceList@BigRedH@@V?$allocator@UListEntry@CResourceList@BigRedH@@@std@@@std@@QAE@XZ)
0044f030 0000001e .text             CResourceList.obj(??1?$__vector_imp@UListEntry@CResourceList@BigRedH@@V?$allocator@UListEntry@CResourceList@BigRedH@@@std@@$0A@@std@@QAE@XZ)
0044f050 0000001e .text             CResourceList.obj(??0?$vector@UListEntry@CResourceList@BigRedH@@V?$allocator@UListEntry@CResourceList@BigRedH@@@std@@@std@@QAE@XZ)
0044f070 0000001e .text             CResourceList.obj(??0?$__vector_imp@UListEntry@CResourceList@BigRedH@@V?$allocator@UListEntry@CResourceList@BigRedH@@@std@@$0A@@std@@IAE@XZ)
0044f090 00000034 .text             CResourceList.obj(??0?$__vector_deleter@UListEntry@CResourceList@BigRedH@@V?$allocator@UListEntry@CResourceList@BigRedH@@@std@@@std@@QAE@XZ)
0044f0d0 00000023 .text             CResourceList.obj(??0?$compressed_pair@V?$allocator@UListEntry@CResourceList@BigRedH@@@std@@I@Metrowerks@@QAE@I@Z)
0044f100 00000028 .text             CResourceList.obj(??0?$compressed_pair_imp@V?$allocator@UListEntry@CResourceList@BigRedH@@@std@@I$00@details@Metrowerks@@QAE@I@Z)
0044f130 00000016 .text             CResourceList.obj(??0?$allocator@UListEntry@CResourceList@BigRedH@@@std@@QAE@XZ)
0044f150 00000054 .text             CResourceList.obj(??1CResourceList@BigRedH@@UAE@XZ)
0044f1b0 000000d4 .text             CResourceList.obj(?AttachInStream@CResourceList@BigRedH@@MAEXAAV?$auto_ptr@VCInStream@BigRedH@@@std@@@Z)
0044f290 000000e8 .text             CResourceList.obj(?ListenToMessage@CResourceList@BigRedH@@MAEXABVCMessage@2@@Z)
0044f380 000000ab .text             CResourceList.obj(?TryToReadSomeMore@CResourceList@BigRedH@@AAEXXZ)
0044f430 00000020 .text             CResourceList.obj(?push_back@?$vector@UListEntry@CResourceList@BigRedH@@V?$allocator@UListEntry@CResourceList@BigRedH@@@std@@@std@@QAEXABUListEntry@CResourceList@BigRedH@@@Z)
0044f450 0000002b .text             CResourceList.obj(?push_back@?$__vector_imp@UListEntry@CResourceList@BigRedH@@V?$allocator@UListEntry@CResourceList@BigRedH@@@std@@$0A@@std@@IAEXABUListEntry@CResourceList@BigRedH@@@Z)
0044f480 00000031 .text             CResourceList.obj(?end@?$__vector_imp@UListEntry@CResourceList@BigRedH@@V?$allocator@UListEntry@CResourceList@BigRedH@@@std@@$0A@@std@@IAEPAUListEntry@CResourceList@BigRedH@@XZ)
0044f4c0 00000019 .text             CResourceList.obj(?data@?$__vector_deleter@UListEntry@CResourceList@BigRedH@@V?$allocator@UListEntry@CResourceList@BigRedH@@@std@@@std@@QAEAAPAUListEntry@CResourceList@BigRedH@@XZ)
0044f4e0 00000028 .text             CResourceList.obj(??5CInStream@BigRedH@@QAEAAV01@AAK@Z)
0044f510 00000020 .text             CResourceList.obj(?reserve@?$vector@UListEntry@CResourceList@BigRedH@@V?$allocator@UListEntry@CResourceList@BigRedH@@@std@@@std@@QAEXI@Z)
0044f530 0000002c .text             CResourceList.obj(?SetExpect@CInStream@BigRedH@@QAEXK@Z)
0044f560 00000058 .text             CResourceList.obj(??_ECResourceList@BigRedH@@UAE@I@Z)
0044f5c0 00000325 .text             CResourceList.obj(?insert@?$__vector_imp@UListEntry@CResourceList@BigRedH@@V?$allocator@UListEntry@CResourceList@BigRedH@@@std@@$0A@@std@@IAEXPAUListEntry@CResourceList@BigRedH@@IABU345@@Z)
0044f8f0 00000022 .text             CResourceList.obj(?swap@?$__vector_deleter@UListEntry@CResourceList@BigRedH@@V?$allocator@UListEntry@CResourceList@BigRedH@@@std@@@std@@QAEXAAV12@@Z)
0044f920 00000044 .text             CResourceList.obj(?swap@?$@UListEntry@CResourceList@BigRedH@@V?$allocator@UListEntry@CResourceList@BigRedH@@@std@@@5@YAXAAV?$__vector_deleter@UListEntry@CResourceList@BigRedH@@V?$allocator@UListEntry@CResourceLi...)
0044f970 0000002a .text             CResourceList.obj(?swap@?$@I@std@@YAXAAI0@Z)
0044f9a0 0000002a .text             CResourceList.obj(?swap@?$@PAUListEntry@CResourceList@BigRedH@@@std@@YAXAAPAU123@0@Z)
0044f9d0 00000010 .text             CResourceList.obj(?swap@?$@V?$allocator@UListEntry@CResourceList@BigRedH@@@std@@I@Metrowerks@@YAXAAV?$compressed_pair@V?$allocator@UListEntry@CResourceList@BigRedH@@@std@@I@3@0@Z)
0044f9e0 00000020 .text             CResourceList.obj(?swap@?$compressed_pair@V?$allocator@UListEntry@CResourceList@BigRedH@@@std@@I@Metrowerks@@QAEXAAV12@@Z)
0044fa00 00000022 .text             CResourceList.obj(?swap@?$compressed_pair_imp@V?$allocator@UListEntry@CResourceList@BigRedH@@@std@@I$00@details@Metrowerks@@QAEXAAV123@@Z)
0044fa30 0000001d .text             CResourceList.obj(?begin@?$__vector_imp@UListEntry@CResourceList@BigRedH@@V?$allocator@UListEntry@CResourceList@BigRedH@@@std@@$0A@@std@@IAEPAUListEntry@CResourceList@BigRedH@@XZ)
0044fa50 00000028 .text             CResourceList.obj(?allocate@?$allocator@UListEntry@CResourceList@BigRedH@@@std@@QAEPAUListEntry@CResourceList@BigRedH@@IPBX@Z)
0044fa80 0000001d .text             CResourceList.obj(?cap@?$__vector_deleter@UListEntry@CResourceList@BigRedH@@V?$allocator@UListEntry@CResourceList@BigRedH@@@std@@@std@@QAEAAIXZ)
0044faa0 00000016 .text             CResourceList.obj(?second@?$compressed_pair_imp@V?$allocator@UListEntry@CResourceList@BigRedH@@@std@@I$00@details@Metrowerks@@QAEAAIXZ)
0044fac0 00000039 .text             CResourceList.obj(??0?$__vector_deleter@UListEntry@CResourceList@BigRedH@@V?$allocator@UListEntry@CResourceList@BigRedH@@@std@@@std@@QAE@ABV?$allocator@UListEntry@CResourceList@BigRedH@@@1@@Z)
0044fb00 00000026 .text             CResourceList.obj(??0?$compressed_pair@V?$allocator@UListEntry@CResourceList@BigRedH@@@std@@I@Metrowerks@@QAE@ABV?$allocator@UListEntry@CResourceList@BigRedH@@@std@@I@Z)
0044fb30 0000002b .text             CResourceList.obj(??0?$compressed_pair_imp@V?$allocator@UListEntry@CResourceList@BigRedH@@@std@@I$00@details@Metrowerks@@QAE@ABV?$allocator@UListEntry@CResourceList@BigRedH@@@std@@I@Z)
0044fb60 00000018 .text             CResourceList.obj(??0?$allocator@UListEntry@CResourceList@BigRedH@@@std@@QAE@ABV01@@Z)
0044fb80 00000016 .text             CResourceList.obj(?fill_n@?$@UListEntry@CResourceList@BigRedH@@IU123@@std@@YAXPAU123@IABU123@@Z)
0044fba0 00000022 .text             CResourceList.obj(?fill_n@?$__fill_n@UListEntry@CResourceList@BigRedH@@I$0A@@std@@SAXPAUListEntry@CResourceList@BigRedH@@IABU345@@Z)
0044fbd0 00000030 .text             CResourceList.obj(??4ListEntry@CResourceList@BigRedH@@QAEAAU012@ABU012@@Z)
0044fc00 00000018 .text             CResourceList.obj(?copy_backward@?$@UListEntry@CResourceList@BigRedH@@@std@@YAPAU123@PAU123@00@Z)
0044fc20 00000025 .text             CResourceList.obj(?copy_backward@?$__copy_backward@UListEntry@CResourceList@BigRedH@@$0A@$0A@@std@@SAPAUListEntry@CResourceList@BigRedH@@PAU345@00@Z)
0044fc50 00000064 .text             CResourceList.obj(?construct@?$allocator@UListEntry@CResourceList@BigRedH@@@std@@QAEXPAUListEntry@CResourceList@BigRedH@@ABU345@@Z)
0044fcc0 0000001d .text             CResourceList.obj(?alloc@?$__vector_deleter@UListEntry@CResourceList@BigRedH@@V?$allocator@UListEntry@CResourceList@BigRedH@@@std@@@std@@QAEAAV?$allocator@UListEntry@CResourceList@BigRedH@@@2@XZ)
0044fce0 00000016 .text             CResourceList.obj(?first@?$compressed_pair_imp@V?$allocator@UListEntry@CResourceList@BigRedH@@@std@@I$00@details@Metrowerks@@QAEAAV?$allocator@UListEntry@CResourceList@BigRedH@@@std@@XZ)
0044fd00 0000001d .text             CResourceList.obj(?capacity@?$__vector_imp@UListEntry@CResourceList@BigRedH@@V?$allocator@UListEntry@CResourceList@BigRedH@@@std@@$0A@@std@@IBEIXZ)
0044fd20 0000001d .text             CResourceList.obj(?cap@?$__vector_deleter@UListEntry@CResourceList@BigRedH@@V?$allocator@UListEntry@CResourceList@BigRedH@@@std@@@std@@QBEABIXZ)
0044fd40 00000016 .text             CResourceList.obj(?second@?$compressed_pair_imp@V?$allocator@UListEntry@CResourceList@BigRedH@@@std@@I$00@details@Metrowerks@@QBEABIXZ)
0044fd60 00000024 .text             CResourceList.obj(?max_size@?$__vector_imp@UListEntry@CResourceList@BigRedH@@V?$allocator@UListEntry@CResourceList@BigRedH@@@std@@$0A@@std@@IBEIXZ)
0044fd90 0000001d .text             CResourceList.obj(?max_size@?$allocator@UListEntry@CResourceList@BigRedH@@@std@@QBEIXZ)
0044fdb0 0000001d .text             CResourceList.obj(?alloc@?$__vector_deleter@UListEntry@CResourceList@BigRedH@@V?$allocator@UListEntry@CResourceList@BigRedH@@@std@@@std@@QBEABV?$allocator@UListEntry@CResourceList@BigRedH@@@2@XZ)
0044fdd0 00000016 .text             CResourceList.obj(?first@?$compressed_pair_imp@V?$allocator@UListEntry@CResourceList@BigRedH@@@std@@I$00@details@Metrowerks@@QBEABV?$allocator@UListEntry@CResourceList@BigRedH@@@std@@XZ)
0044fdf0 00000105 .text             CResourceList.obj(?reserve@?$__vector_imp@UListEntry@CResourceList@BigRedH@@V?$allocator@UListEntry@CResourceList@BigRedH@@@std@@$0A@@std@@IAEXI@Z)
0044ff00 0000004e .text             CResourceList.obj(??1?$__vector_deleter@UListEntry@CResourceList@BigRedH@@V?$allocator@UListEntry@CResourceList@BigRedH@@@std@@@std@@QAE@XZ)
0044ff50 0000001e .text             CResourceList.obj(?deallocate@?$allocator@UListEntry@CResourceList@BigRedH@@@std@@QAEXPAUListEntry@CResourceList@BigRedH@@I@Z)
0044ff70 00000065 .text             CResourceList.obj(?clear@?$__vector_deleter@UListEntry@CResourceList@BigRedH@@V?$allocator@UListEntry@CResourceList@BigRedH@@@std@@@std@@QAEXXZ)
0044ffe0 00000015 .text             CResourceList.obj(?destroy@?$allocator@UListEntry@CResourceList@BigRedH@@@std@@QAEXPAUListEntry@CResourceList@BigRedH@@@Z)
00450000 00000065 .rdata            TrackerServ.cp
00450065 00000001 .rdata            TrackerServ.cp
00450066 00000001 .rdata            TrackerServ.cp
00450067 00000001 .rdata            TrackerServ.cp
00450068 00000001 .rdata            TrackerServ.cp
00450069 00000051 .rdata            TrackerServ.cp
004500ba 00000001 .rdata            TrackerServ.cp
004500bb 00000001 .rdata            TrackerServ.cp
004500bc 00000001 .rdata            TrackerServ.cp
004500bd 000000a5 .rdata            TrackerServ.cp
00450162 00000001 .rdata            TrackerServ.cp
00450163 00000001 .rdata            TrackerServ.cp
00450164 00000001 .rdata            TrackerServ.cp
00450165 00000055 .rdata            TrackerServ.cp
004501ba 00000001 .rdata            TrackerServ.cp
004501bb 00000105 .rdata            TrackerServ.cp
004502c0 00000001 .rdata            TrackerServ.cp
004502c1 00000001 .rdata            TrackerServ.cp
004502c2 00000001 .rdata            TrackerServ.cp
004502c3 00000001 .rdata            TrackerServ.cp
004502c4 00000001 .rdata            TrackerServ.cp
004502c5 00000001 .rdata            TrackerServ.cp
004502c6 00000001 .rdata            TrackerServ.cp
004502c7 00000043 .rdata            TrackerServ.cp
0045030a 00000001 .rdata            TrackerServ.cp
0045030b 00000001 .rdata            TrackerServ.cp
0045030c 00000091 .rdata            TrackerServ.cp
0045039d 00000001 .rdata            TrackerServ.cp
0045039e 00000001 .rdata            TrackerServ.cp
0045039f 00000001 .rdata            TrackerServ.cp
004503a0 00000001 .rdata            TrackerServ.cp
004503a1 00000001 .rdata            TrackerServ.cp
004503a2 0000004b .rdata            TrackerServ.cp
004503ed 00000001 .rdata            TrackerServ.cp
004503ee 00000001 .rdata            TrackerServ.cp
004503ef 0000004b .rdata            TrackerServ.cp
0045043a 00000001 .rdata            TrackerServ.cp
0045043b 00000001 .rdata            TrackerServ.cp
0045043c 0000009f .rdata            TrackerServ.cp
004504db 0000004b .rdata            TrackerServ.cp
00450526 0000004b .rdata            TrackerServ.cp
00450571 00000001 .rdata            TrackerServ.cp
00450572 000000a7 .rdata            TrackerServ.cp
00450619 00000001 .rdata            TrackerServ.cp
0045061a 00000077 .rdata            TrackerServ.cp
00450691 0000004b .rdata            TrackerServ.cp
004506dc 00000077 .rdata            TrackerServ.cp
00450753 0000004b .rdata            TrackerServ.cp
0045079e 00000001 .rdata            TrackerServ.cp
0045079f 00000001 .rdata            TrackerServ.cp
004507a0 00000001 .rdata            TrackerServ.cp
004507a1 00000001 .rdata            TrackerServ.cp
004507a2 00000001 .rdata            TrackerServ.cp
004507a3 00000001 .rdata            TrackerServ.cp
004507a4 000000df .rdata            TrackerServWindows.cp
00450883 000001ff .rdata            TrackerServWindows.cp
00450a82 00000001 .rdata            TrackerServWindows.cp
00450a83 00000167 .rdata            TrackerServWindows.cp
00450bea 00000167 .rdata            TrackerServWindows.cp
00450d51 00000001 .rdata            TrackerServWindows.cp
00450d52 00000001 .rdata            TrackerServWindows.cp
00450d53 00000001 .rdata            TrackerServWindows.cp
00450d54 00000001 .rdata            TrackerServWindows.cp
00450d55 00000001 .rdata            TrackerServWindows.cp
00450d56 00000001 .rdata            TrackerServWindows.cp
00450d57 00000001 .rdata            TrackerServWindows.cp
00450d58 000001cf .rdata            TrackerServWindows.cp
00450f27 00000001 .rdata            TrackerServWindows.cp
00450f28 00000001 .rdata            TrackerServWindows.cp
00450f29 00000001 .rdata            TrackerServWindows.cp
00450f2a 00000001 .rdata            TrackerServWindows.cp
00450f2b 00000001 .rdata            TrackerServWindows.cp
00450f2c 00000001 .rdata            TrackerServWindows.cp
00450f2d 00000001 .rdata            TrackerServWindows.cp
00450f2e 00000001 .rdata            TrackerServWindows.cp
00450f2f 00000001 .rdata            TrackerServWindows.cp
00450f30 00000001 .rdata            TrackerServViews.cp
00450f31 00000001 .rdata            TrackerServViews.cp
00450f32 00000001 .rdata            TrackerServViews.cp
00450f33 00000001 .rdata            TrackerServViews.cp
00450f34 00000001 .rdata            TrackerServViews.cp
00450f35 00000001 .rdata            TrackerServViews.cp
00450f36 00000001 .rdata            TrackerServViews.cp
00450f37 00000001 .rdata            TrackerServViews.cp
00450f38 00000001 .rdata            TrackerServViews.cp
00450f39 00000001 .rdata            TrackerServViews.cp
00450f3a 00000001 .rdata            TrackerServViews.cp
00450f3b 00000001 .rdata            TrackerServViews.cp
00450f3c 00000001 .rdata            TrackerServViews.cp
00450f3d 00000001 .rdata            TrackerServViews.cp
00450f3e 00000001 .rdata            TrackerServViews.cp
00450f3f 00000001 .rdata            TrackerServViews.cp
00450f40 00000001 .rdata            TrackerServViews.cp
00450f41 00000001 .rdata            TrackerServViews.cp
00450f42 00000001 .rdata            TrackerServViews.cp
00450f43 00000001 .rdata            TrackerServViews.cp
00450f44 00000001 .rdata            TrackerServViews.cp
00450f45 00000001 .rdata            TrackerServViews.cp
00450f46 00000001 .rdata            TrackerServViews.cp
00450f47 00000001 .rdata            TrackerServViews.cp
00450f48 00000001 .rdata            TrackerServViews.cp
00450f49 00000001 .rdata            TrackerServViews.cp
00450f4a 00000001 .rdata            TrackerServViews.cp
00450f4b 00000001 .rdata            TrackerServViews.cp
00450f4c 00000001 .rdata            TrackerServViews.cp
00450f4d 00000001 .rdata            TrackerServViews.cp
00450f4e 00000001 .rdata            TrackerServViews.cp
00450f4f 00000001 .rdata            TrackerServViews.cp
00450f50 00000001 .rdata            TrackerServViews.cp
00450f51 00000001 .rdata            TrackerServViews.cp
00450f52 00000001 .rdata            TrackerServViews.cp
00450f53 00000001 .rdata            TrackerServViews.cp
00450f54 0000001d .rdata            TrackerServViews.cp
00450f71 00000001 .rdata            TrackerServViews.cp
00450f72 00000001 .rdata            TrackerServViews.cp
00450f73 00000001 .rdata            TrackerServViews.cp
00450f74 00000001 .rdata            TrackerServViews.cp
00450f75 0000001d .rdata            TrackerServViews.cp
00450f92 00000001 .rdata            TrackerServViews.cp
00450f93 00000001 .rdata            TrackerServViews.cp
00450f94 00000001 .rdata            TrackerServViews.cp
00450f95 00000001 .rdata            TrackerServViews.cp
00450f96 00000001 .rdata            TrackerServViews.cp
00450f97 00000001 .rdata            TrackerServViews.cp
00450f98 00000001 .rdata            TrackerServViews.cp
00450f99 00000001 .rdata            TrackerServViews.cp
00450f9a 00000001 .rdata            TrackerServViews.cp
00450f9b 00000001 .rdata            TrackerServViews.cp
00450f9c 00000001 .rdata            TrackerServViews.cp
00450f9d 0000003b .rdata            UOperatingSystem(W).obj
00450fd8 0000001d .rdata            UOperatingSystem(W).obj
00450ff5 00000001 .rdata            UOperatingSystem(W).obj
00450ff6 00000033 .rdata            UOperatingSystem(W).obj
00451029 00000001 .rdata            UTransport.obj
0045102a 00000001 .rdata            UTransport.obj
0045102b 00000001 .rdata            UTransport.obj
0045102c 00000001 .rdata            UTransport.obj
0045102d 00000001 .rdata            UTransport.obj
0045102e 00000001 .rdata            UTransport.obj
0045102f 00000001 .rdata            UTransport.obj
00451030 00000001 .rdata            UTransport.obj
00451031 00000001 .rdata            UTransport.obj
00451032 00000001 .rdata            UTransport.obj
00451033 00000001 .rdata            UTransport.obj
00451034 00000001 .rdata            UTransport.obj
00451035 00000001 .rdata            UTransport.obj
00451036 00000001 .rdata            UTransport.obj
00451037 00000001 .rdata            UTransport.obj
00451038 00000001 .rdata            UTransport.obj
00451039 00000001 .rdata            UTransport.obj
0045103a 00000001 .rdata            UTransport.obj
0045103b 00000001 .rdata            UTransport.obj
0045103c 00000001 .rdata            UTransport.obj
0045103d 00000001 .rdata            UError.obj
0045103e 0000006f .rdata            UError.obj
004510ad 00000001 .rdata            UError.obj
004510ae 00000001 .rdata            UError.obj
004510af 00000001 .rdata            UError.obj
004510b0 00000001 .rdata            UError(W).obj
004510b1 00000061 .rdata            UError(W).obj
00451112 00000001 .rdata            UError(W).obj
00451113 00000001 .rdata            UError(W).obj
00451114 00000001 .rdata            UError(W).obj
00451115 00000001 .rdata            UError(W).obj
00451116 00000001 .rdata            UError(W).obj
00451117 00000001 .rdata            stackall.obj
00451118 00000001 .rdata            stackall.obj
00451119 00000001 .rdata            UMemory.obj
0045111a 00000001 .rdata            UMemory.obj
0045111b 00000001 .rdata            UMemory.obj
0045111c 00000001 .rdata            UMemory.obj
0045111d 00000001 .rdata            UMemory.obj
0045111e 00000001 .rdata            UMemory.obj
0045111f 00000001 .rdata            UMemory.obj
00451120 00000001 .rdata            UMemory.obj
00451121 00000001 .rdata            UMemory.obj
00451122 00000001 .rdata            UMemory.obj
00451123 00000001 .rdata            UMemory.obj
00451124 00000001 .rdata            UMemory.obj
00451125 00000001 .rdata            UMemory.obj
00451126 00000001 .rdata            UMemory.obj
00451127 00000001 .rdata            UMemory.obj
00451128 00000001 .rdata            UMemory.obj
00451129 00000029 .rdata            UMemory.obj
00451152 00000001 .rdata            UText.obj
00451153 00000001 .rdata            UText.obj
00451154 00000001 .rdata            UText.obj
00451155 00000001 .rdata            UText.obj
00451156 00000001 .rdata            UText.obj
00451157 00000001 .rdata            UText.obj
00451158 00000001 .rdata            UText.obj
00451159 00000001 .rdata            UText.obj
0045115a 00000001 .rdata            UText.obj
0045115b 00000001 .rdata            UText.obj
0045115c 00000150 .rdata            UText.obj(@8627)
004512ac 00000001 .rdata            UText.obj
004512ad 00000001 .rdata            UText.obj
004512ae 00000001 .rdata            UMemory(W).obj
004512af 00000001 .rdata            UMemory(W).obj
004512b0 00000001 .rdata            UMemory(W).obj
004512b1 00000001 .rdata            UMemory(W).obj
004512b2 00000001 .rdata            UMemory(W).obj
004512b3 00000001 .rdata            UMemory(W).obj
004512b4 00000001 .rdata            UMemory(W).obj
004512b5 00000001 .rdata            UMemory(W).obj
004512b6 00000001 .rdata            UMemory(W).obj
004512b7 00000001 .rdata            UMemory(W).obj
004512b8 00000001 .rdata            UMemory(W).obj
004512b9 00000001 .rdata            UMemory(W).obj
004512ba 00000001 .rdata            UMemory(W).obj
004512bb 00000001 .rdata            UMemory(W).obj
004512bc 00000001 .rdata            UMemory(W).obj
004512bd 00000001 .rdata            UMemory(W).obj
004512be 00000001 .rdata            UMemory(W).obj
004512bf 00000001 .rdata            UMemory(W).obj
004512c0 00000001 .rdata            UMemory(W).obj
004512c1 00000001 .rdata            UMemory(W).obj
004512c2 00000001 .rdata            UMemory(W).obj
004512c3 00000001 .rdata            UMemory(W).obj
004512c4 00000001 .rdata            UMemory(W).obj
004512c5 00000001 .rdata            UMemory(W).obj
004512c6 00000001 .rdata            UMemory(W).obj
004512c7 00000001 .rdata            UMemory(W).obj
004512c8 00000001 .rdata            UMemory(W).obj
004512c9 00000001 .rdata            CPtrList.obj
004512ca 00000001 .rdata            CPtrList.obj
004512cb 00000001 .rdata            CPtrList.obj
004512cc 00000001 .rdata            CPtrList.obj
004512cd 0000001d .rdata            CPtrList.obj
004512ea 0000001d .rdata            CPtrList.obj
00451307 00000001 .rdata            CPtrList.obj
00451308 00000001 .rdata            CPtrList.obj
00451309 00000001 .rdata            CApplication.obj
0045130a 00000001 .rdata            CApplication.obj
0045130b 00000001 .rdata            CApplication.obj
0045130c 00000001 .rdata            CApplication.obj
0045130d 00000001 .rdata            CApplication.obj
0045130e 00000001 .rdata            CApplication.obj
0045130f 00000001 .rdata            CApplication.obj
00451310 00000001 .rdata            CApplication.obj
00451311 00000019 .rdata            CApplication.obj
0045132a 00000001 .rdata            CApplication.obj
0045132b 00000001 .rdata            CApplication.obj
0045132c 00000001 .rdata            CApplication.obj
0045132d 00000001 .rdata            CApplication.obj
0045132e 00000001 .rdata            CApplication.obj
00451330 00000094 .rdata            CApplication.obj(@7651)
004513c4 00000001 .rdata            CApplication.obj
004513c5 00000001 .rdata            CApplication.obj
004513c6 00000001 .rdata            CApplication.obj
004513c7 00000001 .rdata            UTimer(W).obj
004513c8 00000001 .rdata            UTimer(W).obj
004513c9 00000001 .rdata            UTimer(W).obj
004513ca 00000001 .rdata            UTimer(W).obj
004513cb 00000001 .rdata            UTimer(W).obj
004513cc 00000001 .rdata            UTimer(W).obj
004513cd 00000001 .rdata            UTimer(W).obj
004513ce 0000001d .rdata            UTimer(W).obj
004513eb 00000001 .rdata            MsgBox.obj
004513ec 00000043 .rdata            MsgBox.obj
0045142f 00000001 .rdata            MsgBox.obj
00451430 00000207 .rdata            MsgBox.obj
00451637 00000001 .rdata            MsgBox.obj
00451638 00000001 .rdata            UWindow(W).obj
00451639 00000001 .rdata            UWindow(W).obj
0045163c 0000000c .rdata            UWindow(W).obj(@7634)
00451648 0000009b .rdata            UWindow(W).obj
004516e3 00000001 .rdata            UWindow(W).obj
004516e4 00000001 .rdata            UWindow(W).obj
004516e5 00000001 .rdata            UWindow(W).obj
004516e6 00000001 .rdata            UWindow(W).obj
004516e7 00000001 .rdata            UWindow(W).obj
004516e8 00000001 .rdata            UWindow(W).obj
004516e9 00000001 .rdata            UWindow(W).obj
004516ea 00000001 .rdata            UWindow(W).obj
004516eb 00000001 .rdata            UWindow(W).obj
004516ec 00000001 .rdata            UWindow(W).obj
004516f0 0000002c .rdata            UWindow(W).obj(@8004)
0045171c 00000001 .rdata            UWindow(W).obj
0045171d 00000001 .rdata            UWindow(W).obj
0045171e 00000001 .rdata            UWindow(W).obj
0045171f 00000001 .rdata            UWindow(W).obj
00451720 00000001 .rdata            UWindow(W).obj
00451721 00000001 .rdata            UWindow(W).obj
00451722 00000001 .rdata            UWindow(W).obj
00451723 00000001 .rdata            UWindow(W).obj
00451724 00000001 .rdata            UWindow(W).obj
00451725 00000001 .rdata            UWindow(W).obj
00451726 00000001 .rdata            UWindow(W).obj
00451727 00000001 .rdata            UWindow(W).obj
00451728 00000001 .rdata            UWindow(W).obj
00451729 00000001 .rdata            UWindow(W).obj
0045172a 00000001 .rdata            UWindow(W).obj
0045172b 00000001 .rdata            UWindow(W).obj
0045172c 00000001 .rdata            UWindow(W).obj
0045172d 000000d3 .rdata            UWindow(W).obj
00451800 00000001 .rdata            UWindow(W).obj
00451801 00000001 .rdata            UWindow(W).obj
00451802 00000001 .rdata            UWindow(W).obj
00451803 000004c5 .rdata            UWindow(W).obj
00451cc8 00000001 .rdata            UWindow(W).obj
00451cc9 00000075 .rdata            UWindow(W).obj
00451d3e 00000001 .rdata            UWindow(W).obj
00451d3f 00000001 .rdata            UWindow(W).obj
00451d40 00000001 .rdata            UWindow(W).obj
00451d41 00000001 .rdata            UWindow(W).obj
00451d42 00000001 .rdata            UWindow(W).obj
00451d43 00000001 .rdata            UWindow(W).obj
00451d44 00000001 .rdata            UWindow(W).obj
00451d45 00000001 .rdata            UWindow(W).obj
00451d46 00000001 .rdata            UWindow(W).obj
00451d47 00000001 .rdata            UWindow(W).obj
00451d48 00000001 .rdata            UWindow(W).obj
00451d49 00000001 .rdata            UWindow(W).obj
00451d4a 00000001 .rdata            UWindow(W).obj
00451d4b 00000001 .rdata            UWindow(W).obj
00451d4c 00000001 .rdata            UWindow(W).obj
00451d4d 00000001 .rdata            UWindow(W).obj
00451d4e 00000001 .rdata            UWindow(W).obj
00451d4f 00000001 .rdata            UWindow(W).obj
00451d50 00000001 .rdata            UWindow(W).obj
00451d51 00000001 .rdata            UWindow(W).obj
00451d52 00000001 .rdata            UWindow(W).obj
00451d53 00000001 .rdata            UDebug(W).obj
00451d54 00000001 .rdata            UDebug(W).obj
00451d55 00000001 .rdata            UDebug(W).obj
00451d56 00000001 .rdata            UApplication(W).obj
00451d57 00000001 .rdata            UApplication(W).obj
00451d58 00000001 .rdata            UApplication(W).obj
00451d59 00000001 .rdata            UApplication(W).obj
00451d5a 00000001 .rdata            UApplication(W).obj
00451d5b 00000001 .rdata            UApplication(W).obj
00451d5c 00000001 .rdata            UApplication(W).obj
00451d5d 00000001 .rdata            UApplication(W).obj
00451d5e 00000001 .rdata            UApplication(W).obj
00451d5f 00000057 .rdata            UApplication(W).obj
00451db6 00000001 .rdata            UApplication(W).obj
00451db7 00000001 .rdata            UApplication(W).obj
00451db8 00000001 .rdata            UApplication(W).obj
00451db9 00000001 .rdata            UApplication(W).obj
00451dba 00000001 .rdata            UApplication(W).obj
00451dbb 00000001 .rdata            UApplication(W).obj
00451dbc 00000001 .rdata            UApplication(W).obj
00451dbd 00000073 .rdata            UFileSys(W).obj
00451e30 00000001 .rdata            UFileSys(W).obj
00451e31 00000001 .rdata            UFileSys(W).obj
00451e34 00000010 .rdata            UFileSys(W).obj(@7796)
00451e44 00000001 .rdata            UFileSys(W).obj
00451e45 00000001 .rdata            UFileSys(W).obj
00451e46 00000001 .rdata            UFileSys(W).obj
00451e47 00000001 .rdata            UFileSys(W).obj
00451e48 00000001 .rdata            UFileSys(W).obj
00451e49 00000001 .rdata            UFileSys(W).obj
00451e4a 00000001 .rdata            UFileSys(W).obj
00451e4b 00000001 .rdata            UFileSys(W).obj
00451e4c 00000001 .rdata            UFileSys(W).obj
00451e4d 00000001 .rdata            UFileSys(W).obj
00451e4e 00000001 .rdata            UFileSys(W).obj
00451e50 0000000c .rdata            UFileSys(W).obj(@9644)
00451e5c 00000001 .rdata            UFileSys(W).obj
00451e5d 00000001 .rdata            UFileSys(W).obj
00451e5e 00000001 .rdata            UFileSys(W).obj
00451e5f 00000001 .rdata            UFileSys(W).obj
00451e60 00000001 .rdata            UFileSys(W).obj
00451e61 00000001 .rdata            UFileSys(W).obj
00451e62 0000003b .rdata            UFileSys(W).obj
00451e9d 00000001 .rdata            USound.obj
00451e9e 0000007b .rdata            USound.obj
00451f19 00000077 .rdata            CWindow.obj
00451f90 00000001 .rdata            CWindow.obj
00451f91 0000003b .rdata            CWindow.obj
00451fcc 00000001 .rdata            CWindow.obj
00451fcd 00000001 .rdata            CWindow.obj
00451fce 00000001 .rdata            CWindow.obj
00451fcf 00000001 .rdata            CWindow.obj
00451fd0 00000001 .rdata            CWindow.obj
00451fd1 00000001 .rdata            CWindow.obj
00451fd2 00000001 .rdata            CWindow.obj
00451fd3 00000001 .rdata            CWindow.obj
00451fd4 00000001 .rdata            CWindow.obj
00451fd5 00000001 .rdata            CWindow.obj
00451fd6 00000001 .rdata            CWindow.obj
00451fd7 00000001 .rdata            CWindow.obj
00451fd8 00000001 .rdata            CWindow.obj
00451fd9 00000001 .rdata            CWindow.obj
00451fda 00000001 .rdata            CWindow.obj
00451fdb 00000001 .rdata            CWindow.obj
00451fdc 00000001 .rdata            CWindow.obj
00451fdd 00000001 .rdata            CWindow.obj
00451fde 00000001 .rdata            CWindow.obj
00451fdf 00000001 .rdata            CWindow.obj
00451fe0 00000001 .rdata            CWindow.obj
00451fe1 00000001 .rdata            CWindow.obj
00451fe2 00000001 .rdata            CWindow.obj
00451fe3 00000001 .rdata            CWindow.obj
00451fe4 00000001 .rdata            CWindow.obj
00451fe5 00000001 .rdata            CWindow.obj
00451fe6 00000001 .rdata            CWindow.obj
00451fe7 00000001 .rdata            CWindow.obj
00451fe8 00000001 .rdata            CWindow.obj
00451fe9 00000001 .rdata            CWindow.obj
00451fea 00000001 .rdata            CWindow.obj
00451feb 00000001 .rdata            CWindow.obj
00451fec 00000001 .rdata            CWindow.obj
00451fed 00000001 .rdata            CWindow.obj
00451fee 00000001 .rdata            CWindow.obj
00451fef 00000001 .rdata            CWindow.obj
00451ff0 00000001 .rdata            CWindow.obj
00451ff1 00000001 .rdata            CWindow.obj
00451ff2 00000001 .rdata            CWindow.obj
00451ff3 00000001 .rdata            CWindow.obj
00451ff4 00000001 .rdata            CWindow.obj
00451ff5 00000001 .rdata            CWindow.obj
00451ff6 00000049 .rdata            CWindow.obj
0045203f 00000001 .rdata            CWindow.obj
00452040 00000001 .rdata            CWindow.obj
00452041 00000001 .rdata            CWindow.obj
00452042 00000001 .rdata            CWindow.obj
00452043 00000001 .rdata            CWindow.obj
00452044 00000001 .rdata            CWindow.obj
00452045 00000001 .rdata            CWindow.obj
00452046 00000001 .rdata            CWindow.obj
00452047 00000001 .rdata            CWindow.obj
00452048 00000001 .rdata            CWindow.obj
00452049 00000001 .rdata            CWindow.obj
0045204a 00000001 .rdata            CWindow.obj
0045204b 00000001 .rdata            CWindow.obj
0045204c 00000001 .rdata            CWindow.obj
0045204d 00000001 .rdata            CWindow.obj
0045204e 00000001 .rdata            CWindow.obj
0045204f 00000001 .rdata            destroy.obj
00452050 00000001 .rdata            ExceptionX86.obj
00452054 00000008 .rdata            ExceptionX86.obj(@438)
0045205c 00000001 .rdata            ExceptionX86.obj
0045205d 00000001 .rdata            ExceptionX86.obj
00452060 0000004c .rdata            ExceptionX86.obj(@482)
004520ac 00000001 .rdata            ExceptionX86.obj
004520ad 00000001 .rdata            ExceptionX86.obj
004520b0 0000001c .rdata            ExceptionX86.obj(@531)
004520cc 00000001 .rdata            ExceptionX86.obj
004520cd 00000001 .rdata            ExceptionX86.obj
004520d0 0000000c .rdata            ExceptionX86.obj(@558)
004520dc 00000001 .rdata            ExceptionX86.obj
004520dd 00000001 .rdata            ExceptionX86.obj
004520de 00000001 .rdata            ExceptionX86.obj
004520df 00000001 .rdata            ExceptionX86.obj
004520e0 00000001 .rdata            ExceptionX86.obj
004520e1 00000001 .rdata            ExceptionX86.obj
004520e2 00000001 .rdata            ExceptionX86.obj
004520e3 00000001 .rdata            ExceptionX86.obj
004520e4 00000001 .rdata            ExceptionX86.obj
004520e5 00000001 .rdata            ExceptionX86.obj
004520e6 00000001 .rdata            ExceptionX86.obj
004520e8 0000004c .rdata            ExceptionX86.obj(@703)
00452134 00000091 .rdata            ExceptionX86.obj
004521c5 00000001 .rdata            ExceptionX86.obj
004521c6 00000043 .rdata            ExceptionX86.obj
00452209 00000015 .rdata            ExceptionX86.obj
0045221e 00000001 .rdata            ExceptionX86.obj
0045221f 00000001 .rdata            ExceptionX86.obj
00452220 00000001 .rdata            ExceptionX86.obj
00452221 00000019 .rdata            ExceptionX86.obj
0045223c 00000050 .rdata            ExceptionX86.obj(@884)
0045228c 00000050 .rdata            ExceptionX86.obj(@883)
004522dc 00000001 .rdata            ExceptionX86.obj
004522dd 00000001 .rdata            ExceptionX86.obj
004522de 00000001 .rdata            ExceptionX86.obj
004522df 00000001 .rdata            ExceptionX86.obj
004522e0 00000050 .rdata            ExceptionX86.obj(@946)
00452330 00000001 .rdata            ExceptionX86.obj
00452331 00000001 .rdata            ExceptionX86.obj
00452332 00000001 .rdata            ExceptionX86.obj
00452333 00000001 .rdata            ExceptionX86.obj
00452334 00000001 .rdata            ExceptionX86.obj
00452335 00000001 .rdata            ExceptionX86.obj
00452336 00000001 .rdata            UDateTime(W).obj
00452337 00000001 .rdata            UDateTime(W).obj
00452338 00000001 .rdata            UDateTime(W).obj
00452339 00000001 .rdata            UDateTime(W).obj
0045233a 00000001 .rdata            UDateTime(W).obj
0045233b 00000001 .rdata            CView.obj
0045233c 00000001 .rdata            CView.obj
0045233d 00000001 .rdata            CView.obj
0045233e 00000001 .rdata            CView.obj
0045233f 0000003b .rdata            CView.obj
0045237a 00000033 .rdata            CView.obj
004523ad 00000001 .rdata            CView.obj
004523ae 00000001 .rdata            CView.obj
004523af 00000001 .rdata            CView.obj
004523b0 00000001 .rdata            CView.obj
004523b1 00000001 .rdata            CView.obj
004523b2 00000001 .rdata            CView.obj
004523b3 00000001 .rdata            CView.obj
004523b4 00000001 .rdata            CView.obj
004523b5 00000001 .rdata            CView.obj
004523b6 00000001 .rdata            CView.obj
004523b7 00000001 .rdata            CView.obj
004523b8 00000001 .rdata            CView.obj
004523b9 00000001 .rdata            CView.obj
004523ba 00000001 .rdata            CView.obj
004523bb 00000001 .rdata            CView.obj
004523bc 00000001 .rdata            CView.obj
004523bd 00000001 .rdata            CView.obj
004523be 00000001 .rdata            CView.obj
004523bf 00000001 .rdata            CView.obj
004523c0 00000001 .rdata            CView.obj
004523c1 00000001 .rdata            CView.obj
004523c2 00000001 .rdata            CView.obj
004523c3 00000001 .rdata            CView.obj
004523c4 00000001 .rdata            CView.obj
004523c5 00000001 .rdata            CView.obj
004523c6 00000001 .rdata            CView.obj
004523c7 00000001 .rdata            CView.obj
004523c8 00000001 .rdata            CView.obj
004523c9 00000001 .rdata            CView.obj
004523ca 00000001 .rdata            CView.obj
004523cb 00000001 .rdata            CView.obj
004523cc 00000001 .rdata            CView.obj
004523cd 00000001 .rdata            CView.obj
004523ce 00000001 .rdata            CView.obj
004523cf 00000001 .rdata            CView.obj
004523d0 00000001 .rdata            CView.obj
004523d1 00000001 .rdata            CView.obj
004523d2 00000001 .rdata            CView.obj
004523d3 00000001 .rdata            CView.obj
004523d4 00000001 .rdata            CView.obj
004523d5 00000001 .rdata            CView.obj
004523d6 00000001 .rdata            CView.obj
004523d7 00000001 .rdata            CView.obj
004523d8 00000001 .rdata            CView.obj
004523d9 00000001 .rdata            CView.obj
004523da 00000001 .rdata            CView.obj
004523db 00000001 .rdata            CView.obj
004523dc 00000001 .rdata            CView.obj
004523dd 00000001 .rdata            CView.obj
004523de 00000001 .rdata            CView.obj
004523df 00000001 .rdata            CView.obj
004523e0 00000001 .rdata            CView.obj
004523e1 00000001 .rdata            CView.obj
004523e2 00000001 .rdata            CView.obj
004523e3 00000001 .rdata            CView.obj
004523e4 00000001 .rdata            CViewContainer.obj
004523e5 00000001 .rdata            CViewContainer.obj
004523e6 00000001 .rdata            CViewContainer.obj
004523e7 00000001 .rdata            CViewContainer.obj
004523e8 00000001 .rdata            CViewContainer.obj
004523e9 00000001 .rdata            CViewContainer.obj
004523ea 00000001 .rdata            CViewContainer.obj
004523eb 00000001 .rdata            CViewContainer.obj
004523ec 0000001d .rdata            CViewContainer.obj
00452409 00000001 .rdata            CViewContainer.obj
0045240a 00000001 .rdata            CViewContainer.obj
0045240b 00000001 .rdata            CViewContainer.obj
0045240c 00000001 .rdata            CViewContainer.obj
0045240d 00000001 .rdata            CViewContainer.obj
0045240e 0000001d .rdata            CContainerView.obj
0045242b 00000001 .rdata            CContainerView.obj
0045242c 00000001 .rdata            CContainerView.obj
0045242d 00000001 .rdata            CContainerView.obj
0045242e 00000001 .rdata            CContainerView.obj
0045242f 00000093 .rdata            CContainerView.obj
004524c2 00000001 .rdata            CContainerView.obj
004524c3 00000001 .rdata            CContainerView.obj
004524c4 0000002b .rdata            CContainerView.obj
004524ef 00000021 .rdata            CContainerView.obj
00452510 00000001 .rdata            CContainerView.obj
00452511 00000001 .rdata            CContainerView.obj
00452512 00000001 .rdata            CContainerView.obj
00452513 00000001 .rdata            CContainerView.obj
00452514 00000021 .rdata            CContainerView.obj
00452535 00000001 .rdata            CContainerView.obj
00452536 00000001 .rdata            CContainerView.obj
00452537 00000001 .rdata            CContainerView.obj
00452538 00000001 .rdata            CContainerView.obj
00452539 00000001 .rdata            CContainerView.obj
0045253a 00000001 .rdata            CContainerView.obj
0045253b 00000001 .rdata            CContainerView.obj
0045253c 00000001 .rdata            CContainerView.obj
0045253d 00000001 .rdata            CContainerView.obj
0045253e 0000004f .rdata            CContainerView.obj
0045258d 0000004f .rdata            CContainerView.obj
004525dc 00000001 .rdata            CContainerView.obj
004525dd 00000001 .rdata            CContainerView.obj
004525de 00000001 .rdata            CContainerView.obj
004525df 0000002b .rdata            CContainerView.obj
0045260a 00000001 .rdata            CContainerView.obj
0045260b 00000001 .rdata            CContainerView.obj
0045260c 00000001 .rdata            CContainerView.obj
0045260d 00000001 .rdata            CContainerView.obj
0045260e 00000001 .rdata            CContainerView.obj
0045260f 00000001 .rdata            CContainerView.obj
00452610 00000001 .rdata            CContainerView.obj
00452611 00000001 .rdata            CContainerView.obj
00452612 00000001 .rdata            CContainerView.obj
00452613 0000001d .rdata            CTabbedView.obj
00452630 00000001 .rdata            CTabbedView.obj
00452631 0000003b .rdata            CTabbedView.obj
0045266c 00000001 .rdata            CTabbedView.obj
0045266d 00000001 .rdata            CTabbedView.obj
0045266e 00000001 .rdata            CTabbedView.obj
0045266f 00000047 .rdata            CTabbedView.obj
004526b6 00000001 .rdata            CTabbedView.obj
004526b7 00000001 .rdata            CTabbedView.obj
004526b8 00000001 .rdata            CTabbedView.obj
004526b9 00000001 .rdata            CTabbedView.obj
004526ba 00000001 .rdata            CTabbedView.obj
004526bb 00000001 .rdata            CTabbedView.obj
004526bc 00000001 .rdata            CTabbedView.obj
004526bd 00000001 .rdata            CTabbedView.obj
004526be 00000019 .rdata            CTabbedView.obj
004526d7 00000019 .rdata            CTabbedView.obj
004526f0 00000001 .rdata            CTabbedView.obj
004526f1 000001fd .rdata            CTabbedView.obj
004528ee 00000001 .rdata            CTabbedView.obj
004528ef 00000001 .rdata            CTabbedView.obj
004528f0 00000001 .rdata            CTabbedView.obj
004528f1 00000001 .rdata            CTabbedView.obj
004528f2 00000001 .rdata            CTabbedView.obj
004528f3 00000001 .rdata            CTabbedView.obj
004528f4 00000001 .rdata            CTabbedView.obj
004528f5 00000001 .rdata            CTabbedView.obj
004528f6 00000001 .rdata            CTabbedView.obj
004528f7 00000001 .rdata            CTabbedView.obj
004528f8 00000001 .rdata            CTabbedView.obj
004528f9 00000001 .rdata            CTabbedView.obj
004528fa 00000001 .rdata            CTabbedView.obj
004528fb 00000001 .rdata            CTabbedView.obj
004528fc 00000001 .rdata            CTabbedView.obj
004528fd 00000001 .rdata            CTabbedView.obj
004528fe 00000001 .rdata            CTabbedView.obj
004528ff 00000001 .rdata            CTabbedView.obj
00452900 00000001 .rdata            CTabbedView.obj
00452901 00000001 .rdata            CTabbedView.obj
00452902 00000001 .rdata            CTabbedView.obj
00452903 00000001 .rdata            CTabbedView.obj
00452904 00000001 .rdata            CTabbedView.obj
00452905 00000001 .rdata            CTabbedView.obj
00452906 00000001 .rdata            CTabbedView.obj
00452907 00000001 .rdata            CTabbedView.obj
00452908 00000001 .rdata            CTabbedView.obj
00452909 00000001 .rdata            CTabbedView.obj
0045290a 00000001 .rdata            CTabbedView.obj
0045290b 00000001 .rdata            CTabbedView.obj
0045290c 00000019 .rdata            CTabbedView.obj
00452925 00000001 .rdata            CTabbedView.obj
00452926 00000001 .rdata            CTabbedView.obj
00452927 00000001 .rdata            CTabbedView.obj
00452928 00000001 .rdata            CTabbedView.obj
00452929 00000001 .rdata            CTabbedView.obj
0045292a 00000001 .rdata            UGraphics(W).obj
0045292b 00000001 .rdata            UGraphics(W).obj
0045292c 00000001 .rdata            UGraphics(W).obj
0045292d 00000001 .rdata            UGraphics(W).obj
0045292e 00000001 .rdata            UGraphics(W).obj
0045292f 00000001 .rdata            UGraphics(W).obj
00452930 00000001 .rdata            UGraphics(W).obj
00452931 00000001 .rdata            UGraphics(W).obj
00452932 00000001 .rdata            UGraphics(W).obj
00452933 00000001 .rdata            UGraphics(W).obj
00452934 00000001 .rdata            UGraphics(W).obj
00452935 00000001 .rdata            UGraphics(W).obj
00452938 00000034 .rdata            UGraphics(W).obj(@7826)
0045296c 00000001 .rdata            UGraphics(W).obj
0045296d 00000001 .rdata            UGraphics(W).obj
0045296e 00000001 .rdata            UGraphics(W).obj
00452970 0000000c .rdata            UGraphics(W).obj(@8109)
0045297c 00000001 .rdata            UGraphics(W).obj
0045297d 00000001 .rdata            UGraphics(W).obj
0045297e 00000001 .rdata            UGraphics(W).obj
0045297f 00000001 .rdata            UGraphics(W).obj
00452980 00000001 .rdata            UGraphics(W).obj
00452981 00000001 .rdata            UGraphics(W).obj
00452982 00000001 .rdata            UGraphics(W).obj
00452983 00000001 .rdata            UGraphics(W).obj
00452984 00000001 .rdata            UGraphics(W).obj
00452985 00000001 .rdata            UGraphics(W).obj
00452986 00000001 .rdata            UGraphics(W).obj
00452987 00000001 .rdata            UGraphics(W).obj
00452988 00000001 .rdata            UGraphics(W).obj
00452989 00000001 .rdata            UGraphics(W).obj
0045298a 00000019 .rdata            UGraphics(W).obj
004529a3 00000019 .rdata            UGraphics(W).obj
004529bc 00000019 .rdata            UGraphics(W).obj
004529d5 00000001 .rdata            UGraphics(W).obj
004529d6 00000001 .rdata            UGraphics(W).obj
004529d8 00000080 .rdata            UGraphics(W).obj(@9093)
00452a58 00000057 .rdata            UGraphics(W).obj
00452aaf 00000001 .rdata            UGraphics(W).obj
00452ab0 00000001 .rdata            UGraphics(W).obj
00452ab4 00000080 .rdata            UGraphics(W).obj(@9440)
00452b34 00000001 .rdata            UGraphics(W).obj
00452b35 00000001 .rdata            UGraphics(W).obj
00452b36 00000001 .rdata            UGraphics(W).obj
00452b37 00000001 .rdata            UGraphics(W).obj
00452b38 00000001 .rdata            UGraphics(W).obj
00452b39 00000001 .rdata            UGraphics(W).obj
00452b3a 00000001 .rdata            UGraphics(W).obj
00452b3b 00000001 .rdata            UGraphics(W).obj
00452b3c 00000001 .rdata            UGraphics(W).obj
00452b3d 00000001 .rdata            UGraphics(W).obj
00452b3e 00000001 .rdata            UGraphics(W).obj
00452b3f 00000001 .rdata            UGraphics(W).obj
00452b40 00000001 .rdata            UGraphics(W).obj
00452b41 00000001 .rdata            UGraphics(W).obj
00452b42 00000001 .rdata            UGraphics(W).obj
00452b43 00000001 .rdata            CButtonView.obj
00452b44 00000001 .rdata            CButtonView.obj
00452b45 00000001 .rdata            CButtonView.obj
00452b46 00000001 .rdata            CButtonView.obj
00452b47 00000001 .rdata            CButtonView.obj
00452b48 00000001 .rdata            CButtonView.obj
00452b49 0000003d .rdata            CButtonView.obj
00452b86 00000001 .rdata            CButtonView.obj
00452b87 00000001 .rdata            CButtonView.obj
00452b88 00000001 .rdata            CButtonView.obj
00452b89 00000001 .rdata            CButtonView.obj
00452b8a 00000001 .rdata            CButtonView.obj
00452b8b 00000001 .rdata            CButtonView.obj
00452b8c 00000001 .rdata            CButtonView.obj
00452b8d 00000001 .rdata            CButtonView.obj
00452b8e 00000001 .rdata            CButtonView.obj
00452b8f 0000002b .rdata            CButtonView.obj
00452bba 00000001 .rdata            CButtonView.obj
00452bbb 0000001d .rdata            CBoxView.obj
00452bd8 00000001 .rdata            CBoxView.obj
00452bd9 00000001 .rdata            CBoxView.obj
00452bda 00000001 .rdata            CBoxView.obj
00452bdb 00000001 .rdata            CBoxView.obj
00452bdc 00000001 .rdata            CBoxView.obj
00452be0 00000010 .rdata            CBoxView.obj(@7606)
00452bf0 00000021 .rdata            CBoxView.obj
00452c11 00000001 .rdata            CBoxView.obj
00452c12 00000001 .rdata            CLabelView.obj
00452c13 00000001 .rdata            CLabelView.obj
00452c14 00000001 .rdata            CLabelView.obj
00452c15 00000029 .rdata            CLabelView.obj
00452c3e 00000001 .rdata            CLabelView.obj
00452c3f 00000077 .rdata            CTextView.obj
00452cb6 00000001 .rdata            CTextView.obj
00452cb7 00000001 .rdata            CTextView.obj
00452cb8 00000001 .rdata            CTextView.obj
00452cb9 00000001 .rdata            CTextView.obj
00452cba 00000001 .rdata            CTextView.obj
00452cbb 00000001 .rdata            CTextView.obj
00452cbc 00000001 .rdata            CTextView.obj
00452cbd 00000001 .rdata            CTextView.obj
00452cbe 00000001 .rdata            CTextView.obj
00452cbf 00000001 .rdata            CTextView.obj
00452cc0 00000001 .rdata            CTextView.obj
00452cc1 00000001 .rdata            CTextView.obj
00452cc2 00000001 .rdata            CTextView.obj
00452cc3 00000001 .rdata            CTextView.obj
00452cc4 00000001 .rdata            CTextView.obj
00452cc5 00000001 .rdata            CTextView.obj
00452cc6 00000001 .rdata            CTextView.obj
00452cc7 00000001 .rdata            CTextView.obj
00452cc8 00000001 .rdata            CTextView.obj
00452cc9 00000001 .rdata            CTextView.obj
00452cca 00000001 .rdata            CTextView.obj
00452ccb 00000001 .rdata            CTextView.obj
00452ccc 00000001 .rdata            CTextView.obj
00452ccd 00000001 .rdata            CTextView.obj
00452cce 00000001 .rdata            CTextView.obj
00452ccf 00000001 .rdata            CTextView.obj
00452cd0 00000001 .rdata            CTextView.obj
00452cd1 00000001 .rdata            CTextView.obj
00452cd2 00000001 .rdata            CTextView.obj
00452cd3 0000007f .rdata            CTextView.obj
00452d52 00000001 .rdata            CTextView.obj
00452d53 00000001 .rdata            CTextView.obj
00452d54 0000001d .rdata            CScrollerView.obj
00452d71 00000001 .rdata            CScrollerView.obj
00452d72 00000001 .rdata            CScrollerView.obj
00452d73 00000001 .rdata            CScrollerView.obj
00452d74 00000001 .rdata            CScrollerView.obj
00452d75 00000001 .rdata            CScrollerView.obj
00452d76 00000001 .rdata            CScrollerView.obj
00452d77 00000001 .rdata            CScrollerView.obj
00452d78 00000001 .rdata            CScrollerView.obj
00452d79 00000001 .rdata            CScrollerView.obj
00452d7a 00000001 .rdata            CScrollerView.obj
00452d7b 00000001 .rdata            CScrollerView.obj
00452d7c 00000001 .rdata            CScrollerView.obj
00452d7d 00000001 .rdata            CScrollerView.obj
00452d7e 00000001 .rdata            CScrollerView.obj
00452d7f 00000089 .rdata            CScrollerView.obj
00452e08 00000018 .rdata            CScrollerView.obj(@8071)
00452e20 0000001c .rdata            CScrollerView.obj(@8070)
00452e3c 00000018 .rdata            CScrollerView.obj(@8069)
00452e54 0000001c .rdata            CScrollerView.obj(@8068)
00452e70 00000001 .rdata            CScrollerView.obj
00452e74 00000018 .rdata            CScrollerView.obj(@8169)
00452e8c 00000018 .rdata            CScrollerView.obj(@8168)
00452ea4 00000001 .rdata            CScrollerView.obj
00452ea5 00000001 .rdata            CScrollerView.obj
00452ea6 00000001 .rdata            CScrollerView.obj
00452ea7 00000001 .rdata            CScrollerView.obj
00452ea8 00000010 .rdata            CScrollerView.obj(@8263)
00452eb8 00000001 .rdata            CScrollerView.obj
00452ebc 00000010 .rdata            CScrollerView.obj(@8278)
00452ecc 00000001 .rdata            CScrollerView.obj
00452ed0 00000010 .rdata            CScrollerView.obj(@8297)
00452ee0 00000001 .rdata            CScrollerView.obj
00452ee1 00000001 .rdata            CScrollerView.obj
00452ee2 00000001 .rdata            CScrollerView.obj
00452ee3 00000001 .rdata            CScrollerView.obj
00452ee4 00000001 .rdata            CScrollerView.obj
00452ee5 00000001 .rdata            CScrollerView.obj
00452ee6 00000001 .rdata            CScrollerView.obj
00452ee8 00000018 .rdata            CScrollerView.obj(@8463)
00452f00 00000018 .rdata            CScrollerView.obj(@8462)
00452f18 00000001 .rdata            CScrollerView.obj
00452f19 00000001 .rdata            CScrollerView.obj
00452f1a 00000001 .rdata            CScrollerView.obj
00452f1b 00000001 .rdata            CScrollerView.obj
00452f1c 00000001 .rdata            CScrollerView.obj
00452f1d 00000001 .rdata            CScrollerView.obj
00452f1e 00000001 .rdata            CScrollerView.obj
00452f1f 00000001 .rdata            CScrollerView.obj
00452f20 00000001 .rdata            CScrollerView.obj
00452f21 00000001 .rdata            CScrollerView.obj
00452f22 00000001 .rdata            CScrollerView.obj
00452f23 00000001 .rdata            CScrollerView.obj
00452f24 00000001 .rdata            CScrollerView.obj
00452f25 00000001 .rdata            CScrollerView.obj
00452f26 00000001 .rdata            CScrollerView.obj
00452f27 00000001 .rdata            CScrollerView.obj
00452f28 00000001 .rdata            CScrollerView.obj
00452f29 00000001 .rdata            CScrollerView.obj
00452f2a 00000001 .rdata            CScrollerView.obj
00452f2b 00000001 .rdata            CScrollerView.obj
00452f2c 00000001 .rdata            CScrollerView.obj
00452f2d 00000001 .rdata            CScrollerView.obj
00452f2e 00000001 .rdata            CScrollerView.obj
00452f2f 00000001 .rdata            CScrollerView.obj
00452f30 00000001 .rdata            CScrollerView.obj
00452f31 00000001 .rdata            CScrollerView.obj
00452f32 00000063 .rdata            UEditText.obj
00452f95 00000001 .rdata            UEditText.obj
00452f96 00000001 .rdata            UEditText.obj
00452f97 00000001 .rdata            UEditText.obj
00452f98 00000001 .rdata            UEditText.obj
00452f99 00000001 .rdata            UEditText.obj
00452f9a 00000001 .rdata            UEditText.obj
00452f9b 00000001 .rdata            UEditText.obj
00452f9c 00000001 .rdata            UEditText.obj
00452f9d 00000001 .rdata            UEditText.obj
00452f9e 00000001 .rdata            UEditText.obj
00452f9f 00000001 .rdata            UEditText.obj
00452fa0 00000001 .rdata            UEditText.obj
00452fa1 00000019 .rdata            UEditText.obj
00452fba 00000043 .rdata            UEditText.obj
00452ffd 00000043 .rdata            UEditText.obj
00453040 00000043 .rdata            UEditText.obj
00453083 00000029 .rdata            UEditText.obj
004530ac 00000001 .rdata            UEditText.obj
004530ad 00000019 .rdata            UEditText.obj
004530c6 00000043 .rdata            UEditText.obj
00453109 00000001 .rdata            UEditText.obj
0045310a 0000011b .rdata            UEditText.obj
00453225 00000001 .rdata            UEditText.obj
00453226 00000019 .rdata            UEditText.obj
0045323f 00000001 .rdata            UEditText.obj
00453240 0000002b .rdata            UEditText.obj
0045326b 00000001 .rdata            UEditText.obj
0045326c 00000001 .rdata            UEditText.obj
0045326d 00000019 .rdata            UEditText.obj
00453286 00000001 .rdata            UEditText.obj
00453287 00000001 .rdata            UEditText.obj
00453288 00000001 .rdata            UEditText.obj
00453289 0000008f .rdata            UEditText.obj
00453318 00000001 .rdata            UEditText.obj
00453319 00000001 .rdata            UEditText.obj
0045331a 00000001 .rdata            UEditText.obj
0045331b 00000001 .rdata            UEditText.obj
0045331c 00000097 .rdata            UEditText.obj
004533b3 000000ff .rdata            UEditText.obj
004534b2 0000016b .rdata            UEditText.obj
0045361d 00000117 .rdata            UEditText.obj
00453734 00000043 .rdata            UEditText.obj
00453777 00000001 .rdata            UEditText.obj
00453778 00000001 .rdata            UEditText.obj
00453779 00000001 .rdata            UEditText.obj
0045377c 00000008 .rdata            UEditText.obj(@9407)
00453784 00000001 .rdata            UEditText.obj
00453785 00000001 .rdata            UEditText.obj
00453786 0000005b .rdata            UEditText.obj
004537e1 00000001 .rdata            UEditText.obj
004537e2 0000005b .rdata            UEditText.obj
0045383d 00000001 .rdata            UEditText.obj
0045383e 00000001 .rdata            UEditText.obj
0045383f 00000001 .rdata            UEditText.obj
00453840 00000001 .rdata            UEditText.obj
00453841 00000001 .rdata            UEditText.obj
00453842 00000001 .rdata            UEditText.obj
00453843 00000001 .rdata            UEditText.obj
00453844 00000019 .rdata            UEditText.obj
0045385d 00000001 .rdata            UEditText.obj
0045385e 00000001 .rdata            UEditText.obj
0045385f 000000cb .rdata            UEditText.obj
0045392a 00000001 .rdata            UEditText.obj
0045392b 00000001 .rdata            CItemsView.obj
0045392c 00000001 .rdata            CItemsView.obj
0045392d 00000001 .rdata            CItemsView.obj
0045392e 00000001 .rdata            CItemsView.obj
0045392f 00000001 .rdata            CItemsView.obj
00453930 00000001 .rdata            CItemsView.obj
00453931 00000001 .rdata            CItemsView.obj
00453932 00000001 .rdata            CItemsView.obj
00453933 00000001 .rdata            CItemsView.obj
00453934 00000001 .rdata            CItemsView.obj
00453935 00000001 .rdata            CItemsView.obj
00453936 00000001 .rdata            CItemsView.obj
00453937 00000001 .rdata            CItemsView.obj
00453938 00000001 .rdata            CItemsView.obj
00453939 00000001 .rdata            CItemsView.obj
0045393a 00000001 .rdata            CItemsView.obj
0045393b 00000001 .rdata            CItemsView.obj
0045393c 00000001 .rdata            CItemsView.obj
0045393d 00000001 .rdata            CItemsView.obj
0045393e 00000001 .rdata            CItemsView.obj
0045393f 00000001 .rdata            CItemsView.obj
00453940 00000001 .rdata            CItemsView.obj
00453941 00000001 .rdata            CItemsView.obj
00453942 00000001 .rdata            CItemsView.obj
00453943 0000001d .rdata            CItemsView.obj
00453960 00000001 .rdata            CItemsView.obj
00453961 00000001 .rdata            CItemsView.obj
00453962 00000001 .rdata            CItemsView.obj
00453963 00000001 .rdata            CItemsView.obj
00453964 00000001 .rdata            CItemsView.obj
00453965 00000031 .rdata            CItemsView.obj
00453996 00000001 .rdata            CItemsView.obj
00453997 00000001 .rdata            CItemsView.obj
00453998 00000001 .rdata            CItemsView.obj
00453999 00000001 .rdata            CItemsView.obj
0045399a 00000001 .rdata            CItemsView.obj
0045399b 00000001 .rdata            CItemsView.obj
0045399c 00000001 .rdata            CItemsView.obj
0045399d 00000001 .rdata            CItemsView.obj
0045399e 00000001 .rdata            CItemsView.obj
0045399f 00000001 .rdata            CItemsView.obj
004539a0 00000001 .rdata            CItemsView.obj
004539a1 00000001 .rdata            CItemsView.obj
004539a2 00000001 .rdata            CItemsView.obj
004539a3 00000001 .rdata            CItemsView.obj
004539a4 0000001d .rdata            CListView.obj
004539c1 00000001 .rdata            CListView.obj
004539c2 00000001 .rdata            CListView.obj
004539c3 00000001 .rdata            CListView.obj
004539c4 00000001 .rdata            CListView.obj
004539c5 00000001 .rdata            CListView.obj
004539c6 00000001 .rdata            CListView.obj
004539c7 00000001 .rdata            CListView.obj
004539c8 00000001 .rdata            CListView.obj
004539c9 00000001 .rdata            CListView.obj
004539ca 00000001 .rdata            CListView.obj
004539cb 00000001 .rdata            CListView.obj
004539cc 00000001 .rdata            CListView.obj
004539cd 00000001 .rdata            CListView.obj
004539ce 00000001 .rdata            CListView.obj
004539cf 00000001 .rdata            CListView.obj
004539d0 00000001 .rdata            CListView.obj
004539d1 00000001 .rdata            CListView.obj
004539d2 00000001 .rdata            CListView.obj
004539d3 00000001 .rdata            CListView.obj
004539d4 00000001 .rdata            CListView.obj
004539d5 00000001 .rdata            CListView.obj
004539d6 00000001 .rdata            CBoolArray.obj
004539d7 00000001 .rdata            CBoolArray.obj
004539d8 00000001 .rdata            CBoolArray.obj
004539d9 00000001 .rdata            CBoolArray.obj
004539da 00000019 .rdata            CBoolArray.obj
004539f3 00000019 .rdata            CBoolArray.obj
00453a0c 00000001 .rdata            CBoolArray.obj
00453a0d 00000001 .rdata            CBoolArray.obj
00453a0e 00000019 .rdata            CBoolArray.obj
00453a27 00000019 .rdata            CBoolArray.obj
00453a40 00000019 .rdata            CBoolArray.obj
00453a59 00000019 .rdata            CBoolArray.obj
00453a72 00000031 .rdata            CBoolArray.obj
00453aa3 00000001 .rdata            CBoolArray.obj
00453aa4 00000001 .rdata            UUserInterface(W).obj
00453aa5 00000001 .rdata            UUserInterface(W).obj
00453aa6 00000001 .rdata            UUserInterface(W).obj
00453aa7 00000001 .rdata            UUserInterface(W).obj
00453aa8 00000001 .rdata            UUserInterface(W).obj
00453aa9 00000001 .rdata            UUserInterface(W).obj
00453aac 00000024 .rdata            UUserInterface(W).obj(@7686)
00453ad0 00000001 .rdata            UUserInterface(W).obj
00453ad1 00000001 .rdata            UGraphics.obj
00453ad2 00000001 .rdata            UGraphics.obj
00453ad3 00000001 .rdata            UGraphics.obj
00453ad4 00000001 .rdata            UGraphics.obj
00453ad5 00000001 .rdata            UGraphics.obj
00453ad6 00000001 .rdata            UGraphics.obj
00453ad7 00000001 .rdata            UGraphics.obj
00453ad8 00000001 .rdata            UGraphics.obj
00453ad9 00000001 .rdata            UGraphics.obj
00453ada 00000001 .rdata            UGraphics.obj
00453adb 00000001 .rdata            UGraphics.obj
00453adc 00000001 .rdata            UGraphics.obj
00453add 00000001 .rdata            UGraphics.obj
00453ade 00000001 .rdata            UGraphics.obj
00453adf 00000001 .rdata            UGraphics.obj
00453ae0 00000001 .rdata            UGraphics.obj
00453ae1 00000001 .rdata            UGraphics.obj
00453ae2 00000001 .rdata            CDragAndDroppable.obj
00453ae3 00000001 .rdata            CDragAndDroppable.obj
00453ae4 0000001d .rdata            ANSI.obj
00453b01 0000001d .rdata            ANSI.obj
00453b1e 00000001 .rdata            ANSI.obj
00453b1f 00000001 .rdata            ANSI.obj
00453b20 00000001 .rdata            ANSI.obj
00453b21 00000001 .rdata            ANSI.obj
00453b22 00000001 .rdata            ANSI.obj
00453b23 00000001 .rdata            ANSI.obj
00453b24 00000001 .rdata            ANSI.obj
00453b25 00000001 .rdata            ANSI.obj
00453b26 00000001 .rdata            ANSI.obj
00453b27 00000001 .rdata            ANSI.obj
00453b28 00000001 .rdata            ANSI.obj
00453b29 00000001 .rdata            ANSI.obj
00453b2a 00000001 .rdata            ANSI.obj
00453b2b 00000001 .rdata            UProgramCleanup.obj
00453b2c 0000001d .rdata            UProgramCleanup.obj
00453b49 00000001 .rdata            UProgramCleanup.obj
00453b4a 00000001 .rdata            UProgramCleanup.obj
00453b4b 0000001d .rdata            UProgramCleanup.obj
00453b68 00000001 .rdata            UProgramCleanup.obj
00453b69 00000001 .rdata            UProgramCleanup.obj
00453b6a 00000001 .rdata            UProgramCleanup.obj
00453b6b 00000001 .rdata            UProgramCleanup.obj
00453b6c 00000001 .rdata            UService(W).obj
00453b6d 00000001 .rdata            UService(W).obj
00453b6e 00000001 .rdata            UService(W).obj
00453b6f 00000001 .rdata            UService(W).obj
00453b70 00000001 .rdata            UService(W).obj
00453b71 00000001 .rdata            UService(W).obj
00453b72 00000001 .rdata            UService(W).obj
00453b73 00000001 .rdata            UService(W).obj
00453b74 00000001 .rdata            UService(W).obj
00453b75 00000001 .rdata            UService(W).obj
00453b76 0000001d .rdata            UService(W).obj
00453b94 00000014 .rdata            UService(W).obj(@7669)
00453ba8 00000001 .rdata            UService(W).obj
00453ba9 00000001 .rdata            UOleAutomation(W).obj
00453baa 00000001 .rdata            UOleAutomation(W).obj
00453bab 00000001 .rdata            UOleAutomation(W).obj
00453bac 00000001 .rdata            UOleAutomation(W).obj
00453bad 00000001 .rdata            UOleAutomation(W).obj
00453bae 00000001 .rdata            UOleAutomation(W).obj
00453baf 00000019 .rdata            UOleAutomation(W).obj
00453bc8 00000001 .rdata            UOleAutomation(W).obj
00453bc9 00000001 .rdata            UOleAutomation(W).obj
00453bca 00000001 .rdata            UOleAutomation(W).obj
00453bcb 00000001 .rdata            UOleAutomation(W).obj
00453bcc 00000019 .rdata            UOleAutomation(W).obj
00453be5 00000001 .rdata            UOleAutomation(W).obj
00453be6 00000001 .rdata            UOleAutomation(W).obj
00453be7 00000001 .rdata            UOleAutomation(W).obj
00453be8 00000001 .rdata            UOleAutomation(W).obj
00453be9 00000001 .rdata            UOleAutomation(W).obj
00453bea 00000001 .rdata            UOleAutomation(W).obj
00453beb 00000001 .rdata            UOleAutomation(W).obj
00453bec 00000001 .rdata            UOleAutomation(W).obj
00453bed 00000001 .rdata            UOleAutomation(W).obj
00453bee 00000001 .rdata            URegularTransport(W).obj
00453bef 00000001 .rdata            URegularTransport(W).obj
00453bf0 00000001 .rdata            URegularTransport(W).obj
00453bf4 00000008 .rdata            URegularTransport(W).obj(@7621)
00453bfc 00000001 .rdata            URegularTransport(W).obj
00453bfd 00000001 .rdata            URegularTransport(W).obj
00453bfe 00000001 .rdata            URegularTransport(W).obj
00453bff 00000001 .rdata            URegularTransport(W).obj
00453c00 00000001 .rdata            URegularTransport(W).obj
00453c01 00000001 .rdata            URegularTransport(W).obj
00453c04 00000014 .rdata            URegularTransport(W).obj(@7944)
00453c18 00000033 .rdata            URegularTransport(W).obj
00453c4b 00000001 .rdata            URegularTransport(W).obj
00453c4c 00000001 .rdata            URegularTransport(W).obj
00453c4d 00000001 .rdata            URegularTransport(W).obj
00453c4e 00000001 .rdata            URegularTransport(W).obj
00453c4f 00000001 .rdata            URegularTransport(W).obj
00453c50 00000001 .rdata            URegularTransport(W).obj
00453c51 00000033 .rdata            URegularTransport(W).obj
00453c84 00000001 .rdata            URegularTransport(W).obj
00453c85 00000001 .rdata            URegularTransport(W).obj
00453c86 00000001 .rdata            URegularTransport(W).obj
00453c87 0000001d .rdata            URegularTransport(W).obj
00453ca4 0000001d .rdata            URegularTransport(W).obj
00453cc1 0000001d .rdata            URegularTransport(W).obj
00453cde 0000001d .rdata            URegularTransport(W).obj
00453cfb 00000001 .rdata            URegularTransport(W).obj
00453cfc 00000001 .rdata            URegularTransport(W).obj
00453cfd 00000001 .rdata            URegularTransport(W).obj
00453cfe 00000001 .rdata            URegularTransport(W).obj
00453cff 00000001 .rdata            URegularTransport(W).obj
00453d00 00000001 .rdata            URegularTransport(W).obj
00453d01 00000001 .rdata            URegularTransport(W).obj
00453d02 00000001 .rdata            URegularTransport(W).obj
00453d03 00000001 .rdata            URegularTransport(W).obj
00453d04 00000001 .rdata            URegularTransport(W).obj
00453d05 00000001 .rdata            URegularTransport(W).obj
00453d06 00000001 .rdata            URegularTransport(W).obj
00453d08 00000080 .rdata            URegularTransport(W).obj(@8783)
00453d88 000000a5 .rdata            URegularTransport(W).obj
00453e2d 0000005f .rdata            URegularTransport(W).obj
00453e8c 00000001 .rdata            URegularTransport(W).obj
00453e8d 00000001 .rdata            URegularTransport(W).obj
00453e8e 00000001 .rdata            URegularTransport(W).obj
00453e8f 00000001 .rdata            URegularTransport(W).obj
00453e90 00000001 .rdata            URegularTransport(W).obj
00453e91 0000001d .rdata            URegularTransport(W).obj
00453eae 00000001 .rdata            UHttpTransport.obj
00453eaf 00000001 .rdata            UHttpTransport.obj
00453eb0 0000007b .rdata            UHttpTransport.obj
00453f2b 00000001 .rdata            UHttpTransport.obj
00453f2c 00000001 .rdata            UHttpTransport.obj
00453f2d 00000001 .rdata            UHttpTransport.obj
00453f2e 00000001 .rdata            UHttpTransport.obj
00453f2f 00000001 .rdata            UHttpTransport.obj
00453f30 00000001 .rdata            UHttpTransport.obj
00453f31 00000001 .rdata            UHttpTransport.obj
00453f32 00000001 .rdata            UHttpTransport.obj
00453f33 00000001 .rdata            UHttpTransport.obj
00453f34 00000001 .rdata            UHttpTransport.obj
00453f35 00000001 .rdata            UHttpTransport.obj
00453f36 00000001 .rdata            UHttpTransport.obj
00453f37 00000001 .rdata            UHttpTransport.obj
00453f38 00000001 .rdata            UHttpTransport.obj
00453f3c 0000001c .rdata            UHttpTransport.obj(@8143)
00453f58 00000001 .rdata            UHttpTransport.obj
00453f5c 0000001c .rdata            UHttpTransport.obj(@8184)
00453f78 00000001 .rdata            UHttpTransport.obj
00453f79 00000001 .rdata            UHttpTransport.obj
00453f7a 00000001 .rdata            UHttpTransport.obj
00453f7b 00000001 .rdata            UHttpTransport.obj
00453f7c 00000001 .rdata            UHttpTransport.obj
00453f7d 00000001 .rdata            UHttpTransport.obj
00453f7e 00000001 .rdata            UHttpTransport.obj
00453f7f 00000001 .rdata            UHttpTransport.obj
00453f80 00000001 .rdata            UHttpTransport.obj
00453f81 00000001 .rdata            UHttpTransport.obj
00453f82 00000001 .rdata            UHttpTransport.obj
00453f83 00000001 .rdata            UHttpTransport.obj
00453f84 00000001 .rdata            UHttpTransport.obj
00453f85 00000001 .rdata            UHttpTransport.obj
00453f86 00000001 .rdata            UHttpTransport.obj
00453f87 00000001 .rdata            UHttpTransport.obj
00453f88 00000001 .rdata            UHttpTransport.obj
00453f89 00000001 .rdata            UHttpTransport.obj
00453f8a 00000001 .rdata            UHttpTransport.obj
00453f8b 00000001 .rdata            UHttpTransport.obj
00453f8c 00000001 .rdata            UHttpTransport.obj
00453f8d 00000001 .rdata            UHttpTransport.obj
00453f8e 00000001 .rdata            UHttpTransport.obj
00453f8f 00000001 .rdata            UHttpTransport.obj
00453f90 00000001 .rdata            UHttpTransport.obj
00453f91 00000001 .rdata            UHttpTransport.obj
00453f92 00000001 .rdata            UHttpTransport.obj
00453f93 00000001 .rdata            UHttpTransport.obj
00453f94 00000001 .rdata            UHttpTransport.obj
00453f95 00000001 .rdata            UHttpTransport.obj
00453f96 00000001 .rdata            UHttpTransport.obj
00453f97 00000001 .rdata            UHttpTransport.obj
00453f98 00000001 .rdata            UHttpTransport.obj
00453f99 00000001 .rdata            UHttpTransport.obj
00453f9a 00000001 .rdata            UHttpTransport.obj
00453f9b 00000001 .rdata            UHttpTransport.obj
00453f9c 00000001 .rdata            UHttpTransport.obj
00453f9d 00000001 .rdata            UHttpTransport.obj
00453f9e 00000001 .rdata            UHttpTransport.obj
00453f9f 00000001 .rdata            URez.obj
00453fa0 00000001 .rdata            URez.obj
00453fa1 00000091 .rdata            URez.obj
00454032 00000021 .rdata            URez.obj
00454053 00000001 .rdata            URez.obj
00454054 00000001 .rdata            URez.obj
00454055 00000001 .rdata            URez.obj
00454056 00000001 .rdata            URez.obj
00454057 00000001 .rdata            UIDVarArray.obj
00454058 00000001 .rdata            URegion(W).obj
00454059 00000001 .rdata            URegion(W).obj
0045405a 00000001 .rdata            URegion(W).obj
0045405b 00000001 .rdata            URegion(W).obj
0045405c 00000001 .rdata            URegion(W).obj
0045405d 00000001 .rdata            URegion(W).obj
0045405e 00000001 .rdata            URegion(W).obj
0045405f 00000001 .rdata            URegion(W).obj
00454060 00000001 .rdata            URegion(W).obj
00454061 00000001 .rdata            URegion(W).obj
00454062 00000001 .rdata            URegion(W).obj
00454063 00000001 .rdata            URegion(W).obj
00454064 00000001 .rdata            URegion(W).obj
00454065 00000001 .rdata            UDragAndDrop(W).obj
00454066 00000001 .rdata            UDragAndDrop(W).obj
00454067 0000002b .rdata            UDragAndDrop(W).obj
00454092 00000001 .rdata            UDragAndDrop(W).obj
00454093 0000002b .rdata            UDragAndDrop(W).obj
004540be 00000001 .rdata            UDragAndDrop(W).obj
004540bf 00000001 .rdata            UDragAndDrop(W).obj
004540c0 00000001 .rdata            UDragAndDrop(W).obj
004540c1 00000001 .rdata            UDragAndDrop(W).obj
004540c2 00000001 .rdata            UDragAndDrop(W).obj
004540c3 00000001 .rdata            UDragAndDrop(W).obj
004540c4 00000001 .rdata            UDragAndDrop(W).obj
004540c5 000000b5 .rdata            UDragAndDrop(W).obj
0045417a 00000001 .rdata            UDragAndDrop(W).obj
0045417b 00000001 .rdata            UDragAndDrop(W).obj
0045417c 00000001 .rdata            UDragAndDrop(W).obj
0045417d 00000001 .rdata            UDragAndDrop(W).obj
0045417e 00000001 .rdata            UDragAndDrop(W).obj
0045417f 00000001 .rdata            UDragAndDrop(W).obj
00454180 00000001 .rdata            UDragAndDrop(W).obj
00454181 00000001 .rdata            UDragAndDrop(W).obj
00454182 00000037 .rdata            UDragAndDrop(W).obj
004541b9 00000001 .rdata            UDragAndDrop(W).obj
004541ba 00000001 .rdata            UDragAndDrop(W).obj
004541bb 00000001 .rdata            UDragAndDrop(W).obj
004541bc 00000001 .rdata            UDragAndDrop(W).obj
004541bd 0000002d .rdata            UDragAndDrop(W).obj
004541ea 0000002d .rdata            UDragAndDrop(W).obj
00454217 00000001 .rdata            UDragAndDrop(W).obj
00454218 00000001 .rdata            UDragAndDrop(W).obj
00454219 00000001 .rdata            UDragAndDrop(W).obj
0045421a 0000002f .rdata            UDragAndDrop(W).obj
00454249 00000001 .rdata            UDragAndDrop(W).obj
0045424a 00000001 .rdata            UDragAndDrop(W).obj
0045424b 00000001 .rdata            UDragAndDrop(W).obj
0045424c 00000001 .rdata            UDragAndDrop(W).obj
0045424d 00000001 .rdata            UDragAndDrop(W).obj
0045424e 00000001 .rdata            UDragAndDrop(W).obj
0045424f 00000001 .rdata            UDragAndDrop(W).obj
00454250 00000001 .rdata            UDragAndDrop(W).obj
00454251 00000001 .rdata            UDragAndDrop(W).obj
00454252 0000002b .rdata            UDragAndDrop(W).obj
0045427d 00000001 .rdata            UDragAndDrop(W).obj
0045427e 00000001 .rdata            UDragAndDrop(W).obj
0045427f 00000001 .rdata            UDragAndDrop(W).obj
00454280 00000001 .rdata            UDragAndDrop(W).obj
00454281 00000001 .rdata            UDragAndDrop(W).obj
00454282 00000001 .rdata            UDragAndDrop(W).obj
00454283 0000003d .rdata            UDragAndDrop(W).obj
004542c0 00000001 .rdata            UDragAndDrop(W).obj
004542c1 00000001 .rdata            UDragAndDrop(W).obj
004542c2 00000001 .rdata            UDragAndDrop(W).obj
004542c3 00000001 .rdata            UDragAndDrop(W).obj
004542c4 0000002d .rdata            UDragAndDrop(W).obj
004542f1 00000001 .rdata            UDragAndDrop(W).obj
004542f2 00000001 .rdata            UDragAndDrop(W).obj
004542f3 00000001 .rdata            UDragAndDrop(W).obj
004542f4 00000010 .rdata            UDragAndDrop(W).obj(@8694)
00454304 00000001 .rdata            UDragAndDrop(W).obj
00454305 00000025 .rdata            UTooltip.obj
0045432a 00000001 .rdata            UTooltip.obj
0045432b 00000001 .rdata            UTooltip.obj
0045432c 0000003f .rdata            UTooltip.obj
0045436b 00000001 .rdata            UTooltip.obj
0045436c 00000001 .rdata            UTooltip.obj
0045436d 00000001 .rdata            UTooltip.obj
0045436e 00000001 .rdata            UTooltip.obj
0045436f 00000019 .rdata            UTooltip.obj
00454388 00000001 .rdata            UTooltip.obj
00454389 00000001 .rdata            UTooltip.obj
0045438a 00000001 .rdata            UTooltip.obj
0045438b 00000001 .rdata            UTooltip.obj
0045438c 00000001 .rdata            UTooltip.obj
0045438d 00000001 .rdata            UTooltip.obj
0045438e 00000001 .rdata            UTooltip.obj
0045438f 00000001 .rdata            USound(W).obj
00454390 00000001 .rdata            USound(W).obj
00454391 00000001 .rdata            USound(W).obj
00454392 00000001 .rdata            USound(W).obj
00454393 00000001 .rdata            USound(W).obj
00454394 00000001 .rdata            USound(W).obj
00454395 0000002d .rdata            USound(W).obj
004543c2 00000001 .rdata            GrafTypes.obj
004543c3 00000001 .rdata            GrafTypes.obj
004543c4 00000001 .rdata            GrafTypes.obj
004543c5 00000001 .rdata            GrafTypes.obj
004543c6 00000001 .rdata            GrafTypes.obj
004543c7 00000001 .rdata            GrafTypes.obj
004543c8 00000001 .rdata            GrafTypes.obj
004543c9 00000001 .rdata            GrafTypes.obj
004543ca 00000001 .rdata            GrafTypes.obj
004543cb 00000001 .rdata            GrafTypes.obj
004543cc 00000001 .rdata            GrafTypes.obj
004543cd 00000001 .rdata            GrafTypes.obj
004543ce 00000001 .rdata            GrafTypes.obj
004543cf 00000001 .rdata            CIconView.obj
004543d0 00000001 .rdata            CIconView.obj
004543d1 00000001 .rdata            CIconView.obj
004543d2 00000001 .rdata            CIconView.obj
004543d3 00000001 .rdata            CIconView.obj
004543d4 00000001 .rdata            CIconView.obj
004543d5 00000001 .rdata            CPictureView.obj
004543d6 00000001 .rdata            CPictureView.obj
004543d7 00000001 .rdata            CPictureView.obj
004543d8 00000001 .rdata            CPictureView.obj
004543d9 00000001 .rdata            UKeyboard(W).obj
004543da 00000001 .rdata            UKeyboard(W).obj
004543db 00000001 .rdata            UKeyboard(W).obj
004543dc 00000001 .rdata            UKeyboard.obj
004543e0 00000040 .rdata            UMouse(W).obj(@7559)
00454420 00000001 .rdata            UMouse(W).obj
00454421 00000001 .rdata            UMouse(W).obj
00454422 00000001 .rdata            UMouse(W).obj
00454423 00000001 .rdata            UMouse(W).obj
00454424 00000001 .rdata            UMessageSys.obj
00454425 00000001 .rdata            UMessageSys.obj
00454426 00000001 .rdata            UMessageSys.obj
00454427 00000033 .rdata            UMessageSys.obj
0045445a 00000001 .rdata            UMessageSys.obj
0045445b 00000001 .rdata            UMessageSys.obj
0045445c 0000005f .rdata            UMessageSys.obj
004544c0 00000010 .rdata            obj\i386\shguids.obj(_IID_IShellLinkA)
004544d0 00000010 .rdata            obj\i386\shguids.obj(_CLSID_ShellLink)
004544e0 00000010 .rdata            obj\i386\objidl_i.obj(_IID_IDataObject)
004544f0 00000010 .rdata            obj\i386\objidl_i.obj(_IID_IEnumFORMATETC)
00454500 00000010 .rdata            obj\i386\objidl_i.obj(_IID_IPersistFile)
00454510 00000001 .rdata            MWRTTI.obj
00454511 00000001 .rdata            MWRTTI.obj
00454512 00000015 .rdata            MWRTTI.obj
00454527 00000001 .rdata            MWRTTI.obj
00454528 00000001 .rdata            MWRTTI.obj
00454529 00000001 .rdata            MWRTTI.obj
0045452a 00000001 .rdata            CLinkedList.obj
0045452b 00000001 .rdata            CLinkedList.obj
0045452c 00000001 .rdata            globdest.obj
0045452d 00000001 .rdata            delarrop.obj
0045452e 00000001 .rdata            NMWException.obj
0045452f 00000001 .rdata            NMWException.obj
00454530 00000001 .rdata            NMWException.obj
00454531 00000001 .rdata            NMWException.obj
00454532 00000001 .rdata            NMWException.obj
00454533 00000001 .rdata            NMWException.obj
00454534 00000028 .rdata            NMWException.obj(@438)
0045455c 00000001 .rdata            NMWException.obj
0045455d 00000001 .rdata            runinit.obj
0045455e 00000001 .rdata            runinit.obj
0045455f 00000001 .rdata            UText(W).obj
00454560 0000003f .rdata            UPixmap.obj
004545a0 00000080 .rdata            UPixmap.obj(@8252)
00454620 00000001 .rdata            UPixmap.obj
00454621 00000001 .rdata            UPixmap.obj
00454622 00000001 .rdata            UPixmap.obj
00454623 00000001 .rdata            UButton.obj
00454624 00000001 .rdata            UButton.obj
00454625 00000001 .rdata            UButton.obj
00454626 00000001 .rdata            UButton.obj
00454627 00000001 .rdata            UUserInterface.obj
00454628 00000001 .rdata            UUserInterface.obj
00454629 00000001 .rdata            UUserInterface.obj
0045462a 00000001 .rdata            UUserInterface.obj
0045462b 00000001 .rdata            UUserInterface.obj
0045462c 00000001 .rdata            UScrollBar.obj
0045462d 00000001 .rdata            UScrollBar.obj
0045462e 00000001 .rdata            UScrollBar.obj
0045462f 00000001 .rdata            UScrollBar.obj
00454630 00000001 .rdata            UScrollBar.obj
00454631 00000001 .rdata            UScrollBar.obj
00454632 00000001 .rdata            UScrollBar.obj
00454634 0000001c .rdata            UScrollBar.obj(@7937)
00454650 00000001 .rdata            UScrollBar.obj
00454651 00000053 .rdata            UClipboard(W).obj
004546a4 0000003b .rdata            UClipboard(W).obj
004546df 00000001 .rdata            UClipboard(W).obj
004546e0 00000001 .rdata            UBitString.obj
004546e1 00000001 .rdata            UBitString.obj
004546e2 00000001 .rdata            UBitString.obj
004546e3 00000001 .rdata            UBitString.obj
004546e4 00000001 .rdata            UBitString.obj
004546e5 00000001 .rdata            UMath(W).obj
004546e6 00000001 .rdata            UMath(W).obj
004546e7 00000001 .rdata            UMath(W).obj
004546e8 00000001 .rdata            UMath(W).obj
004546e9 00000001 .rdata            excrtl.obj
004546ea 00000001 .rdata            excrtl.obj
004546eb 00000001 .rdata            excrtl.obj
004546ec 00000001 .rdata            excrtl.obj
004546ed 00000001 .rdata            exchand.obj
004546ee 00000001 .rdata            exchand.obj
004546f0 000001c0 .rdata            startup.win32.obj(@153)
004548b0 00000001 .rdata            setupargs.obj
004548b1 00000001 .rdata            setupargs.obj
004548b2 00000001 .rdata            setupargs.obj
004548b3 00000001 .rdata            setupargs.obj
004548b4 00000001 .rdata            setupargs.obj
004548b5 00000001 .rdata            QTDispatcherW.obj
004548b6 00000001 .rdata            QTDispatcherW.obj
004548b7 00000001 .rdata            QTDispatcherW.obj
004548b8 00000001 .rdata            CDataHandlerComponent.obj
004548b9 00000001 .rdata            CDataHandlerComponent.obj
004548ba 00000001 .rdata            CDataHandlerComponent.obj
004548bb 00000001 .rdata            CDataHandlerComponent.obj
004548bc 00000001 .rdata            CDataHandlerComponent.obj
004548bd 00000001 .rdata            CDataHandlerComponent.obj
004548be 00000001 .rdata            CDataHandlerComponent.obj
004548bf 00000001 .rdata            CDataHandlerComponent.obj
004548c0 00000001 .rdata            CDataHandlerComponent.obj
004548c1 00000001 .rdata            CDataHandlerComponent.obj
004548c2 00000001 .rdata            CDataHandlerComponent.obj
004548c3 00000001 .rdata            CDataHandlerComponent.obj
004548c4 00000001 .rdata            CDataHandlerComponent.obj
004548c5 00000001 .rdata            CDataHandlerComponent.obj
004548c6 00000001 .rdata            CDataHandlerComponent.obj
004548c7 00000001 .rdata            CDataHandlerComponent.obj
004548c8 00000001 .rdata            CDataHandlerComponent.obj
004548c9 00000001 .rdata            CDataHandlerComponent.obj
004548ca 00000001 .rdata            CDataHandlerComponent.obj
004548cb 00000001 .rdata            CDataHandlerComponent.obj
004548cc 00000001 .rdata            CDataHandlerComponent.obj
004548cd 00000001 .rdata            CDataHandlerComponent.obj
004548ce 00000001 .rdata            CDataHandlerComponent.obj
004548cf 00000001 .rdata            CDataHandlerComponent.obj
004548d0 00000001 .rdata            CDataHandlerComponent.obj
004548d1 00000001 .rdata            CDataHandlerComponent.obj
004548d2 00000001 .rdata            CDataHandlerComponent.obj
004548d3 00000001 .rdata            CDataHandlerComponent.obj
004548d4 00000001 .rdata            CDataHandlerComponent.obj
004548d5 00000001 .rdata            CDataHandlerComponent.obj
004548d6 00000001 .rdata            CDataHandlerComponent.obj
004548d7 00000001 .rdata            CDataHandlerComponent.obj
004548d8 00000001 .rdata            CDataHandlerComponent.obj
004548d9 00000001 .rdata            CDataHandlerComponent.obj
004548da 00000001 .rdata            CDataHandlerComponent.obj
004548db 00000001 .rdata            CDataHandlerComponent.obj
004548dc 00000001 .rdata            CDataHandlerComponent.obj
004548dd 00000001 .rdata            CDataHandlerComponent.obj
004548de 00000001 .rdata            CDataHandlerComponent.obj
004548df 00000001 .rdata            CDataHandlerComponent.obj
004548e0 00000001 .rdata            CDataHandlerComponent.obj
004548e1 00000001 .rdata            CDataHandlerComponent.obj
004548e2 00000001 .rdata            CDataHandlerComponent.obj
004548e3 00000001 .rdata            CDataHandlerComponent.obj
004548e4 00000001 .rdata            CDataHandlerComponent.obj
004548e5 0000001d .rdata            CDataHandlerComponent.obj
00454902 0000001d .rdata            CDataHandlerComponent.obj
0045491f 00000001 .rdata            CDataHandlerComponent.obj
00454920 00000001 .rdata            CDataHandlerComponent.obj
00454921 00000001 .rdata            CDataHandlerComponent.obj
00454922 00000001 .rdata            CDataHandlerComponent.obj
00454923 00000001 .rdata            CDataHandlerComponent.obj
00454924 00000001 .rdata            CDataHandlerComponent.obj
00454925 00000001 .rdata            CDataHandlerComponent.obj
00454926 00000001 .rdata            CDataHandlerComponent.obj
00454927 00000001 .rdata            CDataHandlerComponent.obj
00454928 00000001 .rdata            CDataHandlerComponent.obj
00454929 00000001 .rdata            CDataHandlerComponent.obj
0045492a 00000001 .rdata            CDataHandlerComponent.obj
0045492b 00000001 .rdata            CDataHandlerComponent.obj
0045492c 00000001 .rdata            CDataHandlerComponent.obj
0045492d 00000001 .rdata            CDataHandlerComponent.obj
0045492e 00000001 .rdata            CDataHandlerComponent.obj
0045492f 00000001 .rdata            CDataHandlerComponent.obj
00454930 00000001 .rdata            CDataHandlerComponent.obj
00454931 00000001 .rdata            CDataHandlerComponent.obj
00454932 00000001 .rdata            CDataHandlerComponent.obj
00454933 00000001 .rdata            CDataHandlerComponent.obj
00454934 00000001 .rdata            CDataHandlerComponent.obj
00454935 00000001 .rdata            CDataHandlerComponent.obj
00454936 00000001 .rdata            CDataHandlerComponent.obj
00454937 00000001 .rdata            CDataHandlerComponent.obj
00454938 00000001 .rdata            CDataHandlerComponent.obj
00454939 00000039 .rdata            CDataHandlerComponent.obj
00454972 00000001 .rdata            CDataHandlerComponent.obj
00454973 00000001 .rdata            CDataHandlerComponent.obj
00454974 00000001 .rdata            CDataHandlerComponent.obj
00454975 00000001 .rdata            CDataHandlerComponent.obj
00454976 00000001 .rdata            CDataHandlerComponent.obj
00454977 00000001 .rdata            CDataHandlerComponent.obj
00454978 00000001 .rdata            CDataHandlerComponent.obj
00454979 00000001 .rdata            CDataHandlerComponent.obj
0045497a 00000001 .rdata            CDataHandlerComponent.obj
0045497b 00000001 .rdata            CDataHandlerComponent.obj
0045497c 00000001 .rdata            CDataHandlerComponent.obj
0045497d 00000001 .rdata            CDataHandlerComponent.obj
0045497e 00000001 .rdata            CDataHandlerComponent.obj
0045497f 00000001 .rdata            CDataHandlerComponent.obj
00454980 00000015 .rdata            CDataHandlerComponent.obj
00454995 00000001 .rdata            CDataHandlerComponent.obj
00454996 00000001 .rdata            CDataHandlerComponent.obj
00454997 00000001 .rdata            CDataHandlerComponent.obj
00454998 00000001 .rdata            CDataHandlerComponent.obj
00454999 00000001 .rdata            CDataHandlerComponent.obj
0045499a 00000001 .rdata            CDataHandlerComponent.obj
0045499b 00000001 .rdata            CDataHandlerComponent.obj
0045499c 00000001 .rdata            CDataHandlerComponent.obj
0045499d 00000001 .rdata            CDataHandlerComponent.obj
0045499e 00000001 .rdata            CDataHandlerComponent.obj
0045499f 00000001 .rdata            CDataHandlerComponent.obj
004549a0 00000001 .rdata            CDataHandlerComponent.obj
004549a1 00000001 .rdata            CDataHandlerComponent.obj
004549a2 00000001 .rdata            CDataHandlerComponent.obj
004549a3 00000001 .rdata            CDataHandlerComponent.obj
004549a4 00000001 .rdata            CDataHandlerComponent.obj
004549a5 00000001 .rdata            CDataHandlerComponent.obj
004549a6 00000001 .rdata            CDataHandlerComponent.obj
004549a7 00000001 .rdata            CDataHandlerComponent.obj
004549a8 00000001 .rdata            CDataHandlerComponent.obj
004549a9 00000001 .rdata            CDataHandlerComponent.obj
004549aa 00000001 .rdata            CDataHandlerComponent.obj
004549ab 00000001 .rdata            CDataHandlerComponent.obj
004549ac 00000001 .rdata            CDataHandlerComponent.obj
004549ad 00000001 .rdata            CDataHandlerComponent.obj
004549ae 00000001 .rdata            CDataHandlerComponent.obj
004549af 00000001 .rdata            CDataHandlerComponent.obj
004549b0 00000001 .rdata            CDataHandlerComponent.obj
004549b1 00000001 .rdata            CDataHandlerComponent.obj
004549b2 0000002b .rdata            CDataHandlerComponent.obj
004549dd 00000001 .rdata            CDataHandlerComponent.obj
004549de 00000001 .rdata            CDataHandlerComponent.obj
004549df 00000001 .rdata            CDataHandlerComponent.obj
004549e0 00000001 .rdata            CDataHandlerComponent.obj
004549e1 00000001 .rdata            CDataHandlerComponent.obj
004549e2 00000001 .rdata            CDataHandlerComponent.obj
004549e3 00000001 .rdata            CDataHandlerComponent.obj
004549e4 00000001 .rdata            CDataHandlerComponent.obj
004549e5 00000001 .rdata            CDataHandlerComponent.obj
004549e6 00000001 .rdata            CDataHandlerComponent.obj
004549e7 00000001 .rdata            CDataHandlerComponent.obj
004549e8 00000001 .rdata            CDataHandlerComponent.obj
004549e9 00000001 .rdata            CDataHandlerComponent.obj
004549ea 00000001 .rdata            CDataHandlerComponent.obj
004549eb 00000001 .rdata            CDataHandlerComponent.obj
004549ec 00000001 .rdata            CDataHandlerComponent.obj
004549ed 00000001 .rdata            CDataHandlerComponent.obj
004549ee 00000001 .rdata            CDataHandlerComponent.obj
004549ef 00000001 .rdata            CDataHandlerComponent.obj
004549f0 00000001 .rdata            CDataHandlerComponent.obj
004549f1 00000001 .rdata            CDataHandlerComponent.obj
004549f2 00000001 .rdata            CDataHandlerComponent.obj
004549f3 00000001 .rdata            CDataHandlerComponent.obj
004549f8 00000010 .rdata            obj\i386\unknwn_i.obj(_IID_IClassFactory)
00454a08 00000010 .rdata            obj\i386\unknwn_i.obj(_IID_IUnknown)
00454a18 00000010 .rdata            obj\i386\oaidl_i.obj(_IID_IDispatch)
00454a28 00000001 .rdata            newarrop.obj
00454a29 00000001 .rdata            UGUID(W).obj
00454a2a 00000001 .rdata            UGUID(W).obj
00454a2b 00000001 .rdata            UGUID(W).obj
00454a2c 00000001 .rdata            UGUID(W).obj
00454a2d 00000001 .rdata            UGUID.obj
00454a2e 00000001 .rdata            UGUID.obj
00454a30 00000010 .rdata            obj\i386\oleidl_i.obj(_IID_IDropTarget)
00454a40 00000033 .rdata            UIcon(W).obj
00454a73 00000001 .rdata            UIcon(W).obj
00454a74 00000001 .rdata            UIcon(W).obj
00454a75 00000001 .rdata            UIcon.obj
00454a76 00000001 .rdata            UButton(W).obj
00454a77 00000001 .rdata            UButton(W).obj
00454a78 00000001 .rdata            UButton(W).obj
00454a79 00000001 .rdata            UButton(W).obj
00454a7a 00000001 .rdata            UButton(W).obj
00454a7b 00000001 .rdata            UButton(W).obj
00454a7c 00000001 .rdata            UButton(W).obj
00454a7d 00000001 .rdata            UScrollBar(W).obj
00454a7e 00000001 .rdata            UScrollBar(W).obj
00454a7f 00000001 .rdata            UScrollBar(W).obj
00454a80 00000001 .rdata            UScrollBar(W).obj
00454a81 00000001 .rdata            UScrollBar(W).obj
00454a82 00000001 .rdata            UScrollBar(W).obj
00454a83 00000001 .rdata            UScrollBar(W).obj
00454a84 00000001 .rdata            UScrollBar(W).obj
00454a85 00000001 .rdata            UScrollBar(W).obj
00454a86 00000001 .rdata            CMutex_W.obj
00454a87 00000001 .rdata            CMutex_W.obj
00454a88 00000001 .rdata            CMutex_W.obj
00454a89 00000001 .rdata            CMutex_W.obj
00454a8a 00000001 .rdata            CMutex_W.obj
00454a8b 00000001 .rdata            CMutex_W.obj
00454a8c 00000001 .rdata            CMutex_W.obj
00454a8d 00000001 .rdata            CMutex_W.obj
00454a8e 00000019 .rdata            CThreadManager.obj
00454aa7 00000001 .rdata            CThreadManager.obj
00454aa8 00000001 .rdata            CThreadManager.obj
00454aa9 00000001 .rdata            CThreadManager.obj
00454aaa 00000001 .rdata            CThreadManager.obj
00454aab 00000001 .rdata            CThreadManager.obj
00454aac 00000001 .rdata            CThreadManager.obj
00454aad 00000033 .rdata            CThreadManager.obj
00454ae0 00000001 .rdata            CThreadManager.obj
00454ae1 00000001 .rdata            CThreadManager.obj
00454ae2 00000001 .rdata            CThreadManager.obj
00454ae3 00000001 .rdata            CThreadManager.obj
00454ae4 00000001 .rdata            CThreadManager.obj
00454ae5 00000001 .rdata            CThreadManager.obj
00454ae6 00000001 .rdata            CThreadManager.obj
00454ae7 00000001 .rdata            CThreadManager.obj
00454ae8 00000001 .rdata            CThreadManager.obj
00454ae9 00000029 .rdata            CThreadManager.obj
00454b12 00000001 .rdata            CThreadManager.obj
00454b13 00000001 .rdata            CThreadManager.obj
00454b14 00000001 .rdata            CThreadManager.obj
00454b15 00000001 .rdata            CThreadManager.obj
00454b16 00000001 .rdata            CThreadManager.obj
00454b17 00000001 .rdata            CThreadManager.obj
00454b18 00000001 .rdata            CThreadManager.obj
00454b19 00000001 .rdata            CThreadManager.obj
00454b1a 00000001 .rdata            CThreadManager.obj
00454b1b 00000001 .rdata            CThreadManager.obj
00454b1c 00000001 .rdata            CThreadManager.obj
00454b1d 00000001 .rdata            CThreadManager.obj
00454b1e 00000001 .rdata            CThreadManager.obj
00454b1f 00000001 .rdata            CThreadManager.obj
00454b20 00000001 .rdata            CThreadManager.obj
00454b21 00000001 .rdata            CThreadManager.obj
00454b22 00000001 .rdata            CThreadManager.obj
00454b23 00000001 .rdata            CThreadManager.obj
00454b24 00000001 .rdata            CThreadManager.obj
00454b25 00000001 .rdata            CThreadManager.obj
00454b26 00000001 .rdata            CThreadManager.obj
00454b27 00000001 .rdata            CThreadManager.obj
00454b28 00000001 .rdata            CThreadManager.obj
00454b29 00000015 .rdata            CThreadManager.obj
00454b3e 00000001 .rdata            CThreadManager.obj
00454b3f 00000001 .rdata            CThreadManager.obj
00454b40 00000001 .rdata            CThreadManager.obj
00454b41 00000001 .rdata            CThreadManager.obj
00454b42 00000001 .rdata            CThreadManager.obj
00454b43 00000001 .rdata            CThreadManager.obj
00454b44 00000001 .rdata            CThreadManager.obj
00454b45 00000001 .rdata            CThreadManager.obj
00454b46 00000001 .rdata            CThreadManager.obj
00454b47 00000001 .rdata            CThreadManager.obj
00454b48 00000001 .rdata            CThreadManager.obj
00454b49 00000001 .rdata            CThreadManager.obj
00454b4a 00000001 .rdata            CThreadManager.obj
00454b4b 00000001 .rdata            CThreadManager.obj
00454b4c 00000001 .rdata            CThreadManager.obj
00454b4d 00000001 .rdata            CThreadManager.obj
00454b4e 00000001 .rdata            CThreadManager.obj
00454b4f 00000001 .rdata            CThreadManager.obj
00454b50 00000033 .rdata            CThreadManager.obj
00454b83 00000001 .rdata            CThreadManager.obj
00454b84 00000001 .rdata            CThreadManager.obj
00454b85 00000001 .rdata            CThreadManager.obj
00454b86 00000001 .rdata            CThreadManager.obj
00454b87 00000001 .rdata            CDataProvider.obj
00454b88 00000001 .rdata            CDataProvider.obj
00454b89 00000001 .rdata            CDataProvider.obj
00454b8a 00000025 .rdata            CString_W.obj
00454baf 00000019 .rdata            CString_W.obj
00454bc8 00000001 .rdata            UStringConverter.obj
00454bc9 00000021 .rdata            UStringConverter.obj
00454bea 00000001 .rdata            UStringConverter.obj
00454beb 00000001 .rdata            compiler_math.obj
00454bec 0000000c .rdata            file_io.win32.obj(@154)
00454bf8 00000025 .rdata            CException.obj
00454c1d 00000001 .rdata            CException.obj
00454c1e 00000001 .rdata            CException.obj
00454c1f 00000019 .rdata            CException.obj
00454c38 00000039 .rdata            CException.obj
00454c71 00000001 .rdata            CException.obj
00454c72 00000001 .rdata            CException.obj
00454c73 00000001 .rdata            CException.obj
00454c74 00000001 .rdata            CException.obj
00454c75 00000001 .rdata            CException.obj
00454c76 00000001 .rdata            CException.obj
00454c77 00000001 .rdata            CException.obj
00454c78 00000019 .rdata            CException.obj
00454c91 00000001 .rdata            CException.obj
00454c92 00000001 .rdata            CException.obj
00454c93 00000001 .rdata            CException.obj
00454c94 00000001 .rdata            CException.obj
00454c95 00000001 .rdata            CThread_W.obj
00454c96 00000001 .rdata            CThread_W.obj
00454c97 000000db .rdata            CListener.obj
00454d72 00000001 .rdata            CListener.obj
00454d73 00000001 .rdata            CListener.obj
00454d74 00000001 .rdata            CListener.obj
00454d75 00000001 .rdata            CListener.obj
00454d76 00000001 .rdata            CListener.obj
00454d77 0000005f .rdata            CListener.obj
00454dd6 00000001 .rdata            CListener.obj
00454dd7 00000001 .rdata            CListener.obj
00454dd8 00000001 .rdata            CListener.obj
00454dd9 00000001 .rdata            CListener.obj
00454dda 00000001 .rdata            CListener.obj
00454ddb 00000001 .rdata            CListener.obj
00454ddc 00000001 .rdata            CListener.obj
00454ddd 00000001 .rdata            CListener.obj
00454dde 00000001 .rdata            CListener.obj
00454ddf 00000001 .rdata            CListener.obj
00454de0 0000002d .rdata            CListener.obj
00454e0d 00000001 .rdata            CListener.obj
00454e0e 00000001 .rdata            CListener.obj
00454e0f 00000001 .rdata            CListener.obj
00454e10 00000001 .rdata            CListener.obj
00454e11 00000001 .rdata            CListener.obj
00454e12 00000001 .rdata            CListener.obj
00454e13 00000001 .rdata            CListener.obj
00454e14 00000001 .rdata            CListener.obj
00454e15 00000091 .rdata            CListener.obj
00454ea6 00000001 .rdata            CListener.obj
00454ea7 00000001 .rdata            CListener.obj
00454ea8 00000001 .rdata            CListener.obj
00454ea9 00000001 .rdata            CListener.obj
00454eaa 00000001 .rdata            CListener.obj
00454eab 00000001 .rdata            CListener.obj
00454eac 00000001 .rdata            CListener.obj
00454ead 00000001 .rdata            CListener.obj
00454eae 00000001 .rdata            CListener.obj
00454eaf 00000001 .rdata            CListener.obj
00454eb0 00000001 .rdata            CListener.obj
00454eb1 00000001 .rdata            CBroadcaster.obj
00454eb2 00000001 .rdata            CBroadcaster.obj
00454eb3 00000001 .rdata            CBroadcaster.obj
00454eb4 00000001 .rdata            CBroadcaster.obj
00454eb5 00000001 .rdata            CBroadcaster.obj
00454eb6 00000001 .rdata            CBroadcaster.obj
00454eb7 00000001 .rdata            CBroadcaster.obj
00454eb8 00000001 .rdata            CBroadcaster.obj
00454eb9 00000001 .rdata            CBroadcaster.obj
00454eba 00000001 .rdata            CBroadcaster.obj
00454ebb 00000001 .rdata            CBroadcaster.obj
00454ebc 00000001 .rdata            CBroadcaster.obj
00454ebd 00000001 .rdata            CBroadcaster.obj
00454ebe 000000bb .rdata            CBroadcaster.obj
00454f79 00000001 .rdata            CBroadcaster.obj
00454f7a 00000001 .rdata            CBroadcaster.obj
00454f7b 00000001 .rdata            CBroadcaster.obj
00454f7c 00000001 .rdata            CBroadcaster.obj
00454f7d 00000001 .rdata            CBroadcaster.obj
00454f7e 00000001 .rdata            CBroadcaster.obj
00454f7f 00000001 .rdata            CBroadcaster.obj
00454f80 00000001 .rdata            CBroadcaster.obj
00454f81 00000001 .rdata            CBroadcaster.obj
00454f82 00000001 .rdata            CBroadcaster.obj
00454f83 00000001 .rdata            CBroadcaster.obj
00454f84 00000001 .rdata            CBroadcaster.obj
00454f85 00000001 .rdata            CBroadcaster.obj
00454f86 00000001 .rdata            CBroadcaster.obj
00454f87 00000001 .rdata            CBroadcaster.obj
00454f88 00000001 .rdata            CBroadcaster.obj
00454f89 00000001 .rdata            CBroadcaster.obj
00454f8a 00000001 .rdata            CBroadcaster.obj
00454f8b 00000001 .rdata            CBroadcaster.obj
00454f8c 00000001 .rdata            CBroadcaster.obj
00454f8d 0000003b .rdata            CBroadcaster.obj
00454fc8 00000001 .rdata            CBroadcaster.obj
00454fc9 00000001 .rdata            CBroadcaster.obj
00454fca 00000015 .rdata            CBroadcaster.obj
00454fdf 00000001 .rdata            CBroadcaster.obj
00454fe0 00000001 .rdata            CBroadcaster.obj
00454fe1 00000001 .rdata            CBroadcaster.obj
00454fe2 00000001 .rdata            CBroadcaster.obj
00454fe3 00000001 .rdata            CBroadcaster.obj
00454fe4 00000001 .rdata            CSyncTCPStreamBuffer.obj
00454fe5 00000001 .rdata            CSyncTCPStreamBuffer.obj
00454fe6 00000001 .rdata            CSyncTCPStreamBuffer.obj
00454fe7 00000001 .rdata            CSyncTCPStreamBuffer.obj
00454fe8 00000001 .rdata            CStreamBuffer.obj
00454fe9 00000001 .rdata            CStreamBuffer.obj
00454fea 00000001 .rdata            CStreamBuffer.obj
00454feb 00000099 .rdata            CStreamBuffer.obj
00455084 00000001 .rdata            CStreamBuffer.obj
00455085 00000001 .rdata            UAWError_W.obj
00455086 00000001 .rdata            CMessageWrangler.obj
00455087 00000001 .rdata            CMessageWrangler.obj
00455088 00000001 .rdata            CMessageWrangler.obj
00455089 00000001 .rdata            CMessageWrangler.obj
0045508a 00000001 .rdata            CMessageWrangler.obj
0045508b 00000001 .rdata            CMessageWrangler.obj
0045508c 000000d3 .rdata            CMessageWrangler.obj
0045515f 00000001 .rdata            CMessageWrangler.obj
00455160 00000001 .rdata            CMessageWrangler.obj
00455161 000000eb .rdata            CMessageWrangler.obj
0045524c 00000001 .rdata            CMessageWrangler.obj
0045524d 00000001 .rdata            CMessageWrangler.obj
0045524e 00000001 .rdata            CMessageWrangler.obj
0045524f 00000001 .rdata            CMessageWrangler.obj
00455250 00000001 .rdata            CMessageWrangler.obj
00455251 00000001 .rdata            CMessageWrangler.obj
00455252 00000001 .rdata            CMessageWrangler.obj
00455253 00000001 .rdata            CMessageWrangler.obj
00455254 00000001 .rdata            CMessageWrangler.obj
00455255 00000001 .rdata            CMessageWrangler.obj
00455256 00000001 .rdata            CMessageWrangler.obj
00455257 00000001 .rdata            CMessageWrangler.obj
00455258 00000001 .rdata            CMessageWrangler.obj
00455259 00000001 .rdata            CMessageWrangler.obj
0045525a 00000001 .rdata            CMessageWrangler.obj
0045525b 00000001 .rdata            CMessageWrangler.obj
0045525c 00000001 .rdata            CMessageWrangler.obj
0045525d 00000001 .rdata            CMessageWrangler.obj
0045525e 00000001 .rdata            CMessageWrangler.obj
0045525f 00000001 .rdata            CFSLocalFileRefWin.obj
00455260 00000001 .rdata            CFSLocalFileRefWin.obj
00455261 00000001 .rdata            CFSLocalFileRefWin.obj
00455262 00000001 .rdata            CFSLocalFileRefWin.obj
00455263 00000001 .rdata            CFSLocalFileRefWin.obj
00455264 00000001 .rdata            CFSLocalFileRefWin.obj
00455265 00000001 .rdata            CFSLocalFileRefWin.obj
00455266 00000001 .rdata            CMemoryObjectCache.obj
00455267 00000001 .rdata            CMemoryObjectCache.obj
00455268 00000001 .rdata            CMemoryObjectCache.obj
00455269 00000001 .rdata            CMemoryObjectCache.obj
0045526a 00000001 .rdata            CFlattenable.obj
0045526b 00000001 .rdata            CFlattenable.obj
0045526c 00000001 .rdata            CFlattenable.obj
0045526d 00000001 .rdata            CFlattenable.obj
0045526e 00000001 .rdata            CFlattenable.obj
0045526f 00000001 .rdata            CFlattenable.obj
00455270 00000001 .rdata            CFlattenable.obj
00455274 00000004 .rdata            CFlattenable.obj(@9201)
00455278 00000099 .rdata            CFlattenable.obj
00455311 00000001 .rdata            CFlattenable.obj
00455312 00000019 .rdata            CFlattenable.obj
0045532b 00000019 .rdata            CFlattenable.obj
00455344 00000001 .rdata            CGenericObject.obj
00455345 00000001 .rdata            CGenericObject.obj
00455346 00000001 .rdata            CGenericObject.obj
00455347 0000001d .rdata            CStringObject.obj
00455364 00000001 .rdata            CStringObject.obj
00455365 00000099 .rdata            CStringObject.obj
004553fe 00000099 .rdata            CStringObject.obj
00455497 00000001 .rdata            CStringObject.obj
00455498 00000001 .rdata            CStringObject.obj
00455499 0000001d .rdata            CResourceList.obj
004554b6 00000001 .rdata            CResourceList.obj
004554b7 00000001 .rdata            CResourceList.obj
004554b8 00000001 .rdata            CResourceList.obj
004554b9 00000001 .rdata            CResourceList.obj
004554ba 00000001 .rdata            CResourceList.obj
004554bb 00000001 .rdata            CResourceList.obj
004554bc 00000001 .rdata            CResourceList.obj
004554bd 00000001 .rdata            CResourceList.obj
004554be 00000001 .rdata            CResourceList.obj
004554bf 00000099 .rdata            CResourceList.obj
00455558 00000099 .rdata            CResourceList.obj
004555f1 00000001 .rdata            CResourceList.obj
004555f2 00000001 .rdata            CResourceList.obj
004555f3 00000001 .rdata            CResourceList.obj
004555f4 00000001 .rdata            CResourceList.obj
004555f5 00000001 .rdata            CResourceList.obj
004555f6 00000001 .rdata            CResourceList.obj
004555f7 00000001 .rdata            CResourceList.obj
004555f8 00000001 .rdata            CResourceList.obj
004555f9 00000001 .rdata            CResourceList.obj
004555fa 00000079 .rdata            CResourceList.obj
00455673 00000001 .rdata            CResourceList.obj
00455674 00000001 .rdata            CResourceList.obj
00455675 00000001 .rdata            CResourceList.obj
00455676 00000001 .rdata            CResourceList.obj
00455677 00000001 .rdata            CResourceList.obj
00455678 00000001 .rdata            CResourceList.obj
00455679 00000001 .rdata            CResourceList.obj
0045567a 00000001 .rdata            CResourceList.obj
0045567b 00000001 .rdata            CResourceList.obj
0045567c 00000001 .rdata            CResourceList.obj
0045567d 00000001 .rdata            CResourceList.obj
0045567e 00000001 .rdata            CResourceList.obj
0045567f 00000001 .rdata            CResourceList.obj
00455680 00000001 .rdata            CResourceList.obj
00455681 00000001 .rdata            CResourceList.obj
00455682 00000001 .rdata            CResourceList.obj
00455683 00000001 .rdata            CResourceList.obj
00455684 00000001 .rdata            CResourceList.obj
00455685 00000001 .rdata            CResourceList.obj
00455686 00000001 .rdata            CResourceList.obj
00455687 00000015 .rdata            CResourceList.obj
0045569c 00000001 .rdata            CResourceList.obj
0045569d 00000001 .rdata            CResourceList.obj
0045569e 00000001 .rdata            CResourceList.obj
0045569f 00000001 .rdata            CResourceList.obj
004556a0 00000001 .rdata            CResourceList.obj
004556a1 00000001 .rdata            CResourceList.obj
004556a2 00000001 .rdata            CResourceList.obj
004556a3 00000001 .rdata            CResourceList.obj
004556a4 00000001 .rdata            CResourceList.obj
004556a5 00000049 .rdata            CResourceList.obj
004556ee 00000001 .rdata            CResourceList.obj
004556ef 00000001 .rdata            CResourceList.obj
004556f0 00000001 .rdata            CResourceList.obj
004556f1 00000001 .rdata            CResourceList.obj
00456000 00000000 .exc     $AAA     cexc.obj
00456000 00000008 .exc     $BBB     TrackerServ.cp
00456008 00000008 .exc     $BBB     TrackerServ.cp
00456010 00000008 .exc     $BBB     TrackerServ.cp
00456018 00000008 .exc     $BBB     TrackerServ.cp
00456020 00000008 .exc     $BBB     TrackerServ.cp
00456028 00000008 .exc     $BBB     TrackerServ.cp
00456030 00000008 .exc     $BBB     TrackerServ.cp
00456038 00000008 .exc     $BBB     TrackerServ.cp
00456040 00000008 .exc     $BBB     TrackerServ.cp
00456048 00000008 .exc     $BBB     TrackerServ.cp
00456050 00000008 .exc     $BBB     TrackerServ.cp
00456058 00000008 .exc     $BBB     TrackerServ.cp
00456060 00000008 .exc     $BBB     TrackerServ.cp
00456068 00000008 .exc     $BBB     TrackerServ.cp
00456070 00000008 .exc     $BBB     TrackerServ.cp
00456078 00000008 .exc     $BBB     TrackerServ.cp
00456080 00000008 .exc     $BBB     TrackerServ.cp
00456088 00000008 .exc     $BBB     TrackerServ.cp
00456090 00000008 .exc     $BBB     TrackerServ.cp
00456098 00000008 .exc     $BBB     TrackerServ.cp
004560a0 00000008 .exc     $BBB     TrackerServ.cp
004560a8 00000008 .exc     $BBB     TrackerServ.cp
004560b0 00000008 .exc     $BBB     TrackerServ.cp
004560b8 00000008 .exc     $BBB     TrackerServ.cp
004560c0 00000008 .exc     $BBB     TrackerServ.cp
004560c8 00000008 .exc     $BBB     TrackerServ.cp
004560d0 00000008 .exc     $BBB     TrackerServ.cp
004560d8 00000008 .exc     $BBB     TrackerServ.cp
004560e0 00000008 .exc     $BBB     TrackerServ.cp
004560e8 00000008 .exc     $BBB     TrackerServ.cp
004560f0 00000008 .exc     $BBB     TrackerServ.cp
004560f8 00000008 .exc     $BBB     TrackerServ.cp
00456100 00000008 .exc     $BBB     TrackerServ.cp
00456108 00000008 .exc     $BBB     TrackerServ.cp
00456110 00000008 .exc     $BBB     TrackerServ.cp
00456118 00000008 .exc     $BBB     TrackerServ.cp
00456120 00000008 .exc     $BBB     TrackerServ.cp
00456128 00000008 .exc     $BBB     TrackerServ.cp
00456130 00000008 .exc     $BBB     TrackerServ.cp
00456138 00000008 .exc     $BBB     TrackerServ.cp
00456140 00000008 .exc     $BBB     TrackerServ.cp
00456148 00000008 .exc     $BBB     TrackerServ.cp
00456150 00000008 .exc     $BBB     TrackerServ.cp
00456158 00000008 .exc     $BBB     TrackerServ.cp
00456160 00000008 .exc     $BBB     TrackerServ.cp
00456168 00000008 .exc     $BBB     TrackerServ.cp
00456170 00000008 .exc     $BBB     TrackerServ.cp
00456178 00000008 .exc     $BBB     TrackerServ.cp
00456180 00000008 .exc     $BBB     TrackerServ.cp
00456188 00000008 .exc     $BBB     TrackerServ.cp
00456190 00000008 .exc     $BBB     TrackerServ.cp
00456198 00000008 .exc     $BBB     TrackerServ.cp
004561a0 00000008 .exc     $BBB     TrackerServ.cp
004561a8 00000008 .exc     $BBB     TrackerServ.cp
004561b0 00000008 .exc     $BBB     TrackerServWindows.cp
004561b8 00000008 .exc     $BBB     TrackerServWindows.cp
004561c0 00000008 .exc     $BBB     TrackerServWindows.cp
004561c8 00000008 .exc     $BBB     TrackerServWindows.cp
004561d0 00000008 .exc     $BBB     TrackerServWindows.cp
004561d8 00000008 .exc     $BBB     TrackerServWindows.cp
004561e0 00000008 .exc     $BBB     TrackerServWindows.cp
004561e8 00000008 .exc     $BBB     TrackerServWindows.cp
004561f0 00000008 .exc     $BBB     TrackerServWindows.cp
004561f8 00000008 .exc     $BBB     TrackerServWindows.cp
00456200 00000008 .exc     $BBB     TrackerServWindows.cp
00456208 00000008 .exc     $BBB     TrackerServWindows.cp
00456210 00000008 .exc     $BBB     TrackerServWindows.cp
00456218 00000008 .exc     $BBB     TrackerServWindows.cp
00456220 00000008 .exc     $BBB     TrackerServWindows.cp
00456228 00000008 .exc     $BBB     TrackerServWindows.cp
00456230 00000008 .exc     $BBB     TrackerServWindows.cp
00456238 00000008 .exc     $BBB     TrackerServWindows.cp
00456240 00000008 .exc     $BBB     TrackerServWindows.cp
00456248 00000008 .exc     $BBB     TrackerServWindows.cp
00456250 00000008 .exc     $BBB     TrackerServWindows.cp
00456258 00000008 .exc     $BBB     TrackerServWindows.cp
00456260 00000008 .exc     $BBB     TrackerServViews.cp
00456268 00000008 .exc     $BBB     TrackerServViews.cp
00456270 00000008 .exc     $BBB     TrackerServViews.cp
00456278 00000008 .exc     $BBB     TrackerServViews.cp
00456280 00000008 .exc     $BBB     TrackerServViews.cp
00456288 00000008 .exc     $BBB     TrackerServViews.cp
00456290 00000008 .exc     $BBB     TrackerServViews.cp
00456298 00000008 .exc     $BBB     TrackerServViews.cp
004562a0 00000008 .exc     $BBB     TrackerServViews.cp
004562a8 00000008 .exc     $BBB     TrackerServViews.cp
004562b0 00000008 .exc     $BBB     TrackerServViews.cp
004562b8 00000008 .exc     $BBB     TrackerServViews.cp
004562c0 00000008 .exc     $BBB     TrackerServViews.cp
004562c8 00000008 .exc     $BBB     TrackerServViews.cp
004562d0 00000008 .exc     $BBB     TrackerServViews.cp
004562d8 00000008 .exc     $BBB     TrackerServViews.cp
004562e0 00000008 .exc     $BBB     TrackerServViews.cp
004562e8 00000008 .exc     $BBB     TrackerServViews.cp
004562f0 00000008 .exc     $BBB     TrackerServViews.cp
004562f8 00000008 .exc     $BBB     TrackerServViews.cp
00456300 00000008 .exc     $BBB     TrackerServViews.cp
00456308 00000008 .exc     $BBB     TrackerServViews.cp
00456310 00000008 .exc     $BBB     TrackerServViews.cp
00456318 00000008 .exc     $BBB     TrackerServViews.cp
00456320 00000008 .exc     $BBB     TrackerServViews.cp
00456328 00000008 .exc     $BBB     TrackerServViews.cp
00456330 00000008 .exc     $BBB     TrackerServViews.cp
00456338 00000008 .exc     $BBB     TrackerServViews.cp
00456340 00000008 .exc     $BBB     TrackerServViews.cp
00456348 00000008 .exc     $BBB     TrackerServViews.cp
00456350 00000008 .exc     $BBB     TrackerServViews.cp
00456358 00000008 .exc     $BBB     TrackerServViews.cp
00456360 00000008 .exc     $BBB     TrackerServViews.cp
00456368 00000008 .exc     $BBB     TrackerServViews.cp
00456370 00000008 .exc     $BBB     TrackerServViews.cp
00456378 00000008 .exc     $BBB     TrackerServViews.cp
00456380 00000008 .exc     $BBB     TrackerServViews.cp
00456388 00000008 .exc     $BBB     TrackerServViews.cp
00456390 00000008 .exc     $BBB     TrackerServViews.cp
00456398 00000008 .exc     $BBB     TrackerServViews.cp
004563a0 00000008 .exc     $BBB     TrackerServViews.cp
004563a8 00000008 .exc     $BBB     TrackerServViews.cp
004563b0 00000008 .exc     $BBB     TrackerServViews.cp
004563b8 00000008 .exc     $BBB     TrackerServViews.cp
004563c0 00000008 .exc     $BBB     TrackerServViews.cp
004563c8 00000008 .exc     $BBB     TrackerServViews.cp
004563d0 00000008 .exc     $BBB     TrackerServViews.cp
004563d8 00000008 .exc     $BBB     TrackerServViews.cp
004563e0 00000008 .exc     $BBB     TrackerServViews.cp
004563e8 00000008 .exc     $BBB     TrackerServViews.cp
004563f0 00000008 .exc     $BBB     TrackerServViews.cp
004563f8 00000008 .exc     $BBB     TrackerServViews.cp
00456400 00000008 .exc     $BBB     TrackerServViews.cp
00456408 00000008 .exc     $BBB     UOperatingSystem(W).obj
00456410 00000008 .exc     $BBB     UOperatingSystem(W).obj
00456418 00000008 .exc     $BBB     UOperatingSystem(W).obj
00456420 00000008 .exc     $BBB     UOperatingSystem(W).obj
00456428 00000008 .exc     $BBB     UTransport.obj
00456430 00000008 .exc     $BBB     UTransport.obj
00456438 00000008 .exc     $BBB     UTransport.obj
00456440 00000008 .exc     $BBB     UTransport.obj
00456448 00000008 .exc     $BBB     UTransport.obj
00456450 00000008 .exc     $BBB     UTransport.obj
00456458 00000008 .exc     $BBB     UTransport.obj
00456460 00000008 .exc     $BBB     UTransport.obj
00456468 00000008 .exc     $BBB     UTransport.obj
00456470 00000008 .exc     $BBB     UTransport.obj
00456478 00000008 .exc     $BBB     UTransport.obj
00456480 00000008 .exc     $BBB     UTransport.obj
00456488 00000008 .exc     $BBB     UTransport.obj
00456490 00000008 .exc     $BBB     UTransport.obj
00456498 00000008 .exc     $BBB     UTransport.obj
004564a0 00000008 .exc     $BBB     UTransport.obj
004564a8 00000008 .exc     $BBB     UTransport.obj
004564b0 00000008 .exc     $BBB     UTransport.obj
004564b8 00000008 .exc     $BBB     UTransport.obj
004564c0 00000008 .exc     $BBB     UTransport.obj
004564c8 00000008 .exc     $BBB     UError.obj
004564d0 00000008 .exc     $BBB     UError.obj
004564d8 00000008 .exc     $BBB     UError.obj
004564e0 00000008 .exc     $BBB     UError.obj
004564e8 00000008 .exc     $BBB     UError.obj
004564f0 00000008 .exc     $BBB     UError(W).obj
004564f8 00000008 .exc     $BBB     UError(W).obj
00456500 00000008 .exc     $BBB     UError(W).obj
00456508 00000008 .exc     $BBB     UError(W).obj
00456510 00000008 .exc     $BBB     UError(W).obj
00456518 00000008 .exc     $BBB     UError(W).obj
00456520 00000008 .exc     $BBB     UError(W).obj
00456528 00000008 .exc     $BBB     stackall.obj
00456530 00000008 .exc     $BBB     stackall.obj
00456538 00000008 .exc     $BBB     UMemory.obj
00456540 00000008 .exc     $BBB     UMemory.obj
00456548 00000008 .exc     $BBB     UMemory.obj
00456550 00000008 .exc     $BBB     UMemory.obj
00456558 00000008 .exc     $BBB     UMemory.obj
00456560 00000008 .exc     $BBB     UMemory.obj
00456568 00000008 .exc     $BBB     UMemory.obj
00456570 00000008 .exc     $BBB     UMemory.obj
00456578 00000008 .exc     $BBB     UMemory.obj
00456580 00000008 .exc     $BBB     UMemory.obj
00456588 00000008 .exc     $BBB     UMemory.obj
00456590 00000008 .exc     $BBB     UMemory.obj
00456598 00000008 .exc     $BBB     UMemory.obj
004565a0 00000008 .exc     $BBB     UMemory.obj
004565a8 00000008 .exc     $BBB     UMemory.obj
004565b0 00000008 .exc     $BBB     UMemory.obj
004565b8 00000008 .exc     $BBB     UMemory.obj
004565c0 00000008 .exc     $BBB     UText.obj
004565c8 00000008 .exc     $BBB     UText.obj
004565d0 00000008 .exc     $BBB     UText.obj
004565d8 00000008 .exc     $BBB     UText.obj
004565e0 00000008 .exc     $BBB     UText.obj
004565e8 00000008 .exc     $BBB     UText.obj
004565f0 00000008 .exc     $BBB     UText.obj
004565f8 00000008 .exc     $BBB     UText.obj
00456600 00000008 .exc     $BBB     UText.obj
00456608 00000008 .exc     $BBB     UText.obj
00456610 00000008 .exc     $BBB     UText.obj
00456618 00000008 .exc     $BBB     UText.obj
00456620 00000008 .exc     $BBB     UMemory(W).obj
00456628 00000008 .exc     $BBB     UMemory(W).obj
00456630 00000008 .exc     $BBB     UMemory(W).obj
00456638 00000008 .exc     $BBB     UMemory(W).obj
00456640 00000008 .exc     $BBB     UMemory(W).obj
00456648 00000008 .exc     $BBB     UMemory(W).obj
00456650 00000008 .exc     $BBB     UMemory(W).obj
00456658 00000008 .exc     $BBB     UMemory(W).obj
00456660 00000008 .exc     $BBB     UMemory(W).obj
00456668 00000008 .exc     $BBB     UMemory(W).obj
00456670 00000008 .exc     $BBB     UMemory(W).obj
00456678 00000008 .exc     $BBB     UMemory(W).obj
00456680 00000008 .exc     $BBB     UMemory(W).obj
00456688 00000008 .exc     $BBB     UMemory(W).obj
00456690 00000008 .exc     $BBB     UMemory(W).obj
00456698 00000008 .exc     $BBB     UMemory(W).obj
004566a0 00000008 .exc     $BBB     UMemory(W).obj
004566a8 00000008 .exc     $BBB     UMemory(W).obj
004566b0 00000008 .exc     $BBB     UMemory(W).obj
004566b8 00000008 .exc     $BBB     UMemory(W).obj
004566c0 00000008 .exc     $BBB     UMemory(W).obj
004566c8 00000008 .exc     $BBB     UMemory(W).obj
004566d0 00000008 .exc     $BBB     UMemory(W).obj
004566d8 00000008 .exc     $BBB     UMemory(W).obj
004566e0 00000008 .exc     $BBB     UMemory(W).obj
004566e8 00000008 .exc     $BBB     UMemory(W).obj
004566f0 00000008 .exc     $BBB     UMemory(W).obj
004566f8 00000008 .exc     $BBB     CPtrList.obj
00456700 00000008 .exc     $BBB     CPtrList.obj
00456708 00000008 .exc     $BBB     CPtrList.obj
00456710 00000008 .exc     $BBB     CPtrList.obj
00456718 00000008 .exc     $BBB     CPtrList.obj
00456720 00000008 .exc     $BBB     CPtrList.obj
00456728 00000008 .exc     $BBB     CPtrList.obj
00456730 00000008 .exc     $BBB     CPtrList.obj
00456738 00000008 .exc     $BBB     CApplication.obj
00456740 00000008 .exc     $BBB     CApplication.obj
00456748 00000008 .exc     $BBB     CApplication.obj
00456750 00000008 .exc     $BBB     CApplication.obj
00456758 00000008 .exc     $BBB     CApplication.obj
00456760 00000008 .exc     $BBB     CApplication.obj
00456768 00000008 .exc     $BBB     CApplication.obj
00456770 00000008 .exc     $BBB     CApplication.obj
00456778 00000008 .exc     $BBB     CApplication.obj
00456780 00000008 .exc     $BBB     CApplication.obj
00456788 00000008 .exc     $BBB     CApplication.obj
00456790 00000008 .exc     $BBB     CApplication.obj
00456798 00000008 .exc     $BBB     CApplication.obj
004567a0 00000008 .exc     $BBB     CApplication.obj
004567a8 00000008 .exc     $BBB     CApplication.obj
004567b0 00000008 .exc     $BBB     CApplication.obj
004567b8 00000008 .exc     $BBB     CApplication.obj
004567c0 00000008 .exc     $BBB     UTimer(W).obj
004567c8 00000008 .exc     $BBB     UTimer(W).obj
004567d0 00000008 .exc     $BBB     UTimer(W).obj
004567d8 00000008 .exc     $BBB     UTimer(W).obj
004567e0 00000008 .exc     $BBB     UTimer(W).obj
004567e8 00000008 .exc     $BBB     UTimer(W).obj
004567f0 00000008 .exc     $BBB     UTimer(W).obj
004567f8 00000008 .exc     $BBB     UTimer(W).obj
00456800 00000008 .exc     $BBB     MsgBox.obj
00456808 00000008 .exc     $BBB     MsgBox.obj
00456810 00000008 .exc     $BBB     MsgBox.obj
00456818 00000008 .exc     $BBB     MsgBox.obj
00456820 00000008 .exc     $BBB     MsgBox.obj
00456828 00000008 .exc     $BBB     UWindow(W).obj
00456830 00000008 .exc     $BBB     UWindow(W).obj
00456838 00000008 .exc     $BBB     UWindow(W).obj
00456840 00000008 .exc     $BBB     UWindow(W).obj
00456848 00000008 .exc     $BBB     UWindow(W).obj
00456850 00000008 .exc     $BBB     UWindow(W).obj
00456858 00000008 .exc     $BBB     UWindow(W).obj
00456860 00000008 .exc     $BBB     UWindow(W).obj
00456868 00000008 .exc     $BBB     UWindow(W).obj
00456870 00000008 .exc     $BBB     UWindow(W).obj
00456878 00000008 .exc     $BBB     UWindow(W).obj
00456880 00000008 .exc     $BBB     UWindow(W).obj
00456888 00000008 .exc     $BBB     UWindow(W).obj
00456890 00000008 .exc     $BBB     UWindow(W).obj
00456898 00000008 .exc     $BBB     UWindow(W).obj
004568a0 00000008 .exc     $BBB     UWindow(W).obj
004568a8 00000008 .exc     $BBB     UWindow(W).obj
004568b0 00000008 .exc     $BBB     UWindow(W).obj
004568b8 00000008 .exc     $BBB     UWindow(W).obj
004568c0 00000008 .exc     $BBB     UWindow(W).obj
004568c8 00000008 .exc     $BBB     UWindow(W).obj
004568d0 00000008 .exc     $BBB     UWindow(W).obj
004568d8 00000008 .exc     $BBB     UWindow(W).obj
004568e0 00000008 .exc     $BBB     UWindow(W).obj
004568e8 00000008 .exc     $BBB     UWindow(W).obj
004568f0 00000008 .exc     $BBB     UWindow(W).obj
004568f8 00000008 .exc     $BBB     UWindow(W).obj
00456900 00000008 .exc     $BBB     UWindow(W).obj
00456908 00000008 .exc     $BBB     UWindow(W).obj
00456910 00000008 .exc     $BBB     UWindow(W).obj
00456918 00000008 .exc     $BBB     UWindow(W).obj
00456920 00000008 .exc     $BBB     UWindow(W).obj
00456928 00000008 .exc     $BBB     UWindow(W).obj
00456930 00000008 .exc     $BBB     UWindow(W).obj
00456938 00000008 .exc     $BBB     UWindow(W).obj
00456940 00000008 .exc     $BBB     UWindow(W).obj
00456948 00000008 .exc     $BBB     UWindow(W).obj
00456950 00000008 .exc     $BBB     UWindow(W).obj
00456958 00000008 .exc     $BBB     UWindow(W).obj
00456960 00000008 .exc     $BBB     UWindow(W).obj
00456968 00000008 .exc     $BBB     UWindow(W).obj
00456970 00000008 .exc     $BBB     UWindow(W).obj
00456978 00000008 .exc     $BBB     UWindow(W).obj
00456980 00000008 .exc     $BBB     UWindow(W).obj
00456988 00000008 .exc     $BBB     UWindow(W).obj
00456990 00000008 .exc     $BBB     UWindow(W).obj
00456998 00000008 .exc     $BBB     UWindow(W).obj
004569a0 00000008 .exc     $BBB     UWindow(W).obj
004569a8 00000008 .exc     $BBB     UWindow(W).obj
004569b0 00000008 .exc     $BBB     UWindow(W).obj
004569b8 00000008 .exc     $BBB     UWindow(W).obj
004569c0 00000008 .exc     $BBB     UWindow(W).obj
004569c8 00000008 .exc     $BBB     UWindow(W).obj
004569d0 00000008 .exc     $BBB     UWindow(W).obj
004569d8 00000008 .exc     $BBB     UWindow(W).obj
004569e0 00000008 .exc     $BBB     UWindow(W).obj
004569e8 00000008 .exc     $BBB     UWindow(W).obj
004569f0 00000008 .exc     $BBB     UWindow(W).obj
004569f8 00000008 .exc     $BBB     UDebug(W).obj
00456a00 00000008 .exc     $BBB     UDebug(W).obj
00456a08 00000008 .exc     $BBB     UDebug(W).obj
00456a10 00000008 .exc     $BBB     UApplication(W).obj
00456a18 00000008 .exc     $BBB     UApplication(W).obj
00456a20 00000008 .exc     $BBB     UApplication(W).obj
00456a28 00000008 .exc     $BBB     UApplication(W).obj
00456a30 00000008 .exc     $BBB     UApplication(W).obj
00456a38 00000008 .exc     $BBB     UApplication(W).obj
00456a40 00000008 .exc     $BBB     UApplication(W).obj
00456a48 00000008 .exc     $BBB     UApplication(W).obj
00456a50 00000008 .exc     $BBB     UApplication(W).obj
00456a58 00000008 .exc     $BBB     UApplication(W).obj
00456a60 00000008 .exc     $BBB     UApplication(W).obj
00456a68 00000008 .exc     $BBB     UApplication(W).obj
00456a70 00000008 .exc     $BBB     UApplication(W).obj
00456a78 00000008 .exc     $BBB     UApplication(W).obj
00456a80 00000008 .exc     $BBB     UApplication(W).obj
00456a88 00000008 .exc     $BBB     UApplication(W).obj
00456a90 00000008 .exc     $BBB     UApplication(W).obj
00456a98 00000008 .exc     $BBB     UFileSys(W).obj
00456aa0 00000008 .exc     $BBB     UFileSys(W).obj
00456aa8 00000008 .exc     $BBB     UFileSys(W).obj
00456ab0 00000008 .exc     $BBB     UFileSys(W).obj
00456ab8 00000008 .exc     $BBB     UFileSys(W).obj
00456ac0 00000008 .exc     $BBB     UFileSys(W).obj
00456ac8 00000008 .exc     $BBB     UFileSys(W).obj
00456ad0 00000008 .exc     $BBB     UFileSys(W).obj
00456ad8 00000008 .exc     $BBB     UFileSys(W).obj
00456ae0 00000008 .exc     $BBB     UFileSys(W).obj
00456ae8 00000008 .exc     $BBB     UFileSys(W).obj
00456af0 00000008 .exc     $BBB     UFileSys(W).obj
00456af8 00000008 .exc     $BBB     UFileSys(W).obj
00456b00 00000008 .exc     $BBB     UFileSys(W).obj
00456b08 00000008 .exc     $BBB     UFileSys(W).obj
00456b10 00000008 .exc     $BBB     UFileSys(W).obj
00456b18 00000008 .exc     $BBB     UFileSys(W).obj
00456b20 00000008 .exc     $BBB     UFileSys(W).obj
00456b28 00000008 .exc     $BBB     UFileSys(W).obj
00456b30 00000008 .exc     $BBB     UFileSys(W).obj
00456b38 00000008 .exc     $BBB     UFileSys(W).obj
00456b40 00000008 .exc     $BBB     USound.obj
00456b48 00000008 .exc     $BBB     USound.obj
00456b50 00000008 .exc     $BBB     CWindow.obj
00456b58 00000008 .exc     $BBB     CWindow.obj
00456b60 00000008 .exc     $BBB     CWindow.obj
00456b68 00000008 .exc     $BBB     CWindow.obj
00456b70 00000008 .exc     $BBB     CWindow.obj
00456b78 00000008 .exc     $BBB     CWindow.obj
00456b80 00000008 .exc     $BBB     CWindow.obj
00456b88 00000008 .exc     $BBB     CWindow.obj
00456b90 00000008 .exc     $BBB     CWindow.obj
00456b98 00000008 .exc     $BBB     CWindow.obj
00456ba0 00000008 .exc     $BBB     CWindow.obj
00456ba8 00000008 .exc     $BBB     CWindow.obj
00456bb0 00000008 .exc     $BBB     CWindow.obj
00456bb8 00000008 .exc     $BBB     CWindow.obj
00456bc0 00000008 .exc     $BBB     CWindow.obj
00456bc8 00000008 .exc     $BBB     CWindow.obj
00456bd0 00000008 .exc     $BBB     CWindow.obj
00456bd8 00000008 .exc     $BBB     CWindow.obj
00456be0 00000008 .exc     $BBB     CWindow.obj
00456be8 00000008 .exc     $BBB     CWindow.obj
00456bf0 00000008 .exc     $BBB     CWindow.obj
00456bf8 00000008 .exc     $BBB     CWindow.obj
00456c00 00000008 .exc     $BBB     CWindow.obj
00456c08 00000008 .exc     $BBB     CWindow.obj
00456c10 00000008 .exc     $BBB     CWindow.obj
00456c18 00000008 .exc     $BBB     CWindow.obj
00456c20 00000008 .exc     $BBB     CWindow.obj
00456c28 00000008 .exc     $BBB     CWindow.obj
00456c30 00000008 .exc     $BBB     CWindow.obj
00456c38 00000008 .exc     $BBB     CWindow.obj
00456c40 00000008 .exc     $BBB     CWindow.obj
00456c48 00000008 .exc     $BBB     CWindow.obj
00456c50 00000008 .exc     $BBB     CWindow.obj
00456c58 00000008 .exc     $BBB     CWindow.obj
00456c60 00000008 .exc     $BBB     CWindow.obj
00456c68 00000008 .exc     $BBB     CWindow.obj
00456c70 00000008 .exc     $BBB     CWindow.obj
00456c78 00000008 .exc     $BBB     CWindow.obj
00456c80 00000008 .exc     $BBB     CWindow.obj
00456c88 00000008 .exc     $BBB     CWindow.obj
00456c90 00000008 .exc     $BBB     CWindow.obj
00456c98 00000008 .exc     $BBB     CWindow.obj
00456ca0 00000008 .exc     $BBB     CWindow.obj
00456ca8 00000008 .exc     $BBB     CWindow.obj
00456cb0 00000008 .exc     $BBB     CWindow.obj
00456cb8 00000008 .exc     $BBB     CWindow.obj
00456cc0 00000008 .exc     $BBB     CWindow.obj
00456cc8 00000008 .exc     $BBB     CWindow.obj
00456cd0 00000008 .exc     $BBB     CWindow.obj
00456cd8 00000008 .exc     $BBB     CWindow.obj
00456ce0 00000008 .exc     $BBB     CWindow.obj
00456ce8 00000008 .exc     $BBB     CWindow.obj
00456cf0 00000008 .exc     $BBB     CWindow.obj
00456cf8 00000008 .exc     $BBB     CWindow.obj
00456d00 00000008 .exc     $BBB     CWindow.obj
00456d08 00000008 .exc     $BBB     CWindow.obj
00456d10 00000008 .exc     $BBB     CWindow.obj
00456d18 00000008 .exc     $BBB     CWindow.obj
00456d20 00000008 .exc     $BBB     CWindow.obj
00456d28 00000008 .exc     $BBB     CWindow.obj
00456d30 00000008 .exc     $BBB     CWindow.obj
00456d38 00000008 .exc     $BBB     CWindow.obj
00456d40 00000008 .exc     $BBB     destroy.obj
00456d48 00000008 .exc     $BBB     ExceptionX86.obj
00456d50 00000008 .exc     $BBB     ExceptionX86.obj
00456d58 00000008 .exc     $BBB     ExceptionX86.obj
00456d60 00000008 .exc     $BBB     ExceptionX86.obj
00456d68 00000008 .exc     $BBB     ExceptionX86.obj
00456d70 00000008 .exc     $BBB     ExceptionX86.obj
00456d78 00000008 .exc     $BBB     ExceptionX86.obj
00456d80 00000008 .exc     $BBB     ExceptionX86.obj
00456d88 00000008 .exc     $BBB     ExceptionX86.obj
00456d90 00000008 .exc     $BBB     ExceptionX86.obj
00456d98 00000008 .exc     $BBB     ExceptionX86.obj
00456da0 00000008 .exc     $BBB     ExceptionX86.obj
00456da8 00000008 .exc     $BBB     ExceptionX86.obj
00456db0 00000008 .exc     $BBB     ExceptionX86.obj
00456db8 00000008 .exc     $BBB     ExceptionX86.obj
00456dc0 00000008 .exc     $BBB     ExceptionX86.obj
00456dc8 00000008 .exc     $BBB     ExceptionX86.obj
00456dd0 00000008 .exc     $BBB     ExceptionX86.obj
00456dd8 00000008 .exc     $BBB     ExceptionX86.obj
00456de0 00000008 .exc     $BBB     ExceptionX86.obj
00456de8 00000008 .exc     $BBB     ExceptionX86.obj
00456df0 00000008 .exc     $BBB     ExceptionX86.obj
00456df8 00000008 .exc     $BBB     ExceptionX86.obj
00456e00 00000008 .exc     $BBB     ExceptionX86.obj
00456e08 00000008 .exc     $BBB     ExceptionX86.obj
00456e10 00000008 .exc     $BBB     ExceptionX86.obj
00456e18 00000008 .exc     $BBB     ExceptionX86.obj
00456e20 00000008 .exc     $BBB     ExceptionX86.obj
00456e28 00000008 .exc     $BBB     ExceptionX86.obj
00456e30 00000008 .exc     $BBB     ExceptionX86.obj
00456e38 00000008 .exc     $BBB     ExceptionX86.obj
00456e40 00000008 .exc     $BBB     ExceptionX86.obj
00456e48 00000008 .exc     $BBB     ExceptionX86.obj
00456e50 00000008 .exc     $BBB     ExceptionX86.obj
00456e58 00000008 .exc     $BBB     ExceptionX86.obj
00456e60 00000008 .exc     $BBB     ExceptionX86.obj
00456e68 00000008 .exc     $BBB     UDateTime(W).obj
00456e70 00000008 .exc     $BBB     UDateTime(W).obj
00456e78 00000008 .exc     $BBB     UDateTime(W).obj
00456e80 00000008 .exc     $BBB     UDateTime(W).obj
00456e88 00000008 .exc     $BBB     UDateTime(W).obj
00456e90 00000008 .exc     $BBB     CView.obj
00456e98 00000008 .exc     $BBB     CView.obj
00456ea0 00000008 .exc     $BBB     CView.obj
00456ea8 00000008 .exc     $BBB     CView.obj
00456eb0 00000008 .exc     $BBB     CView.obj
00456eb8 00000008 .exc     $BBB     CView.obj
00456ec0 00000008 .exc     $BBB     CView.obj
00456ec8 00000008 .exc     $BBB     CView.obj
00456ed0 00000008 .exc     $BBB     CView.obj
00456ed8 00000008 .exc     $BBB     CView.obj
00456ee0 00000008 .exc     $BBB     CView.obj
00456ee8 00000008 .exc     $BBB     CView.obj
00456ef0 00000008 .exc     $BBB     CView.obj
00456ef8 00000008 .exc     $BBB     CView.obj
00456f00 00000008 .exc     $BBB     CView.obj
00456f08 00000008 .exc     $BBB     CView.obj
00456f10 00000008 .exc     $BBB     CView.obj
00456f18 00000008 .exc     $BBB     CView.obj
00456f20 00000008 .exc     $BBB     CView.obj
00456f28 00000008 .exc     $BBB     CView.obj
00456f30 00000008 .exc     $BBB     CView.obj
00456f38 00000008 .exc     $BBB     CView.obj
00456f40 00000008 .exc     $BBB     CView.obj
00456f48 00000008 .exc     $BBB     CView.obj
00456f50 00000008 .exc     $BBB     CView.obj
00456f58 00000008 .exc     $BBB     CView.obj
00456f60 00000008 .exc     $BBB     CView.obj
00456f68 00000008 .exc     $BBB     CView.obj
00456f70 00000008 .exc     $BBB     CView.obj
00456f78 00000008 .exc     $BBB     CView.obj
00456f80 00000008 .exc     $BBB     CView.obj
00456f88 00000008 .exc     $BBB     CView.obj
00456f90 00000008 .exc     $BBB     CView.obj
00456f98 00000008 .exc     $BBB     CView.obj
00456fa0 00000008 .exc     $BBB     CView.obj
00456fa8 00000008 .exc     $BBB     CView.obj
00456fb0 00000008 .exc     $BBB     CView.obj
00456fb8 00000008 .exc     $BBB     CView.obj
00456fc0 00000008 .exc     $BBB     CView.obj
00456fc8 00000008 .exc     $BBB     CView.obj
00456fd0 00000008 .exc     $BBB     CView.obj
00456fd8 00000008 .exc     $BBB     CView.obj
00456fe0 00000008 .exc     $BBB     CView.obj
00456fe8 00000008 .exc     $BBB     CView.obj
00456ff0 00000008 .exc     $BBB     CView.obj
00456ff8 00000008 .exc     $BBB     CView.obj
00457000 00000008 .exc     $BBB     CView.obj
00457008 00000008 .exc     $BBB     CView.obj
00457010 00000008 .exc     $BBB     CView.obj
00457018 00000008 .exc     $BBB     CView.obj
00457020 00000008 .exc     $BBB     CView.obj
00457028 00000008 .exc     $BBB     CView.obj
00457030 00000008 .exc     $BBB     CView.obj
00457038 00000008 .exc     $BBB     CView.obj
00457040 00000008 .exc     $BBB     CView.obj
00457048 00000008 .exc     $BBB     CView.obj
00457050 00000008 .exc     $BBB     CView.obj
00457058 00000008 .exc     $BBB     CView.obj
00457060 00000008 .exc     $BBB     CView.obj
00457068 00000008 .exc     $BBB     CView.obj
00457070 00000008 .exc     $BBB     CView.obj
00457078 00000008 .exc     $BBB     CViewContainer.obj
00457080 00000008 .exc     $BBB     CViewContainer.obj
00457088 00000008 .exc     $BBB     CViewContainer.obj
00457090 00000008 .exc     $BBB     CViewContainer.obj
00457098 00000008 .exc     $BBB     CViewContainer.obj
004570a0 00000008 .exc     $BBB     CViewContainer.obj
004570a8 00000008 .exc     $BBB     CViewContainer.obj
004570b0 00000008 .exc     $BBB     CViewContainer.obj
004570b8 00000008 .exc     $BBB     CViewContainer.obj
004570c0 00000008 .exc     $BBB     CViewContainer.obj
004570c8 00000008 .exc     $BBB     CViewContainer.obj
004570d0 00000008 .exc     $BBB     CViewContainer.obj
004570d8 00000008 .exc     $BBB     CViewContainer.obj
004570e0 00000008 .exc     $BBB     CViewContainer.obj
004570e8 00000008 .exc     $BBB     CContainerView.obj
004570f0 00000008 .exc     $BBB     CContainerView.obj
004570f8 00000008 .exc     $BBB     CContainerView.obj
00457100 00000008 .exc     $BBB     CContainerView.obj
00457108 00000008 .exc     $BBB     CContainerView.obj
00457110 00000008 .exc     $BBB     CContainerView.obj
00457118 00000008 .exc     $BBB     CContainerView.obj
00457120 00000008 .exc     $BBB     CContainerView.obj
00457128 00000008 .exc     $BBB     CContainerView.obj
00457130 00000008 .exc     $BBB     CContainerView.obj
00457138 00000008 .exc     $BBB     CContainerView.obj
00457140 00000008 .exc     $BBB     CContainerView.obj
00457148 00000008 .exc     $BBB     CContainerView.obj
00457150 00000008 .exc     $BBB     CContainerView.obj
00457158 00000008 .exc     $BBB     CContainerView.obj
00457160 00000008 .exc     $BBB     CContainerView.obj
00457168 00000008 .exc     $BBB     CContainerView.obj
00457170 00000008 .exc     $BBB     CContainerView.obj
00457178 00000008 .exc     $BBB     CContainerView.obj
00457180 00000008 .exc     $BBB     CContainerView.obj
00457188 00000008 .exc     $BBB     CContainerView.obj
00457190 00000008 .exc     $BBB     CContainerView.obj
00457198 00000008 .exc     $BBB     CContainerView.obj
004571a0 00000008 .exc     $BBB     CContainerView.obj
004571a8 00000008 .exc     $BBB     CContainerView.obj
004571b0 00000008 .exc     $BBB     CContainerView.obj
004571b8 00000008 .exc     $BBB     CContainerView.obj
004571c0 00000008 .exc     $BBB     CContainerView.obj
004571c8 00000008 .exc     $BBB     CContainerView.obj
004571d0 00000008 .exc     $BBB     CContainerView.obj
004571d8 00000008 .exc     $BBB     CContainerView.obj
004571e0 00000008 .exc     $BBB     CContainerView.obj
004571e8 00000008 .exc     $BBB     CContainerView.obj
004571f0 00000008 .exc     $BBB     CContainerView.obj
004571f8 00000008 .exc     $BBB     CContainerView.obj
00457200 00000008 .exc     $BBB     CContainerView.obj
00457208 00000008 .exc     $BBB     CContainerView.obj
00457210 00000008 .exc     $BBB     CContainerView.obj
00457218 00000008 .exc     $BBB     CContainerView.obj
00457220 00000008 .exc     $BBB     CTabbedView.obj
00457228 00000008 .exc     $BBB     CTabbedView.obj
00457230 00000008 .exc     $BBB     CTabbedView.obj
00457238 00000008 .exc     $BBB     CTabbedView.obj
00457240 00000008 .exc     $BBB     CTabbedView.obj
00457248 00000008 .exc     $BBB     CTabbedView.obj
00457250 00000008 .exc     $BBB     CTabbedView.obj
00457258 00000008 .exc     $BBB     CTabbedView.obj
00457260 00000008 .exc     $BBB     CTabbedView.obj
00457268 00000008 .exc     $BBB     CTabbedView.obj
00457270 00000008 .exc     $BBB     CTabbedView.obj
00457278 00000008 .exc     $BBB     CTabbedView.obj
00457280 00000008 .exc     $BBB     CTabbedView.obj
00457288 00000008 .exc     $BBB     CTabbedView.obj
00457290 00000008 .exc     $BBB     CTabbedView.obj
00457298 00000008 .exc     $BBB     CTabbedView.obj
004572a0 00000008 .exc     $BBB     CTabbedView.obj
004572a8 00000008 .exc     $BBB     CTabbedView.obj
004572b0 00000008 .exc     $BBB     CTabbedView.obj
004572b8 00000008 .exc     $BBB     CTabbedView.obj
004572c0 00000008 .exc     $BBB     CTabbedView.obj
004572c8 00000008 .exc     $BBB     CTabbedView.obj
004572d0 00000008 .exc     $BBB     CTabbedView.obj
004572d8 00000008 .exc     $BBB     CTabbedView.obj
004572e0 00000008 .exc     $BBB     CTabbedView.obj
004572e8 00000008 .exc     $BBB     CTabbedView.obj
004572f0 00000008 .exc     $BBB     CTabbedView.obj
004572f8 00000008 .exc     $BBB     CTabbedView.obj
00457300 00000008 .exc     $BBB     CTabbedView.obj
00457308 00000008 .exc     $BBB     CTabbedView.obj
00457310 00000008 .exc     $BBB     CTabbedView.obj
00457318 00000008 .exc     $BBB     CTabbedView.obj
00457320 00000008 .exc     $BBB     CTabbedView.obj
00457328 00000008 .exc     $BBB     CTabbedView.obj
00457330 00000008 .exc     $BBB     CTabbedView.obj
00457338 00000008 .exc     $BBB     CTabbedView.obj
00457340 00000008 .exc     $BBB     CTabbedView.obj
00457348 00000008 .exc     $BBB     CTabbedView.obj
00457350 00000008 .exc     $BBB     CTabbedView.obj
00457358 00000008 .exc     $BBB     CTabbedView.obj
00457360 00000008 .exc     $BBB     CTabbedView.obj
00457368 00000008 .exc     $BBB     CTabbedView.obj
00457370 00000008 .exc     $BBB     CTabbedView.obj
00457378 00000008 .exc     $BBB     CTabbedView.obj
00457380 00000008 .exc     $BBB     CTabbedView.obj
00457388 00000008 .exc     $BBB     CTabbedView.obj
00457390 00000008 .exc     $BBB     CTabbedView.obj
00457398 00000008 .exc     $BBB     CTabbedView.obj
004573a0 00000008 .exc     $BBB     CTabbedView.obj
004573a8 00000008 .exc     $BBB     CTabbedView.obj
004573b0 00000008 .exc     $BBB     CTabbedView.obj
004573b8 00000008 .exc     $BBB     CTabbedView.obj
004573c0 00000008 .exc     $BBB     CTabbedView.obj
004573c8 00000008 .exc     $BBB     CTabbedView.obj
004573d0 00000008 .exc     $BBB     CTabbedView.obj
004573d8 00000008 .exc     $BBB     UGraphics(W).obj
004573e0 00000008 .exc     $BBB     UGraphics(W).obj
004573e8 00000008 .exc     $BBB     UGraphics(W).obj
004573f0 00000008 .exc     $BBB     UGraphics(W).obj
004573f8 00000008 .exc     $BBB     UGraphics(W).obj
00457400 00000008 .exc     $BBB     UGraphics(W).obj
00457408 00000008 .exc     $BBB     UGraphics(W).obj
00457410 00000008 .exc     $BBB     UGraphics(W).obj
00457418 00000008 .exc     $BBB     UGraphics(W).obj
00457420 00000008 .exc     $BBB     UGraphics(W).obj
00457428 00000008 .exc     $BBB     UGraphics(W).obj
00457430 00000008 .exc     $BBB     UGraphics(W).obj
00457438 00000008 .exc     $BBB     UGraphics(W).obj
00457440 00000008 .exc     $BBB     UGraphics(W).obj
00457448 00000008 .exc     $BBB     UGraphics(W).obj
00457450 00000008 .exc     $BBB     UGraphics(W).obj
00457458 00000008 .exc     $BBB     UGraphics(W).obj
00457460 00000008 .exc     $BBB     UGraphics(W).obj
00457468 00000008 .exc     $BBB     UGraphics(W).obj
00457470 00000008 .exc     $BBB     UGraphics(W).obj
00457478 00000008 .exc     $BBB     UGraphics(W).obj
00457480 00000008 .exc     $BBB     UGraphics(W).obj
00457488 00000008 .exc     $BBB     UGraphics(W).obj
00457490 00000008 .exc     $BBB     UGraphics(W).obj
00457498 00000008 .exc     $BBB     UGraphics(W).obj
004574a0 00000008 .exc     $BBB     UGraphics(W).obj
004574a8 00000008 .exc     $BBB     UGraphics(W).obj
004574b0 00000008 .exc     $BBB     UGraphics(W).obj
004574b8 00000008 .exc     $BBB     UGraphics(W).obj
004574c0 00000008 .exc     $BBB     UGraphics(W).obj
004574c8 00000008 .exc     $BBB     UGraphics(W).obj
004574d0 00000008 .exc     $BBB     UGraphics(W).obj
004574d8 00000008 .exc     $BBB     UGraphics(W).obj
004574e0 00000008 .exc     $BBB     UGraphics(W).obj
004574e8 00000008 .exc     $BBB     UGraphics(W).obj
004574f0 00000008 .exc     $BBB     UGraphics(W).obj
004574f8 00000008 .exc     $BBB     UGraphics(W).obj
00457500 00000008 .exc     $BBB     UGraphics(W).obj
00457508 00000008 .exc     $BBB     UGraphics(W).obj
00457510 00000008 .exc     $BBB     UGraphics(W).obj
00457518 00000008 .exc     $BBB     UGraphics(W).obj
00457520 00000008 .exc     $BBB     UGraphics(W).obj
00457528 00000008 .exc     $BBB     UGraphics(W).obj
00457530 00000008 .exc     $BBB     UGraphics(W).obj
00457538 00000008 .exc     $BBB     UGraphics(W).obj
00457540 00000008 .exc     $BBB     UGraphics(W).obj
00457548 00000008 .exc     $BBB     UGraphics(W).obj
00457550 00000008 .exc     $BBB     UGraphics(W).obj
00457558 00000008 .exc     $BBB     UGraphics(W).obj
00457560 00000008 .exc     $BBB     UGraphics(W).obj
00457568 00000008 .exc     $BBB     UGraphics(W).obj
00457570 00000008 .exc     $BBB     UGraphics(W).obj
00457578 00000008 .exc     $BBB     CButtonView.obj
00457580 00000008 .exc     $BBB     CButtonView.obj
00457588 00000008 .exc     $BBB     CButtonView.obj
00457590 00000008 .exc     $BBB     CButtonView.obj
00457598 00000008 .exc     $BBB     CButtonView.obj
004575a0 00000008 .exc     $BBB     CButtonView.obj
004575a8 00000008 .exc     $BBB     CButtonView.obj
004575b0 00000008 .exc     $BBB     CButtonView.obj
004575b8 00000008 .exc     $BBB     CButtonView.obj
004575c0 00000008 .exc     $BBB     CButtonView.obj
004575c8 00000008 .exc     $BBB     CButtonView.obj
004575d0 00000008 .exc     $BBB     CButtonView.obj
004575d8 00000008 .exc     $BBB     CButtonView.obj
004575e0 00000008 .exc     $BBB     CButtonView.obj
004575e8 00000008 .exc     $BBB     CButtonView.obj
004575f0 00000008 .exc     $BBB     CButtonView.obj
004575f8 00000008 .exc     $BBB     CButtonView.obj
00457600 00000008 .exc     $BBB     CButtonView.obj
00457608 00000008 .exc     $BBB     CBoxView.obj
00457610 00000008 .exc     $BBB     CBoxView.obj
00457618 00000008 .exc     $BBB     CBoxView.obj
00457620 00000008 .exc     $BBB     CBoxView.obj
00457628 00000008 .exc     $BBB     CBoxView.obj
00457630 00000008 .exc     $BBB     CBoxView.obj
00457638 00000008 .exc     $BBB     CBoxView.obj
00457640 00000008 .exc     $BBB     CBoxView.obj
00457648 00000008 .exc     $BBB     CLabelView.obj
00457650 00000008 .exc     $BBB     CLabelView.obj
00457658 00000008 .exc     $BBB     CLabelView.obj
00457660 00000008 .exc     $BBB     CLabelView.obj
00457668 00000008 .exc     $BBB     CLabelView.obj
00457670 00000008 .exc     $BBB     CTextView.obj
00457678 00000008 .exc     $BBB     CTextView.obj
00457680 00000008 .exc     $BBB     CTextView.obj
00457688 00000008 .exc     $BBB     CTextView.obj
00457690 00000008 .exc     $BBB     CTextView.obj
00457698 00000008 .exc     $BBB     CTextView.obj
004576a0 00000008 .exc     $BBB     CTextView.obj
004576a8 00000008 .exc     $BBB     CTextView.obj
004576b0 00000008 .exc     $BBB     CTextView.obj
004576b8 00000008 .exc     $BBB     CTextView.obj
004576c0 00000008 .exc     $BBB     CTextView.obj
004576c8 00000008 .exc     $BBB     CTextView.obj
004576d0 00000008 .exc     $BBB     CTextView.obj
004576d8 00000008 .exc     $BBB     CTextView.obj
004576e0 00000008 .exc     $BBB     CTextView.obj
004576e8 00000008 .exc     $BBB     CTextView.obj
004576f0 00000008 .exc     $BBB     CTextView.obj
004576f8 00000008 .exc     $BBB     CTextView.obj
00457700 00000008 .exc     $BBB     CTextView.obj
00457708 00000008 .exc     $BBB     CTextView.obj
00457710 00000008 .exc     $BBB     CTextView.obj
00457718 00000008 .exc     $BBB     CTextView.obj
00457720 00000008 .exc     $BBB     CTextView.obj
00457728 00000008 .exc     $BBB     CTextView.obj
00457730 00000008 .exc     $BBB     CTextView.obj
00457738 00000008 .exc     $BBB     CTextView.obj
00457740 00000008 .exc     $BBB     CTextView.obj
00457748 00000008 .exc     $BBB     CTextView.obj
00457750 00000008 .exc     $BBB     CTextView.obj
00457758 00000008 .exc     $BBB     CTextView.obj
00457760 00000008 .exc     $BBB     CTextView.obj
00457768 00000008 .exc     $BBB     CTextView.obj
00457770 00000008 .exc     $BBB     CTextView.obj
00457778 00000008 .exc     $BBB     CScrollerView.obj
00457780 00000008 .exc     $BBB     CScrollerView.obj
00457788 00000008 .exc     $BBB     CScrollerView.obj
00457790 00000008 .exc     $BBB     CScrollerView.obj
00457798 00000008 .exc     $BBB     CScrollerView.obj
004577a0 00000008 .exc     $BBB     CScrollerView.obj
004577a8 00000008 .exc     $BBB     CScrollerView.obj
004577b0 00000008 .exc     $BBB     CScrollerView.obj
004577b8 00000008 .exc     $BBB     CScrollerView.obj
004577c0 00000008 .exc     $BBB     CScrollerView.obj
004577c8 00000008 .exc     $BBB     CScrollerView.obj
004577d0 00000008 .exc     $BBB     CScrollerView.obj
004577d8 00000008 .exc     $BBB     CScrollerView.obj
004577e0 00000008 .exc     $BBB     CScrollerView.obj
004577e8 00000008 .exc     $BBB     CScrollerView.obj
004577f0 00000008 .exc     $BBB     CScrollerView.obj
004577f8 00000008 .exc     $BBB     CScrollerView.obj
00457800 00000008 .exc     $BBB     CScrollerView.obj
00457808 00000008 .exc     $BBB     CScrollerView.obj
00457810 00000008 .exc     $BBB     CScrollerView.obj
00457818 00000008 .exc     $BBB     CScrollerView.obj
00457820 00000008 .exc     $BBB     CScrollerView.obj
00457828 00000008 .exc     $BBB     CScrollerView.obj
00457830 00000008 .exc     $BBB     CScrollerView.obj
00457838 00000008 .exc     $BBB     CScrollerView.obj
00457840 00000008 .exc     $BBB     CScrollerView.obj
00457848 00000008 .exc     $BBB     CScrollerView.obj
00457850 00000008 .exc     $BBB     CScrollerView.obj
00457858 00000008 .exc     $BBB     CScrollerView.obj
00457860 00000008 .exc     $BBB     CScrollerView.obj
00457868 00000008 .exc     $BBB     CScrollerView.obj
00457870 00000008 .exc     $BBB     CScrollerView.obj
00457878 00000008 .exc     $BBB     CScrollerView.obj
00457880 00000008 .exc     $BBB     CScrollerView.obj
00457888 00000008 .exc     $BBB     CScrollerView.obj
00457890 00000008 .exc     $BBB     CScrollerView.obj
00457898 00000008 .exc     $BBB     CScrollerView.obj
004578a0 00000008 .exc     $BBB     CScrollerView.obj
004578a8 00000008 .exc     $BBB     CScrollerView.obj
004578b0 00000008 .exc     $BBB     CScrollerView.obj
004578b8 00000008 .exc     $BBB     CScrollerView.obj
004578c0 00000008 .exc     $BBB     CScrollerView.obj
004578c8 00000008 .exc     $BBB     CScrollerView.obj
004578d0 00000008 .exc     $BBB     CScrollerView.obj
004578d8 00000008 .exc     $BBB     CScrollerView.obj
004578e0 00000008 .exc     $BBB     CScrollerView.obj
004578e8 00000008 .exc     $BBB     CScrollerView.obj
004578f0 00000008 .exc     $BBB     CScrollerView.obj
004578f8 00000008 .exc     $BBB     CScrollerView.obj
00457900 00000008 .exc     $BBB     CScrollerView.obj
00457908 00000008 .exc     $BBB     CScrollerView.obj
00457910 00000008 .exc     $BBB     CScrollerView.obj
00457918 00000008 .exc     $BBB     CScrollerView.obj
00457920 00000008 .exc     $BBB     CScrollerView.obj
00457928 00000008 .exc     $BBB     CScrollerView.obj
00457930 00000008 .exc     $BBB     CScrollerView.obj
00457938 00000008 .exc     $BBB     UEditText.obj
00457940 00000008 .exc     $BBB     UEditText.obj
00457948 00000008 .exc     $BBB     UEditText.obj
00457950 00000008 .exc     $BBB     UEditText.obj
00457958 00000008 .exc     $BBB     UEditText.obj
00457960 00000008 .exc     $BBB     UEditText.obj
00457968 00000008 .exc     $BBB     UEditText.obj
00457970 00000008 .exc     $BBB     UEditText.obj
00457978 00000008 .exc     $BBB     UEditText.obj
00457980 00000008 .exc     $BBB     UEditText.obj
00457988 00000008 .exc     $BBB     UEditText.obj
00457990 00000008 .exc     $BBB     UEditText.obj
00457998 00000008 .exc     $BBB     UEditText.obj
004579a0 00000008 .exc     $BBB     UEditText.obj
004579a8 00000008 .exc     $BBB     UEditText.obj
004579b0 00000008 .exc     $BBB     UEditText.obj
004579b8 00000008 .exc     $BBB     UEditText.obj
004579c0 00000008 .exc     $BBB     UEditText.obj
004579c8 00000008 .exc     $BBB     UEditText.obj
004579d0 00000008 .exc     $BBB     UEditText.obj
004579d8 00000008 .exc     $BBB     UEditText.obj
004579e0 00000008 .exc     $BBB     UEditText.obj
004579e8 00000008 .exc     $BBB     UEditText.obj
004579f0 00000008 .exc     $BBB     UEditText.obj
004579f8 00000008 .exc     $BBB     UEditText.obj
00457a00 00000008 .exc     $BBB     UEditText.obj
00457a08 00000008 .exc     $BBB     UEditText.obj
00457a10 00000008 .exc     $BBB     UEditText.obj
00457a18 00000008 .exc     $BBB     UEditText.obj
00457a20 00000008 .exc     $BBB     UEditText.obj
00457a28 00000008 .exc     $BBB     UEditText.obj
00457a30 00000008 .exc     $BBB     UEditText.obj
00457a38 00000008 .exc     $BBB     UEditText.obj
00457a40 00000008 .exc     $BBB     UEditText.obj
00457a48 00000008 .exc     $BBB     UEditText.obj
00457a50 00000008 .exc     $BBB     UEditText.obj
00457a58 00000008 .exc     $BBB     UEditText.obj
00457a60 00000008 .exc     $BBB     UEditText.obj
00457a68 00000008 .exc     $BBB     UEditText.obj
00457a70 00000008 .exc     $BBB     UEditText.obj
00457a78 00000008 .exc     $BBB     UEditText.obj
00457a80 00000008 .exc     $BBB     UEditText.obj
00457a88 00000008 .exc     $BBB     UEditText.obj
00457a90 00000008 .exc     $BBB     UEditText.obj
00457a98 00000008 .exc     $BBB     UEditText.obj
00457aa0 00000008 .exc     $BBB     UEditText.obj
00457aa8 00000008 .exc     $BBB     UEditText.obj
00457ab0 00000008 .exc     $BBB     UEditText.obj
00457ab8 00000008 .exc     $BBB     UEditText.obj
00457ac0 00000008 .exc     $BBB     UEditText.obj
00457ac8 00000008 .exc     $BBB     UEditText.obj
00457ad0 00000008 .exc     $BBB     UEditText.obj
00457ad8 00000008 .exc     $BBB     UEditText.obj
00457ae0 00000008 .exc     $BBB     UEditText.obj
00457ae8 00000008 .exc     $BBB     UEditText.obj
00457af0 00000008 .exc     $BBB     UEditText.obj
00457af8 00000008 .exc     $BBB     UEditText.obj
00457b00 00000008 .exc     $BBB     UEditText.obj
00457b08 00000008 .exc     $BBB     UEditText.obj
00457b10 00000008 .exc     $BBB     UEditText.obj
00457b18 00000008 .exc     $BBB     UEditText.obj
00457b20 00000008 .exc     $BBB     UEditText.obj
00457b28 00000008 .exc     $BBB     UEditText.obj
00457b30 00000008 .exc     $BBB     CItemsView.obj
00457b38 00000008 .exc     $BBB     CItemsView.obj
00457b40 00000008 .exc     $BBB     CItemsView.obj
00457b48 00000008 .exc     $BBB     CItemsView.obj
00457b50 00000008 .exc     $BBB     CItemsView.obj
00457b58 00000008 .exc     $BBB     CItemsView.obj
00457b60 00000008 .exc     $BBB     CItemsView.obj
00457b68 00000008 .exc     $BBB     CItemsView.obj
00457b70 00000008 .exc     $BBB     CItemsView.obj
00457b78 00000008 .exc     $BBB     CItemsView.obj
00457b80 00000008 .exc     $BBB     CItemsView.obj
00457b88 00000008 .exc     $BBB     CItemsView.obj
00457b90 00000008 .exc     $BBB     CItemsView.obj
00457b98 00000008 .exc     $BBB     CItemsView.obj
00457ba0 00000008 .exc     $BBB     CItemsView.obj
00457ba8 00000008 .exc     $BBB     CItemsView.obj
00457bb0 00000008 .exc     $BBB     CItemsView.obj
00457bb8 00000008 .exc     $BBB     CItemsView.obj
00457bc0 00000008 .exc     $BBB     CItemsView.obj
00457bc8 00000008 .exc     $BBB     CItemsView.obj
00457bd0 00000008 .exc     $BBB     CItemsView.obj
00457bd8 00000008 .exc     $BBB     CItemsView.obj
00457be0 00000008 .exc     $BBB     CItemsView.obj
00457be8 00000008 .exc     $BBB     CItemsView.obj
00457bf0 00000008 .exc     $BBB     CItemsView.obj
00457bf8 00000008 .exc     $BBB     CItemsView.obj
00457c00 00000008 .exc     $BBB     CItemsView.obj
00457c08 00000008 .exc     $BBB     CItemsView.obj
00457c10 00000008 .exc     $BBB     CItemsView.obj
00457c18 00000008 .exc     $BBB     CItemsView.obj
00457c20 00000008 .exc     $BBB     CItemsView.obj
00457c28 00000008 .exc     $BBB     CItemsView.obj
00457c30 00000008 .exc     $BBB     CItemsView.obj
00457c38 00000008 .exc     $BBB     CItemsView.obj
00457c40 00000008 .exc     $BBB     CItemsView.obj
00457c48 00000008 .exc     $BBB     CItemsView.obj
00457c50 00000008 .exc     $BBB     CItemsView.obj
00457c58 00000008 .exc     $BBB     CItemsView.obj
00457c60 00000008 .exc     $BBB     CItemsView.obj
00457c68 00000008 .exc     $BBB     CItemsView.obj
00457c70 00000008 .exc     $BBB     CItemsView.obj
00457c78 00000008 .exc     $BBB     CItemsView.obj
00457c80 00000008 .exc     $BBB     CItemsView.obj
00457c88 00000008 .exc     $BBB     CItemsView.obj
00457c90 00000008 .exc     $BBB     CItemsView.obj
00457c98 00000008 .exc     $BBB     CListView.obj
00457ca0 00000008 .exc     $BBB     CListView.obj
00457ca8 00000008 .exc     $BBB     CListView.obj
00457cb0 00000008 .exc     $BBB     CListView.obj
00457cb8 00000008 .exc     $BBB     CListView.obj
00457cc0 00000008 .exc     $BBB     CListView.obj
00457cc8 00000008 .exc     $BBB     CListView.obj
00457cd0 00000008 .exc     $BBB     CListView.obj
00457cd8 00000008 .exc     $BBB     CListView.obj
00457ce0 00000008 .exc     $BBB     CListView.obj
00457ce8 00000008 .exc     $BBB     CListView.obj
00457cf0 00000008 .exc     $BBB     CListView.obj
00457cf8 00000008 .exc     $BBB     CListView.obj
00457d00 00000008 .exc     $BBB     CListView.obj
00457d08 00000008 .exc     $BBB     CListView.obj
00457d10 00000008 .exc     $BBB     CListView.obj
00457d18 00000008 .exc     $BBB     CListView.obj
00457d20 00000008 .exc     $BBB     CListView.obj
00457d28 00000008 .exc     $BBB     CListView.obj
00457d30 00000008 .exc     $BBB     CListView.obj
00457d38 00000008 .exc     $BBB     CListView.obj
00457d40 00000008 .exc     $BBB     CListView.obj
00457d48 00000008 .exc     $BBB     CBoolArray.obj
00457d50 00000008 .exc     $BBB     CBoolArray.obj
00457d58 00000008 .exc     $BBB     CBoolArray.obj
00457d60 00000008 .exc     $BBB     CBoolArray.obj
00457d68 00000008 .exc     $BBB     CBoolArray.obj
00457d70 00000008 .exc     $BBB     CBoolArray.obj
00457d78 00000008 .exc     $BBB     CBoolArray.obj
00457d80 00000008 .exc     $BBB     CBoolArray.obj
00457d88 00000008 .exc     $BBB     CBoolArray.obj
00457d90 00000008 .exc     $BBB     CBoolArray.obj
00457d98 00000008 .exc     $BBB     CBoolArray.obj
00457da0 00000008 .exc     $BBB     CBoolArray.obj
00457da8 00000008 .exc     $BBB     CBoolArray.obj
00457db0 00000008 .exc     $BBB     CBoolArray.obj
00457db8 00000008 .exc     $BBB     UUserInterface(W).obj
00457dc0 00000008 .exc     $BBB     UUserInterface(W).obj
00457dc8 00000008 .exc     $BBB     UUserInterface(W).obj
00457dd0 00000008 .exc     $BBB     UUserInterface(W).obj
00457dd8 00000008 .exc     $BBB     UUserInterface(W).obj
00457de0 00000008 .exc     $BBB     UUserInterface(W).obj
00457de8 00000008 .exc     $BBB     UUserInterface(W).obj
00457df0 00000008 .exc     $BBB     UGraphics.obj
00457df8 00000008 .exc     $BBB     UGraphics.obj
00457e00 00000008 .exc     $BBB     UGraphics.obj
00457e08 00000008 .exc     $BBB     UGraphics.obj
00457e10 00000008 .exc     $BBB     UGraphics.obj
00457e18 00000008 .exc     $BBB     UGraphics.obj
00457e20 00000008 .exc     $BBB     UGraphics.obj
00457e28 00000008 .exc     $BBB     UGraphics.obj
00457e30 00000008 .exc     $BBB     UGraphics.obj
00457e38 00000008 .exc     $BBB     UGraphics.obj
00457e40 00000008 .exc     $BBB     UGraphics.obj
00457e48 00000008 .exc     $BBB     UGraphics.obj
00457e50 00000008 .exc     $BBB     UGraphics.obj
00457e58 00000008 .exc     $BBB     UGraphics.obj
00457e60 00000008 .exc     $BBB     UGraphics.obj
00457e68 00000008 .exc     $BBB     UGraphics.obj
00457e70 00000008 .exc     $BBB     UGraphics.obj
00457e78 00000008 .exc     $BBB     CDragAndDroppable.obj
00457e80 00000008 .exc     $BBB     CDragAndDroppable.obj
00457e88 00000008 .exc     $BBB     ANSI.obj
00457e90 00000008 .exc     $BBB     ANSI.obj
00457e98 00000008 .exc     $BBB     ANSI.obj
00457ea0 00000008 .exc     $BBB     ANSI.obj
00457ea8 00000008 .exc     $BBB     ANSI.obj
00457eb0 00000008 .exc     $BBB     ANSI.obj
00457eb8 00000008 .exc     $BBB     ANSI.obj
00457ec0 00000008 .exc     $BBB     ANSI.obj
00457ec8 00000008 .exc     $BBB     ANSI.obj
00457ed0 00000008 .exc     $BBB     ANSI.obj
00457ed8 00000008 .exc     $BBB     ANSI.obj
00457ee0 00000008 .exc     $BBB     ANSI.obj
00457ee8 00000008 .exc     $BBB     ANSI.obj
00457ef0 00000008 .exc     $BBB     ANSI.obj
00457ef8 00000008 .exc     $BBB     ANSI.obj
00457f00 00000008 .exc     $BBB     UProgramCleanup.obj
00457f08 00000008 .exc     $BBB     UProgramCleanup.obj
00457f10 00000008 .exc     $BBB     UProgramCleanup.obj
00457f18 00000008 .exc     $BBB     UProgramCleanup.obj
00457f20 00000008 .exc     $BBB     UProgramCleanup.obj
00457f28 00000008 .exc     $BBB     UProgramCleanup.obj
00457f30 00000008 .exc     $BBB     UProgramCleanup.obj
00457f38 00000008 .exc     $BBB     UProgramCleanup.obj
00457f40 00000008 .exc     $BBB     UProgramCleanup.obj
00457f48 00000008 .exc     $BBB     UService(W).obj
00457f50 00000008 .exc     $BBB     UService(W).obj
00457f58 00000008 .exc     $BBB     UService(W).obj
00457f60 00000008 .exc     $BBB     UService(W).obj
00457f68 00000008 .exc     $BBB     UService(W).obj
00457f70 00000008 .exc     $BBB     UService(W).obj
00457f78 00000008 .exc     $BBB     UService(W).obj
00457f80 00000008 .exc     $BBB     UService(W).obj
00457f88 00000008 .exc     $BBB     UService(W).obj
00457f90 00000008 .exc     $BBB     UService(W).obj
00457f98 00000008 .exc     $BBB     UService(W).obj
00457fa0 00000008 .exc     $BBB     UService(W).obj
00457fa8 00000008 .exc     $BBB     UOleAutomation(W).obj
00457fb0 00000008 .exc     $BBB     UOleAutomation(W).obj
00457fb8 00000008 .exc     $BBB     UOleAutomation(W).obj
00457fc0 00000008 .exc     $BBB     UOleAutomation(W).obj
00457fc8 00000008 .exc     $BBB     UOleAutomation(W).obj
00457fd0 00000008 .exc     $BBB     UOleAutomation(W).obj
00457fd8 00000008 .exc     $BBB     UOleAutomation(W).obj
00457fe0 00000008 .exc     $BBB     UOleAutomation(W).obj
00457fe8 00000008 .exc     $BBB     UOleAutomation(W).obj
00457ff0 00000008 .exc     $BBB     UOleAutomation(W).obj
00457ff8 00000008 .exc     $BBB     UOleAutomation(W).obj
00458000 00000008 .exc     $BBB     UOleAutomation(W).obj
00458008 00000008 .exc     $BBB     UOleAutomation(W).obj
00458010 00000008 .exc     $BBB     UOleAutomation(W).obj
00458018 00000008 .exc     $BBB     UOleAutomation(W).obj
00458020 00000008 .exc     $BBB     UOleAutomation(W).obj
00458028 00000008 .exc     $BBB     UOleAutomation(W).obj
00458030 00000008 .exc     $BBB     UOleAutomation(W).obj
00458038 00000008 .exc     $BBB     UOleAutomation(W).obj
00458040 00000008 .exc     $BBB     UOleAutomation(W).obj
00458048 00000008 .exc     $BBB     UOleAutomation(W).obj
00458050 00000008 .exc     $BBB     URegularTransport(W).obj
00458058 00000008 .exc     $BBB     URegularTransport(W).obj
00458060 00000008 .exc     $BBB     URegularTransport(W).obj
00458068 00000008 .exc     $BBB     URegularTransport(W).obj
00458070 00000008 .exc     $BBB     URegularTransport(W).obj
00458078 00000008 .exc     $BBB     URegularTransport(W).obj
00458080 00000008 .exc     $BBB     URegularTransport(W).obj
00458088 00000008 .exc     $BBB     URegularTransport(W).obj
00458090 00000008 .exc     $BBB     URegularTransport(W).obj
00458098 00000008 .exc     $BBB     URegularTransport(W).obj
004580a0 00000008 .exc     $BBB     URegularTransport(W).obj
004580a8 00000008 .exc     $BBB     URegularTransport(W).obj
004580b0 00000008 .exc     $BBB     URegularTransport(W).obj
004580b8 00000008 .exc     $BBB     URegularTransport(W).obj
004580c0 00000008 .exc     $BBB     URegularTransport(W).obj
004580c8 00000008 .exc     $BBB     URegularTransport(W).obj
004580d0 00000008 .exc     $BBB     URegularTransport(W).obj
004580d8 00000008 .exc     $BBB     URegularTransport(W).obj
004580e0 00000008 .exc     $BBB     URegularTransport(W).obj
004580e8 00000008 .exc     $BBB     URegularTransport(W).obj
004580f0 00000008 .exc     $BBB     URegularTransport(W).obj
004580f8 00000008 .exc     $BBB     URegularTransport(W).obj
00458100 00000008 .exc     $BBB     URegularTransport(W).obj
00458108 00000008 .exc     $BBB     URegularTransport(W).obj
00458110 00000008 .exc     $BBB     URegularTransport(W).obj
00458118 00000008 .exc     $BBB     URegularTransport(W).obj
00458120 00000008 .exc     $BBB     URegularTransport(W).obj
00458128 00000008 .exc     $BBB     URegularTransport(W).obj
00458130 00000008 .exc     $BBB     URegularTransport(W).obj
00458138 00000008 .exc     $BBB     URegularTransport(W).obj
00458140 00000008 .exc     $BBB     URegularTransport(W).obj
00458148 00000008 .exc     $BBB     URegularTransport(W).obj
00458150 00000008 .exc     $BBB     URegularTransport(W).obj
00458158 00000008 .exc     $BBB     URegularTransport(W).obj
00458160 00000008 .exc     $BBB     URegularTransport(W).obj
00458168 00000008 .exc     $BBB     URegularTransport(W).obj
00458170 00000008 .exc     $BBB     URegularTransport(W).obj
00458178 00000008 .exc     $BBB     URegularTransport(W).obj
00458180 00000008 .exc     $BBB     URegularTransport(W).obj
00458188 00000008 .exc     $BBB     URegularTransport(W).obj
00458190 00000008 .exc     $BBB     URegularTransport(W).obj
00458198 00000008 .exc     $BBB     URegularTransport(W).obj
004581a0 00000008 .exc     $BBB     URegularTransport(W).obj
004581a8 00000008 .exc     $BBB     URegularTransport(W).obj
004581b0 00000008 .exc     $BBB     UHttpTransport.obj
004581b8 00000008 .exc     $BBB     UHttpTransport.obj
004581c0 00000008 .exc     $BBB     UHttpTransport.obj
004581c8 00000008 .exc     $BBB     UHttpTransport.obj
004581d0 00000008 .exc     $BBB     UHttpTransport.obj
004581d8 00000008 .exc     $BBB     UHttpTransport.obj
004581e0 00000008 .exc     $BBB     UHttpTransport.obj
004581e8 00000008 .exc     $BBB     UHttpTransport.obj
004581f0 00000008 .exc     $BBB     UHttpTransport.obj
004581f8 00000008 .exc     $BBB     UHttpTransport.obj
00458200 00000008 .exc     $BBB     UHttpTransport.obj
00458208 00000008 .exc     $BBB     UHttpTransport.obj
00458210 00000008 .exc     $BBB     UHttpTransport.obj
00458218 00000008 .exc     $BBB     UHttpTransport.obj
00458220 00000008 .exc     $BBB     UHttpTransport.obj
00458228 00000008 .exc     $BBB     UHttpTransport.obj
00458230 00000008 .exc     $BBB     UHttpTransport.obj
00458238 00000008 .exc     $BBB     UHttpTransport.obj
00458240 00000008 .exc     $BBB     UHttpTransport.obj
00458248 00000008 .exc     $BBB     UHttpTransport.obj
00458250 00000008 .exc     $BBB     UHttpTransport.obj
00458258 00000008 .exc     $BBB     UHttpTransport.obj
00458260 00000008 .exc     $BBB     UHttpTransport.obj
00458268 00000008 .exc     $BBB     UHttpTransport.obj
00458270 00000008 .exc     $BBB     UHttpTransport.obj
00458278 00000008 .exc     $BBB     UHttpTransport.obj
00458280 00000008 .exc     $BBB     UHttpTransport.obj
00458288 00000008 .exc     $BBB     UHttpTransport.obj
00458290 00000008 .exc     $BBB     UHttpTransport.obj
00458298 00000008 .exc     $BBB     UHttpTransport.obj
004582a0 00000008 .exc     $BBB     UHttpTransport.obj
004582a8 00000008 .exc     $BBB     UHttpTransport.obj
004582b0 00000008 .exc     $BBB     UHttpTransport.obj
004582b8 00000008 .exc     $BBB     UHttpTransport.obj
004582c0 00000008 .exc     $BBB     UHttpTransport.obj
004582c8 00000008 .exc     $BBB     UHttpTransport.obj
004582d0 00000008 .exc     $BBB     UHttpTransport.obj
004582d8 00000008 .exc     $BBB     UHttpTransport.obj
004582e0 00000008 .exc     $BBB     UHttpTransport.obj
004582e8 00000008 .exc     $BBB     UHttpTransport.obj
004582f0 00000008 .exc     $BBB     UHttpTransport.obj
004582f8 00000008 .exc     $BBB     UHttpTransport.obj
00458300 00000008 .exc     $BBB     UHttpTransport.obj
00458308 00000008 .exc     $BBB     UHttpTransport.obj
00458310 00000008 .exc     $BBB     UHttpTransport.obj
00458318 00000008 .exc     $BBB     UHttpTransport.obj
00458320 00000008 .exc     $BBB     UHttpTransport.obj
00458328 00000008 .exc     $BBB     UHttpTransport.obj
00458330 00000008 .exc     $BBB     UHttpTransport.obj
00458338 00000008 .exc     $BBB     UHttpTransport.obj
00458340 00000008 .exc     $BBB     UHttpTransport.obj
00458348 00000008 .exc     $BBB     UHttpTransport.obj
00458350 00000008 .exc     $BBB     UHttpTransport.obj
00458358 00000008 .exc     $BBB     UHttpTransport.obj
00458360 00000008 .exc     $BBB     UHttpTransport.obj
00458368 00000008 .exc     $BBB     UHttpTransport.obj
00458370 00000008 .exc     $BBB     UHttpTransport.obj
00458378 00000008 .exc     $BBB     URez.obj
00458380 00000008 .exc     $BBB     URez.obj
00458388 00000008 .exc     $BBB     URez.obj
00458390 00000008 .exc     $BBB     URez.obj
00458398 00000008 .exc     $BBB     URez.obj
004583a0 00000008 .exc     $BBB     URez.obj
004583a8 00000008 .exc     $BBB     URez.obj
004583b0 00000008 .exc     $BBB     URez.obj
004583b8 00000008 .exc     $BBB     UIDVarArray.obj
004583c0 00000008 .exc     $BBB     URegion(W).obj
004583c8 00000008 .exc     $BBB     URegion(W).obj
004583d0 00000008 .exc     $BBB     URegion(W).obj
004583d8 00000008 .exc     $BBB     URegion(W).obj
004583e0 00000008 .exc     $BBB     URegion(W).obj
004583e8 00000008 .exc     $BBB     URegion(W).obj
004583f0 00000008 .exc     $BBB     URegion(W).obj
004583f8 00000008 .exc     $BBB     URegion(W).obj
00458400 00000008 .exc     $BBB     URegion(W).obj
00458408 00000008 .exc     $BBB     URegion(W).obj
00458410 00000008 .exc     $BBB     URegion(W).obj
00458418 00000008 .exc     $BBB     URegion(W).obj
00458420 00000008 .exc     $BBB     URegion(W).obj
00458428 00000008 .exc     $BBB     UDragAndDrop(W).obj
00458430 00000008 .exc     $BBB     UDragAndDrop(W).obj
00458438 00000008 .exc     $BBB     UDragAndDrop(W).obj
00458440 00000008 .exc     $BBB     UDragAndDrop(W).obj
00458448 00000008 .exc     $BBB     UDragAndDrop(W).obj
00458450 00000008 .exc     $BBB     UDragAndDrop(W).obj
00458458 00000008 .exc     $BBB     UDragAndDrop(W).obj
00458460 00000008 .exc     $BBB     UDragAndDrop(W).obj
00458468 00000008 .exc     $BBB     UDragAndDrop(W).obj
00458470 00000008 .exc     $BBB     UDragAndDrop(W).obj
00458478 00000008 .exc     $BBB     UDragAndDrop(W).obj
00458480 00000008 .exc     $BBB     UDragAndDrop(W).obj
00458488 00000008 .exc     $BBB     UDragAndDrop(W).obj
00458490 00000008 .exc     $BBB     UDragAndDrop(W).obj
00458498 00000008 .exc     $BBB     UDragAndDrop(W).obj
004584a0 00000008 .exc     $BBB     UDragAndDrop(W).obj
004584a8 00000008 .exc     $BBB     UDragAndDrop(W).obj
004584b0 00000008 .exc     $BBB     UDragAndDrop(W).obj
004584b8 00000008 .exc     $BBB     UDragAndDrop(W).obj
004584c0 00000008 .exc     $BBB     UDragAndDrop(W).obj
004584c8 00000008 .exc     $BBB     UDragAndDrop(W).obj
004584d0 00000008 .exc     $BBB     UDragAndDrop(W).obj
004584d8 00000008 .exc     $BBB     UDragAndDrop(W).obj
004584e0 00000008 .exc     $BBB     UDragAndDrop(W).obj
004584e8 00000008 .exc     $BBB     UDragAndDrop(W).obj
004584f0 00000008 .exc     $BBB     UDragAndDrop(W).obj
004584f8 00000008 .exc     $BBB     UDragAndDrop(W).obj
00458500 00000008 .exc     $BBB     UDragAndDrop(W).obj
00458508 00000008 .exc     $BBB     UDragAndDrop(W).obj
00458510 00000008 .exc     $BBB     UDragAndDrop(W).obj
00458518 00000008 .exc     $BBB     UDragAndDrop(W).obj
00458520 00000008 .exc     $BBB     UDragAndDrop(W).obj
00458528 00000008 .exc     $BBB     UDragAndDrop(W).obj
00458530 00000008 .exc     $BBB     UDragAndDrop(W).obj
00458538 00000008 .exc     $BBB     UDragAndDrop(W).obj
00458540 00000008 .exc     $BBB     UDragAndDrop(W).obj
00458548 00000008 .exc     $BBB     UDragAndDrop(W).obj
00458550 00000008 .exc     $BBB     UDragAndDrop(W).obj
00458558 00000008 .exc     $BBB     UDragAndDrop(W).obj
00458560 00000008 .exc     $BBB     UDragAndDrop(W).obj
00458568 00000008 .exc     $BBB     UDragAndDrop(W).obj
00458570 00000008 .exc     $BBB     UDragAndDrop(W).obj
00458578 00000008 .exc     $BBB     UDragAndDrop(W).obj
00458580 00000008 .exc     $BBB     UDragAndDrop(W).obj
00458588 00000008 .exc     $BBB     UDragAndDrop(W).obj
00458590 00000008 .exc     $BBB     UDragAndDrop(W).obj
00458598 00000008 .exc     $BBB     UDragAndDrop(W).obj
004585a0 00000008 .exc     $BBB     UDragAndDrop(W).obj
004585a8 00000008 .exc     $BBB     UDragAndDrop(W).obj
004585b0 00000008 .exc     $BBB     UDragAndDrop(W).obj
004585b8 00000008 .exc     $BBB     UDragAndDrop(W).obj
004585c0 00000008 .exc     $BBB     UDragAndDrop(W).obj
004585c8 00000008 .exc     $BBB     UDragAndDrop(W).obj
004585d0 00000008 .exc     $BBB     UDragAndDrop(W).obj
004585d8 00000008 .exc     $BBB     UDragAndDrop(W).obj
004585e0 00000008 .exc     $BBB     UDragAndDrop(W).obj
004585e8 00000008 .exc     $BBB     UDragAndDrop(W).obj
004585f0 00000008 .exc     $BBB     UDragAndDrop(W).obj
004585f8 00000008 .exc     $BBB     UTooltip.obj
00458600 00000008 .exc     $BBB     UTooltip.obj
00458608 00000008 .exc     $BBB     UTooltip.obj
00458610 00000008 .exc     $BBB     UTooltip.obj
00458618 00000008 .exc     $BBB     UTooltip.obj
00458620 00000008 .exc     $BBB     UTooltip.obj
00458628 00000008 .exc     $BBB     UTooltip.obj
00458630 00000008 .exc     $BBB     UTooltip.obj
00458638 00000008 .exc     $BBB     UTooltip.obj
00458640 00000008 .exc     $BBB     UTooltip.obj
00458648 00000008 .exc     $BBB     UTooltip.obj
00458650 00000008 .exc     $BBB     UTooltip.obj
00458658 00000008 .exc     $BBB     UTooltip.obj
00458660 00000008 .exc     $BBB     UTooltip.obj
00458668 00000008 .exc     $BBB     UTooltip.obj
00458670 00000008 .exc     $BBB     UTooltip.obj
00458678 00000008 .exc     $BBB     USound(W).obj
00458680 00000008 .exc     $BBB     USound(W).obj
00458688 00000008 .exc     $BBB     USound(W).obj
00458690 00000008 .exc     $BBB     USound(W).obj
00458698 00000008 .exc     $BBB     USound(W).obj
004586a0 00000008 .exc     $BBB     USound(W).obj
004586a8 00000008 .exc     $BBB     USound(W).obj
004586b0 00000008 .exc     $BBB     GrafTypes.obj
004586b8 00000008 .exc     $BBB     GrafTypes.obj
004586c0 00000008 .exc     $BBB     GrafTypes.obj
004586c8 00000008 .exc     $BBB     GrafTypes.obj
004586d0 00000008 .exc     $BBB     GrafTypes.obj
004586d8 00000008 .exc     $BBB     GrafTypes.obj
004586e0 00000008 .exc     $BBB     GrafTypes.obj
004586e8 00000008 .exc     $BBB     GrafTypes.obj
004586f0 00000008 .exc     $BBB     GrafTypes.obj
004586f8 00000008 .exc     $BBB     GrafTypes.obj
00458700 00000008 .exc     $BBB     GrafTypes.obj
00458708 00000008 .exc     $BBB     GrafTypes.obj
00458710 00000008 .exc     $BBB     GrafTypes.obj
00458718 00000008 .exc     $BBB     CIconView.obj
00458720 00000008 .exc     $BBB     CIconView.obj
00458728 00000008 .exc     $BBB     CIconView.obj
00458730 00000008 .exc     $BBB     CIconView.obj
00458738 00000008 .exc     $BBB     CIconView.obj
00458740 00000008 .exc     $BBB     CIconView.obj
00458748 00000008 .exc     $BBB     CPictureView.obj
00458750 00000008 .exc     $BBB     CPictureView.obj
00458758 00000008 .exc     $BBB     CPictureView.obj
00458760 00000008 .exc     $BBB     CPictureView.obj
00458768 00000008 .exc     $BBB     UKeyboard(W).obj
00458770 00000008 .exc     $BBB     UKeyboard(W).obj
00458778 00000008 .exc     $BBB     UKeyboard(W).obj
00458780 00000008 .exc     $BBB     UKeyboard.obj
00458788 00000008 .exc     $BBB     UMouse(W).obj
00458790 00000008 .exc     $BBB     UMouse(W).obj
00458798 00000008 .exc     $BBB     UMouse(W).obj
004587a0 00000008 .exc     $BBB     UMouse(W).obj
004587a8 00000008 .exc     $BBB     UMessageSys.obj
004587b0 00000008 .exc     $BBB     UMessageSys.obj
004587b8 00000008 .exc     $BBB     UMessageSys.obj
004587c0 00000008 .exc     $BBB     UMessageSys.obj
004587c8 00000008 .exc     $BBB     UMessageSys.obj
004587d0 00000008 .exc     $BBB     UMessageSys.obj
004587d8 00000008 .exc     $BBB     UMessageSys.obj
004587e0 00000008 .exc     $BBB     MWRTTI.obj
004587e8 00000008 .exc     $BBB     MWRTTI.obj
004587f0 00000008 .exc     $BBB     MWRTTI.obj
004587f8 00000008 .exc     $BBB     MWRTTI.obj
00458800 00000008 .exc     $BBB     MWRTTI.obj
00458808 00000008 .exc     $BBB     MWRTTI.obj
00458810 00000008 .exc     $BBB     CLinkedList.obj
00458818 00000008 .exc     $BBB     CLinkedList.obj
00458820 00000008 .exc     $BBB     globdest.obj
00458828 00000008 .exc     $BBB     delarrop.obj
00458830 00000008 .exc     $BBB     NMWException.obj
00458838 00000008 .exc     $BBB     NMWException.obj
00458840 00000008 .exc     $BBB     NMWException.obj
00458848 00000008 .exc     $BBB     NMWException.obj
00458850 00000008 .exc     $BBB     NMWException.obj
00458858 00000008 .exc     $BBB     NMWException.obj
00458860 00000008 .exc     $BBB     NMWException.obj
00458868 00000008 .exc     $BBB     runinit.obj
00458870 00000008 .exc     $BBB     runinit.obj
00458878 00000008 .exc     $BBB     UText(W).obj
00458880 00000008 .exc     $BBB     UPixmap.obj
00458888 00000008 .exc     $BBB     UPixmap.obj
00458890 00000008 .exc     $BBB     UPixmap.obj
00458898 00000008 .exc     $BBB     UPixmap.obj
004588a0 00000008 .exc     $BBB     UButton.obj
004588a8 00000008 .exc     $BBB     UButton.obj
004588b0 00000008 .exc     $BBB     UButton.obj
004588b8 00000008 .exc     $BBB     UButton.obj
004588c0 00000008 .exc     $BBB     UUserInterface.obj
004588c8 00000008 .exc     $BBB     UUserInterface.obj
004588d0 00000008 .exc     $BBB     UUserInterface.obj
004588d8 00000008 .exc     $BBB     UUserInterface.obj
004588e0 00000008 .exc     $BBB     UUserInterface.obj
004588e8 00000008 .exc     $BBB     UScrollBar.obj
004588f0 00000008 .exc     $BBB     UScrollBar.obj
004588f8 00000008 .exc     $BBB     UScrollBar.obj
00458900 00000008 .exc     $BBB     UScrollBar.obj
00458908 00000008 .exc     $BBB     UScrollBar.obj
00458910 00000008 .exc     $BBB     UScrollBar.obj
00458918 00000008 .exc     $BBB     UScrollBar.obj
00458920 00000008 .exc     $BBB     UScrollBar.obj
00458928 00000008 .exc     $BBB     UClipboard(W).obj
00458930 00000008 .exc     $BBB     UClipboard(W).obj
00458938 00000008 .exc     $BBB     UClipboard(W).obj
00458940 00000008 .exc     $BBB     UBitString.obj
00458948 00000008 .exc     $BBB     UBitString.obj
00458950 00000008 .exc     $BBB     UBitString.obj
00458958 00000008 .exc     $BBB     UBitString.obj
00458960 00000008 .exc     $BBB     UBitString.obj
00458968 00000008 .exc     $BBB     UMath(W).obj
00458970 00000008 .exc     $BBB     UMath(W).obj
00458978 00000008 .exc     $BBB     UMath(W).obj
00458980 00000008 .exc     $BBB     UMath(W).obj
00458988 00000008 .exc     $BBB     excrtl.obj
00458990 00000008 .exc     $BBB     excrtl.obj
00458998 00000008 .exc     $BBB     excrtl.obj
004589a0 00000008 .exc     $BBB     excrtl.obj
004589a8 00000008 .exc     $BBB     exchand.obj
004589b0 00000008 .exc     $BBB     exchand.obj
004589b8 00000008 .exc     $BBB     setupargs.obj
004589c0 00000008 .exc     $BBB     setupargs.obj
004589c8 00000008 .exc     $BBB     setupargs.obj
004589d0 00000008 .exc     $BBB     setupargs.obj
004589d8 00000008 .exc     $BBB     setupargs.obj
004589e0 00000008 .exc     $BBB     QTDispatcherW.obj
004589e8 00000008 .exc     $BBB     QTDispatcherW.obj
004589f0 00000008 .exc     $BBB     QTDispatcherW.obj
004589f8 00000008 .exc     $BBB     CDataHandlerComponent.obj
00458a00 00000008 .exc     $BBB     CDataHandlerComponent.obj
00458a08 00000008 .exc     $BBB     CDataHandlerComponent.obj
00458a10 00000008 .exc     $BBB     CDataHandlerComponent.obj
00458a18 00000008 .exc     $BBB     CDataHandlerComponent.obj
00458a20 00000008 .exc     $BBB     CDataHandlerComponent.obj
00458a28 00000008 .exc     $BBB     CDataHandlerComponent.obj
00458a30 00000008 .exc     $BBB     CDataHandlerComponent.obj
00458a38 00000008 .exc     $BBB     CDataHandlerComponent.obj
00458a40 00000008 .exc     $BBB     CDataHandlerComponent.obj
00458a48 00000008 .exc     $BBB     CDataHandlerComponent.obj
00458a50 00000008 .exc     $BBB     CDataHandlerComponent.obj
00458a58 00000008 .exc     $BBB     CDataHandlerComponent.obj
00458a60 00000008 .exc     $BBB     CDataHandlerComponent.obj
00458a68 00000008 .exc     $BBB     CDataHandlerComponent.obj
00458a70 00000008 .exc     $BBB     CDataHandlerComponent.obj
00458a78 00000008 .exc     $BBB     CDataHandlerComponent.obj
00458a80 00000008 .exc     $BBB     CDataHandlerComponent.obj
00458a88 00000008 .exc     $BBB     CDataHandlerComponent.obj
00458a90 00000008 .exc     $BBB     CDataHandlerComponent.obj
00458a98 00000008 .exc     $BBB     CDataHandlerComponent.obj
00458aa0 00000008 .exc     $BBB     CDataHandlerComponent.obj
00458aa8 00000008 .exc     $BBB     CDataHandlerComponent.obj
00458ab0 00000008 .exc     $BBB     CDataHandlerComponent.obj
00458ab8 00000008 .exc     $BBB     CDataHandlerComponent.obj
00458ac0 00000008 .exc     $BBB     CDataHandlerComponent.obj
00458ac8 00000008 .exc     $BBB     CDataHandlerComponent.obj
00458ad0 00000008 .exc     $BBB     CDataHandlerComponent.obj
00458ad8 00000008 .exc     $BBB     CDataHandlerComponent.obj
00458ae0 00000008 .exc     $BBB     CDataHandlerComponent.obj
00458ae8 00000008 .exc     $BBB     CDataHandlerComponent.obj
00458af0 00000008 .exc     $BBB     CDataHandlerComponent.obj
00458af8 00000008 .exc     $BBB     CDataHandlerComponent.obj
00458b00 00000008 .exc     $BBB     CDataHandlerComponent.obj
00458b08 00000008 .exc     $BBB     CDataHandlerComponent.obj
00458b10 00000008 .exc     $BBB     CDataHandlerComponent.obj
00458b18 00000008 .exc     $BBB     CDataHandlerComponent.obj
00458b20 00000008 .exc     $BBB     CDataHandlerComponent.obj
00458b28 00000008 .exc     $BBB     CDataHandlerComponent.obj
00458b30 00000008 .exc     $BBB     CDataHandlerComponent.obj
00458b38 00000008 .exc     $BBB     CDataHandlerComponent.obj
00458b40 00000008 .exc     $BBB     CDataHandlerComponent.obj
00458b48 00000008 .exc     $BBB     CDataHandlerComponent.obj
00458b50 00000008 .exc     $BBB     CDataHandlerComponent.obj
00458b58 00000008 .exc     $BBB     CDataHandlerComponent.obj
00458b60 00000008 .exc     $BBB     CDataHandlerComponent.obj
00458b68 00000008 .exc     $BBB     CDataHandlerComponent.obj
00458b70 00000008 .exc     $BBB     CDataHandlerComponent.obj
00458b78 00000008 .exc     $BBB     CDataHandlerComponent.obj
00458b80 00000008 .exc     $BBB     CDataHandlerComponent.obj
00458b88 00000008 .exc     $BBB     CDataHandlerComponent.obj
00458b90 00000008 .exc     $BBB     CDataHandlerComponent.obj
00458b98 00000008 .exc     $BBB     CDataHandlerComponent.obj
00458ba0 00000008 .exc     $BBB     CDataHandlerComponent.obj
00458ba8 00000008 .exc     $BBB     CDataHandlerComponent.obj
00458bb0 00000008 .exc     $BBB     CDataHandlerComponent.obj
00458bb8 00000008 .exc     $BBB     CDataHandlerComponent.obj
00458bc0 00000008 .exc     $BBB     CDataHandlerComponent.obj
00458bc8 00000008 .exc     $BBB     CDataHandlerComponent.obj
00458bd0 00000008 .exc     $BBB     CDataHandlerComponent.obj
00458bd8 00000008 .exc     $BBB     CDataHandlerComponent.obj
00458be0 00000008 .exc     $BBB     CDataHandlerComponent.obj
00458be8 00000008 .exc     $BBB     CDataHandlerComponent.obj
00458bf0 00000008 .exc     $BBB     CDataHandlerComponent.obj
00458bf8 00000008 .exc     $BBB     CDataHandlerComponent.obj
00458c00 00000008 .exc     $BBB     CDataHandlerComponent.obj
00458c08 00000008 .exc     $BBB     CDataHandlerComponent.obj
00458c10 00000008 .exc     $BBB     CDataHandlerComponent.obj
00458c18 00000008 .exc     $BBB     CDataHandlerComponent.obj
00458c20 00000008 .exc     $BBB     CDataHandlerComponent.obj
00458c28 00000008 .exc     $BBB     CDataHandlerComponent.obj
00458c30 00000008 .exc     $BBB     CDataHandlerComponent.obj
00458c38 00000008 .exc     $BBB     CDataHandlerComponent.obj
00458c40 00000008 .exc     $BBB     CDataHandlerComponent.obj
00458c48 00000008 .exc     $BBB     CDataHandlerComponent.obj
00458c50 00000008 .exc     $BBB     CDataHandlerComponent.obj
00458c58 00000008 .exc     $BBB     CDataHandlerComponent.obj
00458c60 00000008 .exc     $BBB     CDataHandlerComponent.obj
00458c68 00000008 .exc     $BBB     CDataHandlerComponent.obj
00458c70 00000008 .exc     $BBB     CDataHandlerComponent.obj
00458c78 00000008 .exc     $BBB     CDataHandlerComponent.obj
00458c80 00000008 .exc     $BBB     CDataHandlerComponent.obj
00458c88 00000008 .exc     $BBB     CDataHandlerComponent.obj
00458c90 00000008 .exc     $BBB     CDataHandlerComponent.obj
00458c98 00000008 .exc     $BBB     CDataHandlerComponent.obj
00458ca0 00000008 .exc     $BBB     CDataHandlerComponent.obj
00458ca8 00000008 .exc     $BBB     CDataHandlerComponent.obj
00458cb0 00000008 .exc     $BBB     CDataHandlerComponent.obj
00458cb8 00000008 .exc     $BBB     CDataHandlerComponent.obj
00458cc0 00000008 .exc     $BBB     CDataHandlerComponent.obj
00458cc8 00000008 .exc     $BBB     CDataHandlerComponent.obj
00458cd0 00000008 .exc     $BBB     CDataHandlerComponent.obj
00458cd8 00000008 .exc     $BBB     CDataHandlerComponent.obj
00458ce0 00000008 .exc     $BBB     CDataHandlerComponent.obj
00458ce8 00000008 .exc     $BBB     CDataHandlerComponent.obj
00458cf0 00000008 .exc     $BBB     CDataHandlerComponent.obj
00458cf8 00000008 .exc     $BBB     CDataHandlerComponent.obj
00458d00 00000008 .exc     $BBB     CDataHandlerComponent.obj
00458d08 00000008 .exc     $BBB     CDataHandlerComponent.obj
00458d10 00000008 .exc     $BBB     CDataHandlerComponent.obj
00458d18 00000008 .exc     $BBB     CDataHandlerComponent.obj
00458d20 00000008 .exc     $BBB     CDataHandlerComponent.obj
00458d28 00000008 .exc     $BBB     CDataHandlerComponent.obj
00458d30 00000008 .exc     $BBB     CDataHandlerComponent.obj
00458d38 00000008 .exc     $BBB     CDataHandlerComponent.obj
00458d40 00000008 .exc     $BBB     CDataHandlerComponent.obj
00458d48 00000008 .exc     $BBB     CDataHandlerComponent.obj
00458d50 00000008 .exc     $BBB     CDataHandlerComponent.obj
00458d58 00000008 .exc     $BBB     CDataHandlerComponent.obj
00458d60 00000008 .exc     $BBB     CDataHandlerComponent.obj
00458d68 00000008 .exc     $BBB     CDataHandlerComponent.obj
00458d70 00000008 .exc     $BBB     CDataHandlerComponent.obj
00458d78 00000008 .exc     $BBB     CDataHandlerComponent.obj
00458d80 00000008 .exc     $BBB     CDataHandlerComponent.obj
00458d88 00000008 .exc     $BBB     CDataHandlerComponent.obj
00458d90 00000008 .exc     $BBB     CDataHandlerComponent.obj
00458d98 00000008 .exc     $BBB     CDataHandlerComponent.obj
00458da0 00000008 .exc     $BBB     CDataHandlerComponent.obj
00458da8 00000008 .exc     $BBB     CDataHandlerComponent.obj
00458db0 00000008 .exc     $BBB     CDataHandlerComponent.obj
00458db8 00000008 .exc     $BBB     CDataHandlerComponent.obj
00458dc0 00000008 .exc     $BBB     CDataHandlerComponent.obj
00458dc8 00000008 .exc     $BBB     CDataHandlerComponent.obj
00458dd0 00000008 .exc     $BBB     CDataHandlerComponent.obj
00458dd8 00000008 .exc     $BBB     CDataHandlerComponent.obj
00458de0 00000008 .exc     $BBB     CDataHandlerComponent.obj
00458de8 00000008 .exc     $BBB     CDataHandlerComponent.obj
00458df0 00000008 .exc     $BBB     CDataHandlerComponent.obj
00458df8 00000008 .exc     $BBB     CDataHandlerComponent.obj
00458e00 00000008 .exc     $BBB     CDataHandlerComponent.obj
00458e08 00000008 .exc     $BBB     CDataHandlerComponent.obj
00458e10 00000008 .exc     $BBB     CDataHandlerComponent.obj
00458e18 00000008 .exc     $BBB     CDataHandlerComponent.obj
00458e20 00000008 .exc     $BBB     CDataHandlerComponent.obj
00458e28 00000008 .exc     $BBB     CDataHandlerComponent.obj
00458e30 00000008 .exc     $BBB     CDataHandlerComponent.obj
00458e38 00000008 .exc     $BBB     CDataHandlerComponent.obj
00458e40 00000008 .exc     $BBB     CDataHandlerComponent.obj
00458e48 00000008 .exc     $BBB     CDataHandlerComponent.obj
00458e50 00000008 .exc     $BBB     CDataHandlerComponent.obj
00458e58 00000008 .exc     $BBB     CDataHandlerComponent.obj
00458e60 00000008 .exc     $BBB     CDataHandlerComponent.obj
00458e68 00000008 .exc     $BBB     newarrop.obj
00458e70 00000008 .exc     $BBB     UGUID(W).obj
00458e78 00000008 .exc     $BBB     UGUID(W).obj
00458e80 00000008 .exc     $BBB     UGUID(W).obj
00458e88 00000008 .exc     $BBB     UGUID(W).obj
00458e90 00000008 .exc     $BBB     UGUID.obj
00458e98 00000008 .exc     $BBB     UGUID.obj
00458ea0 00000008 .exc     $BBB     UIcon(W).obj
00458ea8 00000008 .exc     $BBB     UIcon(W).obj
00458eb0 00000008 .exc     $BBB     UIcon(W).obj
00458eb8 00000008 .exc     $BBB     UIcon.obj
00458ec0 00000008 .exc     $BBB     UButton(W).obj
00458ec8 00000008 .exc     $BBB     UButton(W).obj
00458ed0 00000008 .exc     $BBB     UButton(W).obj
00458ed8 00000008 .exc     $BBB     UButton(W).obj
00458ee0 00000008 .exc     $BBB     UButton(W).obj
00458ee8 00000008 .exc     $BBB     UButton(W).obj
00458ef0 00000008 .exc     $BBB     UButton(W).obj
00458ef8 00000008 .exc     $BBB     UScrollBar(W).obj
00458f00 00000008 .exc     $BBB     UScrollBar(W).obj
00458f08 00000008 .exc     $BBB     UScrollBar(W).obj
00458f10 00000008 .exc     $BBB     UScrollBar(W).obj
00458f18 00000008 .exc     $BBB     UScrollBar(W).obj
00458f20 00000008 .exc     $BBB     UScrollBar(W).obj
00458f28 00000008 .exc     $BBB     UScrollBar(W).obj
00458f30 00000008 .exc     $BBB     UScrollBar(W).obj
00458f38 00000008 .exc     $BBB     UScrollBar(W).obj
00458f40 00000008 .exc     $BBB     CMutex_W.obj
00458f48 00000008 .exc     $BBB     CMutex_W.obj
00458f50 00000008 .exc     $BBB     CMutex_W.obj
00458f58 00000008 .exc     $BBB     CMutex_W.obj
00458f60 00000008 .exc     $BBB     CMutex_W.obj
00458f68 00000008 .exc     $BBB     CMutex_W.obj
00458f70 00000008 .exc     $BBB     CMutex_W.obj
00458f78 00000008 .exc     $BBB     CMutex_W.obj
00458f80 00000008 .exc     $BBB     CThreadManager.obj
00458f88 00000008 .exc     $BBB     CThreadManager.obj
00458f90 00000008 .exc     $BBB     CThreadManager.obj
00458f98 00000008 .exc     $BBB     CThreadManager.obj
00458fa0 00000008 .exc     $BBB     CThreadManager.obj
00458fa8 00000008 .exc     $BBB     CThreadManager.obj
00458fb0 00000008 .exc     $BBB     CThreadManager.obj
00458fb8 00000008 .exc     $BBB     CThreadManager.obj
00458fc0 00000008 .exc     $BBB     CThreadManager.obj
00458fc8 00000008 .exc     $BBB     CThreadManager.obj
00458fd0 00000008 .exc     $BBB     CThreadManager.obj
00458fd8 00000008 .exc     $BBB     CThreadManager.obj
00458fe0 00000008 .exc     $BBB     CThreadManager.obj
00458fe8 00000008 .exc     $BBB     CThreadManager.obj
00458ff0 00000008 .exc     $BBB     CThreadManager.obj
00458ff8 00000008 .exc     $BBB     CThreadManager.obj
00459000 00000008 .exc     $BBB     CThreadManager.obj
00459008 00000008 .exc     $BBB     CThreadManager.obj
00459010 00000008 .exc     $BBB     CThreadManager.obj
00459018 00000008 .exc     $BBB     CThreadManager.obj
00459020 00000008 .exc     $BBB     CThreadManager.obj
00459028 00000008 .exc     $BBB     CThreadManager.obj
00459030 00000008 .exc     $BBB     CThreadManager.obj
00459038 00000008 .exc     $BBB     CThreadManager.obj
00459040 00000008 .exc     $BBB     CThreadManager.obj
00459048 00000008 .exc     $BBB     CThreadManager.obj
00459050 00000008 .exc     $BBB     CThreadManager.obj
00459058 00000008 .exc     $BBB     CThreadManager.obj
00459060 00000008 .exc     $BBB     CThreadManager.obj
00459068 00000008 .exc     $BBB     CThreadManager.obj
00459070 00000008 .exc     $BBB     CThreadManager.obj
00459078 00000008 .exc     $BBB     CThreadManager.obj
00459080 00000008 .exc     $BBB     CThreadManager.obj
00459088 00000008 .exc     $BBB     CThreadManager.obj
00459090 00000008 .exc     $BBB     CThreadManager.obj
00459098 00000008 .exc     $BBB     CThreadManager.obj
004590a0 00000008 .exc     $BBB     CThreadManager.obj
004590a8 00000008 .exc     $BBB     CThreadManager.obj
004590b0 00000008 .exc     $BBB     CThreadManager.obj
004590b8 00000008 .exc     $BBB     CThreadManager.obj
004590c0 00000008 .exc     $BBB     CThreadManager.obj
004590c8 00000008 .exc     $BBB     CThreadManager.obj
004590d0 00000008 .exc     $BBB     CThreadManager.obj
004590d8 00000008 .exc     $BBB     CThreadManager.obj
004590e0 00000008 .exc     $BBB     CThreadManager.obj
004590e8 00000008 .exc     $BBB     CThreadManager.obj
004590f0 00000008 .exc     $BBB     CThreadManager.obj
004590f8 00000008 .exc     $BBB     CThreadManager.obj
00459100 00000008 .exc     $BBB     CThreadManager.obj
00459108 00000008 .exc     $BBB     CThreadManager.obj
00459110 00000008 .exc     $BBB     CThreadManager.obj
00459118 00000008 .exc     $BBB     CThreadManager.obj
00459120 00000008 .exc     $BBB     CThreadManager.obj
00459128 00000008 .exc     $BBB     CThreadManager.obj
00459130 00000008 .exc     $BBB     CThreadManager.obj
00459138 00000008 .exc     $BBB     CThreadManager.obj
00459140 00000008 .exc     $BBB     CThreadManager.obj
00459148 00000008 .exc     $BBB     CThreadManager.obj
00459150 00000008 .exc     $BBB     CThreadManager.obj
00459158 00000008 .exc     $BBB     CThreadManager.obj
00459160 00000008 .exc     $BBB     CThreadManager.obj
00459168 00000008 .exc     $BBB     CThreadManager.obj
00459170 00000008 .exc     $BBB     CThreadManager.obj
00459178 00000008 .exc     $BBB     CThreadManager.obj
00459180 00000008 .exc     $BBB     CThreadManager.obj
00459188 00000008 .exc     $BBB     CDataProvider.obj
00459190 00000008 .exc     $BBB     CDataProvider.obj
00459198 00000008 .exc     $BBB     CDataProvider.obj
004591a0 00000008 .exc     $BBB     CString_W.obj
004591a8 00000008 .exc     $BBB     CString_W.obj
004591b0 00000008 .exc     $BBB     UStringConverter.obj
004591b8 00000008 .exc     $BBB     UStringConverter.obj
004591c0 00000008 .exc     $BBB     UStringConverter.obj
004591c8 00000008 .exc     $BBB     compiler_math.obj
004591d0 00000008 .exc     $BBB     CException.obj
004591d8 00000008 .exc     $BBB     CException.obj
004591e0 00000008 .exc     $BBB     CException.obj
004591e8 00000008 .exc     $BBB     CException.obj
004591f0 00000008 .exc     $BBB     CException.obj
004591f8 00000008 .exc     $BBB     CException.obj
00459200 00000008 .exc     $BBB     CException.obj
00459208 00000008 .exc     $BBB     CException.obj
00459210 00000008 .exc     $BBB     CException.obj
00459218 00000008 .exc     $BBB     CException.obj
00459220 00000008 .exc     $BBB     CException.obj
00459228 00000008 .exc     $BBB     CException.obj
00459230 00000008 .exc     $BBB     CException.obj
00459238 00000008 .exc     $BBB     CException.obj
00459240 00000008 .exc     $BBB     CException.obj
00459248 00000008 .exc     $BBB     CException.obj
00459250 00000008 .exc     $BBB     CException.obj
00459258 00000008 .exc     $BBB     CThread_W.obj
00459260 00000008 .exc     $BBB     CThread_W.obj
00459268 00000008 .exc     $BBB     CListener.obj
00459270 00000008 .exc     $BBB     CListener.obj
00459278 00000008 .exc     $BBB     CListener.obj
00459280 00000008 .exc     $BBB     CListener.obj
00459288 00000008 .exc     $BBB     CListener.obj
00459290 00000008 .exc     $BBB     CListener.obj
00459298 00000008 .exc     $BBB     CListener.obj
004592a0 00000008 .exc     $BBB     CListener.obj
004592a8 00000008 .exc     $BBB     CListener.obj
004592b0 00000008 .exc     $BBB     CListener.obj
004592b8 00000008 .exc     $BBB     CListener.obj
004592c0 00000008 .exc     $BBB     CListener.obj
004592c8 00000008 .exc     $BBB     CListener.obj
004592d0 00000008 .exc     $BBB     CListener.obj
004592d8 00000008 .exc     $BBB     CListener.obj
004592e0 00000008 .exc     $BBB     CListener.obj
004592e8 00000008 .exc     $BBB     CListener.obj
004592f0 00000008 .exc     $BBB     CListener.obj
004592f8 00000008 .exc     $BBB     CListener.obj
00459300 00000008 .exc     $BBB     CListener.obj
00459308 00000008 .exc     $BBB     CListener.obj
00459310 00000008 .exc     $BBB     CListener.obj
00459318 00000008 .exc     $BBB     CListener.obj
00459320 00000008 .exc     $BBB     CListener.obj
00459328 00000008 .exc     $BBB     CListener.obj
00459330 00000008 .exc     $BBB     CListener.obj
00459338 00000008 .exc     $BBB     CListener.obj
00459340 00000008 .exc     $BBB     CListener.obj
00459348 00000008 .exc     $BBB     CListener.obj
00459350 00000008 .exc     $BBB     CListener.obj
00459358 00000008 .exc     $BBB     CListener.obj
00459360 00000008 .exc     $BBB     CListener.obj
00459368 00000008 .exc     $BBB     CListener.obj
00459370 00000008 .exc     $BBB     CListener.obj
00459378 00000008 .exc     $BBB     CListener.obj
00459380 00000008 .exc     $BBB     CListener.obj
00459388 00000008 .exc     $BBB     CListener.obj
00459390 00000008 .exc     $BBB     CListener.obj
00459398 00000008 .exc     $BBB     CBroadcaster.obj
004593a0 00000008 .exc     $BBB     CBroadcaster.obj
004593a8 00000008 .exc     $BBB     CBroadcaster.obj
004593b0 00000008 .exc     $BBB     CBroadcaster.obj
004593b8 00000008 .exc     $BBB     CBroadcaster.obj
004593c0 00000008 .exc     $BBB     CBroadcaster.obj
004593c8 00000008 .exc     $BBB     CBroadcaster.obj
004593d0 00000008 .exc     $BBB     CBroadcaster.obj
004593d8 00000008 .exc     $BBB     CBroadcaster.obj
004593e0 00000008 .exc     $BBB     CBroadcaster.obj
004593e8 00000008 .exc     $BBB     CBroadcaster.obj
004593f0 00000008 .exc     $BBB     CBroadcaster.obj
004593f8 00000008 .exc     $BBB     CBroadcaster.obj
00459400 00000008 .exc     $BBB     CBroadcaster.obj
00459408 00000008 .exc     $BBB     CBroadcaster.obj
00459410 00000008 .exc     $BBB     CBroadcaster.obj
00459418 00000008 .exc     $BBB     CBroadcaster.obj
00459420 00000008 .exc     $BBB     CBroadcaster.obj
00459428 00000008 .exc     $BBB     CBroadcaster.obj
00459430 00000008 .exc     $BBB     CBroadcaster.obj
00459438 00000008 .exc     $BBB     CBroadcaster.obj
00459440 00000008 .exc     $BBB     CBroadcaster.obj
00459448 00000008 .exc     $BBB     CBroadcaster.obj
00459450 00000008 .exc     $BBB     CBroadcaster.obj
00459458 00000008 .exc     $BBB     CBroadcaster.obj
00459460 00000008 .exc     $BBB     CBroadcaster.obj
00459468 00000008 .exc     $BBB     CBroadcaster.obj
00459470 00000008 .exc     $BBB     CBroadcaster.obj
00459478 00000008 .exc     $BBB     CBroadcaster.obj
00459480 00000008 .exc     $BBB     CBroadcaster.obj
00459488 00000008 .exc     $BBB     CBroadcaster.obj
00459490 00000008 .exc     $BBB     CBroadcaster.obj
00459498 00000008 .exc     $BBB     CBroadcaster.obj
004594a0 00000008 .exc     $BBB     CBroadcaster.obj
004594a8 00000008 .exc     $BBB     CBroadcaster.obj
004594b0 00000008 .exc     $BBB     CBroadcaster.obj
004594b8 00000008 .exc     $BBB     CBroadcaster.obj
004594c0 00000008 .exc     $BBB     CBroadcaster.obj
004594c8 00000008 .exc     $BBB     CBroadcaster.obj
004594d0 00000008 .exc     $BBB     CBroadcaster.obj
004594d8 00000008 .exc     $BBB     CBroadcaster.obj
004594e0 00000008 .exc     $BBB     CBroadcaster.obj
004594e8 00000008 .exc     $BBB     CBroadcaster.obj
004594f0 00000008 .exc     $BBB     CSyncTCPStreamBuffer.obj
004594f8 00000008 .exc     $BBB     CSyncTCPStreamBuffer.obj
00459500 00000008 .exc     $BBB     CSyncTCPStreamBuffer.obj
00459508 00000008 .exc     $BBB     CSyncTCPStreamBuffer.obj
00459510 00000008 .exc     $BBB     CStreamBuffer.obj
00459518 00000008 .exc     $BBB     CStreamBuffer.obj
00459520 00000008 .exc     $BBB     CStreamBuffer.obj
00459528 00000008 .exc     $BBB     CStreamBuffer.obj
00459530 00000008 .exc     $BBB     CStreamBuffer.obj
00459538 00000008 .exc     $BBB     UAWError_W.obj
00459540 00000008 .exc     $BBB     CMessageWrangler.obj
00459548 00000008 .exc     $BBB     CMessageWrangler.obj
00459550 00000008 .exc     $BBB     CMessageWrangler.obj
00459558 00000008 .exc     $BBB     CMessageWrangler.obj
00459560 00000008 .exc     $BBB     CMessageWrangler.obj
00459568 00000008 .exc     $BBB     CMessageWrangler.obj
00459570 00000008 .exc     $BBB     CMessageWrangler.obj
00459578 00000008 .exc     $BBB     CMessageWrangler.obj
00459580 00000008 .exc     $BBB     CMessageWrangler.obj
00459588 00000008 .exc     $BBB     CMessageWrangler.obj
00459590 00000008 .exc     $BBB     CMessageWrangler.obj
00459598 00000008 .exc     $BBB     CMessageWrangler.obj
004595a0 00000008 .exc     $BBB     CMessageWrangler.obj
004595a8 00000008 .exc     $BBB     CMessageWrangler.obj
004595b0 00000008 .exc     $BBB     CMessageWrangler.obj
004595b8 00000008 .exc     $BBB     CMessageWrangler.obj
004595c0 00000008 .exc     $BBB     CMessageWrangler.obj
004595c8 00000008 .exc     $BBB     CMessageWrangler.obj
004595d0 00000008 .exc     $BBB     CMessageWrangler.obj
004595d8 00000008 .exc     $BBB     CMessageWrangler.obj
004595e0 00000008 .exc     $BBB     CMessageWrangler.obj
004595e8 00000008 .exc     $BBB     CMessageWrangler.obj
004595f0 00000008 .exc     $BBB     CMessageWrangler.obj
004595f8 00000008 .exc     $BBB     CMessageWrangler.obj
00459600 00000008 .exc     $BBB     CMessageWrangler.obj
00459608 00000008 .exc     $BBB     CMessageWrangler.obj
00459610 00000008 .exc     $BBB     CMessageWrangler.obj
00459618 00000008 .exc     $BBB     CMessageWrangler.obj
00459620 00000008 .exc     $BBB     CMessageWrangler.obj
00459628 00000008 .exc     $BBB     CFSLocalFileRefWin.obj
00459630 00000008 .exc     $BBB     CFSLocalFileRefWin.obj
00459638 00000008 .exc     $BBB     CFSLocalFileRefWin.obj
00459640 00000008 .exc     $BBB     CFSLocalFileRefWin.obj
00459648 00000008 .exc     $BBB     CFSLocalFileRefWin.obj
00459650 00000008 .exc     $BBB     CFSLocalFileRefWin.obj
00459658 00000008 .exc     $BBB     CFSLocalFileRefWin.obj
00459660 00000008 .exc     $BBB     CMemoryObjectCache.obj
00459668 00000008 .exc     $BBB     CMemoryObjectCache.obj
00459670 00000008 .exc     $BBB     CMemoryObjectCache.obj
00459678 00000008 .exc     $BBB     CMemoryObjectCache.obj
00459680 00000008 .exc     $BBB     CFlattenable.obj
00459688 00000008 .exc     $BBB     CFlattenable.obj
00459690 00000008 .exc     $BBB     CFlattenable.obj
00459698 00000008 .exc     $BBB     CFlattenable.obj
004596a0 00000008 .exc     $BBB     CFlattenable.obj
004596a8 00000008 .exc     $BBB     CFlattenable.obj
004596b0 00000008 .exc     $BBB     CFlattenable.obj
004596b8 00000008 .exc     $BBB     CFlattenable.obj
004596c0 00000008 .exc     $BBB     CFlattenable.obj
004596c8 00000008 .exc     $BBB     CFlattenable.obj
004596d0 00000008 .exc     $BBB     CFlattenable.obj
004596d8 00000008 .exc     $BBB     CGenericObject.obj
004596e0 00000008 .exc     $BBB     CGenericObject.obj
004596e8 00000008 .exc     $BBB     CGenericObject.obj
004596f0 00000008 .exc     $BBB     CStringObject.obj
004596f8 00000008 .exc     $BBB     CStringObject.obj
00459700 00000008 .exc     $BBB     CStringObject.obj
00459708 00000008 .exc     $BBB     CStringObject.obj
00459710 00000008 .exc     $BBB     CStringObject.obj
00459718 00000008 .exc     $BBB     CStringObject.obj
00459720 00000008 .exc     $BBB     CResourceList.obj
00459728 00000008 .exc     $BBB     CResourceList.obj
00459730 00000008 .exc     $BBB     CResourceList.obj
00459738 00000008 .exc     $BBB     CResourceList.obj
00459740 00000008 .exc     $BBB     CResourceList.obj
00459748 00000008 .exc     $BBB     CResourceList.obj
00459750 00000008 .exc     $BBB     CResourceList.obj
00459758 00000008 .exc     $BBB     CResourceList.obj
00459760 00000008 .exc     $BBB     CResourceList.obj
00459768 00000008 .exc     $BBB     CResourceList.obj
00459770 00000008 .exc     $BBB     CResourceList.obj
00459778 00000008 .exc     $BBB     CResourceList.obj
00459780 00000008 .exc     $BBB     CResourceList.obj
00459788 00000008 .exc     $BBB     CResourceList.obj
00459790 00000008 .exc     $BBB     CResourceList.obj
00459798 00000008 .exc     $BBB     CResourceList.obj
004597a0 00000008 .exc     $BBB     CResourceList.obj
004597a8 00000008 .exc     $BBB     CResourceList.obj
004597b0 00000008 .exc     $BBB     CResourceList.obj
004597b8 00000008 .exc     $BBB     CResourceList.obj
004597c0 00000008 .exc     $BBB     CResourceList.obj
004597c8 00000008 .exc     $BBB     CResourceList.obj
004597d0 00000008 .exc     $BBB     CResourceList.obj
004597d8 00000008 .exc     $BBB     CResourceList.obj
004597e0 00000008 .exc     $BBB     CResourceList.obj
004597e8 00000008 .exc     $BBB     CResourceList.obj
004597f0 00000008 .exc     $BBB     CResourceList.obj
004597f8 00000008 .exc     $BBB     CResourceList.obj
00459800 00000008 .exc     $BBB     CResourceList.obj
00459808 00000008 .exc     $BBB     CResourceList.obj
00459810 00000008 .exc     $BBB     CResourceList.obj
00459818 00000008 .exc     $BBB     CResourceList.obj
00459820 00000008 .exc     $BBB     CResourceList.obj
00459828 00000008 .exc     $BBB     CResourceList.obj
00459830 00000008 .exc     $BBB     CResourceList.obj
00459838 00000008 .exc     $BBB     CResourceList.obj
00459840 00000008 .exc     $BBB     CResourceList.obj
00459848 00000008 .exc     $BBB     CResourceList.obj
00459850 00000008 .exc     $BBB     CResourceList.obj
00459858 00000008 .exc     $BBB     CResourceList.obj
00459860 00000008 .exc     $BBB     CResourceList.obj
00459868 00000008 .exc     $BBB     CResourceList.obj
00459870 00000008 .exc     $BBB     CResourceList.obj
00459878 00000008 .exc     $BBB     CResourceList.obj
00459880 00000008 .exc     $BBB     CResourceList.obj
00459888 00000008 .exc     $BBB     CResourceList.obj
00459890 00000008 .exc     $BBB     CResourceList.obj
00459898 00000008 .exc     $BBB     CResourceList.obj
004598a0 00000008 .exc     $BBB     CResourceList.obj
004598a8 00000008 .exc     $BBB     CResourceList.obj
004598b0 00000008 .exc     $BBB     CResourceList.obj
004598b8 00000008 .exc     $BBB     CResourceList.obj
004598c0 00000008 .exc     $BBB     CResourceList.obj
004598c8 00000008 .exc     $BBB     CResourceList.obj
004598d0 00000008 .exc     $BBB     CResourceList.obj
004598d8 00000008 .exc     $BBB     CResourceList.obj
004598e0 00000008 .exc     $BBB     CResourceList.obj
004598e8 00000004 .exc     $CCC     cexc.obj
0045a000 00000328 .data             TrackerServ.cp
0045a328 00000004 .data             TrackerServ.cp(?kMyErrorLogFileName@@3PBEB)
0045a32c 00000004 .data             TrackerServ.cp(?kMyBannedFileName@@3PBEB)
0045a330 00000004 .data             TrackerServ.cp(?kMyPasswordsFileName@@3PBEB)
0045a334 00000004 .data             TrackerServ.cp(?kMyTrackerIPFileName@@3PBEB)
0045a338 00000004 .data             TrackerServ.cp(?kMyServersPerIPFileName@@3PBEB)
0045a33c 000000ac .data             TrackerServ.cp(??_7CMyOptionsWin@@6B@)
0045a3e8 00000038 .data             TrackerServ.cp(??_7CMyApplication@@6B@)
0045a420 000002e8 .data             TrackerServWindows.cp
0045a708 000000ac .data             TrackerServWindows.cp(??_7CMyStatsWin@@6B@)
0045a7b8 0000020c .data             TrackerServViews.cp
0045a9c4 00000110 .data             TrackerServViews.cp(??_7CMyPermBanListView@@6B@)
0045aad4 00000110 .data             TrackerServViews.cp(??_7CMyLoginListView@@6B@)
0045abe4 00000110 .data             TrackerServViews.cp(??_7?$CGeneralListView@USMyPermBanInfo@@@@6B@)
0045acf4 000000d8 .data             TrackerServViews.cp(??_7CItemsView@@6B@)
0045adcc 00000110 .data             TrackerServViews.cp(??_7CSelectableItemsView@@6B@)
0045aedc 00000110 .data             TrackerServViews.cp(??_7CListView@@6B@)
0045afec 00000110 .data             TrackerServViews.cp(??_7?$CGeneralListView@USMyLoginInfo@@@@6B@)
0045b0fc 00000001 .data             UOperatingSystem(W).obj(?mIsQuickTimeAvailable@UOperatingSystem@@1_NA)
0045b100 00000248 .data             UOperatingSystem(W).obj
0045b348 00000004 .data             UOperatingSystem(W).obj(?_gProgramInstance@@3PAUHINSTANCE__@@A)
0045b34c 00000004 .data             UOperatingSystem(W).obj(?_gStartupShowCmd@@3HA)
0045b350 00000004 .data             UOperatingSystem(W).obj(?_gCmdLineStr@@3PADA)
0045b354 00000004 .data             UOperatingSystem(W).obj(?_gCmdLineStrSize@@3KA)
0045b358 00000004 .data             UOperatingSystem(W).obj(?_gCmdLineStrOffset@@3KA)
0045b35c 00000004 .data             UOperatingSystem(W).obj(?_gServiceName@@3PAEA)
0045b360 0000001c .data             UTransport.obj
0045b380 0000007c .data             UError.obj
0045b400 000001b0 .data             UError(W).obj
0045b5b0 00000465 .data             UMemory.obj
0045ba18 00000084 .data             UText.obj
0045ba9c 00000100 .data             UText.obj(?__ctype_map@UText@@2PAEA)
0045bb9c 00000100 .data             UText.obj(?__lower_map@UText@@2PAEA)
0045bca0 000000c2 .data             UMemory(W).obj
0045bd68 0000000c .data             CPtrList.obj
0045bd74 00000004 .data             CApplication.obj(?gApplication@@3PAVCApplication@@A)
0045bd78 00000020 .data             CApplication.obj
0045bd98 00000038 .data             CApplication.obj(??_7CApplication@@6B@)
0045bdd0 00000014 .data             UTimer(W).obj
0045bde8 0000000f .data             MsgBox.obj
0045bdf8 00000148 .data             UWindow(W).obj
0045bf40 00000001 .data             UWindow(W).obj(?_gUseMDIWindow@@3EA)
0045bf41 00000001 .data             UWindow(W).obj(?_gMDIWindowMenu@@3EA)
0045bf42 00000001 .data             UWindow(W).obj(?_APInBkgndFlag@@3EA)
0045bf48 00000018 .data             UDebug(W).obj
0045bf60 0000006c .data             UApplication(W).obj
0045bfcc 00000001 .data             UFileSys(W).obj(?_FSAliasUI@@3_NA)
0045bfd0 000000d0 .data             UFileSys(W).obj
0045c0a0 000005ec .data             USound.obj
0045c68c 00000001 .data             USound.obj(?_gDisableSound@@3EA)
0045c690 0000000c .data             CWindow.obj(?gWindowList@@3VCWindowList@@A)
0045c69c 00000064 .data             CWindow.obj(?gSnapWindows@@3VCSnapWindows@@A)
0045c700 00000124 .data             CWindow.obj
0045c824 00000004 .data             CWindow.obj(?mLastKeyMouseEventSecs@CWindow@@1KA)
0045c828 000000ac .data             CWindow.obj(??_7CWindow@@6B@)
0045c8d8 000000b0 .data             ExceptionX86.obj
0045c988 00000010 .data             ExceptionX86.obj(??_7exception@std@@6B@)
0045c998 00000010 .data             ExceptionX86.obj(??_7bad_exception@std@@6B@)
0045c9a8 00000010 .data             ExceptionX86.obj(??_C?0??what@bad_exception@std@@UBEPBDXZ@4QBDB)
0045c9b8 0000000c .data             ExceptionX86.obj(??_C?0??what@exception@std@@UBEPBDXZ@4QBDB)
0045c9c8 00000078 .data             UDateTime(W).obj
0045ca40 00000170 .data             CView.obj
0045cbb0 00000090 .data             CView.obj(??_7CView@@6B@)
0045cc40 000000b0 .data             CViewContainer.obj
0045ccf0 00000048 .data             CViewContainer.obj(??_7CMultiViewContainer@@6B@)
0045cd38 00000050 .data             CViewContainer.obj(??_7CSingleViewContainer@@6B@)
0045cd88 00000044 .data             CViewContainer.obj(??_7CViewContainer@@6B@)
0045cdcc 00000040 .data             CViewContainer.obj(??_7CViewHandler@@6B@)
0045ce10 000001a0 .data             CContainerView.obj
0045cfb0 00000110 .data             CContainerView.obj(??_7CContainerView@@6B@)
0045d0c0 00000134 .data             CTabbedView.obj
0045d1f4 00000120 .data             CTabbedView.obj(??_7CTabbedView@@6B@)
0045d314 00000004 .data             UGraphics(W).obj(?_NULL_BRUSH@@3PAUHBRUSH__@@A)
0045d318 00000004 .data             UGraphics(W).obj(?_NULL_PEN@@3PAUHPEN__@@A)
0045d31c 00000004 .data             UGraphics(W).obj(?_3DFACE_BRUSH@@3PAUHBRUSH__@@A)
0045d320 00000004 .data             UGraphics(W).obj(?_3DDKSHADOW_BRUSH@@3PAUHBRUSH__@@A)
0045d324 00000004 .data             UGraphics(W).obj(?_3DHILIGHT_PEN@@3PAUHPEN__@@A)
0045d328 00000004 .data             UGraphics(W).obj(?_3DSHADOW_PEN@@3PAUHPEN__@@A)
0045d32c 00000004 .data             UGraphics(W).obj(?_3DDKSHADOW_PEN@@3PAUHPEN__@@A)
0045d330 00000004 .data             UGraphics(W).obj(?_ACTIVECAPTION_BRUSH@@3PAUHBRUSH__@@A)
0045d334 00000004 .data             UGraphics(W).obj(?_ACTIVECAPTION_PEN@@3PAUHPEN__@@A)
0045d338 00000004 .data             UGraphics(W).obj(?_3DSHADOW_BRUSH@@3PAUHBRUSH__@@A)
0045d33c 00000004 .data             UGraphics(W).obj(?_HALFTONE_BRUSH@@3PAUHBRUSH__@@A)
0045d340 00000004 .data             UGraphics(W).obj(?_MAC_PALETTE@@3PAUHPALETTE__@@A)
0045d348 00000650 .data             UGraphics(W).obj
0045d998 00000030 .data             CButtonView.obj
0045d9c8 000000a0 .data             CButtonView.obj(??_7CButtonView@@6B@)
0045da68 00000030 .data             CBoxView.obj
0045da98 000000a0 .data             CBoxView.obj(??_7CBoxView@@6B@)
0045db38 00000030 .data             CLabelView.obj
0045db68 00000094 .data             CLabelView.obj(??_7CLabelView@@6B@)
0045dc00 00000030 .data             CTextView.obj
0045dc30 00000090 .data             CTextView.obj(??_7CTextView@@6B@)
0045dcc0 0000013c .data             CScrollerView.obj
0045ddfc 00000128 .data             CScrollerView.obj(??_7CScrollerView@@6B@)
0045df28 000000ac .data             UEditText.obj
0045dfd8 000000dc .data             CItemsView.obj
0045e0b8 000000d0 .data             CListView.obj
0045e188 00000088 .data             CBoolArray.obj
0045e210 00000088 .data             UGraphics.obj
0045e298 0000001c .data             CDragAndDroppable.obj
0045e2b4 0000000c .data             CDragAndDroppable.obj(??_7CDragAndDroppable@@6B@)
0045e2c0 0000000c .data             winmaincrt.obj
0045e2d0 0000001c .data             HL_Handler.obj
0045e2ec 00000010 .data             \qtml\buildresults\NoSym\obj\qtmlClientPublic\ClientToolboxAPI.obj
0045e2fc 00000017 .data             \qtml\buildresults\NoSym\obj\qtmlClientPublic\ClientToolboxAPI.obj(??_C@_0BH@LAPL@theQuickTimeDispatcher?$AA@)
0045e314 0000000f .data             \qtml\buildresults\NoSym\obj\qtmlClientPublic\ClientToolboxAPI.obj(??_C@_0P@LEHP@_CallComponent?$AA@)
0045e324 00000022 .data             \qtml\buildresults\NoSym\obj\qtmlClientPublic\ClientToolboxAPI.obj(??_C@_0CC@EPCJ@_CallComponentFunctionWithStorag@)
0045e348 00000002 .data             \qtml\buildresults\NoSym\obj\qtmlClientPublic\ClientToolboxAPI.obj(??_C@_01PCFE@?2?$AA@)
0045e34c 0000000e .data             \qtml\buildresults\NoSym\obj\qtmlClientPublic\ClientToolboxAPI.obj(??_C@_0O@JKHA@QuickTime?4qts?$AA@)
0045e360 00000030 .data             ANSI.obj
0045e390 00000010 .data             UProgramCleanup.obj(?gProgramCleanup@UProgramCleanup@@0VCleanup@1@A)
0045e3a0 00000248 .data             UService(W).obj
0045e5e8 00000168 .data             UOleAutomation(W).obj
0045e750 00000010 .data             UOleAutomation(W).obj(_CLSID_PROTOCOL_HANDLER)
0045e760 00000004 .data             UOleAutomation(W).obj(?gClsid_Protocol_Handler@@3PBDB)
0045e764 00000004 .data             UOleAutomation(W).obj(?gProgID_Protocol_Handler@@3PADA)
0045e768 00000004 .data             UOleAutomation(W).obj(?gProtocolUnknown@@3PAV_DIProtocolUnknown@@A)
0045e76c 00000004 .data             UOleAutomation(W).obj(?gProtocolClassFactory@@3PAV_DIProtocolClassFactory@@A)
0045e770 00000004 .data             UOleAutomation(W).obj(?gRegisterUnknown@@3KA)
0045e774 00000004 .data             UOleAutomation(W).obj(?gRegisterFactory@@3KA)
0045e778 00000038 .data             UOleAutomation(W).obj(?gMethodData@@3PAUtagMETHODDATA@@A)
0045e7b0 00000008 .data             UOleAutomation(W).obj(?gInterfaceData@@3UtagINTERFACEDATA@@A)
0045e7b8 0000001c .data             UOleAutomation(W).obj(??_7_DIProtocolClassFactory@@6B@)
0045e7d4 00000014 .data             UOleAutomation(W).obj(??_7_DIProtocolUnknown@@6B@)
0045e7e8 00000010 .data             UOleAutomation(W).obj(??_7_DProtocolHandler@@6B@)
0045e7f8 0000032c .data             URegularTransport(W).obj
0045eb24 00000004 .data             URegularTransport(W).obj(?_TRSendBufSize@@3KA)
0045eb28 00000194 .data             UHttpTransport.obj
0045ecc0 000001a0 .data             URez.obj
0045ee60 00000010 .data             UIDVarArray.obj
0045ee70 00000010 .data             URegion(W).obj
0045ee80 00000010 .data             UDragAndDrop(W).obj(?IID_AWSDragRefPtr@@3U_GUID@@A)
0045ee90 00000010 .data             UDragAndDrop(W).obj(?IID_AW_DDDataObject@@3U_GUID@@A)
0045eea0 000001cc .data             UDragAndDrop(W).obj
0045f06c 00000010 .data             UDragAndDrop(W).obj(?_gDDData@@3UDDGlobals@@A)
0045f07c 00000028 .data             UDragAndDrop(W).obj(??_7_DDDropTarget@@6B@)
0045f0a4 00000024 .data             UDragAndDrop(W).obj(??_7_DDFormatEtcEnum@@6B@)
0045f0c8 0000001c .data             UDragAndDrop(W).obj(??_7_DDDropSource@@6B@)
0045f0e4 00000038 .data             UDragAndDrop(W).obj(??_7_DDDataObject@@6B@)
0045f11c 00000004 .data             UTooltip.obj(?_TTToolTipWin@@3PAV_TTCToolTipWin@@A)
0045f120 00000002 .data             UTooltip.obj(?_TTTooltipState@@3GA)
0045f124 00000004 .data             UTooltip.obj(?_TTToolTipTimer@@3PAVTTimerObj@@A)
0045f128 00000004 .data             UTooltip.obj(?_TTToolTipTimeoutTimer@@3PAVTTimerObj@@A)
0045f12c 00000004 .data             UTooltip.obj(?_TTWin@@3PAVTWindowObj@@A)
0045f130 0000010c .data             UTooltip.obj
0045f23c 000000ac .data             UTooltip.obj(??_7_TTCToolTipWin@@6B@)
0045f2e8 00000090 .data             UTooltip.obj(??_7_TTCToolTipView@@6B@)
0045f378 00000030 .data             USound(W).obj
0045f3a8 00000010 .data             GrafTypes.obj(?kZeroRect@@3VSRect@@B)
0045f3b8 00000008 .data             GrafTypes.obj(?kZeroPoint@@3VSPoint@@B)
0045f3c0 00000006 .data             GrafTypes.obj(?color_Gray0@@3VSColor@@B)
0045f3c6 00000006 .data             GrafTypes.obj(?color_Gray1@@3VSColor@@B)
0045f3cc 00000006 .data             GrafTypes.obj(?color_Gray2@@3VSColor@@B)
0045f3d2 00000006 .data             GrafTypes.obj(?color_Gray3@@3VSColor@@B)
0045f3d8 00000006 .data             GrafTypes.obj(?color_Gray4@@3VSColor@@B)
0045f3de 00000006 .data             GrafTypes.obj(?color_Gray5@@3VSColor@@B)
0045f3e4 00000006 .data             GrafTypes.obj(?color_Gray6@@3VSColor@@B)
0045f3ea 00000006 .data             GrafTypes.obj(?color_Gray7@@3VSColor@@B)
0045f3f0 00000006 .data             GrafTypes.obj(?color_Gray8@@3VSColor@@B)
0045f3f6 00000006 .data             GrafTypes.obj(?color_Gray9@@3VSColor@@B)
0045f3fc 00000006 .data             GrafTypes.obj(?color_GrayA@@3VSColor@@B)
0045f402 00000006 .data             GrafTypes.obj(?color_GrayB@@3VSColor@@B)
0045f408 00000006 .data             GrafTypes.obj(?color_GrayC@@3VSColor@@B)
0045f40e 00000006 .data             GrafTypes.obj(?color_GrayD@@3VSColor@@B)
0045f414 00000006 .data             GrafTypes.obj(?color_GrayE@@3VSColor@@B)
0045f41a 00000006 .data             GrafTypes.obj(?color_GrayF@@3VSColor@@B)
0045f420 00000006 .data             GrafTypes.obj(?color_White@@3VSColor@@B)
0045f426 00000006 .data             GrafTypes.obj(?color_Black@@3VSColor@@B)
0045f42c 00000006 .data             GrafTypes.obj(?color_Gray@@3VSColor@@B)
0045f432 00000006 .data             GrafTypes.obj(?color_Red@@3VSColor@@B)
0045f438 00000006 .data             GrafTypes.obj(?color_Green@@3VSColor@@B)
0045f43e 00000006 .data             GrafTypes.obj(?color_Blue@@3VSColor@@B)
0045f444 00000006 .data             GrafTypes.obj(?color_Cyan@@3VSColor@@B)
0045f44a 00000006 .data             GrafTypes.obj(?color_Magenta@@3VSColor@@B)
0045f450 00000006 .data             GrafTypes.obj(?color_Yellow@@3VSColor@@B)
0045f456 00000006 .data             GrafTypes.obj(?color_Orange@@3VSColor@@B)
0045f45c 00000006 .data             GrafTypes.obj(?color_Chartreuse@@3VSColor@@B)
0045f462 00000006 .data             GrafTypes.obj(?color_Aqua@@3VSColor@@B)
0045f468 00000006 .data             GrafTypes.obj(?color_Slate@@3VSColor@@B)
0045f46e 00000006 .data             GrafTypes.obj(?color_Purple@@3VSColor@@B)
0045f474 00000006 .data             GrafTypes.obj(?color_Maroon@@3VSColor@@B)
0045f47a 00000006 .data             GrafTypes.obj(?color_Brown@@3VSColor@@B)
0045f480 00000006 .data             GrafTypes.obj(?color_Pink@@3VSColor@@B)
0045f486 00000006 .data             GrafTypes.obj(?color_Turquoise@@3VSColor@@B)
0045f48c 00000006 .data             GrafTypes.obj(?color_cadmium_lemon@@3VSColor@@B)
0045f492 00000006 .data             GrafTypes.obj(?color_cadmium_light_yellow@@3VSColor@@B)
0045f498 00000006 .data             GrafTypes.obj(?color_aureoline_yellow@@3VSColor@@B)
0045f49e 00000006 .data             GrafTypes.obj(?color_naples_deep_yellow@@3VSColor@@B)
0045f4a4 00000006 .data             GrafTypes.obj(?color_cadmium_yellow@@3VSColor@@B)
0045f4aa 00000006 .data             GrafTypes.obj(?color_cadmium_deep_yellow@@3VSColor@@B)
0045f4b0 00000006 .data             GrafTypes.obj(?color_cadmium_orange@@3VSColor@@B)
0045f4b6 00000006 .data             GrafTypes.obj(?color_cadmium_light_red@@3VSColor@@B)
0045f4bc 00000006 .data             GrafTypes.obj(?color_cadmium_deep_red@@3VSColor@@B)
0045f4c2 00000006 .data             GrafTypes.obj(?color_geranium_lake@@3VSColor@@B)
0045f4c8 00000006 .data             GrafTypes.obj(?color_alizarin_crimson@@3VSColor@@B)
0045f4ce 00000006 .data             GrafTypes.obj(?color_rose_madder@@3VSColor@@B)
0045f4d4 00000006 .data             GrafTypes.obj(?color_madder_deep_lake@@3VSColor@@B)
0045f4da 00000006 .data             GrafTypes.obj(?color_brown_madder@@3VSColor@@B)
0045f4e0 00000006 .data             GrafTypes.obj(?color_permanent_red_violet@@3VSColor@@B)
0045f4e6 00000006 .data             GrafTypes.obj(?color_cobalt_deep_violet@@3VSColor@@B)
0045f4ec 00000006 .data             GrafTypes.obj(?color_ultramarine_violet@@3VSColor@@B)
0045f4f2 00000006 .data             GrafTypes.obj(?color_ultramarine_blue@@3VSColor@@B)
0045f4f8 00000006 .data             GrafTypes.obj(?color_cobalt_blue@@3VSColor@@B)
0045f4fe 00000006 .data             GrafTypes.obj(?color_royal_blue@@3VSColor@@B)
0045f504 00000006 .data             GrafTypes.obj(?color_cerulean_blue@@3VSColor@@B)
0045f50a 00000006 .data             GrafTypes.obj(?color_manganese_blue@@3VSColor@@B)
0045f510 00000006 .data             GrafTypes.obj(?color_indigo@@3VSColor@@B)
0045f516 00000006 .data             GrafTypes.obj(?color_turquoise_blue@@3VSColor@@B)
0045f51c 00000006 .data             GrafTypes.obj(?color_emerald_green@@3VSColor@@B)
0045f522 00000006 .data             GrafTypes.obj(?color_permanent_green@@3VSColor@@B)
0045f528 00000006 .data             GrafTypes.obj(?color_viridian_light@@3VSColor@@B)
0045f52e 00000006 .data             GrafTypes.obj(?color_cobalt_green@@3VSColor@@B)
0045f534 00000006 .data             GrafTypes.obj(?color_cinnabar_green@@3VSColor@@B)
0045f53a 00000006 .data             GrafTypes.obj(?color_sap_green@@3VSColor@@B)
0045f540 00000006 .data             GrafTypes.obj(?color_chromium_oxide_green@@3VSColor@@B)
0045f546 00000006 .data             GrafTypes.obj(?color_terre_verte@@3VSColor@@B)
0045f54c 00000006 .data             GrafTypes.obj(?color_yellow_ochre@@3VSColor@@B)
0045f552 00000006 .data             GrafTypes.obj(?color_mars_yellow@@3VSColor@@B)
0045f558 00000006 .data             GrafTypes.obj(?color_raw_sienna@@3VSColor@@B)
0045f55e 00000006 .data             GrafTypes.obj(?color_mars_orange@@3VSColor@@B)
0045f564 00000006 .data             GrafTypes.obj(?color_gold_ochre@@3VSColor@@B)
0045f56a 00000006 .data             GrafTypes.obj(?color_brown_ochre@@3VSColor@@B)
0045f570 00000006 .data             GrafTypes.obj(?color_deep_ochre@@3VSColor@@B)
0045f576 00000006 .data             GrafTypes.obj(?color_burnt_umber@@3VSColor@@B)
0045f57c 00000006 .data             GrafTypes.obj(?color_burnt_sienna@@3VSColor@@B)
0045f582 00000006 .data             GrafTypes.obj(?color_flesh@@3VSColor@@B)
0045f588 00000006 .data             GrafTypes.obj(?color_flesh_ochre@@3VSColor@@B)
0045f58e 00000006 .data             GrafTypes.obj(?color_english_red@@3VSColor@@B)
0045f594 00000006 .data             GrafTypes.obj(?color_venetian_red@@3VSColor@@B)
0045f59a 00000006 .data             GrafTypes.obj(?color_indian_red@@3VSColor@@B)
0045f5a0 00000006 .data             GrafTypes.obj(?color_raw_umber@@3VSColor@@B)
0045f5a6 00000006 .data             GrafTypes.obj(?color_greenish_umber@@3VSColor@@B)
0045f5ac 00000006 .data             GrafTypes.obj(?color_van_dyck_brown@@3VSColor@@B)
0045f5b2 00000006 .data             GrafTypes.obj(?color_sepia@@3VSColor@@B)
0045f5b8 00000006 .data             GrafTypes.obj(?color_warm_grey@@3VSColor@@B)
0045f5be 00000006 .data             GrafTypes.obj(?color_cold_grey@@3VSColor@@B)
0045f5c4 00000006 .data             GrafTypes.obj(?color_ivory_black@@3VSColor@@B)
0045f5ca 00000006 .data             GrafTypes.obj(?color_lamp_black@@3VSColor@@B)
0045f5d0 00000006 .data             GrafTypes.obj(?color_titanium_white@@3VSColor@@B)
0045f5d6 00000006 .data             GrafTypes.obj(?color_zinc_white@@3VSColor@@B)
0045f5dc 00000006 .data             GrafTypes.obj(?color_pale_gold@@3VSColor@@B)
0045f5e2 00000006 .data             GrafTypes.obj(?color_gold@@3VSColor@@B)
0045f5e8 00000006 .data             GrafTypes.obj(?color_old_gold@@3VSColor@@B)
0045f5ee 00000006 .data             GrafTypes.obj(?color_pink_gold@@3VSColor@@B)
0045f5f4 00000006 .data             GrafTypes.obj(?color_white_gold@@3VSColor@@B)
0045f5fa 00000006 .data             GrafTypes.obj(?color_yellow_gold@@3VSColor@@B)
0045f600 00000006 .data             GrafTypes.obj(?color_green_gold@@3VSColor@@B)
0045f606 00000006 .data             GrafTypes.obj(?color_platinum@@3VSColor@@B)
0045f60c 00000006 .data             GrafTypes.obj(?color_silver@@3VSColor@@B)
0045f612 00000006 .data             GrafTypes.obj(?color_antique_silver@@3VSColor@@B)
0045f618 00000006 .data             GrafTypes.obj(?color_chrome@@3VSColor@@B)
0045f61e 00000006 .data             GrafTypes.obj(?color_steel@@3VSColor@@B)
0045f624 00000006 .data             GrafTypes.obj(?color_copper@@3VSColor@@B)
0045f62a 00000006 .data             GrafTypes.obj(?color_antique_copper@@3VSColor@@B)
0045f630 00000006 .data             GrafTypes.obj(?color_oxidized_copper@@3VSColor@@B)
0045f636 00000006 .data             GrafTypes.obj(?color_bronze@@3VSColor@@B)
0045f63c 00000006 .data             GrafTypes.obj(?color_brass@@3VSColor@@B)
0045f642 00000006 .data             GrafTypes.obj(?color_iron@@3VSColor@@B)
0045f648 00000006 .data             GrafTypes.obj(?color_rusted_iron@@3VSColor@@B)
0045f64e 00000006 .data             GrafTypes.obj(?color_lead@@3VSColor@@B)
0045f654 00000006 .data             GrafTypes.obj(?color_fluorescent_pink@@3VSColor@@B)
0045f65a 00000006 .data             GrafTypes.obj(?color_fluorescent_green@@3VSColor@@B)
0045f660 00000006 .data             GrafTypes.obj(?color_fluorescent_blue@@3VSColor@@B)
0045f666 00000006 .data             GrafTypes.obj(?color_incadescent_high@@3VSColor@@B)
0045f66c 00000006 .data             GrafTypes.obj(?color_incadescent_low@@3VSColor@@B)
0045f672 00000006 .data             GrafTypes.obj(?color_moonlight@@3VSColor@@B)
0045f678 00000006 .data             GrafTypes.obj(?color_sodium@@3VSColor@@B)
0045f67e 00000006 .data             GrafTypes.obj(?color_daylight@@3VSColor@@B)
0045f684 00000006 .data             GrafTypes.obj(?color_dawn@@3VSColor@@B)
0045f68a 00000006 .data             GrafTypes.obj(?color_afternoon@@3VSColor@@B)
0045f690 00000006 .data             GrafTypes.obj(?color_dusk@@3VSColor@@B)
0045f696 00000006 .data             GrafTypes.obj(?color_purple_gray@@3VSColor@@B)
0045f6a0 00000030 .data             GrafTypes.obj
0045f6d0 00000030 .data             CIconView.obj
0045f700 00000094 .data             CIconView.obj(??_7CIconView@@6B@)
0045f798 00000034 .data             CPictureView.obj
0045f7cc 00000090 .data             CPictureView.obj(??_7CPictureView@@6B@)
0045f860 00000200 .data             UKeyboard(W).obj
0045fa60 0000002c .data             UMouse(W).obj
0045fa90 00000038 .data             UMessageSys.obj
0045fac8 000000a4 .data             UFileSys.obj
0045fb6c 00000200 .data             ctype.obj(___ctype_mapC)
0045fd6c 00000100 .data             ctype.obj(___lower_mapC)
0045fe6c 00000100 .data             ctype.obj(___upper_mapC)
0045ff70 00000068 .data             UDateTime.obj
0045ffd8 000000b4 .data             MWRTTI.obj
0046008c 00000010 .data             MWRTTI.obj(??_7bad_cast@std@@6B@)
0046009c 0000000c .data             MWRTTI.obj(??_C?0??what@bad_cast@std@@UBEPBDXZ@4QBDB)
004600a8 00000008 .data             NMWException.obj
004600b0 00000048 .data             UMath.obj
004600f8 00000101 .data             UText(W).obj(?_UTCharMap_AWToPC@@3QBDB)
00460200 000000a0 .data             UPixmap.obj
004602a0 00000055 .data             UClipboard(W).obj
004602f8 00000008 .data             UMath(W).obj(?pi@@3NB)
00460300 00000004 .data             excrtl.obj
00460308 0000000c .data             setupargs.obj
00460318 0000000c .data             QTDispatcherW.obj
00460324 00000004 .data             CDataHandlerComponent.obj(?sInstance@CDataHandlerComponent@BigRedH@@0V?$auto_ptr@VCDataHandlerComponent@BigRedH@@@std@@A)
00460328 00000800 .data             CDataHandlerComponent.obj
00460b28 00000002 .data             CDataHandlerComponent.obj(?__nullstring@?0??data@?$basic_string@_WU?$char_traits@_W@std@@V?$allocator@_W@2@@std@@QBEPB_WXZ@4_WB)
00460b2c 00000010 .data             CDataHandlerComponent.obj(??_7length_error@std@@6B@)
00460b3c 00000010 .data             CDataHandlerComponent.obj(??_7logic_error@std@@6B@)
00460b4c 00000010 .data             CDataHandlerComponent.obj(??_7out_of_range@std@@6B@)
00460b60 00000008 .data             wstring.obj
00460b68 0000000c .data             UGUID(W).obj
00460b78 00000018 .data             UGUID.obj
00460b90 000003e0 .data             UMime.obj
00460f70 00000048 .data             ThreadLocalData.obj
00460fb8 00000058 .data             math_x87.obj
00461010 00000150 .data             ansi_files.obj(___files)
00461160 00000024 .data             sysenv.win32.obj
00461188 00000138 .data             alloc.obj
004612c0 00000328 .data             QTDispatcher.obj
004615e8 000000c4 .data             CMutex_W.obj
004616ac 00000010 .data             CMutex_W.obj(??_7CThreadException@BigRedH@@6B@)
004616bc 00000004 .data             CThreadManager.obj(?sInstance@CThreadManager@BigRedH@@0V?$auto_ptr@VCThreadManager@BigRedH@@@std@@A)
004616c0 00000110 .data             CThreadManager.obj
004617d0 00000406 .data             CDataProvider.obj
00461bd8 000002a0 .data             CDataHandlerConnection.obj
00461e78 00000200 .data             CString_W.obj
00462078 00000844 .data             UStringConverter.obj
004628c0 00000134 .data             locale.obj
004629f4 00000038 .data             locale.obj(___lconv)
00462a2c 00000028 .data             locale.obj(__loc_ctyp_C)
00462a54 00000010 .data             locale.obj(__loc_coll_C)
00462a64 00000034 .data             locale.obj(__loc_mon_C)
00462a98 00000014 .data             locale.obj(__loc_num_C)
00462aac 00000020 .data             locale.obj(__loc_tim_C)
00462acc 00000048 .data             locale.obj(__current_locale)
00462b18 0000000c .data             compiler_math.obj
00462b24 00000004 .data             float.obj(___float_nan)
00462b28 00000010 .data             file_io.win32.obj
00462b38 00000040 .data             printf.obj
00462b78 000002ae .data             CException.obj
00462e28 00000010 .data             CException.obj(??_7CException@BigRedH@@6B@)
00462e38 000000d8 .data             CThread_W.obj
00462f10 00000124 .data             CListener.obj
00463034 00000010 .data             CListener.obj(??_7CMessageException@BigRedH@@6B@)
00463044 00000010 .data             CListener.obj(??_7CListener@BigRedH@@6B@)
00463058 000002d8 .data             CNetAddress_UW.obj
00463330 00000236 .data             UFileUtils_W.obj
00463568 000003f4 .data             CUnflattenFile.obj
00463960 000001b4 .data             CBroadcaster.obj
00463b18 000001f0 .data             CSyncTCPStreamBuffer.obj
00463d08 00000010 .data             CSyncTCPStreamBuffer.obj(??_7CStreamException@BigRedH@@6B@)
00463d18 00000174 .data             CStreamBuffer.obj
00463e90 00000124 .data             CNetTCPConnection_UW.obj
00463fb8 0000032e .data             CLocalFile_W.obj
004642e8 000000bc .data             CDateTime.obj
004643a8 00000004 .data             mbstring.obj
004643ac 00000200 .data             wctype.obj(___wctype_mapC)
004645ac 00000200 .data             wctype.obj(___wlower_mapC)
004647ac 00000200 .data             wctype.obj(___wupper_mapC)
004649b0 00000058 .data             wctype.obj
00464a08 0000000c .data             misc_io.obj
00464a18 000001c0 .data             ansifp_x86.obj
00464bd8 00000168 .data             UAWError_W.obj
00464d40 000000f4 .data             CMessageWrangler.obj
00464e38 0000001c .data             CMessage.obj
00464e58 00000288 .data             CMemoryStreamBuffer.obj
004650e0 000004f4 .data             CFSLocalFileRefWin.obj
004655d8 00000262 .data             CFSFileRef.obj
00465840 00000140 .data             time.obj
00465980 000003a4 .data             string.obj
00465d28 00000064 .data             CFSRef.obj
00465d90 000005b2 .data             CFileStreamBuffer_W.obj
00466344 00000004 .data             CMemoryObjectCache.obj(?sInstance@CMemoryObjectCache@BigRedH@@0V?$auto_ptr@VCMemoryObjectCache@BigRedH@@@std@@A)
00466348 000004cc .data             CMemoryObjectCache.obj
00466818 0000003c .data             time.win32.obj
00466858 0000032c .data             CFlattenable.obj
00466b84 00000014 .data             CFlattenable.obj(??_7CFlattenable@BigRedH@@6B@)
00466b98 00000148 .data             CGenericObject.obj
00466ce0 00000304 .data             CStringObject.obj
00466fe4 00000014 .data             CStringObject.obj(??_7CStringObject@BigRedH@@6B@)
00466ff8 000002e0 .data             CResourceList.obj
004672d8 00000014 .data             CResourceList.obj(??_7CResourceList@BigRedH@@6B@)
004672f0 00000028 .data             scanf.obj
00467318 0000067e .data             CResourceFile.obj
00467998 00000018 .data             strtold.obj
004679b0 0000000c .data    $x       winmaincrt.obj
00468000 000001d8 .rsrc    $01      hotlinetrack.rc
004681e0 000017f0 .rsrc    $02      hotlinetrack.rc
0046a000 00000004 .CRT     $XCA     ccinit.obj
0046a004 00000004 .CRT     $XCU     CWindow.obj
0046a008 00000004 .CRT     $XCU     ExceptionX86.obj
0046a00c 00000004 .CRT     $XCU     UGraphics(W).obj
0046a010 00000004 .CRT     $XCU     UProgramCleanup.obj
0046a014 00000004 .CRT     $XCU     UHttpTransport.obj
0046a018 00000004 .CRT     $XCU     GrafTypes.obj
0046a01c 00000004 .CRT     $XCU     excrtl.obj
0046a020 00000004 .CRT     $XCU     CDataHandlerComponent.obj
0046a024 00000004 .CRT     $XCU     CThreadManager.obj
0046a028 00000004 .CRT     $XCU     CMemoryObjectCache.obj
0046a02c 00000004 .CRT     $XCZ     ccinit.obj
0046b000 00000014 .idata   $2       ADVAPI32.dll
0046b014 00000014 .idata   $2       COMCTL32.dll
0046b028 00000014 .idata   $2       GDI32.dll
0046b03c 00000014 .idata   $2       KERNEL32.dll
0046b050 00000014 .idata   $2       NETAPI32.dll
0046b064 00000014 .idata   $2       OLEAUT32.dll
0046b078 00000014 .idata   $2       SHELL32.dll
0046b08c 00000014 .idata   $2       USER32.dll
0046b0a0 00000014 .idata   $2       WINMM.dll
0046b0b4 00000014 .idata   $2       WSOCK32.dll
0046b0c8 00000014 .idata   $2       comdlg32.dll
0046b0dc 00000014 .idata   $2       ole32.dll
0046b0f0 00000014 .idata   $3       GDI32.dll
0046b104 00000004 .idata   $4       ADVAPI32.dll
0046b108 00000004 .idata   $4       ADVAPI32.dll
0046b10c 00000004 .idata   $4       ADVAPI32.dll
0046b110 00000004 .idata   $4       ADVAPI32.dll
0046b114 00000004 .idata   $4       ADVAPI32.dll
0046b118 00000004 .idata   $4       ADVAPI32.dll
0046b11c 00000004 .idata   $4       ADVAPI32.dll
0046b120 00000004 .idata   $4       ADVAPI32.dll
0046b124 00000004 .idata   $4       ADVAPI32.dll
0046b128 00000004 .idata   $4       ADVAPI32.dll
0046b12c 00000004 .idata   $4       ADVAPI32.dll
0046b130 00000004 .idata   $4       ADVAPI32.dll
0046b134 00000004 .idata   $4       ADVAPI32.dll
0046b138 00000004 .idata   $4       ADVAPI32.dll
0046b13c 00000004 .idata   $4       ADVAPI32.dll
0046b140 00000004 .idata   $4       COMCTL32.dll
0046b144 00000004 .idata   $4       GDI32.dll
0046b148 00000004 .idata   $4       GDI32.dll
0046b14c 00000004 .idata   $4       GDI32.dll
0046b150 00000004 .idata   $4       GDI32.dll
0046b154 00000004 .idata   $4       GDI32.dll
0046b158 00000004 .idata   $4       GDI32.dll
0046b15c 00000004 .idata   $4       GDI32.dll
0046b160 00000004 .idata   $4       GDI32.dll
0046b164 00000004 .idata   $4       GDI32.dll
0046b168 00000004 .idata   $4       GDI32.dll
0046b16c 00000004 .idata   $4       GDI32.dll
0046b170 00000004 .idata   $4       GDI32.dll
0046b174 00000004 .idata   $4       GDI32.dll
0046b178 00000004 .idata   $4       GDI32.dll
0046b17c 00000004 .idata   $4       GDI32.dll
0046b180 00000004 .idata   $4       GDI32.dll
0046b184 00000004 .idata   $4       GDI32.dll
0046b188 00000004 .idata   $4       GDI32.dll
0046b18c 00000004 .idata   $4       GDI32.dll
0046b190 00000004 .idata   $4       GDI32.dll
0046b194 00000004 .idata   $4       GDI32.dll
0046b198 00000004 .idata   $4       GDI32.dll
0046b19c 00000004 .idata   $4       GDI32.dll
0046b1a0 00000004 .idata   $4       GDI32.dll
0046b1a4 00000004 .idata   $4       GDI32.dll
0046b1a8 00000004 .idata   $4       GDI32.dll
0046b1ac 00000004 .idata   $4       GDI32.dll
0046b1b0 00000004 .idata   $4       GDI32.dll
0046b1b4 00000004 .idata   $4       GDI32.dll
0046b1b8 00000004 .idata   $4       GDI32.dll
0046b1bc 00000004 .idata   $4       GDI32.dll
0046b1c0 00000004 .idata   $4       GDI32.dll
0046b1c4 00000004 .idata   $4       GDI32.dll
0046b1c8 00000004 .idata   $4       GDI32.dll
0046b1cc 00000004 .idata   $4       GDI32.dll
0046b1d0 00000004 .idata   $4       GDI32.dll
0046b1d4 00000004 .idata   $4       GDI32.dll
0046b1d8 00000004 .idata   $4       GDI32.dll
0046b1dc 00000004 .idata   $4       GDI32.dll
0046b1e0 00000004 .idata   $4       GDI32.dll
0046b1e4 00000004 .idata   $4       GDI32.dll
0046b1e8 00000004 .idata   $4       GDI32.dll
0046b1ec 00000004 .idata   $4       GDI32.dll
0046b1f0 00000004 .idata   $4       GDI32.dll
0046b1f4 00000004 .idata   $4       GDI32.dll
0046b1f8 00000004 .idata   $4       GDI32.dll
0046b1fc 00000004 .idata   $4       GDI32.dll
0046b200 00000004 .idata   $4       GDI32.dll
0046b204 00000004 .idata   $4       GDI32.dll
0046b208 00000004 .idata   $4       GDI32.dll
0046b20c 00000004 .idata   $4       GDI32.dll
0046b210 00000004 .idata   $4       GDI32.dll
0046b214 00000004 .idata   $4       GDI32.dll
0046b218 00000004 .idata   $4       GDI32.dll
0046b21c 00000004 .idata   $4       GDI32.dll
0046b220 00000004 .idata   $4       GDI32.dll
0046b224 00000004 .idata   $4       GDI32.dll
0046b228 00000004 .idata   $4       GDI32.dll
0046b22c 00000004 .idata   $4       GDI32.dll
0046b230 00000004 .idata   $4       GDI32.dll
0046b234 00000004 .idata   $4       KERNEL32.dll
0046b238 00000004 .idata   $4       KERNEL32.dll
0046b23c 00000004 .idata   $4       KERNEL32.dll
0046b240 00000004 .idata   $4       KERNEL32.dll
0046b244 00000004 .idata   $4       KERNEL32.dll
0046b248 00000004 .idata   $4       KERNEL32.dll
0046b24c 00000004 .idata   $4       KERNEL32.dll
0046b250 00000004 .idata   $4       KERNEL32.dll
0046b254 00000004 .idata   $4       KERNEL32.dll
0046b258 00000004 .idata   $4       KERNEL32.dll
0046b25c 00000004 .idata   $4       KERNEL32.dll
0046b260 00000004 .idata   $4       KERNEL32.dll
0046b264 00000004 .idata   $4       KERNEL32.dll
0046b268 00000004 .idata   $4       KERNEL32.dll
0046b26c 00000004 .idata   $4       KERNEL32.dll
0046b270 00000004 .idata   $4       KERNEL32.dll
0046b274 00000004 .idata   $4       KERNEL32.dll
0046b278 00000004 .idata   $4       KERNEL32.dll
0046b27c 00000004 .idata   $4       KERNEL32.dll
0046b280 00000004 .idata   $4       KERNEL32.dll
0046b284 00000004 .idata   $4       KERNEL32.dll
0046b288 00000004 .idata   $4       KERNEL32.dll
0046b28c 00000004 .idata   $4       KERNEL32.dll
0046b290 00000004 .idata   $4       KERNEL32.dll
0046b294 00000004 .idata   $4       KERNEL32.dll
0046b298 00000004 .idata   $4       KERNEL32.dll
0046b29c 00000004 .idata   $4       KERNEL32.dll
0046b2a0 00000004 .idata   $4       KERNEL32.dll
0046b2a4 00000004 .idata   $4       KERNEL32.dll
0046b2a8 00000004 .idata   $4       KERNEL32.dll
0046b2ac 00000004 .idata   $4       KERNEL32.dll
0046b2b0 00000004 .idata   $4       KERNEL32.dll
0046b2b4 00000004 .idata   $4       KERNEL32.dll
0046b2b8 00000004 .idata   $4       KERNEL32.dll
0046b2bc 00000004 .idata   $4       KERNEL32.dll
0046b2c0 00000004 .idata   $4       KERNEL32.dll
0046b2c4 00000004 .idata   $4       KERNEL32.dll
0046b2c8 00000004 .idata   $4       KERNEL32.dll
0046b2cc 00000004 .idata   $4       KERNEL32.dll
0046b2d0 00000004 .idata   $4       KERNEL32.dll
0046b2d4 00000004 .idata   $4       KERNEL32.dll
0046b2d8 00000004 .idata   $4       KERNEL32.dll
0046b2dc 00000004 .idata   $4       KERNEL32.dll
0046b2e0 00000004 .idata   $4       KERNEL32.dll
0046b2e4 00000004 .idata   $4       KERNEL32.dll
0046b2e8 00000004 .idata   $4       KERNEL32.dll
0046b2ec 00000004 .idata   $4       KERNEL32.dll
0046b2f0 00000004 .idata   $4       KERNEL32.dll
0046b2f4 00000004 .idata   $4       KERNEL32.dll
0046b2f8 00000004 .idata   $4       KERNEL32.dll
0046b2fc 00000004 .idata   $4       KERNEL32.dll
0046b300 00000004 .idata   $4       KERNEL32.dll
0046b304 00000004 .idata   $4       KERNEL32.dll
0046b308 00000004 .idata   $4       KERNEL32.dll
0046b30c 00000004 .idata   $4       KERNEL32.dll
0046b310 00000004 .idata   $4       KERNEL32.dll
0046b314 00000004 .idata   $4       KERNEL32.dll
0046b318 00000004 .idata   $4       KERNEL32.dll
0046b31c 00000004 .idata   $4       KERNEL32.dll
0046b320 00000004 .idata   $4       NETAPI32.dll
0046b324 00000004 .idata   $4       OLEAUT32.dll
0046b328 00000004 .idata   $4       OLEAUT32.dll
0046b32c 00000004 .idata   $4       OLEAUT32.dll
0046b330 00000004 .idata   $4       OLEAUT32.dll
0046b334 00000004 .idata   $4       OLEAUT32.dll
0046b338 00000004 .idata   $4       SHELL32.dll
0046b33c 00000004 .idata   $4       SHELL32.dll
0046b340 00000004 .idata   $4       SHELL32.dll
0046b344 00000004 .idata   $4       SHELL32.dll
0046b348 00000004 .idata   $4       SHELL32.dll
0046b34c 00000004 .idata   $4       USER32.dll
0046b350 00000004 .idata   $4       USER32.dll
0046b354 00000004 .idata   $4       USER32.dll
0046b358 00000004 .idata   $4       USER32.dll
0046b35c 00000004 .idata   $4       USER32.dll
0046b360 00000004 .idata   $4       USER32.dll
0046b364 00000004 .idata   $4       USER32.dll
0046b368 00000004 .idata   $4       USER32.dll
0046b36c 00000004 .idata   $4       USER32.dll
0046b370 00000004 .idata   $4       USER32.dll
0046b374 00000004 .idata   $4       USER32.dll
0046b378 00000004 .idata   $4       USER32.dll
0046b37c 00000004 .idata   $4       USER32.dll
0046b380 00000004 .idata   $4       USER32.dll
0046b384 00000004 .idata   $4       USER32.dll
0046b388 00000004 .idata   $4       USER32.dll
0046b38c 00000004 .idata   $4       USER32.dll
0046b390 00000004 .idata   $4       USER32.dll
0046b394 00000004 .idata   $4       USER32.dll
0046b398 00000004 .idata   $4       USER32.dll
0046b39c 00000004 .idata   $4       USER32.dll
0046b3a0 00000004 .idata   $4       USER32.dll
0046b3a4 00000004 .idata   $4       USER32.dll
0046b3a8 00000004 .idata   $4       USER32.dll
0046b3ac 00000004 .idata   $4       USER32.dll
0046b3b0 00000004 .idata   $4       USER32.dll
0046b3b4 00000004 .idata   $4       USER32.dll
0046b3b8 00000004 .idata   $4       USER32.dll
0046b3bc 00000004 .idata   $4       USER32.dll
0046b3c0 00000004 .idata   $4       USER32.dll
0046b3c4 00000004 .idata   $4       USER32.dll
0046b3c8 00000004 .idata   $4       USER32.dll
0046b3cc 00000004 .idata   $4       USER32.dll
0046b3d0 00000004 .idata   $4       USER32.dll
0046b3d4 00000004 .idata   $4       USER32.dll
0046b3d8 00000004 .idata   $4       USER32.dll
0046b3dc 00000004 .idata   $4       USER32.dll
0046b3e0 00000004 .idata   $4       USER32.dll
0046b3e4 00000004 .idata   $4       USER32.dll
0046b3e8 00000004 .idata   $4       USER32.dll
0046b3ec 00000004 .idata   $4       USER32.dll
0046b3f0 00000004 .idata   $4       USER32.dll
0046b3f4 00000004 .idata   $4       USER32.dll
0046b3f8 00000004 .idata   $4       USER32.dll
0046b3fc 00000004 .idata   $4       USER32.dll
0046b400 00000004 .idata   $4       USER32.dll
0046b404 00000004 .idata   $4       USER32.dll
0046b408 00000004 .idata   $4       USER32.dll
0046b40c 00000004 .idata   $4       USER32.dll
0046b410 00000004 .idata   $4       USER32.dll
0046b414 00000004 .idata   $4       USER32.dll
0046b418 00000004 .idata   $4       USER32.dll
0046b41c 00000004 .idata   $4       USER32.dll
0046b420 00000004 .idata   $4       USER32.dll
0046b424 00000004 .idata   $4       USER32.dll
0046b428 00000004 .idata   $4       USER32.dll
0046b42c 00000004 .idata   $4       USER32.dll
0046b430 00000004 .idata   $4       USER32.dll
0046b434 00000004 .idata   $4       USER32.dll
0046b438 00000004 .idata   $4       USER32.dll
0046b43c 00000004 .idata   $4       USER32.dll
0046b440 00000004 .idata   $4       USER32.dll
0046b444 00000004 .idata   $4       USER32.dll
0046b448 00000004 .idata   $4       USER32.dll
0046b44c 00000004 .idata   $4       USER32.dll
0046b450 00000004 .idata   $4       USER32.dll
0046b454 00000004 .idata   $4       USER32.dll
0046b458 00000004 .idata   $4       USER32.dll
0046b45c 00000004 .idata   $4       USER32.dll
0046b460 00000004 .idata   $4       USER32.dll
0046b464 00000004 .idata   $4       USER32.dll
0046b468 00000004 .idata   $4       USER32.dll
0046b46c 00000004 .idata   $4       USER32.dll
0046b470 00000004 .idata   $4       USER32.dll
0046b474 00000004 .idata   $4       USER32.dll
0046b478 00000004 .idata   $4       USER32.dll
0046b47c 00000004 .idata   $4       USER32.dll
0046b480 00000004 .idata   $4       USER32.dll
0046b484 00000004 .idata   $4       USER32.dll
0046b488 00000004 .idata   $4       WINMM.dll
0046b48c 00000004 .idata   $4       WINMM.dll
0046b490 00000004 .idata   $4       WINMM.dll
0046b494 00000004 .idata   $4       WINMM.dll
0046b498 00000004 .idata   $4       WINMM.dll
0046b49c 00000004 .idata   $4       WINMM.dll
0046b4a0 00000004 .idata   $4       WINMM.dll
0046b4a4 00000004 .idata   $4       WSOCK32.dll
0046b4a8 00000004 .idata   $4       WSOCK32.dll
0046b4ac 00000004 .idata   $4       WSOCK32.dll
0046b4b0 00000004 .idata   $4       WSOCK32.dll
0046b4b4 00000004 .idata   $4       WSOCK32.dll
0046b4b8 00000004 .idata   $4       WSOCK32.dll
0046b4bc 00000004 .idata   $4       WSOCK32.dll
0046b4c0 00000004 .idata   $4       WSOCK32.dll
0046b4c4 00000004 .idata   $4       WSOCK32.dll
0046b4c8 00000004 .idata   $4       WSOCK32.dll
0046b4cc 00000004 .idata   $4       WSOCK32.dll
0046b4d0 00000004 .idata   $4       WSOCK32.dll
0046b4d4 00000004 .idata   $4       WSOCK32.dll
0046b4d8 00000004 .idata   $4       WSOCK32.dll
0046b4dc 00000004 .idata   $4       WSOCK32.dll
0046b4e0 00000004 .idata   $4       WSOCK32.dll
0046b4e4 00000004 .idata   $4       WSOCK32.dll
0046b4e8 00000004 .idata   $4       WSOCK32.dll
0046b4ec 00000004 .idata   $4       WSOCK32.dll
0046b4f0 00000004 .idata   $4       WSOCK32.dll
0046b4f4 00000004 .idata   $4       WSOCK32.dll
0046b4f8 00000004 .idata   $4       WSOCK32.dll
0046b4fc 00000004 .idata   $4       WSOCK32.dll
0046b500 00000004 .idata   $4       WSOCK32.dll
0046b504 00000004 .idata   $4       WSOCK32.dll
0046b508 00000004 .idata   $4       WSOCK32.dll
0046b50c 00000004 .idata   $4       comdlg32.dll
0046b510 00000004 .idata   $4       ole32.dll
0046b514 00000004 .idata   $4       ole32.dll
0046b518 00000004 .idata   $4       ole32.dll
0046b51c 00000004 .idata   $4       ole32.dll
0046b520 00000004 .idata   $4       ole32.dll
0046b524 00000004 .idata   $4       ole32.dll
0046b528 00000004 .idata   $4       ole32.dll
0046b52c 00000004 .idata   $4       ole32.dll
0046b530 00000004 .idata   $4       ole32.dll
0046b534 00000004 .idata   $4       ole32.dll
0046b538 00000004 .idata   $5       ADVAPI32.dll(__imp__OpenSCManagerA@12)
0046b53c 00000004 .idata   $5       ADVAPI32.dll(__imp__OpenServiceA@12)
0046b540 00000004 .idata   $5       ADVAPI32.dll(__imp__CloseServiceHandle@4)
0046b544 00000004 .idata   $5       ADVAPI32.dll(__imp__CreateServiceA@52)
0046b548 00000004 .idata   $5       ADVAPI32.dll(__imp__ControlService@12)
0046b54c 00000004 .idata   $5       ADVAPI32.dll(__imp__DeleteService@4)
0046b550 00000004 .idata   $5       ADVAPI32.dll(__imp__StartServiceCtrlDispatcherA@4)
0046b554 00000004 .idata   $5       ADVAPI32.dll(__imp__RegisterServiceCtrlHandlerA@8)
0046b558 00000004 .idata   $5       ADVAPI32.dll(__imp__SetServiceStatus@8)
0046b55c 00000004 .idata   $5       ADVAPI32.dll(__imp__RegCreateKeyExA@36)
0046b560 00000004 .idata   $5       ADVAPI32.dll(__imp__RegSetValueExA@24)
0046b564 00000004 .idata   $5       ADVAPI32.dll(__imp__RegCloseKey@4)
0046b568 00000004 .idata   $5       ADVAPI32.dll(__imp__RegOpenKeyExA@20)
0046b56c 00000004 .idata   $5       ADVAPI32.dll(__imp__RegQueryValueExA@24)
0046b570 00000004 .idata   $5       ADVAPI32.dll
0046b574 00000004 .idata   $5       COMCTL32.dll
0046b578 00000004 .idata   $5       GDI32.dll(__imp__DeleteObject@4)
0046b57c 00000004 .idata   $5       GDI32.dll(__imp__CreateSolidBrush@4)
0046b580 00000004 .idata   $5       GDI32.dll(__imp__CreateCompatibleDC@4)
0046b584 00000004 .idata   $5       GDI32.dll(__imp__SelectPalette@12)
0046b588 00000004 .idata   $5       GDI32.dll(__imp__RealizePalette@4)
0046b58c 00000004 .idata   $5       GDI32.dll(__imp__CreateCompatibleBitmap@12)
0046b590 00000004 .idata   $5       GDI32.dll(__imp__SelectObject@8)
0046b594 00000004 .idata   $5       GDI32.dll(__imp__GetStockObject@4)
0046b598 00000004 .idata   $5       GDI32.dll(__imp__SetViewportOrgEx@16)
0046b59c 00000004 .idata   $5       GDI32.dll(__imp__DeleteDC@4)
0046b5a0 00000004 .idata   $5       GDI32.dll(__imp__BitBlt@36)
0046b5a4 00000004 .idata   $5       GDI32.dll(__imp__CreatePen@12)
0046b5a8 00000004 .idata   $5       GDI32.dll(__imp__CreateBitmap@20)
0046b5ac 00000004 .idata   $5       GDI32.dll(__imp__CreatePatternBrush@4)
0046b5b0 00000004 .idata   $5       GDI32.dll(__imp__CreateICA@16)
0046b5b4 00000004 .idata   $5       GDI32.dll(__imp__GetSystemPaletteEntries@16)
0046b5b8 00000004 .idata   $5       GDI32.dll(__imp__CreatePalette@4)
0046b5bc 00000004 .idata   $5       GDI32.dll(__imp__GetViewportOrgEx@8)
0046b5c0 00000004 .idata   $5       GDI32.dll(__imp__OffsetClipRgn@12)
0046b5c4 00000004 .idata   $5       GDI32.dll(__imp__OffsetViewportOrgEx@16)
0046b5c8 00000004 .idata   $5       GDI32.dll(__imp__GetRgnBox@8)
0046b5cc 00000004 .idata   $5       GDI32.dll(__imp__SelectClipRgn@8)
0046b5d0 00000004 .idata   $5       GDI32.dll(__imp__CreateRectRgnIndirect@4)
0046b5d4 00000004 .idata   $5       GDI32.dll(__imp__GetClipRgn@8)
0046b5d8 00000004 .idata   $5       GDI32.dll(__imp__OffsetRgn@12)
0046b5dc 00000004 .idata   $5       GDI32.dll(__imp__IntersectClipRect@20)
0046b5e0 00000004 .idata   $5       GDI32.dll(__imp__CreateRectRgn@16)
0046b5e4 00000004 .idata   $5       GDI32.dll(__imp__CombineRgn@16)
0046b5e8 00000004 .idata   $5       GDI32.dll(__imp__SetROP2@8)
0046b5ec 00000004 .idata   $5       GDI32.dll(__imp__GetDeviceCaps@8)
0046b5f0 00000004 .idata   $5       GDI32.dll(__imp__GetNearestColor@8)
0046b5f4 00000004 .idata   $5       GDI32.dll(__imp__SetTextColor@8)
0046b5f8 00000004 .idata   $5       GDI32.dll(__imp__SetPixelV@16)
0046b5fc 00000004 .idata   $5       GDI32.dll(__imp__MoveToEx@16)
0046b600 00000004 .idata   $5       GDI32.dll(__imp__LineTo@12)
0046b604 00000004 .idata   $5       GDI32.dll(__imp__BeginPath@4)
0046b608 00000004 .idata   $5       GDI32.dll(__imp__Polyline@12)
0046b60c 00000004 .idata   $5       GDI32.dll(__imp__EndPath@4)
0046b610 00000004 .idata   $5       GDI32.dll(__imp__FillPath@4)
0046b614 00000004 .idata   $5       GDI32.dll(__imp__AbortPath@4)
0046b618 00000004 .idata   $5       GDI32.dll(__imp__Rectangle@20)
0046b61c 00000004 .idata   $5       GDI32.dll(__imp__FrameRgn@20)
0046b620 00000004 .idata   $5       GDI32.dll(__imp__PaintRgn@8)
0046b624 00000004 .idata   $5       GDI32.dll(__imp__GetTextFaceA@12)
0046b628 00000004 .idata   $5       GDI32.dll(__imp__CreateFontIndirectA@4)
0046b62c 00000004 .idata   $5       GDI32.dll(__imp__GetTextMetricsA@8)
0046b630 00000004 .idata   $5       GDI32.dll(__imp__GetCharWidth32A@16)
0046b634 00000004 .idata   $5       GDI32.dll(__imp__GetCharWidthA@16)
0046b638 00000004 .idata   $5       GDI32.dll(__imp__GetTextExtentPoint32A@16)
0046b63c 00000004 .idata   $5       GDI32.dll(__imp__GetCharacterPlacementA@24)
0046b640 00000004 .idata   $5       GDI32.dll(__imp__SetTextAlign@8)
0046b644 00000004 .idata   $5       GDI32.dll(__imp__TextOutA@20)
0046b648 00000004 .idata   $5       GDI32.dll(__imp__SetBkMode@8)
0046b64c 00000004 .idata   $5       GDI32.dll(__imp__SetDIBitsToDevice@48)
0046b650 00000004 .idata   $5       GDI32.dll(__imp__GetDIBits@28)
0046b654 00000004 .idata   $5       GDI32.dll(__imp__CreateDIBSection@24)
0046b658 00000004 .idata   $5       GDI32.dll(__imp__SetPixel@16)
0046b65c 00000004 .idata   $5       GDI32.dll(__imp__PtInRegion@12)
0046b660 00000004 .idata   $5       GDI32.dll(__imp__SetBkColor@8)
0046b664 00000004 .idata   $5       GDI32.dll
0046b668 00000004 .idata   $5       KERNEL32.dll(__imp__GetVersionExA@4)
0046b66c 00000004 .idata   $5       KERNEL32.dll(__imp__ExitProcess@4)
0046b670 00000004 .idata   $5       KERNEL32.dll(__imp__GetModuleFileNameA@12)
0046b674 00000004 .idata   $5       KERNEL32.dll(__imp__GlobalAlloc@8)
0046b678 00000004 .idata   $5       KERNEL32.dll(__imp__GetLastError@0)
0046b67c 00000004 .idata   $5       KERNEL32.dll(__imp__GlobalSize@4)
0046b680 00000004 .idata   $5       KERNEL32.dll(__imp__GlobalFree@4)
0046b684 00000004 .idata   $5       KERNEL32.dll(__imp__GlobalLock@4)
0046b688 00000004 .idata   $5       KERNEL32.dll(__imp__GlobalUnlock@4)
0046b68c 00000004 .idata   $5       KERNEL32.dll(__imp__GlobalFlags@4)
0046b690 00000004 .idata   $5       KERNEL32.dll(__imp__GlobalReAlloc@12)
0046b694 00000004 .idata   $5       KERNEL32.dll(__imp__LoadLibraryA@4)
0046b698 00000004 .idata   $5       KERNEL32.dll(__imp__GetProcAddress@8)
0046b69c 00000004 .idata   $5       KERNEL32.dll(__imp__FreeLibrary@4)
0046b6a0 00000004 .idata   $5       KERNEL32.dll(__imp__DebugBreak@0)
0046b6a4 00000004 .idata   $5       KERNEL32.dll(__imp__OutputDebugStringA@4)
0046b6a8 00000004 .idata   $5       KERNEL32.dll(__imp__CreateFileA@28)
0046b6ac 00000004 .idata   $5       KERNEL32.dll(__imp__SetFilePointer@16)
0046b6b0 00000004 .idata   $5       KERNEL32.dll(__imp__WriteFile@20)
0046b6b4 00000004 .idata   $5       KERNEL32.dll(__imp__CloseHandle@4)
0046b6b8 00000004 .idata   $5       KERNEL32.dll(__imp__GetTempPathA@8)
0046b6bc 00000004 .idata   $5       KERNEL32.dll(__imp__GetFileAttributesA@4)
0046b6c0 00000004 .idata   $5       KERNEL32.dll(__imp__DeleteFileA@4)
0046b6c4 00000004 .idata   $5       KERNEL32.dll(__imp__ReadFile@20)
0046b6c8 00000004 .idata   $5       KERNEL32.dll(__imp__GetFileSize@8)
0046b6cc 00000004 .idata   $5       KERNEL32.dll(__imp__FindFirstFileA@8)
0046b6d0 00000004 .idata   $5       KERNEL32.dll(__imp__FindClose@4)
0046b6d4 00000004 .idata   $5       KERNEL32.dll(__imp__MultiByteToWideChar@24)
0046b6d8 00000004 .idata   $5       KERNEL32.dll(__imp__FindNextFileA@8)
0046b6dc 00000004 .idata   $5       KERNEL32.dll(__imp__GetModuleHandleA@4)
0046b6e0 00000004 .idata   $5       KERNEL32.dll(__imp__lstrcpyA@8)
0046b6e4 00000004 .idata   $5       KERNEL32.dll(__imp__lstrlenA@4)
0046b6e8 00000004 .idata   $5       KERNEL32.dll(__imp__IsBadReadPtr@8)
0046b6ec 00000004 .idata   $5       KERNEL32.dll(__imp__GetTickCount@0)
0046b6f0 00000004 .idata   $5       KERNEL32.dll(__imp__GetLocalTime@4)
0046b6f4 00000004 .idata   $5       KERNEL32.dll(__imp__GetDateFormatA@24)
0046b6f8 00000004 .idata   $5       KERNEL32.dll(__imp__GetTimeFormatA@24)
0046b6fc 00000004 .idata   $5       KERNEL32.dll(__imp__GetCommandLineA@0)
0046b700 00000004 .idata   $5       KERNEL32.dll(__imp__GetStartupInfoA@4)
0046b704 00000004 .idata   $5       KERNEL32.dll(__imp__GetSystemDirectoryA@8)
0046b708 00000004 .idata   $5       KERNEL32.dll(__imp__WideCharToMultiByte@32)
0046b70c 00000004 .idata   $5       KERNEL32.dll(__imp__IsBadWritePtr@8)
0046b710 00000004 .idata   $5       KERNEL32.dll(__imp__RtlUnwind@16)
0046b714 00000004 .idata   $5       KERNEL32.dll(__imp__GetCurrentProcess@0)
0046b718 00000004 .idata   $5       KERNEL32.dll(__imp__DuplicateHandle@28)
0046b71c 00000004 .idata   $5       KERNEL32.dll(__imp__GetStdHandle@4)
0046b720 00000004 .idata   $5       KERNEL32.dll(__imp__InitializeCriticalSection@4)
0046b724 00000004 .idata   $5       KERNEL32.dll(__imp__TlsAlloc@0)
0046b728 00000004 .idata   $5       KERNEL32.dll(__imp__TlsGetValue@4)
0046b72c 00000004 .idata   $5       KERNEL32.dll(__imp__TlsSetValue@8)
0046b730 00000004 .idata   $5       KERNEL32.dll(__imp__LeaveCriticalSection@4)
0046b734 00000004 .idata   $5       KERNEL32.dll(__imp__EnterCriticalSection@4)
0046b738 00000004 .idata   $5       KERNEL32.dll(__imp__GetEnvironmentStrings@0)
0046b73c 00000004 .idata   $5       KERNEL32.dll(__imp__FreeEnvironmentStringsA@4)
0046b740 00000004 .idata   $5       KERNEL32.dll(__imp__WaitForSingleObject@8)
0046b744 00000004 .idata   $5       KERNEL32.dll(__imp__CreateMutexA@12)
0046b748 00000004 .idata   $5       KERNEL32.dll(__imp__ReleaseMutex@4)
0046b74c 00000004 .idata   $5       KERNEL32.dll(__imp__GetCurrentThread@0)
0046b750 00000004 .idata   $5       KERNEL32.dll
0046b754 00000004 .idata   $5       NETAPI32.dll
0046b758 00000004 .idata   $5       OLEAUT32.dll(__imp__CreateDispTypeInfo@12)
0046b75c 00000004 .idata   $5       OLEAUT32.dll(__imp__CreateStdDispatch@16)
0046b760 00000004 .idata   $5       OLEAUT32.dll(__imp__RegisterActiveObject@16)
0046b764 00000004 .idata   $5       OLEAUT32.dll(__imp__RevokeActiveObject@8)
0046b768 00000004 .idata   $5       OLEAUT32.dll
0046b76c 00000004 .idata   $5       SHELL32.dll(__imp__SHAppBarMessage@8)
0046b770 00000004 .idata   $5       SHELL32.dll(__imp__ShellExecuteA@24)
0046b774 00000004 .idata   $5       SHELL32.dll(__imp__DragFinish@4)
0046b778 00000004 .idata   $5       SHELL32.dll(__imp__DragQueryFileA@16)
0046b77c 00000004 .idata   $5       SHELL32.dll
0046b780 00000004 .idata   $5       USER32.dll(__imp__MessageBoxA@16)
0046b784 00000004 .idata   $5       USER32.dll(__imp__SetTimer@16)
0046b788 00000004 .idata   $5       USER32.dll(__imp__KillTimer@8)
0046b78c 00000004 .idata   $5       USER32.dll(__imp__LoadCursorA@8)
0046b790 00000004 .idata   $5       USER32.dll(__imp__LoadIconA@8)
0046b794 00000004 .idata   $5       USER32.dll(__imp__RegisterClassExA@4)
0046b798 00000004 .idata   $5       USER32.dll(__imp__LoadStringA@16)
0046b79c 00000004 .idata   $5       USER32.dll(__imp__LoadMenuA@8)
0046b7a0 00000004 .idata   $5       USER32.dll(__imp__CreateWindowExA@48)
0046b7a4 00000004 .idata   $5       USER32.dll(__imp__GetSubMenu@8)
0046b7a8 00000004 .idata   $5       USER32.dll(__imp__SendMessageA@16)
0046b7ac 00000004 .idata   $5       USER32.dll(__imp__ShowWindow@8)
0046b7b0 00000004 .idata   $5       USER32.dll(__imp__UpdateWindow@4)
0046b7b4 00000004 .idata   $5       USER32.dll(__imp__AdjustWindowRectEx@16)
0046b7b8 00000004 .idata   $5       USER32.dll(__imp__SetWindowLongA@12)
0046b7bc 00000004 .idata   $5       USER32.dll(__imp__DestroyWindow@4)
0046b7c0 00000004 .idata   $5       USER32.dll(__imp__SetWindowTextA@8)
0046b7c4 00000004 .idata   $5       USER32.dll(__imp__SetWindowPos@28)
0046b7c8 00000004 .idata   $5       USER32.dll(__imp__GetActiveWindow@0)
0046b7cc 00000004 .idata   $5       USER32.dll(__imp__GetWindowLongA@8)
0046b7d0 00000004 .idata   $5       USER32.dll(__imp__IsWindowVisible@4)
0046b7d4 00000004 .idata   $5       USER32.dll(__imp__GetWindow@8)
0046b7d8 00000004 .idata   $5       USER32.dll(__imp__MoveWindow@24)
0046b7dc 00000004 .idata   $5       USER32.dll(__imp__GetWindowPlacement@8)
0046b7e0 00000004 .idata   $5       USER32.dll(__imp__GetClientRect@8)
0046b7e4 00000004 .idata   $5       USER32.dll(__imp__GetParent@4)
0046b7e8 00000004 .idata   $5       USER32.dll(__imp__GetDesktopWindow@0)
0046b7ec 00000004 .idata   $5       USER32.dll(__imp__GetTopWindow@4)
0046b7f0 00000004 .idata   $5       USER32.dll(__imp__SetActiveWindow@4)
0046b7f4 00000004 .idata   $5       USER32.dll(__imp__SetCapture@4)
0046b7f8 00000004 .idata   $5       USER32.dll(__imp__ReleaseCapture@0)
0046b7fc 00000004 .idata   $5       USER32.dll(__imp__IsIconic@4)
0046b800 00000004 .idata   $5       USER32.dll(__imp__IsZoomed@4)
0046b804 00000004 .idata   $5       USER32.dll(__imp__ScreenToClient@8)
0046b808 00000004 .idata   $5       USER32.dll(__imp__InvalidateRect@12)
0046b80c 00000004 .idata   $5       USER32.dll(__imp__GetDC@4)
0046b810 00000004 .idata   $5       USER32.dll(__imp__FillRect@12)
0046b814 00000004 .idata   $5       USER32.dll(__imp__ReleaseDC@8)
0046b818 00000004 .idata   $5       USER32.dll(__imp__DefMDIChildProcA@16)
0046b81c 00000004 .idata   $5       USER32.dll(__imp__DefWindowProcA@16)
0046b820 00000004 .idata   $5       USER32.dll(__imp__BeginPaint@8)
0046b824 00000004 .idata   $5       USER32.dll(__imp__EndPaint@8)
0046b828 00000004 .idata   $5       USER32.dll(__imp__GetWindowDC@4)
0046b82c 00000004 .idata   $5       USER32.dll(__imp__FrameRect@12)
0046b830 00000004 .idata   $5       USER32.dll(__imp__GetMessageTime@0)
0046b834 00000004 .idata   $5       USER32.dll(__imp__GetKeyState@4)
0046b838 00000004 .idata   $5       USER32.dll(__imp__SetCursor@4)
0046b83c 00000004 .idata   $5       USER32.dll(__imp__GetKeyboardState@4)
0046b840 00000004 .idata   $5       USER32.dll(__imp__ToAscii@20)
0046b844 00000004 .idata   $5       USER32.dll(__imp__PeekMessageA@20)
0046b848 00000004 .idata   $5       USER32.dll(__imp__EnableMenuItem@12)
0046b84c 00000004 .idata   $5       USER32.dll(__imp__SetFocus@4)
0046b850 00000004 .idata   $5       USER32.dll(__imp__DefFrameProcA@20)
0046b854 00000004 .idata   $5       USER32.dll(__imp__FlashWindow@8)
0046b858 00000004 .idata   $5       USER32.dll(__imp__GetForegroundWindow@0)
0046b85c 00000004 .idata   $5       USER32.dll(__imp__GetCapture@0)
0046b860 00000004 .idata   $5       USER32.dll(__imp__GetMessagePos@0)
0046b864 00000004 .idata   $5       USER32.dll(__imp__GetMessageA@16)
0046b868 00000004 .idata   $5       USER32.dll(__imp__PostMessageA@16)
0046b86c 00000004 .idata   $5       USER32.dll(__imp__DispatchMessageA@4)
0046b870 00000004 .idata   $5       USER32.dll(__imp__GetSysColorBrush@4)
0046b874 00000004 .idata   $5       USER32.dll(__imp__GetSysColor@4)
0046b878 00000004 .idata   $5       USER32.dll(__imp__DrawTextA@20)
0046b87c 00000004 .idata   $5       USER32.dll(__imp__DrawTextExA@24)
0046b880 00000004 .idata   $5       USER32.dll(__imp__wvsprintfA@12)
0046b884 00000004 .idata   $5       USER32.dll(__imp__MessageBeep@4)
0046b888 00000004 .idata   $5       USER32.dll(__imp__GetAsyncKeyState@4)
0046b88c 00000004 .idata   $5       USER32.dll(__imp__MapVirtualKeyA@8)
0046b890 00000004 .idata   $5       USER32.dll(__imp__GetCursorPos@4)
0046b894 00000004 .idata   $5       USER32.dll(__imp__GetDoubleClickTime@0)
0046b898 00000004 .idata   $5       USER32.dll(__imp__GetCaretBlinkTime@0)
0046b89c 00000004 .idata   $5       USER32.dll(__imp__OpenClipboard@4)
0046b8a0 00000004 .idata   $5       USER32.dll(__imp__GetClipboardData@4)
0046b8a4 00000004 .idata   $5       USER32.dll(__imp__CloseClipboard@0)
0046b8a8 00000004 .idata   $5       USER32.dll(__imp__EmptyClipboard@0)
0046b8ac 00000004 .idata   $5       USER32.dll(__imp__SetClipboardData@8)
0046b8b0 00000004 .idata   $5       USER32.dll(__imp__DrawFrameControl@16)
0046b8b4 00000004 .idata   $5       USER32.dll(__imp__DrawFocusRect@8)
0046b8b8 00000004 .idata   $5       USER32.dll
0046b8bc 00000004 .idata   $5       WINMM.dll(__imp__waveOutOpen@24)
0046b8c0 00000004 .idata   $5       WINMM.dll(__imp__waveOutReset@4)
0046b8c4 00000004 .idata   $5       WINMM.dll(__imp__waveOutClose@4)
0046b8c8 00000004 .idata   $5       WINMM.dll(__imp__waveOutPrepareHeader@12)
0046b8cc 00000004 .idata   $5       WINMM.dll(__imp__waveOutWrite@12)
0046b8d0 00000004 .idata   $5       WINMM.dll(__imp__waveOutUnprepareHeader@12)
0046b8d4 00000004 .idata   $5       WINMM.dll
0046b8d8 00000004 .idata   $5       WSOCK32.dll(__imp__WSACleanup@0)
0046b8dc 00000004 .idata   $5       WSOCK32.dll(__imp__WSAStartup@8)
0046b8e0 00000004 .idata   $5       WSOCK32.dll(__imp__socket@12)
0046b8e4 00000004 .idata   $5       WSOCK32.dll(__imp__WSAGetLastError@0)
0046b8e8 00000004 .idata   $5       WSOCK32.dll(__imp__setsockopt@20)
0046b8ec 00000004 .idata   $5       WSOCK32.dll(__imp__closesocket@4)
0046b8f0 00000004 .idata   $5       WSOCK32.dll(__imp__WSAAsyncSelect@16)
0046b8f4 00000004 .idata   $5       WSOCK32.dll(__imp__WSACancelAsyncRequest@4)
0046b8f8 00000004 .idata   $5       WSOCK32.dll(__imp__gethostname@8)
0046b8fc 00000004 .idata   $5       WSOCK32.dll(__imp__gethostbyname@4)
0046b900 00000004 .idata   $5       WSOCK32.dll(__imp__getsockname@12)
0046b904 00000004 .idata   $5       WSOCK32.dll(__imp__WSAAsyncGetHostByName@20)
0046b908 00000004 .idata   $5       WSOCK32.dll(__imp__htons@4)
0046b90c 00000004 .idata   $5       WSOCK32.dll(__imp__connect@12)
0046b910 00000004 .idata   $5       WSOCK32.dll(__imp__shutdown@8)
0046b914 00000004 .idata   $5       WSOCK32.dll(__imp__listen@8)
0046b918 00000004 .idata   $5       WSOCK32.dll(__imp__accept@12)
0046b91c 00000004 .idata   $5       WSOCK32.dll(__imp__send@16)
0046b920 00000004 .idata   $5       WSOCK32.dll(__imp__ioctlsocket@12)
0046b924 00000004 .idata   $5       WSOCK32.dll(__imp__recv@16)
0046b928 00000004 .idata   $5       WSOCK32.dll(__imp__sendto@24)
0046b92c 00000004 .idata   $5       WSOCK32.dll(__imp__recvfrom@24)
0046b930 00000004 .idata   $5       WSOCK32.dll(__imp__inet_addr@4)
0046b934 00000004 .idata   $5       WSOCK32.dll(__imp__ntohs@4)
0046b938 00000004 .idata   $5       WSOCK32.dll(__imp__bind@12)
0046b93c 00000004 .idata   $5       WSOCK32.dll
0046b940 00000004 .idata   $5       comdlg32.dll
0046b944 00000004 .idata   $5       ole32.dll(__imp__OleUninitialize@0)
0046b948 00000004 .idata   $5       ole32.dll(__imp__OleInitialize@4)
0046b94c 00000004 .idata   $5       ole32.dll(__imp__CoCreateInstance@20)
0046b950 00000004 .idata   $5       ole32.dll(__imp__CoRegisterClassObject@20)
0046b954 00000004 .idata   $5       ole32.dll(__imp__CoRevokeClassObject@4)
0046b958 00000004 .idata   $5       ole32.dll(__imp__DoDragDrop@16)
0046b95c 00000004 .idata   $5       ole32.dll(__imp__ReleaseStgMedium@4)
0046b960 00000004 .idata   $5       ole32.dll(__imp__RegisterDragDrop@8)
0046b964 00000004 .idata   $5       ole32.dll(__imp__CoCreateGuid@4)
0046b968 00000004 .idata   $5       ole32.dll
0046b96c 00000011 .idata   $6       ADVAPI32.dll
0046b97e 0000000f .idata   $6       ADVAPI32.dll
0046b98e 00000015 .idata   $6       ADVAPI32.dll
0046b9a4 00000011 .idata   $6       ADVAPI32.dll
0046b9b6 00000011 .idata   $6       ADVAPI32.dll
0046b9c8 00000011 .idata   $6       ADVAPI32.dll
0046b9da 0000001f .idata   $6       ADVAPI32.dll
0046b9fa 0000001f .idata   $6       ADVAPI32.dll
0046ba1a 00000013 .idata   $6       ADVAPI32.dll
0046ba2e 00000013 .idata   $6       ADVAPI32.dll
0046ba42 00000011 .idata   $6       ADVAPI32.dll
0046ba54 0000000f .idata   $6       ADVAPI32.dll
0046ba64 00000011 .idata   $6       ADVAPI32.dll
0046ba76 00000013 .idata   $6       ADVAPI32.dll
0046ba8a 0000000e .idata   $6       ADVAPI32.dll
0046ba98 0000000e .idata   $6       COMCTL32.dll
0046baa6 0000000f .idata   $6       GDI32.dll
0046bab6 00000013 .idata   $6       GDI32.dll
0046baca 00000015 .idata   $6       GDI32.dll
0046bae0 00000011 .idata   $6       GDI32.dll
0046baf2 00000011 .idata   $6       GDI32.dll
0046bb04 00000019 .idata   $6       GDI32.dll
0046bb1e 0000000f .idata   $6       GDI32.dll
0046bb2e 00000011 .idata   $6       GDI32.dll
0046bb40 00000013 .idata   $6       GDI32.dll
0046bb54 0000000b .idata   $6       GDI32.dll
0046bb60 00000009 .idata   $6       GDI32.dll
0046bb6a 0000000d .idata   $6       GDI32.dll
0046bb78 0000000f .idata   $6       GDI32.dll
0046bb88 00000015 .idata   $6       GDI32.dll
0046bb9e 0000000d .idata   $6       GDI32.dll
0046bbac 0000001b .idata   $6       GDI32.dll
0046bbc8 00000011 .idata   $6       GDI32.dll
0046bbda 00000013 .idata   $6       GDI32.dll
0046bbee 00000011 .idata   $6       GDI32.dll
0046bc00 00000017 .idata   $6       GDI32.dll
0046bc18 0000000d .idata   $6       GDI32.dll
0046bc26 00000011 .idata   $6       GDI32.dll
0046bc38 00000019 .idata   $6       GDI32.dll
0046bc52 0000000d .idata   $6       GDI32.dll
0046bc60 0000000d .idata   $6       GDI32.dll
0046bc6e 00000015 .idata   $6       GDI32.dll
0046bc84 00000011 .idata   $6       GDI32.dll
0046bc96 0000000d .idata   $6       GDI32.dll
0046bca4 0000000b .idata   $6       GDI32.dll
0046bcb0 00000011 .idata   $6       GDI32.dll
0046bcc2 00000013 .idata   $6       GDI32.dll
0046bcd6 0000000f .idata   $6       GDI32.dll
0046bce6 0000000d .idata   $6       GDI32.dll
0046bcf4 0000000b .idata   $6       GDI32.dll
0046bd00 00000009 .idata   $6       GDI32.dll
0046bd0a 0000000d .idata   $6       GDI32.dll
0046bd18 0000000b .idata   $6       GDI32.dll
0046bd24 0000000b .idata   $6       GDI32.dll
0046bd30 0000000b .idata   $6       GDI32.dll
0046bd3c 0000000d .idata   $6       GDI32.dll
0046bd4a 0000000d .idata   $6       GDI32.dll
0046bd58 0000000b .idata   $6       GDI32.dll
0046bd64 0000000b .idata   $6       GDI32.dll
0046bd70 0000000f .idata   $6       GDI32.dll
0046bd80 00000017 .idata   $6       GDI32.dll
0046bd98 00000013 .idata   $6       GDI32.dll
0046bdac 00000013 .idata   $6       GDI32.dll
0046bdc0 00000011 .idata   $6       GDI32.dll
0046bdd2 00000019 .idata   $6       GDI32.dll
0046bdec 00000019 .idata   $6       GDI32.dll
0046be06 0000000f .idata   $6       GDI32.dll
0046be16 0000000b .idata   $6       GDI32.dll
0046be22 0000000d .idata   $6       GDI32.dll
0046be30 00000015 .idata   $6       GDI32.dll
0046be46 0000000d .idata   $6       GDI32.dll
0046be54 00000013 .idata   $6       GDI32.dll
0046be68 0000000b .idata   $6       GDI32.dll
0046be74 0000000d .idata   $6       GDI32.dll
0046be82 0000000d .idata   $6       GDI32.dll
0046be90 0000000a .idata   $6       GDI32.dll
0046be9a 00000011 .idata   $6       KERNEL32.dll
0046beac 0000000f .idata   $6       KERNEL32.dll
0046bebc 00000015 .idata   $6       KERNEL32.dll
0046bed2 0000000f .idata   $6       KERNEL32.dll
0046bee2 0000000f .idata   $6       KERNEL32.dll
0046bef2 0000000d .idata   $6       KERNEL32.dll
0046bf00 0000000d .idata   $6       KERNEL32.dll
0046bf0e 0000000d .idata   $6       KERNEL32.dll
0046bf1c 0000000f .idata   $6       KERNEL32.dll
0046bf2c 0000000f .idata   $6       KERNEL32.dll
0046bf3c 00000011 .idata   $6       KERNEL32.dll
0046bf4e 0000000f .idata   $6       KERNEL32.dll
0046bf5e 00000011 .idata   $6       KERNEL32.dll
0046bf70 0000000f .idata   $6       KERNEL32.dll
0046bf80 0000000d .idata   $6       KERNEL32.dll
0046bf8e 00000015 .idata   $6       KERNEL32.dll
0046bfa4 0000000f .idata   $6       KERNEL32.dll
0046bfb4 00000011 .idata   $6       KERNEL32.dll
0046bfc6 0000000d .idata   $6       KERNEL32.dll
0046bfd4 0000000f .idata   $6       KERNEL32.dll
0046bfe4 0000000f .idata   $6       KERNEL32.dll
0046bff4 00000015 .idata   $6       KERNEL32.dll
0046c00a 0000000f .idata   $6       KERNEL32.dll
0046c01a 0000000b .idata   $6       KERNEL32.dll
0046c026 0000000f .idata   $6       KERNEL32.dll
0046c036 00000011 .idata   $6       KERNEL32.dll
0046c048 0000000d .idata   $6       KERNEL32.dll
0046c056 00000017 .idata   $6       KERNEL32.dll
0046c06e 00000011 .idata   $6       KERNEL32.dll
0046c080 00000013 .idata   $6       KERNEL32.dll
0046c094 0000000b .idata   $6       KERNEL32.dll
0046c0a0 0000000b .idata   $6       KERNEL32.dll
0046c0ac 0000000f .idata   $6       KERNEL32.dll
0046c0bc 0000000f .idata   $6       KERNEL32.dll
0046c0cc 0000000f .idata   $6       KERNEL32.dll
0046c0dc 00000011 .idata   $6       KERNEL32.dll
0046c0ee 00000011 .idata   $6       KERNEL32.dll
0046c100 00000013 .idata   $6       KERNEL32.dll
0046c114 00000013 .idata   $6       KERNEL32.dll
0046c128 00000017 .idata   $6       KERNEL32.dll
0046c140 00000017 .idata   $6       KERNEL32.dll
0046c158 00000011 .idata   $6       KERNEL32.dll
0046c16a 0000000d .idata   $6       KERNEL32.dll
0046c178 00000015 .idata   $6       KERNEL32.dll
0046c18e 00000013 .idata   $6       KERNEL32.dll
0046c1a2 0000000f .idata   $6       KERNEL32.dll
0046c1b2 0000001d .idata   $6       KERNEL32.dll
0046c1d0 0000000b .idata   $6       KERNEL32.dll
0046c1dc 0000000f .idata   $6       KERNEL32.dll
0046c1ec 0000000f .idata   $6       KERNEL32.dll
0046c1fc 00000017 .idata   $6       KERNEL32.dll
0046c214 00000017 .idata   $6       KERNEL32.dll
0046c22c 00000019 .idata   $6       KERNEL32.dll
0046c246 0000001b .idata   $6       KERNEL32.dll
0046c262 00000017 .idata   $6       KERNEL32.dll
0046c27a 0000000f .idata   $6       KERNEL32.dll
0046c28a 0000000f .idata   $6       KERNEL32.dll
0046c29a 00000013 .idata   $6       KERNEL32.dll
0046c2ae 0000000e .idata   $6       KERNEL32.dll
0046c2bc 0000000e .idata   $6       NETAPI32.dll
0046c2ca 0000000e .idata   $6       OLEAUT32.dll
0046c2d8 00000013 .idata   $6       SHELL32.dll
0046c2ec 00000011 .idata   $6       SHELL32.dll
0046c2fe 0000000d .idata   $6       SHELL32.dll
0046c30c 00000011 .idata   $6       SHELL32.dll
0046c31e 0000000c .idata   $6       SHELL32.dll
0046c32a 0000000f .idata   $6       USER32.dll
0046c33a 0000000b .idata   $6       USER32.dll
0046c346 0000000d .idata   $6       USER32.dll
0046c354 0000000f .idata   $6       USER32.dll
0046c364 0000000d .idata   $6       USER32.dll
0046c372 00000013 .idata   $6       USER32.dll
0046c386 0000000f .idata   $6       USER32.dll
0046c396 0000000d .idata   $6       USER32.dll
0046c3a4 00000013 .idata   $6       USER32.dll
0046c3b8 0000000d .idata   $6       USER32.dll
0046c3c6 0000000f .idata   $6       USER32.dll
0046c3d6 0000000d .idata   $6       USER32.dll
0046c3e4 0000000f .idata   $6       USER32.dll
0046c3f4 00000015 .idata   $6       USER32.dll
0046c40a 00000011 .idata   $6       USER32.dll
0046c41c 00000011 .idata   $6       USER32.dll
0046c42e 00000011 .idata   $6       USER32.dll
0046c440 0000000f .idata   $6       USER32.dll
0046c450 00000013 .idata   $6       USER32.dll
0046c464 00000011 .idata   $6       USER32.dll
0046c476 00000013 .idata   $6       USER32.dll
0046c48a 0000000d .idata   $6       USER32.dll
0046c498 0000000d .idata   $6       USER32.dll
0046c4a6 00000015 .idata   $6       USER32.dll
0046c4bc 00000011 .idata   $6       USER32.dll
0046c4ce 0000000d .idata   $6       USER32.dll
0046c4dc 00000013 .idata   $6       USER32.dll
0046c4f0 0000000f .idata   $6       USER32.dll
0046c500 00000013 .idata   $6       USER32.dll
0046c514 0000000d .idata   $6       USER32.dll
0046c522 00000011 .idata   $6       USER32.dll
0046c534 0000000b .idata   $6       USER32.dll
0046c540 0000000b .idata   $6       USER32.dll
0046c54c 00000011 .idata   $6       USER32.dll
0046c55e 00000011 .idata   $6       USER32.dll
0046c570 00000009 .idata   $6       USER32.dll
0046c57a 0000000b .idata   $6       USER32.dll
0046c586 0000000d .idata   $6       USER32.dll
0046c594 00000013 .idata   $6       USER32.dll
0046c5a8 00000011 .idata   $6       USER32.dll
0046c5ba 0000000d .idata   $6       USER32.dll
0046c5c8 0000000b .idata   $6       USER32.dll
0046c5d4 0000000f .idata   $6       USER32.dll
0046c5e4 0000000d .idata   $6       USER32.dll
0046c5f2 00000011 .idata   $6       USER32.dll
0046c604 0000000f .idata   $6       USER32.dll
0046c614 0000000d .idata   $6       USER32.dll
0046c622 00000013 .idata   $6       USER32.dll
0046c636 0000000b .idata   $6       USER32.dll
0046c642 0000000f .idata   $6       USER32.dll
0046c652 00000011 .idata   $6       USER32.dll
0046c664 0000000b .idata   $6       USER32.dll
0046c670 00000011 .idata   $6       USER32.dll
0046c682 0000000f .idata   $6       USER32.dll
0046c692 00000017 .idata   $6       USER32.dll
0046c6aa 0000000d .idata   $6       USER32.dll
0046c6b8 00000011 .idata   $6       USER32.dll
0046c6ca 0000000f .idata   $6       USER32.dll
0046c6da 0000000f .idata   $6       USER32.dll
0046c6ea 00000013 .idata   $6       USER32.dll
0046c6fe 00000013 .idata   $6       USER32.dll
0046c712 0000000f .idata   $6       USER32.dll
0046c722 0000000d .idata   $6       USER32.dll
0046c730 0000000f .idata   $6       USER32.dll
0046c740 0000000d .idata   $6       USER32.dll
0046c74e 0000000f .idata   $6       USER32.dll
0046c75e 00000013 .idata   $6       USER32.dll
0046c772 00000011 .idata   $6       USER32.dll
0046c784 0000000f .idata   $6       USER32.dll
0046c794 00000015 .idata   $6       USER32.dll
0046c7aa 00000015 .idata   $6       USER32.dll
0046c7c0 00000011 .idata   $6       USER32.dll
0046c7d2 00000013 .idata   $6       USER32.dll
0046c7e6 00000011 .idata   $6       USER32.dll
0046c7f8 00000011 .idata   $6       USER32.dll
0046c80a 00000013 .idata   $6       USER32.dll
0046c81e 00000013 .idata   $6       USER32.dll
0046c832 00000011 .idata   $6       USER32.dll
0046c844 0000000c .idata   $6       USER32.dll
0046c850 0000000f .idata   $6       WINMM.dll
0046c860 0000000f .idata   $6       WINMM.dll
0046c870 0000000f .idata   $6       WINMM.dll
0046c880 00000017 .idata   $6       WINMM.dll
0046c898 0000000f .idata   $6       WINMM.dll
0046c8a8 00000019 .idata   $6       WINMM.dll
0046c8c2 0000000a .idata   $6       WINMM.dll
0046c8cc 0000000c .idata   $6       WSOCK32.dll
0046c8d8 0000000e .idata   $6       comdlg32.dll
0046c8e6 00000013 .idata   $6       ole32.dll
0046c8fa 00000011 .idata   $6       ole32.dll
0046c90c 00000013 .idata   $6       ole32.dll
0046c920 00000019 .idata   $6       ole32.dll
0046c93a 00000017 .idata   $6       ole32.dll
0046c952 0000000d .idata   $6       ole32.dll
0046c960 00000013 .idata   $6       ole32.dll
0046c974 00000013 .idata   $6       ole32.dll
0046c988 0000000f .idata   $6       ole32.dll
0046c998 0000000a .idata   $6       ole32.dll
0046d000 00000042 .bss              UOperatingSystem(W).obj
0046d048 00000008 .bss              UTransport.obj
0046d050 00000009 .bss              UWindow(W).obj
0046d060 00000018 .bss              CWindow.obj
0046d078 00000004 .bss              ExceptionX86.obj
0046d080 00000040 .bss              UGraphics(W).obj
0046d0c0 00000008 .bss              \qtml\buildresults\NoSym\obj\qtmlClientPublic\ClientToolboxAPI.obj
0046d0c8 00000104 .bss              ANSI.obj
0046d1d0 0000000c .bss              UProgramCleanup.obj
0046d1e0 00000024 .bss              UHttpTransport.obj
0046d208 00000304 .bss              globdest.obj
0046d510 00000004 .bss              UMath.obj
0046d518 00000004 .bss              startup.win32.obj
0046d520 0000000c .bss              setupargs.obj
0046d530 0000000c .bss              CDataHandlerComponent.obj
0046d540 00000004 .bss              ThreadLocalData.obj
0046d548 00000300 .bss              ansi_files.obj
0046d848 00000004 .bss              sysenv.win32.obj
0046d850 00000039 .bss              alloc.obj
0046d890 0000000c .bss              CThreadManager.obj
0046d8a0 00008000 .bss              CDataProvider.obj
004758a0 00000004 .bss              float.obj
004758a8 0000011c .bss              file_io.win32.obj
004759c8 00000300 .bss              file_io.obj
00475cc8 00000300 .bss              misc_io.obj
00475fc8 00000300 .bss              file_pos.obj
004762c8 00000004 .bss              ansifp_x86.obj
004762d0 00000300 .bss              direct_io.obj
004765d0 00000300 .bss              wchar_io.obj
004768d0 00000020 .bss              time.obj
004768f0 00000028 .bss              string.obj
00476918 0000000c .bss              CMemoryObjectCache.obj
00476928 00000300 .bss              char_io.obj
00476c28 00000560 .bss              

--------------
Public Symbols
--------------

Address  Module               Name
-------- -------------------- ----
00401000 TrackerServ.cp       _main
00401090 TrackerServ.cp       ?TextToIPAddressList@@YAPAVTPtrObj@@PBXKAAK@Z
00401390 TrackerServ.cp       ?TextToIPAddress@@YA?AUSIPAddress@@PBXK@Z
00401550 TrackerServ.cp       ?TextToCRCList@@YAPAVTPtrObj@@PBXKAAK@Z
004016a0 TrackerServ.cp       ?TextToPasswordList@@YAXPBXKPAV?$CPtrList@USMyLoginInfo@@@@@Z
00401760 TrackerServ.cp       ??0CMyApplication@@QAE@XZ
00401870 TrackerServ.cp       ??1?$CPtrList@USMyClient@@@@QAE@XZ
00401890 TrackerServ.cp       ??1?$CPtrList@USMyServerPerIP@@@@QAE@XZ
004018b0 TrackerServ.cp       ??1CMyApplication@@UAE@XZ
00401930 TrackerServ.cp       ?StartUp@CMyApplication@@QAEXXZ
00401c10 TrackerServ.cp       ?WindowHit@CMyApplication@@UAEXPAVCWindow@@ABUSHitMsgData@@@Z
00401c60 TrackerServ.cp       ?HandleMessage@CMyApplication@@UAEXPAXKPBXK@Z
00401ce0 TrackerServ.cp       ?Timer@CMyApplication@@UAEXPAVTTimerObj@@@Z
00401d10 TrackerServ.cp       ?Error@CMyApplication@@UAEXABUSError@@@Z
00401de0 TrackerServ.cp       ??1StFileSysRef@@QAE@XZ
00401e10 TrackerServ.cp       ?DoOptions@CMyApplication@@IAEXXZ
004020c0 TrackerServ.cp       ??1?$CPtrList@USMyPermBanInfo@@@@QAE@XZ
004020e0 TrackerServ.cp       ??1?$CPtrList@USMyLoginInfo@@@@QAE@XZ
00402100 TrackerServ.cp       ??_ECMyOptionsWin@@UAE@I@Z
00402170 TrackerServ.cp       ??1CMyOptionsWin@@UAE@XZ
004021a0 TrackerServ.cp       ?ResetServer@CMyApplication@@IAEXXZ
004021f0 TrackerServ.cp       ?UpdateDisplay@CMyApplication@@IAEXXZ
00402240 TrackerServ.cp       ?ProcessRegister@CMyApplication@@IAEXXZ
00402590 TrackerServ.cp       ?ProcessClients@CMyApplication@@IAEXXZ
004027b0 TrackerServ.cp       ?NewServerInfo@CMyApplication@@KAPAUSMyServerInfo@@PAU2@ABUSInternetAddress@@GGKKPBE2@Z
00402890 TrackerServ.cp       ?GetServerInfoSize@CMyApplication@@KAKPBUSMyServerInfo@@@Z
004028e0 TrackerServ.cp       ?RegisterServer@CMyApplication@@IAEXABUSInternetAddress@@GGKPBE11@Z
00402d40 TrackerServ.cp       ??1StHandleLocker@@QAE@XZ
00402d70 TrackerServ.cp       ?RemoveOldServers@CMyApplication@@IAEXXZ
00402e70 TrackerServ.cp       ?RemoveServer@CMyApplication@@IAE_NK@Z
00402f50 TrackerServ.cp       ?FindServerByName@CMyApplication@@IAE_NKAAK@Z
004030b0 TrackerServ.cp       ?FindServerByAddress@CMyApplication@@IAE_NABUSInternetAddress@@AAK@Z
00403180 TrackerServ.cp       ?SendServerList@CMyApplication@@IAEXPAVTTransportObj@@@Z
00403570 TrackerServ.cp       ?ClearServerList@CMyApplication@@IAEXXZ
00403600 TrackerServ.cp       ?ClearClientList@CMyApplication@@IAEXXZ
00403680 TrackerServ.cp       ?ReadPasswords@CMyApplication@@IAEXXZ
00403770 TrackerServ.cp       ??1StPtr@@QAE@XZ
004037a0 TrackerServ.cp       ?IsInvalidPassword@CMyApplication@@IAE_NPBE@Z
00403830 TrackerServ.cp       ?WriteLoginInfo@CMyApplication@@IAEXPAV?$CPtrList@USMyLoginInfo@@@@@Z
004039c0 TrackerServ.cp       ?ReadLoginInfo@CMyApplication@@IAEXPAV?$CPtrList@USMyLoginInfo@@@@@Z
00403a80 TrackerServ.cp       ?ReadBans@CMyApplication@@IAEXXZ
00403b70 TrackerServ.cp       ?IsBannedAddress@CMyApplication@@IAE_NABUSInternetAddress@@@Z
00403be0 TrackerServ.cp       ?WritePermBanInfo@CMyApplication@@IAEXPAV?$CPtrList@USMyPermBanInfo@@@@@Z
00403d90 TrackerServ.cp       ?ReadPermBanInfo@CMyApplication@@IAEXPAV?$CPtrList@USMyPermBanInfo@@@@@Z
00403e00 TrackerServ.cp       ?WriteIPAddress@CMyApplication@@IAEXXZ
00403f00 TrackerServ.cp       ?ReadIPAddress@CMyApplication@@IAEXXZ
00403fc0 TrackerServ.cp       ?WriteMaxServersPerIP@CMyApplication@@IAEXXZ
004040c0 TrackerServ.cp       ?ReadMaxServersPerIP@CMyApplication@@IAEXXZ
00404180 TrackerServ.cp       ?BuildServerPerIPList@CMyApplication@@IAEXXZ
00404280 TrackerServ.cp       ?FindServerByAddress@CMyApplication@@IAE_NKAAK@Z
004043e0 TrackerServ.cp       ?AddServerPerIP@CMyApplication@@IAE_NK@Z
004044c0 TrackerServ.cp       ?RemoveServerPerIP@CMyApplication@@IAE_NK@Z
00404570 TrackerServ.cp       ?ClearServerPerIPList@CMyApplication@@IAEXXZ
004045f0 TrackerServ.cp       ??_ECMyApplication@@UAE@I@Z
00404650 TrackerServWindows.cp ??0CMyOptionsWin@@QAE@XZ
00404860 TrackerServWindows.cp ?MakeGeneralTab@CMyOptionsWin@@IAEPAVCContainerView@@XZ
00404ea0 TrackerServWindows.cp ??_ECContainerView@@UAE@I@Z
00404ef0 TrackerServWindows.cp ?MakePasswordTab@CMyOptionsWin@@IAEPAVCContainerView@@XZ
004052d0 TrackerServWindows.cp ?MakeBanTab@CMyOptionsWin@@IAEPAVCContainerView@@XZ
004056b0 TrackerServWindows.cp ?SetInfo@CMyOptionsWin@@QAEXUSIPAddress@@KPAV?$CPtrList@USMyLoginInfo@@@@PAV?$CPtrList@USMyPermBanInfo@@@@@Z
00405800 TrackerServWindows.cp ?GetInfo@CMyOptionsWin@@QAEXPAUSIPAddress@@PAKPAV?$CPtrList@USMyLoginInfo@@@@PAV?$CPtrList@USMyPermBanInfo@@@@@Z
004058b0 TrackerServWindows.cp ?GetIPAddress@CMyOptionsWin@@QAE?AUSIPAddress@@XZ
00405a00 TrackerServWindows.cp ?AddLogin@CMyOptionsWin@@QAEXXZ
00405a50 TrackerServWindows.cp ?DeleteLogin@CMyOptionsWin@@QAEXXZ
00405a70 TrackerServWindows.cp ?AddPermBan@CMyOptionsWin@@QAEXXZ
00405ac0 TrackerServWindows.cp ?DeletePermBan@CMyOptionsWin@@QAEXXZ
00405ae0 TrackerServWindows.cp ??0CMyStatsWin@@QAE@XZ
00405fc0 TrackerServWindows.cp ?SetServerCount@CMyStatsWin@@QAEXK@Z
00406040 TrackerServWindows.cp ?SetUserCount@CMyStatsWin@@QAEXK@Z
004060c0 TrackerServWindows.cp ?SetListingCounter@CMyStatsWin@@QAEXK@Z
00406140 TrackerServWindows.cp ??_ECMyStatsWin@@UAE@I@Z
004061b0 TrackerServWindows.cp ??1CMyStatsWin@@UAE@XZ
004061e0 TrackerServWindows.cp ?GetItemsFromList@?$CGeneralListView@USMyLoginInfo@@@@QAEXPAV?$CPtrList@USMyLoginInfo@@@@@Z
004062d0 TrackerServWindows.cp ?SetItemsFromList@?$CGeneralListView@USMyLoginInfo@@@@QAEXPAV?$CPtrList@USMyLoginInfo@@@@@Z
004063b0 TrackerServWindows.cp ?GetItemsFromList@?$CGeneralListView@USMyPermBanInfo@@@@QAEXPAV?$CPtrList@USMyPermBanInfo@@@@@Z
004064a0 TrackerServWindows.cp ?SetItemsFromList@?$CGeneralListView@USMyPermBanInfo@@@@QAEXPAV?$CPtrList@USMyPermBanInfo@@@@@Z
00406580 TrackerServViews.cp  ??0CMyLoginListView@@QAE@PAVCViewHandler@@ABVSRect@@PAVCTextView@@@Z
004065d0 TrackerServViews.cp  ?AddLogin@CMyLoginListView@@QAEKXZ
00406670 TrackerServViews.cp  ?ModifyLogin@CMyLoginListView@@QAE_NKPAE@Z
00406720 TrackerServViews.cp  ?GetItemCount@?$CGeneralListView@USMyLoginInfo@@@@UBEKXZ
00406740 TrackerServViews.cp  ?ModifySelectedLogin@CMyLoginListView@@QAE_NXZ
004067c0 TrackerServViews.cp  ?DeleteSelectedLogin@CMyLoginListView@@QAE_NXZ
00406800 TrackerServViews.cp  ?SetItemSelect@CMyLoginListView@@UAEXK_N@Z
00406880 TrackerServViews.cp  ?ItemDraw@CMyLoginListView@@MAEXKPAVTImageObj@@ABVSRect@@1K@Z
004069a0 TrackerServViews.cp  ??0CMyPermBanListView@@QAE@PAVCViewHandler@@ABVSRect@@PAVCTextView@@@Z
004069f0 TrackerServViews.cp  ?AddPermBan@CMyPermBanListView@@QAEKXZ
00406a90 TrackerServViews.cp  ?ModifyPermBan@CMyPermBanListView@@QAE_NKPAE@Z
00406b30 TrackerServViews.cp  ?GetItemCount@?$CGeneralListView@USMyPermBanInfo@@@@UBEKXZ
00406b50 TrackerServViews.cp  ?ModifySelectedPermBan@CMyPermBanListView@@QAE_NXZ
00406bd0 TrackerServViews.cp  ?DeleteSelectedPermBan@CMyPermBanListView@@QAE_NXZ
00406c10 TrackerServViews.cp  ?SetItemSelect@CMyPermBanListView@@UAEXK_N@Z
00406cb0 TrackerServViews.cp  ?ItemDraw@CMyPermBanListView@@MAEXKPAVTImageObj@@ABVSRect@@1K@Z
00406df0 TrackerServViews.cp  ??_ECMyPermBanListView@@UAE@I@Z
00406e60 TrackerServViews.cp  ??1CMyPermBanListView@@UAE@XZ
00406ea0 TrackerServViews.cp  ?GetTabHeight@CItemsView@@MBEKXZ
00406ec0 TrackerServViews.cp  ??_ECMyLoginListView@@UAE@I@Z
00406f30 TrackerServViews.cp  ??1CMyLoginListView@@UAE@XZ
00406f70 TrackerServViews.cp  ?GetSelectedItem@?$CGeneralListView@USMyPermBanInfo@@@@QAEKPAPAUSMyPermBanInfo@@@Z
00406ff0 TrackerServViews.cp  ?DeleteSelectedItem@?$CGeneralListView@USMyPermBanInfo@@@@QAEKXZ
00407040 TrackerServViews.cp  ?GetFullSize@?$CGeneralListView@USMyPermBanInfo@@@@UBEXAAK0@Z
00407090 TrackerServViews.cp  ?GetFullHeight@?$CGeneralListView@USMyPermBanInfo@@@@UBEKXZ
004070e0 TrackerServViews.cp  ?Draw@?$CGeneralListView@USMyPermBanInfo@@@@UAEXPAVTImageObj@@ABVSRect@@K@Z
00407120 TrackerServViews.cp  ?ItemDraw@?$CGeneralListView@USMyPermBanInfo@@@@MAEXKPAVTImageObj@@ABVSRect@@1K@Z
004072a0 TrackerServViews.cp  ?GetSelectedItem@?$CGeneralListView@USMyLoginInfo@@@@QAEKPAPAUSMyLoginInfo@@@Z
00407320 TrackerServViews.cp  ?DeleteSelectedItem@?$CGeneralListView@USMyLoginInfo@@@@QAEKXZ
00407370 TrackerServViews.cp  ?GetFullSize@?$CGeneralListView@USMyLoginInfo@@@@UBEXAAK0@Z
004073c0 TrackerServViews.cp  ?GetFullHeight@?$CGeneralListView@USMyLoginInfo@@@@UBEKXZ
00407410 TrackerServViews.cp  ?Draw@?$CGeneralListView@USMyLoginInfo@@@@UAEXPAVTImageObj@@ABVSRect@@K@Z
00407450 TrackerServViews.cp  ?ItemDraw@?$CGeneralListView@USMyLoginInfo@@@@MAEXKPAVTImageObj@@ABVSRect@@1K@Z
004075d0 TrackerServViews.cp  ?GetItem@?$CGeneralListView@USMyLoginInfo@@@@QAEPAUSMyLoginInfo@@K@Z
00407640 TrackerServViews.cp  ?AddItem@?$CGeneralListView@USMyLoginInfo@@@@QAEKPAUSMyLoginInfo@@_N@Z
004076d0 TrackerServViews.cp  ??1?$CGeneralListView@USMyLoginInfo@@@@UAE@XZ
00407750 TrackerServViews.cp  ??0?$CGeneralListView@USMyLoginInfo@@@@QAE@PAVCViewHandler@@ABVSRect@@@Z
004077c0 TrackerServViews.cp  ??1CListView@@UAE@XZ
00407800 TrackerServViews.cp  ?GetItem@?$CGeneralListView@USMyPermBanInfo@@@@QAEPAUSMyPermBanInfo@@K@Z
00407870 TrackerServViews.cp  ?AddItem@?$CGeneralListView@USMyPermBanInfo@@@@QAEKPAUSMyPermBanInfo@@_N@Z
00407900 TrackerServViews.cp  ??1?$CGeneralListView@USMyPermBanInfo@@@@UAE@XZ
00407980 TrackerServViews.cp  ??0?$CGeneralListView@USMyPermBanInfo@@@@QAE@PAVCViewHandler@@ABVSRect@@@Z
004079f0 TrackerServViews.cp  ??_E?$CGeneralListView@USMyPermBanInfo@@@@UAE@I@Z
00407a50 TrackerServViews.cp  ??_ECItemsView@@UAE@I@Z
00407aa0 TrackerServViews.cp  ??1CItemsView@@UAE@XZ
00407ac0 TrackerServViews.cp  ??_ECSelectableItemsView@@UAE@I@Z
00407b20 TrackerServViews.cp  ??1CSelectableItemsView@@UAE@XZ
00407b50 TrackerServViews.cp  ??_ECListView@@UAE@I@Z
00407bd0 TrackerServViews.cp  ??_E?$CGeneralListView@USMyLoginInfo@@@@UAE@I@Z
00407c30 TrackerServViews.cp  ?ClearList@?$CGeneralListView@USMyLoginInfo@@@@QAEX_N@Z
00407cd0 TrackerServViews.cp  ?DeleteItem@?$CGeneralListView@USMyLoginInfo@@@@QAE_NK@Z
00407dd0 TrackerServViews.cp  ?ClearList@?$CGeneralListView@USMyPermBanInfo@@@@QAEX_N@Z
00407e70 TrackerServViews.cp  ?DeleteItem@?$CGeneralListView@USMyPermBanInfo@@@@QAE_NK@Z
00407f70 UOperatingSystem(W).obj ?Init@UOperatingSystem@@SAXXZ
00408090 UOperatingSystem(W).obj _WinMain@16
00408310 UTransport.obj       ?HasTCP@UTransport@@SA_NXZ
00408320 UTransport.obj       ?Init@UTransport@@SAXXZ
00408330 UTransport.obj       ?New@UTransport@@SAPAVTTransportObj@@K_NK@Z
00408390 UTransport.obj       ?Dispose@UTransport@@SAXPAVTTransportObj@@@Z
004083d0 UTransport.obj       ?SetMessageHandler@UTransport@@SAXPAVTTransportObj@@P6AXPAX1KPBXK@Z1@Z
00408430 UTransport.obj       ?SetIPAddress@UTransport@@SAXPAVTTransportObj@@USIPAddress@@@Z
00408480 UTransport.obj       ?GetPortFromAddressText@UTransport@@SAKGPBXK@Z
00408530 UTransport.obj       ?IPAddressToText@UTransport@@SAKUSIPAddress@@PAXK@Z
00408580 UTransport.obj       ?TextToIPAddress@UTransport@@SA_NPAEAAUSIPAddress@@@Z
004086f0 UTransport.obj       ?IsConnected@UTransport@@SA_NPAVTTransportObj@@@Z
00408740 UTransport.obj       ?Disconnect@UTransport@@SAXPAVTTransportObj@@@Z
00408790 UTransport.obj       ?IsDisconnecting@UTransport@@SA_NPAVTTransportObj@@@Z
004087e0 UTransport.obj       ?Listen@UTransport@@SAXPAVTTransportObj@@PBXK@Z
00408840 UTransport.obj       ?Accept@UTransport@@SAPAVTTransportObj@@PAV2@PAXPAK@Z
00408910 UTransport.obj       ?Send@UTransport@@SAXPAVTTransportObj@@PBXK@Z
00408970 UTransport.obj       ?Receive@UTransport@@SAKPAVTTransportObj@@PAXK@Z
004089d0 UTransport.obj       ?GetReceiveSize@UTransport@@SAKPAVTTransportObj@@@Z
00408a20 UTransport.obj       ?ReceiveUnit@UTransport@@SA_NPAVTTransportObj@@PAXAAK12@Z
00408a90 UTransport.obj       ?LaunchURL@UTransport@@SA_NPBXKPAK1@Z
00408ab0 UTransport.obj       ?_GetURLAddress@@YA_NPBXKAAK1@Z
00408b70 UError.obj           ?GetDetailMessage@UError@@SAKABUSError@@PAXK@Z
00408c60 UError.obj           ?Log@UError@@SAXPAVTFSRefObj@@ABUSError@@@Z
00408db0 UError.obj           ??1StFileOpener@@QAE@XZ
00408de0 UError.obj           ?__Fail@@YAXFFPBDK@Z
00408e30 UError.obj           ??0SError@@QAE@FFPBDK@Z
00408ea0 UError(W).obj        ?Init@UError@@SAXXZ
00408eb0 UError(W).obj        ?GetMessage@UError@@SAKABUSError@@PAXK@Z
00409000 UError(W).obj        ??1StRezLoader@@QAE@XZ
00409030 UError(W).obj        ?Alert@UError@@SAXABUSError@@@Z
004090f0 UError(W).obj        ?_WinToGenError@@YAXJAAF0@Z
004091a0 UError(W).obj        ?_FailLastWinError@@YAXPBDK@Z
00409240 UError(W).obj        ?_FailWinError@@YAXJPBDK@Z
004092e0 stackall.obj         __chkstk
00409310 stackall.obj         __stack_alloc
00409320 UMemory.obj          ?Fill@UMemory@@SAXPAXKE@Z
00409470 UMemory.obj          ?Clear@UMemory@@SAXPAXK@Z
00409490 UMemory.obj          ?Equal@UMemory@@SA_NPBX0K@Z
004094e0 UMemory.obj          ?Search@UMemory@@SAPAEPBXK0K@Z
004095c0 UMemory.obj          ?SearchByte@UMemory@@SAPAEEPBXK@Z
00409610 UMemory.obj          ?SearchByteBackwards@UMemory@@SAPAEEPBXK@Z
00409660 UMemory.obj          ?SearchLongArray@UMemory@@SAPAKKPBKK@Z
00409690 UMemory.obj          ?SearchAndReplaceAll@UMemory@@SAKPAVTHdlObj@@KPBXK1K@Z
