Address   Size      Name    Subname  Module

00401000 000000e1 .text             HotlineServ.cp(_main)
004010f0 00000058 .text             HotlineServ.cp(??_ECMyApplication@@UAE@I@Z)
00401150 00000304 .text             HotlineServ.cp(??0CMyApplication@@QAE@XZ)
00401460 0000001e .text             HotlineServ.cp(??1?$CPtrList@VBanRecord@@@@QAE@XZ)
00401480 0000001e .text             HotlineServ.cp(??1?$CPtrList@VTTransportObj@@@@QAE@XZ)
004014a0 0000001e .text             HotlineServ.cp(??1?$CPtrList@USMyUploadFldrData@@@@QAE@XZ)
004014c0 0000001e .text             HotlineServ.cp(??1?$CPtrList@USMyUploadData@@@@QAE@XZ)
004014e0 0000001e .text             HotlineServ.cp(??1?$CPtrList@USMyDownloadBannerData@@@@QAE@XZ)
00401500 0000001e .text             HotlineServ.cp(??1?$CPtrList@USMyDownloadWaitingData@@@@QAE@XZ)
00401520 0000001e .text             HotlineServ.cp(??1?$CPtrList@USMyDownloadFldrData@@@@QAE@XZ)
00401540 0000001e .text             HotlineServ.cp(??1?$CPtrList@USMyDownloadData@@@@QAE@XZ)
00401560 00000043 .text             HotlineServ.cp(??1StTransport@@QAE@XZ)
004015b0 00000021 .text             HotlineServ.cp(??1StTransact@@QAE@XZ)
004015e0 000007d7 .text             HotlineServ.cp(?StartUp@CMyApplication@@QAEXXZ)
00401dc0 00000164 .text             HotlineServ.cp(??1CMyApplication@@UAE@XZ)
00401f30 000000f3 .text             HotlineServ.cp(?HandleMessage@CMyApplication@@UAEXPAXKPBXK@Z)
00402030 000000fc .text             HotlineServ.cp(?WindowHit@CMyApplication@@UAEXPAVCWindow@@ABUSHitMsgData@@@Z)
00402130 0000010b .text             HotlineServ.cp(?Error@CMyApplication@@UAEXABUSError@@@Z)
00402240 00000021 .text             HotlineServ.cp(??1StFileSysRef@@QAE@XZ)
00402270 000001c9 .text             HotlineServ.cp(?UserQuit@CMyApplication@@UAEXXZ)
00402440 00000021 .text             HotlineServ.cp(??1StFieldData@@QAE@XZ)
00402470 00000027 .text             HotlineServ.cp(??1CMyQuitWin@@UAE@XZ)
004024a0 00000045 .text             HotlineServ.cp(?Quit@CMyApplication@@UAEXXZ)
004024f0 00000098 .text             HotlineServ.cp(?KeyCommand@CMyApplication@@UAEXKABUSKeyMsgData@@@Z)
00402590 0000002f .text             HotlineServ.cp(?Timer@CMyApplication@@UAEXPAVTTimerObj@@@Z)
004025c0 0000001b .text             HotlineServ.cp(?ShowPreferences@CMyApplication@@UAEXXZ)
004025e0 0000002f .text             HotlineServ.cp(?DisplayStandardMessage@CMyApplication@@QAEXPAE0FF@Z)
00402610 000000a8 .text             HotlineServ.cp(?DisplayCreateAdmin@CMyApplication@@IAE_NXZ)
004026c0 000000b7 .text             HotlineServ.cp(?DisplayAccountExists@CMyApplication@@IAE_NPBE@Z)
00402780 000000a2 .text             HotlineServ.cp(?DisplaySetAdminPrivs@CMyApplication@@IAE_NPBE@Z)
00402830 00000027 .text             HotlineServ.cp(??1CMySetAdminPrivsWin@@UAE@XZ)
00402860 0000008b .text             HotlineServ.cp(?DisplayDownloadClient@CMyApplication@@IAE_NXZ)
004028f0 00000027 .text             HotlineServ.cp(??1CMyDownloadClientWin@@UAE@XZ)
00402920 0000003d .text             HotlineServ.cp(?DoShowLog@CMyApplication@@IAEXXZ)
00402960 0000003d .text             HotlineServ.cp(?DoShowStats@CMyApplication@@IAEXXZ)
004029a0 000009be .text             HotlineServ.cp(?DoOptions@CMyApplication@@IAE_NXZ)
00403360 00000027 .text             HotlineServ.cp(??1CMyOptionsWin@@UAE@XZ)
00403390 0000011b .text             HotlineServ.cp(?DoServerBroadcast@CMyApplication@@IAEXXZ)
004034b0 00000021 .text             HotlineServ.cp(??1StHandleLocker@@QAE@XZ)
004034e0 00000027 .text             HotlineServ.cp(??1CMyBroadcastWin@@UAE@XZ)
00403510 000002ea .text             HotlineServ.cp(?DoAdminConnect@CMyApplication@@IAEXXZ)
00403800 00000031 .text             HotlineServ.cp(?DoCancelQuit@CMyApplication@@IAEXXZ)
00403840 0000008a .text             HotlineServ.cp(?DoCloseWindow@CMyApplication@@IAEXPAVCWindow@@@Z)
004038d0 00000186 .text             HotlineServ.cp(?DoMacMenuBar@CMyApplication@@IAEXFF@Z)
00403a60 00000248 .text             HotlineServ.cp(?LoadAgreement@CMyApplication@@IAEX_N@Z)
00403cb0 000002aa .text             HotlineServ.cp(?LoadAgreement@CMyApplication@@IAE_NPBE_NAAPAVTHdlObj@@AAK@Z)
00403f60 0000002a .text             HotlineServ.cp(??1?$scopekiller@VTFSRefObj@@@@QAE@XZ)
00403f90 00000098 .text             HotlineServ.cp(?LoadUrl@CMyApplication@@IAE_NPBEAAPAVTHdlObj@@@Z)
00404030 0000008b .text             HotlineServ.cp(?GetMsgBoardFileSpec@CMyApplication@@IAEPAVTFSRefObj@@XZ)
004040c0 00000103 .text             HotlineServ.cp(?LoadMsgBoard@CMyApplication@@IAEXXZ)
004041d0 00000356 .text             HotlineServ.cp(?AddToMsgBoard@CMyApplication@@IAEKPAVTFieldDataObj@@PBE@Z)
00404530 000000c4 .text             HotlineServ.cp(?UpdateDisplay@CMyApplication@@IAEXXZ)
00404600 00000203 .text             HotlineServ.cp(?UpdateToolbarInfo@CMyApplication@@IAEXXZ)
00404810 00000074 .text             HotlineServ.cp(?NewRefNum@CMyApplication@@IAEKXZ)
00404890 0000004d .text             HotlineServ.cp(?GetClientByID@CMyApplication@@IAEPAUSMyClient@@G@Z)
004048e0 0000004e .text             HotlineServ.cp(?GetChatByID@CMyApplication@@IAEPAUSMyChat@@K@Z)
00404930 00000107 .text             HotlineServ.cp(?SendTextToChat@CMyApplication@@IAEXKPBXK@Z)
00404a40 000000a2 .text             HotlineServ.cp(?BroadcastToChat@CMyApplication@@IAEXPAUSMyChat@@GPAVTFieldDataObj@@@Z)
00404af0 000001eb .text             HotlineServ.cp(?KillClient@CMyApplication@@IAEXPAUSMyClient@@@Z)
00404ce0 00000170 .text             HotlineServ.cp(?SetClientUserInfo@CMyApplication@@IAEXPAUSMyClient@@PBEABUSMyUserDataFile@@@Z)
00404e50 0000025f .text             HotlineServ.cp(?SetClientUserInfo@CMyApplication@@IAEXPAUSMyClient@@PAVTFieldDataObj@@PBUSMyUserDataFile@@@Z)
004050b0 000000a9 .text             HotlineServ.cp(?BroadcastClientUserInfo@CMyApplication@@IAEXPAUSMyClient@@@Z)
00405160 00000546 .text             HotlineServ.cp(?GetClientFlags@CMyApplication@@IAEGPAUSMyClient@@@Z)
004056b0 0000003f .text             HotlineServ.cp(?HasPriv@SMyUserAccess@@QBE_NK@Z)
004056f0 000000f3 .text             HotlineServ.cp(?SetClientAway@CMyApplication@@IAEXPAUSMyClient@@_N@Z)
004057f0 00000077 .text             HotlineServ.cp(?SendClientDownloadInfo@CMyApplication@@IAEXPAUSMyClient@@KK@Z)
00405870 00000069 .text             HotlineServ.cp(?BroadcastTran@CMyApplication@@IAEXGPAVTFieldDataObj@@@Z)
004058e0 000001e9 .text             HotlineServ.cp(?BuildFileList@CMyApplication@@IAEXPAVTFSRefObj@@_NPAVTFieldDataObj@@@Z)
00405ad0 000003b1 .text             HotlineServ.cp(?BuildNewsCatList@CMyApplication@@IAEXPAVTFSRefObj@@PAVTFieldDataObj@@K@Z)
00405e90 000000ad .text             HotlineServ.cp(?BuildNewsArtList@CMyApplication@@IAE_NPAVTFSRefObj@@PAVTFieldDataObj@@@Z)
00405f40 0000002a .text             HotlineServ.cp(??1?$scopekiller@VTPtrObj@@@@QAE@XZ)
00405f70 000001a2 .text             HotlineServ.cp(?BuildNewsArtData@CMyApplication@@IAE_NPAVTFSRefObj@@KPBDPAVTFieldDataObj@@@Z)
00406120 00000058 .text             HotlineServ.cp(?ShowQuittingWin@CMyApplication@@IAEXXZ)
00406180 0000004e .text             HotlineServ.cp(?HideQuittingWin@CMyApplication@@IAEXXZ)
004061d0 00000061 .text             HotlineServ.cp(??_ECMyQuittingWin@@UAE@I@Z)
00406240 00000027 .text             HotlineServ.cp(??1CMyQuittingWin@@UAE@XZ)
00406270 000002fa .text             HotlineServ.cp(?SetOnlineAccount@CMyApplication@@IAEXPBEABUSMyUserDataFile@@@Z)
00406570 0000017b .text             HotlineServ.cp(?DeleteOnlineAccount@CMyApplication@@IAEXPBEPAUSMyClient@@@Z)
004066f0 00000085 .text             HotlineServ.cp(?IsPermBanned@CMyApplication@@IAE_NK@Z)
00406780 0000008d .text             HotlineServ.cp(?IsTempBanned@CMyApplication@@IAE_NK@Z)
00406810 0000015b .text             HotlineServ.cp(?AddPermBan@CMyApplication@@IAEXKKPAE@Z)
00406970 000000e6 .text             HotlineServ.cp(?AddTempBan@CMyApplication@@IAEXK@Z)
00406a60 000000b7 .text             HotlineServ.cp(?RemoveOldTempBans@CMyApplication@@IAEXXZ)
00406b20 0000014b .text             HotlineServ.cp(?DisconnectPermBan@CMyApplication@@IAEXXZ)
00406c70 00000050 .text             HotlineServ.cp(?GetClientAddressCount@CMyApplication@@IAEKK@Z)
00406cc0 000000c8 .text             HotlineServ.cp(?GetClientDownloadsNumber@CMyApplication@@IAEGG@Z)
00406d90 00000085 .text             HotlineServ.cp(?NewUniqueChatID@CMyApplication@@IAEKXZ)
00406e20 00000082 .text             HotlineServ.cp(?Log@CMyApplication@@IAAXPBDZZ)
00406eb0 000000ea .text             HotlineServ.cp(?Log@CMyApplication@@IAAXPAUSMyClient@@PBDZZ)
00406fa0 000000c0 .text             HotlineServ.cp(?Log@CMyApplication@@IAAXPAVTTransportObj@@PBDZZ)
00407060 000000c3 .text             HotlineServ.cp(?Log@CMyApplication@@IAEXPAUSMyDownloadWaitingData@@PBD@Z)
00407130 00000122 .text             HotlineServ.cp(?LogText@CMyApplication@@IAEXPBE0@Z)
00407260 000001ac .text             HotlineServ.cp(?LogDownload@CMyApplication@@IAEXPAUSMyClient@@PBE@Z)
00407410 000001ac .text             HotlineServ.cp(?LogUpload@CMyApplication@@IAEXPAUSMyClient@@PBE@Z)
004075c0 000001a9 .text             HotlineServ.cp(?LogConnect@CMyApplication@@IAEXPAUSMyClient@@@Z)
00407770 000001af .text             HotlineServ.cp(?LogAccountChange@CMyApplication@@IAEXPAUSMyClient@@PBE1@Z)
00407920 0000003b .text             HotlineServ.cp(?GetUserFolderList@CMyApplication@@IAEPAVTHdlObj@@XZ)
00407960 000001b1 .text             HotlineServ.cp(?NewUser@CMyApplication@@IAEXABUSMyUserDataFile@@@Z)
00407b20 0000006b .text             HotlineServ.cp(?DeleteUser@CMyApplication@@IAEXPBE@Z)
00407b90 00000126 .text             HotlineServ.cp(?GetUser@CMyApplication@@IAEXPBEAAUSMyUserDataFile@@@Z)
00407cc0 000000d5 .text             HotlineServ.cp(?RenameUser@CMyApplication@@IAEXPBEABUSMyUserDataFile@@@Z)
00407da0 000000f2 .text             HotlineServ.cp(?SetUser@CMyApplication@@IAEXABUSMyUserDataFile@@@Z)
00407ea0 00000093 .text             HotlineServ.cp(?ExistsUser@CMyApplication@@IAE_NPBE@Z)
00407f40 000000e8 .text             HotlineServ.cp(?ExistsUser@CMyApplication@@IAE_NABUSMyUserDataFile@@@Z)
00408030 0000079d .text             HotlineServ.cp(?SetAdmin@CMyApplication@@IAE_NPBE0_N@Z)
004087d0 00000054 .text             HotlineServ.cp(?SetPriv@SMyUserAccess@@QAEXK_N@Z)
00408830 00000028 .text             HotlineServ.cp(?Clear@SMyUserAccess@@QAEXXZ)
00408860 0000005f .text             HotlineServ.cp(?GetClientRootFolder@CMyApplication@@IAEPAVTFSRefObj@@PAUSMyClient@@@Z)
004088c0 0000005f .text             HotlineServ.cp(?GetClientRootNewsFolder@CMyApplication@@IAEPAVTFSRefObj@@PAUSMyClient@@@Z)
00408920 000000a0 .text             HotlineServ.cp(?CheckAdminAccount@CMyApplication@@IAE_NXZ)
004089c0 00000140 .text             HotlineServ.cp(?SetAdminAccount@CMyApplication@@IAE_NXZ)
00408b00 00000027 .text             HotlineServ.cp(??1CMySetAdminPassWin@@UAE@XZ)
00408b30 0000011b .text             HotlineServ.cp(?SelectAdminAccount@CMyApplication@@IAE_NPAE@Z)
00408c50 00000061 .text             HotlineServ.cp(??_ECMySelectAdminWin@@UAE@I@Z)
00408cc0 00000027 .text             HotlineServ.cp(??1CMySelectAdminWin@@UAE@XZ)
00408cf0 00000138 .text             HotlineServ.cp(?CreateLoginAdminAccount@CMyApplication@@IAE_NPAE@Z)
00408e30 00000027 .text             HotlineServ.cp(??1CMyNewAdminAccountWin@@UAE@XZ)
00408e60 00000169 .text             HotlineServ.cp(?CreatePasswordAdminAccount@CMyApplication@@IAE_NPAE@Z)
00408fd0 00000109 .text             HotlineServ.cp(?ResetAdminAccount@CMyApplication@@IAE_NPBE@Z)
004090e0 000000c9 .text             HotlineServ.cp(?ValidateAdminAccount@CMyApplication@@IAE_NPAE@Z)
004091b0 00000044 .text             HotlineServ.cp(?HasGeneralPriv@CMyApplication@@IAE_NPBUSMyClient@@K@Z)
00409200 00000044 .text             HotlineServ.cp(?HasFolderPriv@CMyApplication@@IAE_NPBUSMyClient@@K@Z)
00409250 00000044 .text             HotlineServ.cp(?HasBundlePriv@CMyApplication@@IAE_NPBUSMyClient@@K@Z)
004092a0 0000002a .text             HotlineServ.cp(?GetPrefsSpec@CMyApplication@@IAEPAVTFSRefObj@@XZ)
004092d0 0000082d .text             HotlineServ.cp(?WritePrefs@CMyApplication@@IAEXXZ)
00409b00 00000e10 .text             HotlineServ.cp(?ReadPrefs@CMyApplication@@IAEXPAVSRect@@PAK@Z)
0040a910 0000004a .text             HotlineServ.cp(??0BanRecord@@QAE@XZ)
0040a960 000000ca .text             HotlineServ.cp(?Match@BanRecord@@QAE_NK@Z)
0040aa30 000002d8 .text             HotlineServ.cp(?IPrangeFromString@BanRecord@@QAEXPAE@Z)
0040ad10 00000266 .text             HotlineServ.cp(?IPrangeToString@BanRecord@@QAEXPAE@Z)
0040af80 0000002a .text             HotlineServ.cp(?GetPermBanSpec@CMyApplication@@IAEPAVTFSRefObj@@XZ)
0040afb0 000000a7 .text             HotlineServ.cp(?MakePermBanBackup@CMyApplication@@IAEXXZ)
0040b060 00000248 .text             HotlineServ.cp(?WritePermBanInfo@CMyApplication@@IAEXPAV?$CPtrList@VBanRecord@@@@@Z)
0040b2b0 00000332 .text             HotlineServ.cp(?ReadPermBanInfo@CMyApplication@@IAEXPAV?$CPtrList@VBanRecord@@@@@Z)
0040b5f0 00000021 .text             HotlineServ.cp(??1StFileOpener@@QAE@XZ)
0040b620 000000bc .text             HotlineServ.cp(?ReadPermBanList@CMyApplication@@IAEXXZ)
0040b6e0 0000007d .text             HotlineServ.cp(?ClearPermBanList@CMyApplication@@IAEXXZ)
0040b760 00000252 .text             HotlineServ.cp(?UpdateTracker@CMyApplication@@IAEXXZ)
0040b9c0 0000040a .text             HotlineServ.cp(?ResetServer@CMyApplication@@IAEXXZ)
0040bdd0 000000bf .text             HotlineServ.cp(?DeleteDownloadWaiting@CMyApplication@@IAEXPAUSMyDownloadWaitingData@@@Z)
0040be90 00000d05 .text             HotlineServ.cp(?ProcessClients@CMyApplication@@IAEXXZ)
0040cba0 0000002a .text             HotlineServ.cp(??1?$scopekiller@VTTransactSessionObj@@@@QAE@XZ)
0040cbd0 00000382 .text             HotlineServ.cp(?ProcessTransferEstab@CMyApplication@@IAEXXZ)
0040cf60 0000031c .text             HotlineServ.cp(?ProcessDownloads@CMyApplication@@IAEXXZ)
0040d280 00000830 .text             HotlineServ.cp(?ProcessFldrDownloads@CMyApplication@@IAEXXZ)
0040dab0 00000021 .text             HotlineServ.cp(??1StPtr@@QAE@XZ)
0040dae0 00000298 .text             HotlineServ.cp(?ProcessDownloadsWaiting@CMyApplication@@IAEXXZ)
0040dd80 000001fa .text             HotlineServ.cp(?ProcessBannerDownloads@CMyApplication@@IAEXXZ)
0040df80 000003aa .text             HotlineServ.cp(?ProcessUploads@CMyApplication@@IAEXXZ)
0040e330 00000aa2 .text             HotlineServ.cp(?ProcessFldrUploads@CMyApplication@@IAEXXZ)
0040ede0 000000af .text             HotlineServ.cp(?GetDownloadByRefNum@CMyApplication@@QAEPAUSMyDownloadData@@K@Z)
0040ee90 000000af .text             HotlineServ.cp(?GetDownloadFldrByRefNum@CMyApplication@@QAEPAUSMyDownloadFldrData@@K@Z)
0040ef40 00000063 .text             HotlineServ.cp(?GetDownloadBannerByRefNum@CMyApplication@@QAEPAUSMyDownloadBannerData@@K@Z)
0040efb0 00000287 .text             HotlineServ.cp(?KillDownloadByRefNum@CMyApplication@@QAE_NPAUSMyClient@@K@Z)
0040f240 00000063 .text             HotlineServ.cp(?GetUploadByRefNum@CMyApplication@@QAEPAUSMyUploadData@@K@Z)
0040f2b0 00000063 .text             HotlineServ.cp(?GetUploadFldrByRefNum@CMyApplication@@QAEPAUSMyUploadFldrData@@K@Z)
0040f320 000000d8 .text             HotlineServ.cp(?FindResumableFile@CMyApplication@@QAE_NPAVTFSRefObj@@@Z)
0040f400 00000061 .text             HotlineServ.cp(??_ECMyNewAdminAccountWin@@UAE@I@Z)
0040f470 00000061 .text             HotlineServ.cp(??_ECMySetAdminPassWin@@UAE@I@Z)
0040f4e0 00000061 .text             HotlineServ.cp(??_ECMyBroadcastWin@@UAE@I@Z)
0040f550 00000061 .text             HotlineServ.cp(??_ECMyOptionsWin@@UAE@I@Z)
0040f5c0 00000061 .text             HotlineServ.cp(??_ECMyDownloadClientWin@@UAE@I@Z)
0040f630 00000061 .text             HotlineServ.cp(??_ECMySetAdminPrivsWin@@UAE@I@Z)
0040f6a0 00000061 .text             HotlineServ.cp(??_ECMyQuitWin@@UAE@I@Z)
0040f710 00000089 .text             HotlineServ.cp(?SearchWin@?$@VCMyBroadcastWin@@@CMyApplication@@IAE_NXZ)
0040f7a0 00000089 .text             HotlineServ.cp(?SearchWin@?$@VCMyOptionsWin@@@CMyApplication@@IAE_NXZ)
0040f830 000000b4 .text             HotlineServTrans.cp(?SendErrorMsg@@YAXPAVTTransactSessionObj@@PBDZZ)
0040f8f0 0000016c .text             HotlineServTrans.cp(?SendErrorMsg@@YAXPAVTTransactSessionObj@@ABUSError@@PBDZZ)
0040fa60 00000052 .text             HotlineServTrans.cp(?SendErrorMsg@@YAXPAVTTransactSessionObj@@PBE@Z)
0040fac0 00000035 .text             HotlineServTrans.cp(?SendNoError@@YAXPAVTTransactSessionObj@@@Z)
0040fb00 000000b8 .text             HotlineServTrans.cp(?ProcessTran_GetMsgs@CMyApplication@@IAEXPAUSMyClient@@PAVTTransactSessionObj@@PAVTFieldDataObj@@@Z)
0040fbc0 000001bf .text             HotlineServTrans.cp(?ProcessTran_PostMsg@CMyApplication@@IAEXPAUSMyClient@@PAVTTransactSessionObj@@PAVTFieldDataObj@@@Z)
0040fd80 00000505 .text             HotlineServTrans.cp(?ProcessTran_SendInstantMsg@CMyApplication@@IAEXPAUSMyClient@@PAVTTransactSessionObj@@PAVTFieldDataObj@@@Z)
00410290 000002ac .text             HotlineServTrans.cp(?ProcessTran_UserBroadcast@CMyApplication@@IAEXPAUSMyClient@@PAVTTransactSessionObj@@PAVTFieldDataObj@@@Z)
00410540 000004bb .text             HotlineServTrans.cp(?ProcessTran_ChatSend@CMyApplication@@IAEXPAUSMyClient@@PAVTTransactSessionObj@@PAVTFieldDataObj@@@Z)
00410a00 000001e2 .text             HotlineServTrans.cp(?ProcessTran_GetFileNameList@CMyApplication@@IAEXPAUSMyClient@@PAVTTransactSessionObj@@PAVTFieldDataObj@@@Z)
00410bf0 0000016c .text             HotlineServTrans.cp(?ProcessTran_GetNewsCatNameList@CMyApplication@@IAEXPAUSMyClient@@PAVTTransactSessionObj@@PAVTFieldDataObj@@@Z)
00410d60 000002ec .text             HotlineServTrans.cp(?ProcessTran_PostNewsArt@CMyApplication@@IAEXPAUSMyClient@@PAVTTransactSessionObj@@PAVTFieldDataObj@@@Z)
00411050 000001e4 .text             HotlineServTrans.cp(?ProcessTran_DelNewsArt@CMyApplication@@IAEXPAUSMyClient@@PAVTTransactSessionObj@@PAVTFieldDataObj@@@Z)
00411240 00000230 .text             HotlineServTrans.cp(?ProcessTran_DelNewsFldrItem@CMyApplication@@IAEXPAUSMyClient@@PAVTTransactSessionObj@@PAVTFieldDataObj@@@Z)
00411470 000001ef .text             HotlineServTrans.cp(?ProcessTran_NewNewsFldr@CMyApplication@@IAEXPAUSMyClient@@PAVTTransactSessionObj@@PAVTFieldDataObj@@@Z)
00411660 000002b6 .text             HotlineServTrans.cp(?ProcessTran_NewNewsCat@CMyApplication@@IAEXPAUSMyClient@@PAVTTransactSessionObj@@PAVTFieldDataObj@@@Z)
00411920 00000179 .text             HotlineServTrans.cp(?ProcessTran_GetNewsArtNameList@CMyApplication@@IAEXPAUSMyClient@@PAVTTransactSessionObj@@PAVTFieldDataObj@@@Z)
00411aa0 00000222 .text             HotlineServTrans.cp(?ProcessTran_GetNewsArtData@CMyApplication@@IAEXPAUSMyClient@@PAVTTransactSessionObj@@PAVTFieldDataObj@@@Z)
00411cd0 000001a5 .text             HotlineServTrans.cp(?ProcessTran_GetUserNameList@CMyApplication@@IAEXPAUSMyClient@@PAVTTransactSessionObj@@PAVTFieldDataObj@@@Z)
00411e80 00000676 .text             HotlineServTrans.cp(?ProcessTran_Login@CMyApplication@@IAEXPAUSMyClient@@PAVTTransactSessionObj@@PAVTFieldDataObj@@@Z)
00412500 000002c1 .text             HotlineServTrans.cp(?ProcessTran_Agreed@CMyApplication@@IAEXPAUSMyClient@@PAVTTransactSessionObj@@PAVTFieldDataObj@@@Z)
004127d0 0000071c .text             HotlineServTrans.cp(?ProcessTran_DownloadFile@CMyApplication@@IAEXPAUSMyClient@@PAVTTransactSessionObj@@PAVTFieldDataObj@@@Z)
00412ef0 00000794 .text             HotlineServTrans.cp(?ProcessTran_DownloadFldr@CMyApplication@@IAEXPAUSMyClient@@PAVTTransactSessionObj@@PAVTFieldDataObj@@@Z)
00413690 000000c7 .text             HotlineServTrans.cp(?ProcessTran_DownloadBanner@CMyApplication@@IAEXPAUSMyClient@@PAVTTransactSessionObj@@PAVTFieldDataObj@@@Z)
00413760 00000050 .text             HotlineServTrans.cp(?ProcessTran_KillDownload@CMyApplication@@IAEXPAUSMyClient@@PAVTTransactSessionObj@@PAVTFieldDataObj@@@Z)
004137b0 00000a6e .text             HotlineServTrans.cp(?ProcessTran_UploadFile@CMyApplication@@IAEXPAUSMyClient@@PAVTTransactSessionObj@@PAVTFieldDataObj@@@Z)
00414220 000007c2 .text             HotlineServTrans.cp(?ProcessTran_UploadFldr@CMyApplication@@IAEXPAUSMyClient@@PAVTTransactSessionObj@@PAVTFieldDataObj@@@Z)
004149f0 0000027d .text             HotlineServTrans.cp(?ProcessTran_DeleteFile@CMyApplication@@IAEXPAUSMyClient@@PAVTTransactSessionObj@@PAVTFieldDataObj@@@Z)
00414c70 00000211 .text             HotlineServTrans.cp(?ProcessTran_NewFolder@CMyApplication@@IAEXPAUSMyClient@@PAVTTransactSessionObj@@PAVTFieldDataObj@@@Z)
00414e90 00000037 .text             HotlineServTrans.cp(?ProcessTran_Unknown@CMyApplication@@IAEXPAUSMyClient@@PAVTTransactSessionObj@@PAVTFieldDataObj@@@Z)
00414ed0 00000305 .text             HotlineServTrans.cp(?ProcessTran_NewUser@CMyApplication@@IAEXPAUSMyClient@@PAVTTransactSessionObj@@PAVTFieldDataObj@@@Z)
004151e0 00000152 .text             HotlineServTrans.cp(?ProcessTran_DeleteUser@CMyApplication@@IAEXPAUSMyClient@@PAVTTransactSessionObj@@PAVTFieldDataObj@@@Z)
00415340 00000235 .text             HotlineServTrans.cp(?ProcessTran_GetUser@CMyApplication@@IAEXPAUSMyClient@@PAVTTransactSessionObj@@PAVTFieldDataObj@@@Z)
00415580 00000422 .text             HotlineServTrans.cp(?ProcessTran_SetUser@CMyApplication@@IAEXPAUSMyClient@@PAVTTransactSessionObj@@PAVTFieldDataObj@@@Z)
004159b0 00000342 .text             HotlineServTrans.cp(?ProcessTran_GetUserList@CMyApplication@@IAEXPAUSMyClient@@PAVTTransactSessionObj@@PAVTFieldDataObj@@@Z)
00415d00 00000998 .text             HotlineServTrans.cp(?ProcessTran_SetUserList@CMyApplication@@IAEXPAUSMyClient@@PAVTTransactSessionObj@@PAVTFieldDataObj@@@Z)
004166a0 000002a3 .text             HotlineServTrans.cp(?ProcessTran_DisconnectUser@CMyApplication@@IAEXPAUSMyClient@@PAVTTransactSessionObj@@PAVTFieldDataObj@@@Z)
00416950 00000bc4 .text             HotlineServTrans.cp(?ProcessTran_GetClientInfoText@CMyApplication@@IAEXPAUSMyClient@@PAVTTransactSessionObj@@PAVTFieldDataObj@@@Z)
00417520 000000a3 .text             HotlineServTrans.cp(?ProcessTran_SetClientUserInfo@CMyApplication@@IAEXPAUSMyClient@@PAVTTransactSessionObj@@PAVTFieldDataObj@@@Z)
004175d0 000005b8 .text             HotlineServTrans.cp(?ProcessTran_GetFileInfo@CMyApplication@@IAEXPAUSMyClient@@PAVTTransactSessionObj@@PAVTFieldDataObj@@@Z)
00417b90 000007ad .text             HotlineServTrans.cp(?ProcessTran_SetFileInfo@CMyApplication@@IAEXPAUSMyClient@@PAVTTransactSessionObj@@PAVTFieldDataObj@@@Z)
00418340 000003d1 .text             HotlineServTrans.cp(?ProcessTran_MoveFile@CMyApplication@@IAEXPAUSMyClient@@PAVTTransactSessionObj@@PAVTFieldDataObj@@@Z)
00418720 00000307 .text             HotlineServTrans.cp(?ProcessTran_MakeFileAlias@CMyApplication@@IAEXPAUSMyClient@@PAVTTransactSessionObj@@PAVTFieldDataObj@@@Z)
00418a30 00000437 .text             HotlineServTrans.cp(?ProcessTran_InviteNewChat@CMyApplication@@IAEXPAUSMyClient@@PAVTTransactSessionObj@@PAVTFieldDataObj@@@Z)
00418e70 0000007a .text             HotlineServTrans.cp(?ProcessTran_RejectChatInvite@CMyApplication@@IAEXPAUSMyClient@@PAVTTransactSessionObj@@PAVTFieldDataObj@@@Z)
00418ef0 000002d7 .text             HotlineServTrans.cp(?ProcessTran_JoinChat@CMyApplication@@IAEXPAUSMyClient@@PAVTTransactSessionObj@@PAVTFieldDataObj@@@Z)
004191d0 000000ef .text             HotlineServTrans.cp(?ProcessTran_LeaveChat@CMyApplication@@IAEXPAUSMyClient@@PAVTTransactSessionObj@@PAVTFieldDataObj@@@Z)
004192c0 00000199 .text             HotlineServTrans.cp(?ProcessTran_SetChatSubject@CMyApplication@@IAEXPAUSMyClient@@PAVTTransactSessionObj@@PAVTFieldDataObj@@@Z)
00419460 000003a3 .text             HotlineServTrans.cp(?ProcessTran_InviteToChat@CMyApplication@@IAEXPAUSMyClient@@PAVTTransactSessionObj@@PAVTFieldDataObj@@@Z)
00419810 0000001e .text             HotlineServTrans.cp(?ProcessTran_KeepConnectionAlive@CMyApplication@@IAEXPAUSMyClient@@PAVTTransactSessionObj@@PAVTFieldDataObj@@@Z)
00419830 0000002f .text             HotlineServViews.cp(??0CMyClickLabelView@@QAE@PAVCViewHandler@@ABVSRect@@@Z)
00419860 00000057 .text             HotlineServViews.cp(?MouseUp@CMyClickLabelView@@UAEXABUSMouseMsgData@@@Z)
004198c0 00000055 .text             HotlineServViews.cp(??0CMyPermBanListView@@QAE@PAVCViewHandler@@ABVSRect@@PAVCTextView@@2@Z)
00419920 00000031 .text             HotlineServViews.cp(??1?$CGeneralCheckListView@VBanRecord@@@@UAE@XZ)
00419960 000001da .text             HotlineServViews.cp(?AddPermBan@CMyPermBanListView@@QAEKXZ)
00419b40 00000019 .text             HotlineServViews.cp(?GetItemCount@?$CGeneralListView@VBanRecord@@@@UBEKXZ)
00419b60 000000a0 .text             HotlineServViews.cp(?ModifyPermBan@CMyPermBanListView@@QAE_NKPAE0_N@Z)
00419c00 000000d2 .text             HotlineServViews.cp(?ModifySelectedPermBan@CMyPermBanListView@@QAE_NXZ)
00419ce0 00000049 .text             HotlineServViews.cp(?DeleteSelectedPermBan@CMyPermBanListView@@QAE_NXZ)
00419d30 0000009e .text             HotlineServViews.cp(?SetItemSelect@CMyPermBanListView@@UAEXK_N@Z)
00419dd0 00000195 .text             HotlineServViews.cp(?ItemDraw@CMyPermBanListView@@MAEXKPAVTImageObj@@ABVSRect@@1K@Z)
00419f70 00000077 .text             HotlineServViews.cp(??0CMyAccountListView@@QAE@PAVCViewHandler@@ABVSRect@@@Z)
00419ff0 0000001e .text             HotlineServViews.cp(??1?$CPtrList@USMyAccountListItem@CMyAccountListView@@@@QAE@XZ)
0041a010 0000003f .text             HotlineServViews.cp(??1CListView@@UAE@XZ)
0041a050 000000fb .text             HotlineServViews.cp(??1CMyAccountListView@@UAE@XZ)
0041a150 00000310 .text             HotlineServViews.cp(?SetInfo@CMyAccountListView@@QAEXPBE@Z)
0041a460 0000052f .text             HotlineServViews.cp(?GetInfo@CMyAccountListView@@QAE_NPAE@Z)
0041a990 00000019 .text             HotlineServViews.cp(?GetItemCount@CMyAccountListView@@UBEKXZ)
0041a9b0 00000090 .text             HotlineServViews.cp(?GetFullHeight@CMyAccountListView@@UBEKXZ)
0041aa40 0000008f .text             HotlineServViews.cp(?SelectAdminAccount@CMyAccountListView@@IAEXXZ)
0041aad0 00000039 .text             HotlineServViews.cp(?Draw@CMyAccountListView@@UAEXPAVTImageObj@@ABVSRect@@K@Z)
0041ab10 000002ff .text             HotlineServViews.cp(?ItemDraw@CMyAccountListView@@MAEXKPAVTImageObj@@ABVSRect@@1K@Z)
0041ae10 0000009d .text             HotlineServViews.cp(?CompareLogins@CMyAccountListView@@KAJPAX00@Z)
0041aeb0 0000004d .text             HotlineServViews.cp(??_ECItemsView@@UAE@I@Z)
0041af00 0000001b .text             HotlineServViews.cp(??1CItemsView@@UAE@XZ)
0041af20 00000018 .text             HotlineServViews.cp(?GetTabHeight@CItemsView@@MBEKXZ)
0041af40 0000005a .text             HotlineServViews.cp(??_ECSelectableItemsView@@UAE@I@Z)
0041afa0 00000028 .text             HotlineServViews.cp(??1CSelectableItemsView@@UAE@XZ)
0041afd0 00000071 .text             HotlineServViews.cp(??_ECListView@@UAE@I@Z)
0041b050 00000058 .text             HotlineServViews.cp(??_ECMyAccountListView@@UAE@I@Z)
0041b0b0 0000006b .text             HotlineServViews.cp(??_E?$CGeneralCheckListView@VBanRecord@@@@UAE@I@Z)
0041b120 0000007e .text             HotlineServViews.cp(??_ECMyPermBanListView@@UAE@I@Z)
0041b1a0 00000044 .text             HotlineServViews.cp(??1CMyPermBanListView@@UAE@XZ)
0041b1f0 00000061 .text             HotlineServViews.cp(??_ECMyClickLabelView@@UAE@I@Z)
0041b260 00000027 .text             HotlineServViews.cp(??1CMyClickLabelView@@UAE@XZ)
0041b290 00000039 .text             HotlineServViews.cp(??0?$CGeneralCheckListView@VBanRecord@@@@QAE@PAVCViewHandler@@ABVSRect@@@Z)
0041b2d0 00000063 .text             HotlineServViews.cp(?GetActiveCount@?$CGeneralCheckListView@VBanRecord@@@@UAEKXZ)
0041b340 000000e2 .text             HotlineServViews.cp(?MouseDown@?$CGeneralCheckListView@VBanRecord@@@@UAEXABUSMouseMsgData@@@Z)
0041b430 00000078 .text             HotlineServViews.cp(?KeyDown@?$CGeneralCheckListView@VBanRecord@@@@UAE_NABUSKeyMsgData@@@Z)
0041b4b0 00000015 .text             HotlineServViews.cp(?CheckChanged@?$CGeneralCheckListView@VBanRecord@@@@UAEXKE@Z)
0041b4d0 000000fe .text             HotlineServViews.cp(?ItemDraw@?$CGeneralCheckListView@VBanRecord@@@@MAEXKPAVTImageObj@@ABVSRect@@1K@Z)
0041b5d0 000000ed .text             HotlineServViews.cp(?CheckAll@?$CGeneralCheckListView@VBanRecord@@@@IAE_NVSPoint@@@Z)
0041b6c0 00000101 .text             HotlineServViews.cp(?CheckSelected@?$CGeneralCheckListView@VBanRecord@@@@IAE_NVSPoint@@@Z)
0041b7d0 00000074 .text             HotlineServViews.cp(?MarkSelected@?$CGeneralCheckListView@VBanRecord@@@@IAEXK@Z)
0041b850 00000074 .text             HotlineServViews.cp(?GetSelectedItem@?$CGeneralListView@VBanRecord@@@@QAEKPAPAVBanRecord@@@Z)
0041b8d0 00000042 .text             HotlineServViews.cp(?DeleteSelectedItem@?$CGeneralListView@VBanRecord@@@@QAEKXZ)
0041b920 00000041 .text             HotlineServViews.cp(?GetFullSize@?$CGeneralListView@VBanRecord@@@@UBEXAAK0@Z)
0041b970 00000041 .text             HotlineServViews.cp(?GetFullHeight@?$CGeneralListView@VBanRecord@@@@UBEKXZ)
0041b9c0 00000039 .text             HotlineServViews.cp(?Draw@?$CGeneralListView@VBanRecord@@@@UAEXPAVTImageObj@@ABVSRect@@K@Z)
0041ba00 00000177 .text             HotlineServViews.cp(?ItemDraw@?$CGeneralListView@VBanRecord@@@@MAEXKPAVTImageObj@@ABVSRect@@1K@Z)
0041bb80 00000068 .text             HotlineServViews.cp(?GetItem@?$CGeneralListView@VBanRecord@@@@QAEPAVBanRecord@@K@Z)
0041bbf0 0000008b .text             HotlineServViews.cp(?AddItem@?$CGeneralListView@VBanRecord@@@@QAEKPAVBanRecord@@_N@Z)
0041bc80 00000080 .text             HotlineServViews.cp(??1?$CGeneralListView@VBanRecord@@@@UAE@XZ)
0041bd00 00000069 .text             HotlineServViews.cp(??0?$CGeneralListView@VBanRecord@@@@QAE@PAVCViewHandler@@ABVSRect@@@Z)
0041bd70 00000058 .text             HotlineServViews.cp(??_E?$CGeneralListView@VBanRecord@@@@UAE@I@Z)
0041bdd0 0000009e .text             HotlineServViews.cp(?ClearList@?$CGeneralListView@VBanRecord@@@@QAEX_N@Z)
0041be70 000000fa .text             HotlineServViews.cp(?DeleteItem@?$CGeneralListView@VBanRecord@@@@QAE_NK@Z)
0041bf70 00000307 .text             HotlineServWindows.cp(??0CMyOptionsWin@@QAE@XZ)
0041c280 0000095c .text             HotlineServWindows.cp(?MakeGeneralTab@CMyOptionsWin@@IAEPAVCContainerView@@XZ)
0041cbe0 00000047 .text             HotlineServWindows.cp(??_ECContainerView@@UAE@I@Z)
0041cc30 000002dc .text             HotlineServWindows.cp(?MakeServInfoTab@CMyOptionsWin@@IAEPAVCContainerView@@XZ)
0041cf10 00000569 .text             HotlineServWindows.cp(?MakeBannerTab@CMyOptionsWin@@IAEPAVCContainerView@@XZ)
0041d480 000004d5 .text             HotlineServWindows.cp(?MakeBanTab@CMyOptionsWin@@IAEPAVCContainerView@@XZ)
0041d960 0000066a .text             HotlineServWindows.cp(?MakeTrackersTab@CMyOptionsWin@@IAEPAVCContainerView@@XZ)
0041dfd0 000004aa .text             HotlineServWindows.cp(?MakeAdminTab@CMyOptionsWin@@IAEPAVCContainerView@@XZ)
0041e480 000004ca .text             HotlineServWindows.cp(?MakeAdvancedTab@CMyOptionsWin@@IAEPAVCContainerView@@XZ)
0041e950 000003ee .text             HotlineServWindows.cp(?SetInfo@CMyOptionsWin@@QAEXPBE00PAE11PAV?$CPtrList@VBanRecord@@@@ABUSMyOptions@@@Z)
0041ed40 00000550 .text             HotlineServWindows.cp(?GetInfo@CMyOptionsWin@@QAEXPAE00000PAV?$CPtrList@VBanRecord@@@@AAUSMyOptions@@@Z)
0041f290 00000109 .text             HotlineServWindows.cp(?UpdateBannerTab@CMyOptionsWin@@QAEXXZ)
0041f3a0 00000063 .text             HotlineServWindows.cp(?SetAdminInfo@CMyOptionsWin@@QAEXPBE@Z)
0041f410 00000053 .text             HotlineServWindows.cp(?GetAdminInfo@CMyOptionsWin@@QAEXPAE@Z)
0041f470 0000004b .text             HotlineServWindows.cp(?AddPermBan@CMyOptionsWin@@QAEXXZ)
0041f4c0 0000001e .text             HotlineServWindows.cp(?DeletePermBan@CMyOptionsWin@@QAEXXZ)
0041f4e0 00000425 .text             HotlineServWindows.cp(??0CMyToolbarWin@@QAE@XZ)
0041f910 00000074 .text             HotlineServWindows.cp(?ToggleState@CMyToolbarWin@@QAEXXZ)
0041f990 000003c8 .text             HotlineServWindows.cp(??0CMySelectAdminWin@@QAE@XZ)
0041fd60 00000023 .text             HotlineServWindows.cp(?SetInfo@CMySelectAdminWin@@QAEXPBE@Z)
0041fd90 00000025 .text             HotlineServWindows.cp(?GetInfo@CMySelectAdminWin@@QAE_NPAE@Z)
0041fdc0 000005ad .text             HotlineServWindows.cp(??0CMyNewAdminAccountWin@@QAE@XZ)
00420370 0000003c .text             HotlineServWindows.cp(?SetInfo@CMyNewAdminAccountWin@@QAEXPBE@Z)
004203b0 000001ab .text             HotlineServWindows.cp(?GetInfo@CMyNewAdminAccountWin@@QAE_NPAE0@Z)
00420560 00000126 .text             HotlineServWindows.cp(?UpdateButtons@CMyNewAdminAccountWin@@QAEXXZ)
00420690 000005e2 .text             HotlineServWindows.cp(??0CMySetAdminPassWin@@QAE@XZ)
00420c80 000000fd .text             HotlineServWindows.cp(?SetInfo@CMySetAdminPassWin@@QAEXPBEPBXK@Z)
00420d80 00000186 .text             HotlineServWindows.cp(?GetInfo@CMySetAdminPassWin@@QAE_NPAE@Z)
00420f10 00000102 .text             HotlineServWindows.cp(?UpdateButtons@CMySetAdminPassWin@@QAEXXZ)
00421020 000002b8 .text             HotlineServWindows.cp(??0CMySetAdminPrivsWin@@QAE@PBE@Z)
004212e0 0000014e .text             HotlineServWindows.cp(??0CMyTextWin@@QAE@XZ)
00421430 00000366 .text             HotlineServWindows.cp(??0CMyBroadcastWin@@QAE@XZ)
004217a0 000002b6 .text             HotlineServWindows.cp(??0CMyDownloadClientWin@@QAE@XZ)
00421a60 00000a96 .text             HotlineServWindows.cp(??0CMyStatsWin@@QAE@XZ)
00422500 0000027e .text             HotlineServWindows.cp(?SetStats@CMyStatsWin@@QAEXKKKKKKKK@Z)
00422780 0000023a .text             HotlineServWindows.cp(??0CMyQuittingWin@@QAE@XZ)
004229c0 00000420 .text             HotlineServWindows.cp(??0CMyQuitWin@@QAE@XZ)
00422de0 00000061 .text             HotlineServWindows.cp(??_ECMyStatsWin@@UAE@I@Z)
00422e50 00000027 .text             HotlineServWindows.cp(??1CMyStatsWin@@UAE@XZ)
00422e80 00000061 .text             HotlineServWindows.cp(??_ECMyTextWin@@UAE@I@Z)
00422ef0 00000027 .text             HotlineServWindows.cp(??1CMyTextWin@@UAE@XZ)
00422f20 00000061 .text             HotlineServWindows.cp(??_ECMyToolbarWin@@UAE@I@Z)
00422f90 00000027 .text             HotlineServWindows.cp(??1CMyToolbarWin@@UAE@XZ)
00422fc0 000000e8 .text             HotlineServWindows.cp(?GetItemsFromList@?$CGeneralListView@VBanRecord@@@@QAEXPAV?$CPtrList@VBanRecord@@@@@Z)
004230b0 000000db .text             HotlineServWindows.cp(?SetItemsFromList@?$CGeneralListView@VBanRecord@@@@QAEXPAV?$CPtrList@VBanRecord@@@@@Z)
00423190 000000cf .text             HotlineServMisc.cp(?WinIsNewsCat@@YA_NPBEK@Z)
00423260 00000242 .text             HotlineServNewsDatabase.cp(?CreateNewGroup@UMyNewsDatabase@@SAXPAVTFSRefObj@@KPBE1@Z)
004234b0 00000243 .text             HotlineServNewsDatabase.cp(?GetGroupInfo@UMyNewsDatabase@@SAXPAVTFSRefObj@@AAUSMyNewsGroupInfo@@@Z)
00423700 00000a0f .text             HotlineServNewsDatabase.cp(?AddArticle@UMyNewsDatabase@@SAKPAVTFSRefObj@@KPBE1KPBUSDateTimeStamp@@1@Z)
00424110 000004ef .text             HotlineServNewsDatabase.cp(?AddData@UMyNewsDatabase@@SA_NPAVTFSRefObj@@KPBDPBEK@Z)
00424600 000003ff .text             HotlineServNewsDatabase.cp(?GetArticleListing@UMyNewsDatabase@@SAPAVTPtrObj@@PAVTFSRefObj@@AAK_N@Z)
00424a00 0000071e .text             HotlineServNewsDatabase.cp(?GetArticleData@UMyNewsDatabase@@SAPAVTPtrObj@@PAVTFSRefObj@@KPBDAAKPAUSMyNewsArticleInfo@@@Z)
00425120 00000a32 .text             HotlineServNewsDatabase.cp(?DeleteArticle@UMyNewsDatabase@@SA_NPAVTFSRefObj@@K_N@Z)
00425b60 00000627 .text             HotlineServNewsDatabase.cp(?_NZ_AllocateBlocks@@YAKPAVTFSRefObj@@KAAU_NZ_SAllocTableInfo@@K@Z)
00426190 00000215 .text             HotlineServNewsDatabase.cp(?_NZ_DeallocateBlocks@@YAXPAVTFSRefObj@@KAAU_NZ_SAllocTableInfo@@KK@Z)
004263b0 000001d9 .text             HotlineServNewsDatabase.cp(?_NZ_IDToOffset@@YAKPAVTFSRefObj@@KKABU_NZ_SHashInfo@@@Z)
00426590 00000080 .text             HotlineServNewsDatabase.cp(?_NZ_OffsetToID@@YAKPAVTFSRefObj@@KK@Z)
00426610 00000396 .text             HotlineServNewsDatabase.cp(?_NZ_AddIDToHash@@YAXPAVTFSRefObj@@KAAU_NZ_SHashInfo@@KKKAAU_NZ_SAllocTableInfo@@@Z)
004269b0 000002a4 .text             HotlineServNewsDatabase.cp(?_NZ_RmIDFromHash@@YAXPAVTFSRefObj@@KAAU_NZ_SHashInfo@@KAAU_NZ_SAllocTableInfo@@@Z)
00426c60 000000fa .text             HotlineServNewsDatabase.cp(?_NZ_GetLast@@YAKPAVTFSRefObj@@KKK@Z)
00426d60 00000187 .text             HotlineServNewsDatabase.cp(?_NZ_AddToList@@YAXPAVCNZArticleList@@PAVTFSRefObj@@KKAAK_N@Z)
00426ef0 0000015c .text             HotlineServNewsDatabase.cp(?_NZ_DelArticSibsChilds@@YAXPAVTFSRefObj@@KAAU_NZ_SAllocTableInfo@@PAU_NZ_SHashInfo@@KKAAK@Z)
00427050 000000ef .text             HotlineServNewsDatabase.cp(?_NZ_DelFlavs@@YAXPAVTFSRefObj@@KAAU_NZ_SAllocTableInfo@@K@Z)
00427140 000000bd .text             HotlineServNewsDatabase.cp(?_NZ_ChangeParentOffset@@YAXPAVTFSRefObj@@KKK@Z)
00427200 000000ac .text             HotlineServNewsDatabase.cp(?_NZ_GetLastOffset@@YAKPAVTFSRefObj@@KK@Z)
004272b0 00000057 .text             HotlineServNewsDatabase.cp(?_NZ_GenerateExternID@@YAKPAEK@Z)
00427310 000000de .text             HotlineServNewsDatabase.cp(??0CNZArticleList@@QAE@K@Z)
004273f0 0000004a .text             HotlineServNewsDatabase.cp(??1CNZArticleList@@UAE@XZ)
00427440 000001f9 .text             HotlineServNewsDatabase.cp(?AddArticle@CNZArticleList@@QAEXABU_NZ_SNewsItemBlock@@K_N@Z)
00427640 00000148 .text             HotlineServNewsDatabase.cp(?AddArticleFlavor@CNZArticleList@@QAEXABU_NZ_SGenericBlock@@@Z)
00427790 000000b9 .text             HotlineServNewsDatabase.cp(?DetatchDataPtr@CNZArticleList@@QAEPAVTPtrObj@@AAK@Z)
00427850 000000b4 .text             HotlineServNewsDatabase.cp(?Reallocate@CNZArticleList@@IAEXK@Z)
00427910 000000a9 .text             HotlineServNewsDatabase.cp(?LookupID@CNZArticleList@@IAEKK@Z)
004279c0 0000016e .text             HotlineServNewsDatabase.cp(?AddID@CNZArticleList@@IAEXKK@Z)
00427b30 00000058 .text             HotlineServNewsDatabase.cp(??_ECNZArticleList@@UAE@I@Z)
00427b90 000001a6 .text             HotlineFolderDownload.cp(??0CMyDLItem@@QAE@PAUSFSListItem@@PAVCMyDLFldr@@_N@Z)
00427d40 00000053 .text             HotlineFolderDownload.cp(??1CMyDLItem@@QAE@XZ)
00427da0 00000120 .text             HotlineFolderDownload.cp(?GetNextItem@CMyDLItem@@QAEPAVTFSRefObj@@AAPAEAAFAAGPA_N@Z)
00427ec0 00000052 .text             HotlineFolderDownload.cp(?HasItem@CMyDLItem@@QAE_NPAVTFSRefObj@@@Z)
00427f20 00000179 .text             HotlineFolderDownload.cp(??0CMyDLFldr@@QAE@PAVTFSRefObj@@PAV0@_N@Z)
004280a0 0000002a .text             HotlineFolderDownload.cp(??1?$scopekiller@VTHdlObj@@@@QAE@XZ)
004280d0 0000001e .text             HotlineFolderDownload.cp(??1?$CPtrList@VCMyDLItem@@@@QAE@XZ)
004280f0 000000a3 .text             HotlineFolderDownload.cp(??1CMyDLFldr@@QAE@XZ)
004281a0 00000090 .text             HotlineFolderDownload.cp(?GetTotalItems@CMyDLFldr@@QAEKXZ)
00428230 00000099 .text             HotlineFolderDownload.cp(?GetTotalSize@CMyDLFldr@@QAEKXZ)
004282d0 00000211 .text             HotlineFolderDownload.cp(?GetNextItem@CMyDLFldr@@QAEPAVTFSRefObj@@AAPAEAAFAAGPA_N@Z)
004284f0 0000009f .text             HotlineFolderDownload.cp(?HasItem@CMyDLFldr@@QAE_NPAVTFSRefObj@@@Z)
00428590 00000120 .text             UOperatingSystem(W).obj(?Init@UOperatingSystem@@SAXXZ)
004286b0 000001b1 .text             UOperatingSystem(W).obj(_WinMain@16)
00428870 0000000b .text             UOperatingSystem(W).obj(?_ProgCleanupOLEUninitialize@@YAXXZ)
00428880 000000ab .text             UOperatingSystem(W).obj(?_SafeOLEInit@@YAXXZ)
00428930 0000000c .text             UTransport.obj(?HasTCP@UTransport@@SA_NXZ)
00428940 0000000f .text             UTransport.obj(?Init@UTransport@@SAXXZ)
00428950 00000057 .text             UTransport.obj(?New@UTransport@@SAPAVTTransportObj@@K_NK@Z)
004289b0 00000035 .text             UTransport.obj(?Dispose@UTransport@@SAXPAVTTransportObj@@@Z)
004289f0 00000055 .text             UTransport.obj(?SetMessageHandler@UTransport@@SAXPAVTTransportObj@@P6AXPAX1KPBXK@Z1@Z)
00428a50 0000004a .text             UTransport.obj(?SetIPAddress@UTransport@@SAXPAVTTransportObj@@USIPAddress@@@Z)
00428aa0 00000056 .text             UTransport.obj(?GetRemoteAddressText@UTransport@@SAKPAVTTransportObj@@PAXK@Z)
00428b00 00000056 .text             UTransport.obj(?GetLocalAddressText@UTransport@@SAKPAVTTransportObj@@PAXK@Z)
00428b60 000000db .text             UTransport.obj(?CleanUpAddressText@UTransport@@SAKGPBXKPAXK@Z)
00428c40 000000a5 .text             UTransport.obj(?GetPortFromAddressText@UTransport@@SAKGPBXK@Z)
00428cf0 00000041 .text             UTransport.obj(?IPAddressToText@UTransport@@SAKUSIPAddress@@PAXK@Z)
00428d40 00000165 .text             UTransport.obj(?TextToIPAddress@UTransport@@SA_NPAEAAUSIPAddress@@@Z)
00428eb0 00000046 .text             UTransport.obj(?IsConnected@UTransport@@SA_NPAVTTransportObj@@@Z)
00428f00 00000046 .text             UTransport.obj(?GetConnectStatus@UTransport@@SAGPAVTTransportObj@@@Z)
00428f50 00000042 .text             UTransport.obj(?Disconnect@UTransport@@SAXPAVTTransportObj@@@Z)
00428fa0 00000042 .text             UTransport.obj(?StartDisconnect@UTransport@@SAXPAVTTransportObj@@@Z)
00428ff0 00000046 .text             UTransport.obj(?IsDisconnecting@UTransport@@SA_NPAVTTransportObj@@@Z)
00429040 00000052 .text             UTransport.obj(?Listen@UTransport@@SAXPAVTTransportObj@@PBXK@Z)
004290a0 000000c3 .text             UTransport.obj(?Accept@UTransport@@SAPAVTTransportObj@@PAV2@PAXPAK@Z)
00429170 00000010 .text             UTransport.obj(?NewBuffer@UTransport@@SAPAXK@Z)
00429180 0000000e .text             UTransport.obj(?DisposeBuffer@UTransport@@SAXPAX@Z)
00429190 0000004a .text             UTransport.obj(?SendBuffer@UTransport@@SAXPAVTTransportObj@@PAX@Z)
004291e0 00000052 .text             UTransport.obj(?Send@UTransport@@SAXPAVTTransportObj@@PBXK@Z)
00429240 00000056 .text             UTransport.obj(?ReceiveBuffer@UTransport@@SA_NPAVTTransportObj@@AAPAXAAK@Z)
004292a0 00000056 .text             UTransport.obj(?Receive@UTransport@@SAKPAVTTransportObj@@PAXK@Z)
00429300 00000046 .text             UTransport.obj(?GetUnsentSize@UTransport@@SAKPAVTTransportObj@@@Z)
00429350 00000042 .text             UTransport.obj(?NotifyReadyToSend@UTransport@@SAXPAVTTransportObj@@@Z)
004293a0 0000004e .text             UTransport.obj(?IsReadyToReceive@UTransport@@SA_NPAVTTransportObj@@K@Z)
004293f0 00000046 .text             UTransport.obj(?IsReadyToSend@UTransport@@SA_NPAVTTransportObj@@@Z)
00429440 0000005e .text             UTransport.obj(?SendUnit@UTransport@@SAXPAVTTransportObj@@PBXK1K@Z)
004294a0 00000010 .text             UTransport.obj(?IsRegisteredProtocol@UTransport@@SA_NPBE@Z)
004294b0 0000001b .text             UTransport.obj(?LaunchURL@UTransport@@SA_NPBXKPAK1@Z)
004294d0 000000bd .text             UTransport.obj(?_GetURLAddress@@YA_NPBXKAAK1@Z)
00429590 000000e5 .text             UError.obj(?GetDetailMessage@UError@@SAKABUSError@@PAXK@Z)
00429680 00000149 .text             UError.obj(?Log@UError@@SAXPAVTFSRefObj@@ABUSError@@@Z)
004297d0 00000042 .text             UError.obj(?__Fail@@YAXFFPBDK@Z)
00429820 00000067 .text             UError.obj(??0SError@@QAE@FFPBDK@Z)
00429890 00000022 .text             URez.obj(?_RZGetNthItemListHdl@@YAPAVTHdlObj@@PAVTRezObj@@K@Z)
004298c0 000000da .text             URez.obj(?New@URez@@SAPAVTRezObj@@P6AKPAXK0K@ZP6AK0KPBXK@ZP6AK0@ZP6AX0K@ZP6AK0K00@Z0_N@Z)
004299a0 00000030 .text             URez.obj(?NewFromFile@URez@@SAPAVTRezObj@@PAVTFSRefObj@@_N@Z)
004299d0 000000d3 .text             URez.obj(?Dispose@URez@@SAXPAVTRezObj@@@Z)
00429ab0 00000065 .text             URez.obj(?ItemExists@URez@@SA_NPAVTRezObj@@KJ@Z)
00429b20 00000216 .text             URez.obj(?LoadItem@URez@@SAPAVTHdlObj@@PAVTRezObj@@KJK@Z)
00429d40 000000d9 .text             URez.obj(?ReleaseItem@URez@@SAXPAVTRezObj@@KJ@Z)
00429e20 000000a0 .text             URez.obj(?AddSearchChainEnd@URez@@SAXPAVTRezObj@@K@Z)
00429ec0 00000047 .text             URez.obj(?SearchChain@URez@@SAPAVTRezObj@@KJK@Z)
00429f10 000000bd .text             URez.obj(?AddProgramFileToSearchChain@URez@@SAXPBE@Z)
00429fd0 000000ab .text             URez.obj(?Reload@URez@@SAPAVTHdlObj@@AAUSRezStub@@KJ@Z)
0042a080 00000191 .text             URez.obj(?_RZSearchTypeList@@YA_NPAVTRezObj@@KAAK@Z)
0042a220 000001bc .text             URez.obj(?_RZSearchItemList@@YA_NPAVTHdlObj@@KAAK@Z)
0042a3e0 000000a0 .text             URez.obj(?_RZDisposeItemList@@YAKPAVTHdlObj@@@Z)
0042a480 00000020 .text             URez.obj(?_RZFileGetSize@@YAKPAX@Z)
0042a4a0 00000119 .text             URez.obj(?_RZFileControl@@YAKPAXK00@Z)
0042a5c0 0000026e .text             URez.obj(?_RZAddItem@@YAJPAVTRezObj@@KPAUSRezItemEntry@@_N@Z)
0042a830 0000054b .text             URez.obj(?_RZReadRezFile@@YAXPAVTRezObj@@@Z)
0042ad80 00000149 .text             UMemory.obj(?Fill@UMemory@@SAXPAXKE@Z)
0042aed0 00000015 .text             UMemory.obj(?Clear@UMemory@@SAXPAXK@Z)
0042aef0 00000050 .text             UMemory.obj(?Equal@UMemory@@SA_NPBX0K@Z)
0042af40 000000de .text             UMemory.obj(?Search@UMemory@@SAPAEPBXK0K@Z)
0042b020 00000049 .text             UMemory.obj(?SearchByte@UMemory@@SAPAEEPBXK@Z)
0042b070 00000049 .text             UMemory.obj(?SearchByteBackwards@UMemory@@SAPAEEPBXK@Z)
0042b0c0 00000030 .text             UMemory.obj(?SearchLongArray@UMemory@@SAPAKKPBKK@Z)
0042b0f0 000001be .text             UMemory.obj(?SearchAndReplaceAll@UMemory@@SAKPAVTHdlObj@@KPBXK1K@Z)
0042b2b0 00000079 .text             UMemory.obj(?Compare@UMemory@@SAFPBX0K@Z)
0042b330 00000036 .text             UMemory.obj(?Compare@UMemory@@SAFPBXK0K@Z)
0042b370 00000040 .text             UMemory.obj(?CRC@UMemory@@SAKPBXKK@Z)
0042b3b0 00000095 .text             UMemory.obj(?Token@UMemory@@SA_NPBXKPBDAAK2@Z)
0042b450 0000003e .text             UMemory.obj(?__copy_mem@@YAXPAXPBXK@Z)
0042b490 00000071 .text             UMemory.obj(?__move_mem@@YAXPAXPBXK@Z)
0042b510 00000028 .text             UMemory.obj(?_IsDelim@@YA_NEPBD@Z)
0042b540 00000010 .text             UMemory.obj(??2@YAPAXI@Z)
0042b550 00000032 .text             UMemory.obj(??3@YAXPAX@Z)
0042b590 00000005 .text             UError(W).obj(?Init@UError@@SAXXZ)
0042b5a0 00000148 .text             UError(W).obj(?GetMessage@UError@@SAKABUSError@@PAXK@Z)
0042b6f0 0000002f .text             UError(W).obj(??1StRezLoader@@QAE@XZ)
0042b720 000000be .text             UError(W).obj(?Alert@UError@@SAXABUSError@@@Z)
0042b7e0 000000a9 .text             UError(W).obj(?_WinToGenError@@YAXJAAF0@Z)
0042b890 0000009f .text             UError(W).obj(?_FailLastWinError@@YAXPBDK@Z)
0042b930 0000009c .text             UError(W).obj(?_FailWinError@@YAXJPBDK@Z)
0042b9d0 00000080 .text             destroy.obj(___destroy_new_array)
0042ba50 00000097 .text             CApplication.obj(??0CApplication@@QAE@XZ)
0042baf0 00000049 .text             CApplication.obj(??1CApplication@@UAE@XZ)
0042bb40 00000018 .text             CApplication.obj(?Run@CApplication@@UAEXXZ)
0042bb60 00000024 .text             CApplication.obj(?UserQuit@CApplication@@UAEXXZ)
0042bb90 00000018 .text             CApplication.obj(?Quit@CApplication@@UAEXXZ)
0042bbb0 0000002f .text             CApplication.obj(?KeyCommand@CApplication@@UAEXKABUSKeyMsgData@@@Z)
0042bbe0 0000002c .text             CApplication.obj(?Error@CApplication@@UAEXABUSError@@@Z)
0042bc10 00000015 .text             CApplication.obj(?Timer@CApplication@@UAEXPAVTTimerObj@@@Z)
0042bc30 00000055 .text             CApplication.obj(?OpenDocuments@CApplication@@UAEXXZ)
0042bc90 00000015 .text             CApplication.obj(?OpenDocument@CApplication@@UAEXPAVTFSRefObj@@@Z)
0042bcb0 00000013 .text             CApplication.obj(?ShowPreferences@CApplication@@UAEXXZ)
0042bcd0 00000015 .text             CApplication.obj(?WindowHit@CApplication@@UAEXPAVCWindow@@ABUSHitMsgData@@@Z)
0042bcf0 0000001f .text             CApplication.obj(?WindowHitHandler@CApplication@@SAXPAX0KPBXK@Z)
0042bd10 0000008e .text             CApplication.obj(?HandleMessage@CApplication@@MAEXPAXKPBXK@Z)
0042bda0 00000022 .text             CApplication.obj(?MessageHandler@CApplication@@KAXPAX0KPBXK@Z)
0042bdd0 00000047 .text             CApplication.obj(??_ECApplication@@UAE@I@Z)
0042be20 00000035 .text             CPtrList.obj(??0CVoidPtrList@@QAE@XZ)
0042be60 00000021 .text             CPtrList.obj(??1CVoidPtrList@@QAE@XZ)
0042be90 000000cf .text             CPtrList.obj(?AddItem@CVoidPtrList@@QAEKPAX@Z)
0042bf60 00000061 .text             CPtrList.obj(?Preallocate@CVoidPtrList@@QAEXK@Z)
0042bfd0 0000012f .text             CPtrList.obj(?RemoveItem@CVoidPtrList@@QAEKPAX@Z)
0042c100 00000109 .text             CPtrList.obj(?RemoveItem@CVoidPtrList@@QAEPAXK@Z)
0042c210 0000003d .text             CPtrList.obj(?Clear@CVoidPtrList@@QAEXXZ)
0042c250 00000062 .text             CPtrList.obj(?GetItemIndex@CVoidPtrList@@QBEKPAX@Z)
0042c2c0 00000185 .text             CPtrList.obj(?Sort@CVoidPtrList@@QAEXP6AJPAX00@Z0@Z)
0042c450 00000005 .text             USound(W).obj(?Init@USound@@SAXXZ)
0042c460 0000000d .text             USound(W).obj(?Beep@USound@@SAXXZ)
0042c470 000001e0 .text             USound(W).obj(?NewOutput@USound@@SAPAVTSoundOutputObj@@KKKKKP6AXPAX0KPBXK@Z0K@Z)
0042c650 000000ab .text             USound(W).obj(?DisposeOutput@USound@@SAXPAVTSoundOutputObj@@@Z)
0042c700 000000d9 .text             USound(W).obj(?EnqueueOutput@USound@@SAXPAVTSoundOutputObj@@PBXK@Z)
0042c7e0 00000027 .text             USound(W).obj(?GetOutputScratch@USound@@SAPAEPAVTSoundOutputObj@@@Z)
0042c810 0000003f .text             USound(W).obj(?_SNLookupWaveOut@@YAPAUSSoundOutput@@PAUHWAVEOUT__@@@Z)
0042c850 000000be .text             USound(W).obj(?_SNWaveOutProc@@YGJPAUHWND__@@IIJ@Z)
0042c910 0000004c .text             USound.obj(?_SNPlayRezMsgHandler@@YAXPAX0KPBXK@Z)
0042c960 000002b3 .text             USound.obj(?Play@USound@@SAXPAVTRezObj@@JK@Z)
0042cc20 00000012 .text             USound.obj(?SetCanPlay@USound@@SAX_N@Z)
0042cc40 0000000f .text             USound.obj(?IsCanPlay@USound@@SA_NXZ)
0042cc50 00000031 .text             UWindow(W).obj(?_UninitWindow@@YAXXZ)
0042cc90 000002cd .text             UWindow(W).obj(?Init@UWindow@@SAXXZ)
0042cf60 000004c3 .text             UWindow(W).obj(?New@UWindow@@SAPAVTWindowObj@@ABVSRect@@GGGPAV2@@Z)
0042d430 000000d7 .text             UWindow(W).obj(?Dispose@UWindow@@SAXPAVTWindowObj@@@Z)
0042d510 0000008e .text             UWindow(W).obj(?SetTitle@UWindow@@SAXPAVTWindowObj@@PBE@Z)
0042d5a0 0000002a .text             UWindow(W).obj(?SetRef@UWindow@@SAXPAVTWindowObj@@PAX@Z)
0042d5d0 00000027 .text             UWindow(W).obj(?GetRef@UWindow@@SAPAXPAVTWindowObj@@@Z)
0042d600 0000014c .text             UWindow(W).obj(?SetVisible@UWindow@@SAXPAVTWindowObj@@G@Z)
0042d750 00000032 .text             UWindow(W).obj(?IsVisible@UWindow@@SA_NPAVTWindowObj@@@Z)
0042d790 0000003c .text             UWindow(W).obj(?IsChild@UWindow@@SA_NPAVTWindowObj@@0@Z)
0042d7d0 0000009b .text             UWindow(W).obj(?SetBackColor@UWindow@@SAXPAVTWindowObj@@ABVSColor@@@Z)
0042d870 00000028 .text             UWindow(W).obj(?GetLayer@UWindow@@SAGPAVTWindowObj@@@Z)
0042d8a0 000000ca .text             UWindow(W).obj(?SetBounds@UWindow@@SAXPAVTWindowObj@@ABVSRect@@@Z)
0042d970 000000ed .text             UWindow(W).obj(?GetBounds@UWindow@@SAXPAVTWindowObj@@AAVSRect@@@Z)
0042da60 00000592 .text             UWindow(W).obj(?GetAutoBounds@UWindow@@SA_NPAVTWindowObj@@GABVSRect@@AAV3@@Z)
0042e000 000000f6 .text             UWindow(W).obj(?GetAutoBounds@UWindow@@SA_NPAVTWindowObj@@GGAAVSRect@@@Z)
0042e100 0000000e .text             UWindow(W).obj(?SetMainWindow@UWindow@@SAXPAVTWindowObj@@@Z)
0042e110 00000030 .text             UWindow(W).obj(?GetZoomBounds@UWindow@@SA_NPAVTWindowObj@@ABVSRect@@AAV3@@Z)
0042e140 00000028 .text             UWindow(W).obj(?GetState@UWindow@@SAGPAVTWindowObj@@@Z)
0042e170 00000053 .text             UWindow(W).obj(?SetMessageHandler@UWindow@@SAXPAVTWindowObj@@P6AXPAX1KPBXK@Z1@Z)
0042e1d0 0000004f .text             UWindow(W).obj(?PostMessage@UWindow@@SAXPAVTWindowObj@@KPBXKF@Z)
0042e220 00000056 .text             UWindow(W).obj(?InstallKeyCommands@UWindow@@SAXPBUSKeyCmd@@KP6AXPAX1KPBXK@Z1@Z)
0042e280 00000064 .text             UWindow(W).obj(?GetFront@UWindow@@SAPAVTWindowObj@@G@Z)
0042e2f0 0000007d .text             UWindow(W).obj(?BringToFront@UWindow@@SA_NPAVTWindowObj@@_N@Z)
0042e370 00000007 .text             UWindow(W).obj(?InModal@UWindow@@SA_NXZ)
0042e380 00000033 .text             UWindow(W).obj(?GetFocus@UWindow@@SAPAVTWindowObj@@XZ)
0042e3c0 00000055 .text             UWindow(W).obj(?SetMouseCaptureWindow@UWindow@@SAXPAVTWindowObj@@@Z)
0042e420 0000005f .text             UWindow(W).obj(?ReleaseMouseCaptureWindow@UWindow@@SAXPAVTWindowObj@@@Z)
0042e480 00000032 .text             UWindow(W).obj(?IsCollapsed@UWindow@@SA_NPAVTWindowObj@@@Z)
0042e4c0 00000032 .text             UWindow(W).obj(?IsZoomed@UWindow@@SA_NPAVTWindowObj@@@Z)
0042e500 0000002f .text             UWindow(W).obj(?GlobalToLocal@UWindow@@SAXPAVTWindowObj@@AAVSPoint@@@Z)
0042e530 00000050 .text             UWindow(W).obj(?GetRedrawRect@UWindow@@SA_NPAVTWindowObj@@AAVSRect@@@Z)
0042e580 00000030 .text             UWindow(W).obj(?Refresh@UWindow@@SAXPAVTWindowObj@@@Z)
0042e5b0 00000075 .text             UWindow(W).obj(?Refresh@UWindow@@SAXPAVTWindowObj@@ABVSRect@@@Z)
0042e630 00000026 .text             UWindow(W).obj(?GetDepth@UWindow@@SAGPAVTWindowObj@@@Z)
0042e660 0000032c .text             UWindow(W).obj(?BeginDraw@UWindow@@SAPAVTImageObj@@PAVTWindowObj@@ABVSRect@@@Z)
0042e990 000000d1 .text             UWindow(W).obj(?EndDraw@UWindow@@SAXPAVTWindowObj@@@Z)
0042ea70 00000090 .text             UWindow(W).obj(?AbortDraw@UWindow@@SAXPAVTWindowObj@@@Z)
0042eb00 000001ca .text             UWindow(W).obj(?_WNMyMaximize@@YAXPAVTWindowObj@@@Z)
0042ecd0 00001b5a .text             UWindow(W).obj(?_WNWndProc@@YGJPAUHWND__@@IIJ@Z)
00430830 0000003e .text             UWindow(W).obj(?_WNSendMessageToMDIKids@@YAXGIJ@Z)
00430870 00000215 .text             UWindow(W).obj(?_WNFrameWndProc@@YGJPAUHWND__@@IIJ@Z)
00430a90 00000062 .text             UWindow(W).obj(?_SetWinIcon@@YAXPAVTWindowObj@@F@Z)
00430b00 00000052 .text             UWindow(W).obj(?_RemoveFromLayer@@YAXPAUSWindow@@@Z)
00430b60 0000011a .text             UWindow(W).obj(?_AddToLayerAndGetInsertAfter@@YAPAUHWND__@@PAUSWindow@@PAU1@@Z)
00430c80 000000c3 .text             UWindow(W).obj(?_PutInLayer@@YAXPAUSWindow@@@Z)
00430d50 00000071 .text             UWindow(W).obj(?_GetTopVisibleModalWindow@@YAPAUSWindow@@XZ)
00430dd0 0000009a .text             UWindow(W).obj(?_GetPrevVisibleWindow@@YAPAUHWND__@@PAUSWindow@@PAU1@@Z)
00430e70 00000080 .text             UWindow(W).obj(?_GetBottomWindow@@YAPAUHWND__@@PAUSWindow@@@Z)
00430ef0 00000064 .text             UWindow(W).obj(?_IsTopVisibleModalWindow@@YA_NXZ)
00430f60 00000043 .text             UWindow(W).obj(?_IsInWindowList@@YA_NPAUHWND__@@@Z)
00430fb0 00000010 .text             UWindow(W).obj(?_StateTimerProc@@YAXPAX0KPBXK@Z)
00430fc0 0000005d .text             UWindow(W).obj(?_FlashTimerProc@@YAXPAX0KPBXK@Z)
00431020 00000484 .text             UWindow(W).obj(?_CheckWindowStates@@YAXXZ)
004314b0 00000099 .text             UWindow(W).obj(?_StandardDialogBox@@YA_NE@Z)
00431550 000001c2 .text             UWindow(W).obj(?_ActivateNextWindow@@YA_NXZ)
00431720 00000124 .text             UWindow(W).obj(?_WNDispatchDrag@@YAXPAVTWindowObj@@PAVTDragObj@@KKU_POINTL@@@Z)
00431850 0000004c .text             UWindow(W).obj(?_WNPostMouseUp@@YAXXZ)
004318a0 00000072 .text             UWindow(W).obj(?_GetRealWinBounds@@YAXPAVTWindowObj@@AAVSRect@@@Z)
00431920 00000016 .text             UWindow(W).obj(?_GetRealWinBounds@@YAXPAVCWindow@@AAVSRect@@@Z)
00431940 0000006b .text             UWindow(W).obj(?_SetRealWinLocation@@YAXPAVCWindow@@VSPoint@@0@Z)
004319b0 000000cc .text             UWindow(W).obj(?_GetScreenBounds@@YAXAAVSRect@@@Z)
00431a80 000003b3 .text             UWindow(W).obj(?_WNCalcUnobstructedBounds@@YAXPAVTWindowObj@@AAVSRect@@@Z)
00431e40 000000e3 .text             UWindow(W).obj(?_SendToQuickTime@@YA_NPAVTWindowObj@@IIJ@Z)
00431f30 0000003c .text             UWindow(W).obj(?_UnregisterWithQuickTime@@YAXPAVTWindowObj@@@Z)
00431f70 000000a4 .text             UTransact.obj(?New@UTransact@@SAPAVTTransactObj@@K_NK@Z)
00432020 0000009e .text             UTransact.obj(?Dispose@UTransact@@SAXPAVTTransactObj@@@Z)
004320c0 00000029 .text             UTransact.obj(?SetTransport@UTransact@@SAXPAVTTransactObj@@PAVTTransportObj@@@Z)
004320f0 00000026 .text             UTransact.obj(?GetTransport@UTransact@@SAPAVTTransportObj@@PAVTTransactObj@@@Z)
00432120 00000033 .text             UTransact.obj(?SetMessageHandler@UTransact@@SAXPAVTTransactObj@@P6AXPAX1KPBXK@Z1@Z)
00432160 0000004f .text             UTransact.obj(?PostMessage@UTransact@@SAXPAVTTransactObj@@KPBXKF@Z)
004321b0 00000030 .text             UTransact.obj(?SetIPAddress@UTransact@@SAXPAVTTransactObj@@USIPAddress@@@Z)
004321e0 0000002e .text             UTransact.obj(?IsConnected@UTransact@@SA_NPAVTTransactObj@@@Z)
00432210 00000026 .text             UTransact.obj(?Disconnect@UTransact@@SAXPAVTTransactObj@@@Z)
00432240 0000002c .text             UTransact.obj(?StartDisconnect@UTransact@@SAXPAVTTransactObj@@@Z)
00432270 0000002e .text             UTransact.obj(?IsDisconnecting@UTransact@@SA_NPAVTTransactObj@@@Z)
004322a0 00000034 .text             UTransact.obj(?Listen@UTransact@@SAXPAVTTransactObj@@PBXK@Z)
004322e0 000000cf .text             UTransact.obj(?Accept@UTransact@@SAPAVTTransactObj@@PAV2@PAXPAK@Z)
004323b0 0000002e .text             UTransact.obj(?IsEstablished@UTransact@@SA_NPAVTTransactObj@@@Z)
004323e0 0000013e .text             UTransact.obj(?ReceiveEstablish@UTransact@@SAGPAVTTransactObj@@AAKAAG@Z)
00432520 0000007a .text             UTransact.obj(?AcceptEstablish@UTransact@@SAXPAVTTransactObj@@@Z)
004325a0 000000a1 .text             UTransact.obj(?RejectEstablish@UTransact@@SAXPAVTTransactObj@@K@Z)
00432650 0000010b .text             UTransact.obj(?NewReceiveSession@UTransact@@SAPAVTTransactSessionObj@@PAVTTransactObj@@GG@Z)
00432760 00000044 .text             UTransact.obj(?DisposeSession@UTransact@@SAXPAVTTransactSessionObj@@@Z)
004327b0 00000044 .text             UTransact.obj(?SetSessionSendError@UTransact@@SAXPAVTTransactSessionObj@@K@Z)
00432800 000000de .text             UTransact.obj(?SendSessionData@UTransact@@SAXPAVTTransactSessionObj@@PBXKG@Z)
004328e0 00000059 .text             UTransact.obj(?SendSessionData@UTransact@@SAXPAVTTransactSessionObj@@PAVTFieldDataObj@@@Z)
00432940 00000049 .text             UTransact.obj(?GetSessionReceiveType@UTransact@@SAGPAVTTransactSessionObj@@@Z)
00432990 00000078 .text             UTransact.obj(?ReceiveSessionData@UTransact@@SAXPAVTTransactSessionObj@@PAVTFieldDataObj@@@Z)
00432a10 00000048 .text             UTransact.obj(?SendTransaction@UTransact@@SAXPAVTTransactObj@@GPBXK@Z)
00432a60 0000005c .text             UTransact.obj(?SendTransaction@UTransact@@SAXPAVTTransactObj@@GPAVTFieldDataObj@@@Z)
00432ac0 00000024 .text             UTransact.obj(?_TNNewTranID@@YAKPAVTTransactObj@@@Z)
00432af0 00000056 .text             UTransact.obj(?_TNNewTask@@YAPAUSTranTask@@PAVTTransactObj@@@Z)
00432b50 0000007e .text             UTransact.obj(?_TNKillTask@@YAXPAVTTransactObj@@PAUSTranTask@@@Z)
00432bd0 0000004f .text             UTransact.obj(?_TNGetTask@@YAPAUSTranTask@@PAVTTransactObj@@GK@Z)
00432c20 0000016b .text             UTransact.obj(?_TNGetInTask@@YAPAUSTranTask@@PAVTTransactObj@@GG@Z)
00432d90 00000182 .text             UTransact.obj(?_TNSendTran@@YAXPAVTTransactObj@@K_NGKPBXKK@Z)
00432f20 00000423 .text             UTransact.obj(?_TNProcessIncomingData@@YAXPAVTTransactObj@@@Z)
00433350 00000028 .text             UTransact.obj(?_TNMessageHandler@@YAXPAX0KPBXK@Z)
00433380 000003a0 .text             UFileSys(W).obj(?New@UFileSys@@SAPAVTFSRefObj@@PAV2@PBE1KPAG@Z)
00433720 00000543 .text             UFileSys(W).obj(?New@UFileSys@@SAPAVTFSRefObj@@PAV2@PBXKPBEKPAG@Z)
00433c70 00000020 .text             UFileSys(W).obj(?NewTemp@UFileSys@@SAPAVTFSRefObj@@PAV2@@Z)
00433c90 00000086 .text             UFileSys(W).obj(?Clone@UFileSys@@SAPAVTFSRefObj@@PAV2@@Z)
00433d20 0000004b .text             UFileSys(W).obj(?Dispose@UFileSys@@SAXPAVTFSRefObj@@@Z)
00433d70 00000075 .text             UFileSys(W).obj(?SetRef@UFileSys@@SAXPAVTFSRefObj@@0@Z)
00433df0 0000006d .text             UFileSys(W).obj(?CreateFile@UFileSys@@SAXPAVTFSRefObj@@KK@Z)
00433e60 000000e1 .text             UFileSys(W).obj(?CreateFileAndOpen@UFileSys@@SAXPAVTFSRefObj@@KKKK@Z)
00433f50 00000045 .text             UFileSys(W).obj(?CreateFolder@UFileSys@@SAXPAVTFSRefObj@@@Z)
00433fa0 0000017c .text             UFileSys(W).obj(?CreateAlias@UFileSys@@SAXPAVTFSRefObj@@0@Z)
00434120 00000052 .text             UFileSys(W).obj(?Exists@UFileSys@@SA_NPAVTFSRefObj@@PA_N@Z)
00434180 0000008b .text             UFileSys(W).obj(?DeleteFile@UFileSys@@SAXPAVTFSRefObj@@@Z)
00434210 0000006d .text             UFileSys(W).obj(?DeleteFolder@UFileSys@@SAXPAVTFSRefObj@@@Z)
00434280 000000e6 .text             UFileSys(W).obj(?DeleteFolderContents@UFileSys@@SAXPAVTFSRefObj@@@Z)
00434370 000000e6 .text             UFileSys(W).obj(?MoveToTrash@UFileSys@@SAXPAVTFSRefObj@@@Z)
00434460 0000018b .text             UFileSys(W).obj(?SetName@UFileSys@@SAXPAVTFSRefObj@@PBEK@Z)
004345f0 00000108 .text             UFileSys(W).obj(?SetRefName@UFileSys@@SAXPAVTFSRefObj@@PBEK@Z)
00434700 00000055 .text             UFileSys(W).obj(?GetName@UFileSys@@SAXPAVTFSRefObj@@PAEPAK@Z)
00434760 00000083 .text             UFileSys(W).obj(?GetName@UFileSys@@SAKPAVTFSRefObj@@PAXKPAK@Z)
004347f0 0000006e .text             UFileSys(W).obj(?GetFolder@UFileSys@@SAPAVTFSRefObj@@PAV2@@Z)
00434860 0000008f .text             UFileSys(W).obj(?GetParentName@UFileSys@@SAXPAVTFSRefObj@@PAEPAK@Z)
004348f0 000000d4 .text             UFileSys(W).obj(?ValidateFileName@UFileSys@@SAKPAXKK@Z)
004349d0 00000146 .text             UFileSys(W).obj(?Move@UFileSys@@SAXPAVTFSRefObj@@0@Z)
00434b20 000001af .text             UFileSys(W).obj(?MoveAndRename@UFileSys@@SAXPAVTFSRefObj@@0PBEK@Z)
00434cd0 0000001b .text             UFileSys(W).obj(?SwapData@UFileSys@@SAXPAVTFSRefObj@@0@Z)
00434cf0 000000a1 .text             UFileSys(W).obj(?Open@UFileSys@@SAXPAVTFSRefObj@@K@Z)
00434da0 00000065 .text             UFileSys(W).obj(?Close@UFileSys@@SAXPAVTFSRefObj@@@Z)
00434e10 000000a4 .text             UFileSys(W).obj(?Read@UFileSys@@SAKPAVTFSRefObj@@KPAXKK@Z)
00434ec0 000000a6 .text             UFileSys(W).obj(?Write@UFileSys@@SAKPAVTFSRefObj@@KPBXKK@Z)
00434f70 000000dd .text             UFileSys(W).obj(?GetSize@UFileSys@@SAKPAVTFSRefObj@@K@Z)
00435050 00000095 .text             UFileSys(W).obj(?SetSize@UFileSys@@SAXPAVTFSRefObj@@K@Z)
004350f0 000000e3 .text             UFileSys(W).obj(?GetType@UFileSys@@SAGPAVTFSRefObj@@@Z)
004351e0 00000005 .text             UFileSys(W).obj(?SetComment@UFileSys@@SAXPAVTFSRefObj@@PBXKK@Z)
004351f0 00000019 .text             UFileSys(W).obj(?GetComment@UFileSys@@SAKPAVTFSRefObj@@PAXKPAK@Z)
00435210 0000005f .text             UFileSys(W).obj(?GetTypeAndCreatorCode@UFileSys@@SAXPAVTFSRefObj@@AAK1@Z)
00435270 00000066 .text             UFileSys(W).obj(?GetTypeCode@UFileSys@@SAKPAVTFSRefObj@@@Z)
004352e0 0000011c .text             UFileSys(W).obj(?GetDateStamp@UFileSys@@SAXPAVTFSRefObj@@PAUSDateTimeStamp@@1@Z)
00435400 0000004f .text             UFileSys(W).obj(?IsHidden@UFileSys@@SA_NPAVTFSRefObj@@@Z)
00435450 00000085 .text             UFileSys(W).obj(?Equals@UFileSys@@SA_NPAVTFSRefObj@@0@Z)
004354e0 0000069f .text             UFileSys(W).obj(?GetListing@UFileSys@@SAPAVTHdlObj@@PAVTFSRefObj@@K@Z)
00435b80 00000167 .text             UFileSys(W).obj(?GetListNext@UFileSys@@SA_NPAVTHdlObj@@AAKPAEPAK33PAUSDateTimeStamp@@43@Z)
00435cf0 00000161 .text             UFileSys(W).obj(?ResolveAlias@UFileSys@@SA_NPAVTFSRefObj@@PAG@Z)
00435e60 00000007 .text             UFileSys(W).obj(?IsDiskLocked@UFileSys@@SA_NPAVTFSRefObj@@@Z)
00435e70 000001a4 .text             UFileSys(W).obj(?GetDiskFreeSpace@UFileSys@@SA_KPAVTFSRefObj@@@Z)
00436020 000000da .text             UFileSys(W).obj(?_FSCreateFlatFileInfo@@YAKPAVTFSRefObj@@AAUSFlatFileInfoFork@@@Z)
00436100 00000005 .text             UFileSys(W).obj(?_FSSetFlatFileInfo@@YAXPAVTFSRefObj@@ABUSFlatFileInfoFork@@K@Z)
00436110 000001be .text             UFileSys(W).obj(?StartFlatten@UFileSys@@SAXPAVTFSRefObj@@@Z)
004362d0 000001ae .text             UFileSys(W).obj(?ResumeFlatten@UFileSys@@SAXPAVTFSRefObj@@PBXK@Z)
00436480 000000b3 .text             UFileSys(W).obj(?GetFlattenSize@UFileSys@@SAKPAVTFSRefObj@@@Z)
00436540 00000250 .text             UFileSys(W).obj(?ProcessFlatten@UFileSys@@SAKPAVTFSRefObj@@PAXK@Z)
00436790 000000bc .text             UFileSys(W).obj(?StartUnflatten@UFileSys@@SAXPAVTFSRefObj@@@Z)
00436850 000001c1 .text             UFileSys(W).obj(?ResumeUnflatten@UFileSys@@SAPAVTHdlObj@@PAVTFSRefObj@@@Z)
00436a20 0000001d .text             UFileSys(W).obj(?StopUnflatten@UFileSys@@SAXPAVTFSRefObj@@@Z)
00436a40 000003b9 .text             UFileSys(W).obj(?ProcessUnflatten@UFileSys@@SA_NPAVTFSRefObj@@PBXK@Z)
00436e00 00000069 .text             UFileSys(W).obj(?_FSFindPathTargetName@@YAXPBXKAAPAEAAK@Z)
00436e70 0000009f .text             UFileSys(W).obj(?_FSFindPathParentName@@YAXPBXKAAPAEAAK@Z)
00436f10 0000008f .text             UFileSys(W).obj(?_FSGetPathExtension@@YAXPBXKPAE@Z)
00436fa0 00000099 .text             UFileSys(W).obj(?_FSIsLinkFile@@YA_NPBXK@Z)
00437040 0000070e .text             UFileSys(W).obj(?_FSWinExtToMacTypeCode@@YAXPBEAAK1@Z)
00437750 00000049 .text             UFileSys(W).obj(?_FSStripName@@YAXPAXK@Z)
004377a0 00000085 .text             UFileSys(W).obj(?_FSAccessToWinAccess@@YAXKAAK0@Z)
00437830 000000b9 .text             UFileSys(W).obj(?_FSWinTimeToStamp@@YAXABU_FILETIME@@AAUSDateTimeStamp@@@Z)
004378f0 00000082 .text             UFileSys(W).obj(?_FSParentExists@@YA_NPBD@Z)
00437980 000000cf .text             UFileSys(W).obj(?_FSConvertPathString@@YAKPBEPAX@Z)
00437a50 0000032f .text             UFileSys(W).obj(?_FSPathDataToActualDir@@YAKPBXKPAXKK@Z)
00437d80 0000037c .text             UFileSys(W).obj(?_FSDoNewOptions@@YA_NPBDPADKPAG@Z)
00438100 0000024b .text             UFileSys(W).obj(?_FSCountDirItems@@YAKPBXK0K@Z)
00438350 000000e4 .text             UFileSys(W).obj(?_FSCreateLink@@YAJPBDPAD1@Z)
00438440 0000023c .text             UFileSys(W).obj(?_FSResolveLink@@YAJPAUHWND__@@PBDPADPAU_WIN32_FIND_DATAA@@H@Z)
00438680 0000027b .text             UFileSys(W).obj(?_FSResolveLinksInPath@@YAJPAUHWND__@@PBDPADPAU_WIN32_FIND_DATAA@@@Z)
00438900 00000149 .text             UFileSys(W).obj(?_GetMaxChildPathSize@@YAKPAVTFSRefObj@@@Z)
00438a50 00000094 .text             UFileSys(W).obj(?_FSNewRefFromWinPath@@YAPAVTFSRefObj@@PBXK@Z)
00438af0 00000126 .text             CWindow.obj(??0CWindow@@QAE@ABVSRect@@GGGPAV0@@Z)
00438c20 0000008f .text             CWindow.obj(??1CWindow@@UAE@XZ)
00438cb0 000000eb .text             CWindow.obj(?Draw@CWindow@@UAEXABVSRect@@@Z)
00438da0 00000035 .text             CWindow.obj(?MouseDown@CWindow@@UAEXABUSMouseMsgData@@@Z)
00438de0 00000035 .text             CWindow.obj(?MouseUp@CWindow@@UAEXABUSMouseMsgData@@@Z)
00438e20 0000003d .text             CWindow.obj(?MouseEnter@CWindow@@UAEXABUSMouseMsgData@@@Z)
00438e60 00000035 .text             CWindow.obj(?MouseMove@CWindow@@UAEXABUSMouseMsgData@@@Z)
00438ea0 00000035 .text             CWindow.obj(?MouseLeave@CWindow@@UAEXABUSMouseMsgData@@@Z)
00438ee0 00000035 .text             CWindow.obj(?KeyDown@CWindow@@UAEXABUSKeyMsgData@@@Z)
00438f20 00000035 .text             CWindow.obj(?KeyUp@CWindow@@UAEXABUSKeyMsgData@@@Z)
00438f60 00000035 .text             CWindow.obj(?KeyRepeat@CWindow@@UAEXABUSKeyMsgData@@@Z)
00438fa0 00000035 .text             CWindow.obj(?DragEnter@CWindow@@UAEXABUSDragMsgData@@@Z)
00438fe0 00000035 .text             CWindow.obj(?DragMove@CWindow@@UAEXABUSDragMsgData@@@Z)
00439020 00000035 .text             CWindow.obj(?DragLeave@CWindow@@UAEXABUSDragMsgData@@@Z)
00439060 0000005e .text             CWindow.obj(?Drop@CWindow@@UAE_NABUSDragMsgData@@@Z)
004390c0 0000006f .text             CWindow.obj(?SendToQuickTime@CWindow@@UAEXABUEventRecord@@@Z)
00439130 00000068 .text             CWindow.obj(?UserClose@CWindow@@UAEXABUSMouseMsgData@@@Z)
004391a0 0000006a .text             CWindow.obj(?UserZoom@CWindow@@UAEXABUSMouseMsgData@@@Z)
00439210 0000006e .text             CWindow.obj(?BoundsChanged@CWindow@@UAEXXZ)
00439280 00000040 .text             CWindow.obj(?StateChanged@CWindow@@UAEXXZ)
004392c0 0000008a .text             CWindow.obj(?Hit@CWindow@@UAEXABUSHitMsgData@@@Z)
00439350 00000048 .text             CWindow.obj(?ProcessModal@CWindow@@QAEXXZ)
004393a0 00000015 .text             CWindow.obj(?Timer@CWindow@@UAEXPAVTTimerObj@@@Z)
004393c0 00000025 .text             CWindow.obj(?MessageHandler@CWindow@@KAXPAX0KPBXK@Z)
004393f0 0000033d .text             CWindow.obj(?HandleMessage@CWindow@@UAEXPAXKPBXK@Z)
00439730 00000055 .text             CWindow.obj(?GetHitID@CWindow@@QAEKXZ)
00439790 0000007a .text             CWindow.obj(?SetBounds@CWindow@@UAEXABVSRect@@@Z)
00439810 00000054 .text             CWindow.obj(?SetAutoBounds@CWindow@@QAEXGG@Z)
00439870 00000058 .text             CWindow.obj(?SetLocation@CWindow@@QAEXABVSPoint@@@Z)
004398d0 00000036 .text             CWindow.obj(?GetFront@CWindow@@SAPAV1@G@Z)
00439910 0000004e .text             CWindow.obj(?MouseCaptureReleased@CWindow@@UAEXXZ)
00439960 00000075 .text             CWindow.obj(?HandleInstall@CWindow@@MAEXPAVCView@@@Z)
004399e0 00000077 .text             CWindow.obj(?HandleRemove@CWindow@@MAEXPAVCView@@@Z)
00439a60 00000025 .text             CWindow.obj(?HandleRefresh@CWindow@@MAEXPAVCView@@ABVSRect@@@Z)
00439a90 00000035 .text             CWindow.obj(?HandleHit@CWindow@@MAEXPAVCView@@ABUSHitMsgData@@@Z)
00439ad0 00000040 .text             CWindow.obj(?HandleGetScreenDelta@CWindow@@MAEXPAVCView@@AAJ1@Z)
00439b10 0000005d .text             CWindow.obj(?HandleGetVisibleRect@CWindow@@MAEXPAVCView@@AAVSRect@@@Z)
00439b70 00000054 .text             CWindow.obj(?HandleCaptureMouse@CWindow@@MAEXPAVCView@@@Z)
00439bd0 00000041 .text             CWindow.obj(?HandleReleaseMouse@CWindow@@MAEXPAVCView@@@Z)
00439c20 0000002e .text             CWindow.obj(?HandleGetCaptureMouseView@CWindow@@MAEPAVCView@@XZ)
00439c50 00000016 .text             CWindow.obj(?HandleGetParentWindow@CWindow@@MAEPAV1@XZ)
00439c70 0000001e .text             CWindow.obj(??0CWindowList@@QAE@XZ)
00439c90 00000015 .text             CWindow.obj(??1?$CPtrList@VCWindow@@@@QAE@XZ)
00439cb0 00000026 .text             CWindow.obj(??1CWindowList@@QAE@XZ)
00439ce0 00000031 .text             CWindow.obj(?AddWindow@CWindowList@@QAEKPAVCWindow@@@Z)
00439d20 00000031 .text             CWindow.obj(?RemoveWindow@CWindowList@@QAEKPAVCWindow@@@Z)
00439d60 0000006f .text             CWindow.obj(?ClearWindowList@CWindowList@@QAEXXZ)
00439dd0 00000047 .text             CWindow.obj(??_ECWindow@@UAE@I@Z)
00439e20 0000012f .text             CWindow.obj(??0CSnapWindows@@QAE@XZ)
00439f50 0000006e .text             CWindow.obj(??1CSnapWindows@@QAE@XZ)
00439fc0 00000018 .text             CWindow.obj(?IsEnableSnapWindows@CSnapWindows@@QAE_NXZ)
00439fe0 00000049 .text             CWindow.obj(?RemoveWindow@CSnapWindows@@QAEXPAVCWindow@@@Z)
0043a030 000000db .text             CWindow.obj(?CreateSnapWinList@CSnapWindows@@QAEXPAVCWindow@@@Z)
0043a110 0000005a .text             CWindow.obj(?CreateSnapSound@CSnapWindows@@QAEXPAVCWindow@@@Z)
0043a170 0000012a .text             CWindow.obj(?DestroySnapWinListSound@CSnapWindows@@QAEX_N@Z)
0043a2a0 00000304 .text             CWindow.obj(?WinSnapTogether@CSnapWindows@@QAE_NPAVCWindow@@AAVSRect@@_N@Z)
0043a5b0 0000007c .text             CWindow.obj(?WinMoveTogether@CSnapWindows@@QAEXPAVCWindow@@@Z)
0043a630 0000025a .text             CWindow.obj(?WinMoveTogether@CSnapWindows@@QAEXPAVCWindow@@VSRect@@@Z)
0043a890 00000054 .text             CWindow.obj(?WinKeepOnScreen@CSnapWindows@@QAE_NPAVCWindow@@AAVSRect@@@Z)
0043a8f0 00000920 .text             CWindow.obj(?RectSnapTogether@CSnapWindows@@IAE_NAAVSRect@@V2@_N@Z)
0043b210 0000015e .text             CWindow.obj(?RectSnapScreen@CSnapWindows@@IAE_NAAVSRect@@_N@Z)
0043b370 00000100 .text             CWindow.obj(?RectKeepOnScreen@CSnapWindows@@IAE_NAAVSRect@@@Z)
0043b470 00000279 .text             CWindow.obj(?ComposeSnapWinList@CSnapWindows@@IAEXPAVCWindow@@VSRect@@@Z)
0043b6f0 00000564 .text             CWindow.obj(?ComposeSnapSound@CSnapWindows@@IAEXPAVCWindow@@VSRect@@_N2@Z)
0043bc60 00000047 .text             CWindow.obj
0043bcb0 00000014 .text             UKeyboard(W).obj(?IsOptionKeyDown@UKeyboard@@SA_NXZ)
0043bcd0 00000034 .text             UKeyboard(W).obj(?KeyToChar@UKeyboard@@SAGGGK@Z)
0043bd10 0000001f .text             UKeyboard(W).obj(?_WinKeyCodeToStd@@YAGG@Z)
0043bd30 00000038 .text             UText.obj(?CompareInsensitive@UText@@SAFPBXK0KK@Z)
0043bd70 0000009e .text             UText.obj(?CompareInsensitive@UText@@SAFPBX0KK@Z)
0043be10 0000012b .text             UText.obj(?SearchInsensitive@UText@@SAPAEPBXK0K@Z)
0043bf40 00000152 .text             UText.obj(?IntegerToText@UText@@SAKPAXKJK@Z)
0043c0a0 000002d6 .text             UText.obj(?SizeToText@UText@@SAKKPAXKK@Z)
0043c380 000000b3 .text             UText.obj(?TextToInteger@UText@@SAJPBXKKK@Z)
0043c440 000000b3 .text             UText.obj(?TextToUInteger@UText@@SAKPBXKKK@Z)
0043c500 00000054 .text             UText.obj(?Format@UText@@SAKPAXKPBDZZ)
0043c560 0000001b .text             UText.obj(?FormatArg@UText@@SAKPAXKPBD0@Z)
0043c580 00000033 .text             UText.obj(?MakeLowercase@UText@@SAXPAXKK@Z)
0043c5c0 00000078 .text             UText.obj(?ReplaceNonPrinting@UText@@SAXPAXKKGK@Z)
0043c640 0000004f .text             UText.obj(?GetVisibleLength@UText@@SAKPBXKK@Z)
0043c690 000001a8 .text             UText.obj(?FindWord@UText@@SA_NPBXKKKAAK1@Z)
0043c840 00000024 .text             UText.obj(?IsGraph@UText@@SA_NGK@Z)
0043c870 00000024 .text             UText.obj(?IsPrinting@UText@@SA_NGK@Z)
0043c8a0 00000024 .text             UText.obj(?IsSpace@UText@@SA_NGK@Z)
0043c8d0 00000886 .text             UText.obj(?_FormatTextArg@@YAKPADKPBD0@Z)
0043d160 0000012f .text             UText.obj(?HexToData@UMemory@@SAKPBXKPAXK@Z)
0043d290 00000005 .text             UTimer(W).obj(?Init@UTimer@@SAXXZ)
0043d2a0 00000043 .text             UTimer(W).obj(?New@UTimer@@SAPAVTTimerObj@@P6AXPAX0KPBXK@Z0@Z)
0043d2f0 0000008d .text             UTimer(W).obj(?StartNew@UTimer@@SAPAVTTimerObj@@P6AXPAX0KPBXK@Z0KK@Z)
0043d380 000000a1 .text             UTimer(W).obj(?Dispose@UTimer@@SAXPAVTTimerObj@@@Z)
0043d430 00000076 .text             UTimer(W).obj(?Start@UTimer@@SAXPAVTTimerObj@@KK@Z)
0043d4b0 00000014 .text             UTimer(W).obj(?WasStarted@UTimer@@SA_NPAVTTimerObj@@@Z)
0043d4d0 0000002c .text             UTimer(W).obj(?Stop@UTimer@@SAXPAVTTimerObj@@@Z)
0043d500 0000002a .text             UTimer(W).obj(?Simulate@UTimer@@SAXPAVTTimerObj@@@Z)
0043d530 0000009b .text             UTimer(W).obj(?_APTimerProc@@YGXPAUHWND__@@IIK@Z)
0043d5d0 00000135 .text             UApplication(W).obj(?Init@UApplication@@SAXXZ)
0043d710 00000052 .text             UApplication(W).obj(?Process@UApplication@@SAXXZ)
0043d770 0000007f .text             UApplication(W).obj(?ProcessAndSleep@UApplication@@SAXXZ)
0043d7f0 00000053 .text             UApplication(W).obj(?ProcessOnly@UApplication@@SAXPBK@Z)
0043d850 00000023 .text             UApplication(W).obj(?Run@UApplication@@SAXXZ)
0043d880 00000011 .text             UApplication(W).obj(?Quit@UApplication@@SAXXZ)
0043d8a0 0000000d .text             UApplication(W).obj(?Abort@UApplication@@SAXXZ)
0043d8b0 0000000a .text             UApplication(W).obj(?IsQuit@UApplication@@SA_NXZ)
0043d8c0 00000019 .text             UApplication(W).obj(?SetMessageHandler@UApplication@@SAXP6AXPAX0KPBXK@Z0@Z)
0043d8e0 000000a3 .text             UApplication(W).obj(?SendMessage@UApplication@@SAXKPBXKFP6AXPAX1K0K@Z11@Z)
0043d990 00000046 .text             UApplication(W).obj(?PostMessage@UApplication@@SAXKPBXKFP6AXPAX1K0K@Z11@Z)
0043d9e0 0000002b .text             UApplication(W).obj(?ReplaceMessage@UApplication@@SAXKPBXKFP6AXPAX1K0K@Z11@Z)
0043da10 0000001c .text             UApplication(W).obj(?FlushMessages@UApplication@@SAXP6AXPAX0KPBXK@Z00@Z)
0043da30 00000232 .text             UApplication(W).obj(?GetDocumentToOpen@UApplication@@SAPAVTFSRefObj@@XZ)
0043dc70 00000007 .text             UApplication(W).obj(?_DispatchThreadMessage@@YA_NK@Z)
0043dc80 00000026 .text             UApplication(W).obj(?_APProcess@@YAXPAUtagMSG@@@Z)
0043dcb0 0000001b .text             UApplication(W).obj(?_APDummyProc@@YGJPAUHWND__@@IIJ@Z)
0043dcd0 000001e9 .text             UMouse(W).obj(?SetImage@UMouse@@SAXJ@Z)
0043dec0 0000000a .text             UMouse(W).obj(?GetImage@UMouse@@SAJXZ)
0043ded0 0000000e .text             UMouse(W).obj(?GetLocation@UMouse@@SAXAAVSPoint@@@Z)
0043dee0 0000000d .text             UMouse(W).obj(?GetDoubleClickTime@UMouse@@SAKXZ)
0043def0 00000005 .text             UMemory(W).obj(?Init@UMemory@@SAXXZ)
0043df00 00000063 .text             UMemory(W).obj(?New@UMemory@@SAPAVTPtrObj@@K@Z)
0043df70 00000030 .text             UMemory(W).obj(?New@UMemory@@SAPAVTPtrObj@@PBXK@Z)
0043dfa0 00000056 .text             UMemory(W).obj(?NewClear@UMemory@@SAPAVTPtrObj@@K@Z)
0043e000 00000044 .text             UMemory(W).obj(?Dispose@UMemory@@SAXPAVTPtrObj@@@Z)
0043e050 00000095 .text             UMemory(W).obj(?NewHandle@UMemory@@SAPAVTHdlObj@@KK@Z)
0043e0f0 00000096 .text             UMemory(W).obj(?NewHandle@UMemory@@SAPAVTHdlObj@@PBXKK@Z)
0043e190 00000077 .text             UMemory(W).obj(?NewHandleClear@UMemory@@SAPAVTHdlObj@@KK@Z)
0043e210 00000090 .text             UMemory(W).obj(?Dispose@UMemory@@SAXPAVTHdlObj@@@Z)
0043e2a0 00000108 .text             UMemory(W).obj(?SetSize@UMemory@@SAXPAVTHdlObj@@K@Z)
0043e3b0 0000005d .text             UMemory(W).obj(?GetSize@UMemory@@SAKPAVTHdlObj@@@Z)
0043e410 00000091 .text             UMemory(W).obj(?Reallocate@UMemory@@SAPAVTPtrObj@@PAV2@K@Z)
0043e4b0 000000ea .text             UMemory(W).obj(?Reallocate@UMemory@@SAXPAVTHdlObj@@K@Z)
0043e5a0 000000ea .text             UMemory(W).obj(?ReallocateClear@UMemory@@SAXPAVTHdlObj@@K@Z)
0043e690 0000002f .text             UMemory(W).obj(?Lock@UMemory@@SAPAEPAVTHdlObj@@@Z)
0043e6c0 00000062 .text             UMemory(W).obj(?Unlock@UMemory@@SAXPAVTHdlObj@@@Z)
0043e730 00000031 .text             UMemory(W).obj(?SetDiscardable@UMemory@@SAXPAVTHdlObj@@@Z)
0043e770 00000042 .text             UMemory(W).obj(?ClearDiscardable@UMemory@@SA_NPAVTHdlObj@@@Z)
0043e7c0 000000bc .text             UMemory(W).obj(?Set@UMemory@@SAXPAVTHdlObj@@PBXK@Z)
0043e880 000000ef .text             UMemory(W).obj(?Append@UMemory@@SAXPAVTHdlObj@@PBXK@Z)
0043e970 00000124 .text             UMemory(W).obj(?Insert@UMemory@@SAKPAVTHdlObj@@KPBXK@Z)
0043eaa0 00000125 .text             UMemory(W).obj(?Remove@UMemory@@SAKPAVTHdlObj@@KK@Z)
0043ebd0 000001fc .text             UMemory(W).obj(?Replace@UMemory@@SAKPAVTHdlObj@@KKPBXK@Z)
0043edd0 00000085 .text             UMemory(W).obj(?Read@UMemory@@SAKPAVTHdlObj@@KPAXK@Z)
0043ee60 0000005d .text             UMemory(W).obj(?ReadLong@UMemory@@SAKPAVTHdlObj@@K@Z)
0043eec0 00000061 .text             UMemory(W).obj(?WriteLong@UMemory@@SAXPAVTHdlObj@@KK@Z)
0043ef30 0000005e .text             UMemory(W).obj(?ReadWord@UMemory@@SAGPAVTHdlObj@@K@Z)
0043ef90 00000019 .text             UMemory(W).obj(?Copy@UMemory@@SAKPAXPBXK@Z)
0043efb0 00000073 .text             UMemory(W).obj(?_HdlToWinHdl@@YAPAXPAVTHdlObj@@PAK@Z)
0043f030 000000e2 .text             MsgBox.obj(?MsgBox@@YAGJZZ)
0043f120 000000bd .text             MsgBox.obj(?MsgBox@@YAGABUSMsgBox@@@Z)
0043f1e0 00000063 .text             MsgBox.obj(?TrackMsgBoxWin@@YAGPAVCWindow@@@Z)
0043f250 000004c7 .text             MsgBox.obj(?MakeMsgBoxWin@@YAPAVCWindow@@JPAJPAX@Z)
0043f720 000007f1 .text             MsgBox.obj(?MakeMsgBoxWin@@YAPAVCWindow@@ABUSMsgBox@@@Z)
0043ff20 00000061 .text             MsgBox.obj(?DisplayMessage@@YAXPBE0FF_N@Z)
0043ff90 00000087 .text             UDateTime(W).obj(?Unflatten@SDateTimeStamp@@QAEKPBX@Z)
00440020 00000019 .text             UDateTime(W).obj(?GetSeconds@UDateTime@@SAKXZ)
00440040 0000000d .text             UDateTime(W).obj(?GetMilliseconds@UDateTime@@SAKXZ)
00440050 00000080 .text             UDateTime(W).obj(?GetCalendarDate@UDateTime@@SAXKAAUSCalendarDate@@@Z)
004400d0 0000003a .text             UDateTime(W).obj(?GetDateTimeStamp@UDateTime@@SAXAAUSDateTimeStamp@@@Z)
00440110 000001cc .text             UDateTime(W).obj(?DateToText@UDateTime@@SAKABUSCalendarDate@@PAXKK@Z)
004402e0 0000003d .text             UDateTime(W).obj(?DateToText@UDateTime@@SAKPAXKK@Z)
00440320 000000ea .text             UDateTime(W).obj(?_DTSSysTimeToDTS@@YAXU_SYSTEMTIME@@AAUSDateTimeStamp@@@Z)
00440410 0000000b .text             UDebug(W).obj(?Break@UDebug@@SAXXZ)
00440420 00000155 .text             UDebug(W).obj(?LogToDebugFile@UDebug@@SAXPBDZZ)
00440580 00000086 .text             UDebug(W).obj(?DebugBreak@@YAXPBDZZ)
00440610 00000184 .text             UEditText.obj(?New@UEditText@@SAPAUSEditText@@ABVSRect@@G@Z)
004407a0 0000004a .text             UEditText.obj(?Dispose@UEditText@@SAXPAUSEditText@@@Z)
004407f0 0000014e .text             UEditText.obj(?SetBounds@UEditText@@SAXPAUSEditText@@ABVSRect@@@Z)
00440940 00000062 .text             UEditText.obj(?GetFullHeight@UEditText@@SAKPAUSEditText@@@Z)
004409b0 000000b7 .text             UEditText.obj(?SetFont@UEditText@@SAXPAUSEditText@@PBE1KK@Z)
00440a70 00000080 .text             UEditText.obj(?SetSelect@UEditText@@SAXPAUSEditText@@KK@Z)
00440af0 00000037 .text             UEditText.obj(?GetSelect@UEditText@@SAXPAUSEditText@@AAK1@Z)
00440b30 000000e7 .text             UEditText.obj(?SetActive@UEditText@@SA_NPAUSEditText@@_N@Z)
00440c20 0000002a .text             UEditText.obj(?SetRef@UEditText@@SAXPAUSEditText@@PAX@Z)
00440c50 00000027 .text             UEditText.obj(?GetRef@UEditText@@SAPAXPAUSEditText@@@Z)
00440c80 00000078 .text             UEditText.obj(?SetEditable@UEditText@@SAXPAUSEditText@@_N@Z)
00440d00 0000002f .text             UEditText.obj(?IsEditable@UEditText@@SA_NPAUSEditText@@@Z)
00440d30 00000140 .text             UEditText.obj(?SetText@UEditText@@SAXPAUSEditText@@PBXK@Z)
00440e70 0000002d .text             UEditText.obj(?GetText@UEditText@@SAKPAUSEditText@@PAXK@Z)
00440ea0 000000d2 .text             UEditText.obj(?GetText@UEditText@@SAKPAUSEditText@@KKPAXK@Z)
00440f80 0000002a .text             UEditText.obj(?GetTextHandle@UEditText@@SAPAVTHdlObj@@PAUSEditText@@@Z)
00440fb0 000001bc .text             UEditText.obj(?InsertText@UEditText@@SAXPAUSEditText@@KPBXK_N@Z)
00441170 000001ed .text             UEditText.obj(?ReplaceTextA@UEditText@@SAXPAUSEditText@@KKPBXK_N@Z)
00441360 000001df .text             UEditText.obj(?DeleteText@UEditText@@SAXPAUSEditText@@KK_N@Z)
00441540 00000105 .text             UEditText.obj(?MoveText@UEditText@@SAKPAUSEditText@@KKK_N@Z)
00441650 0000003d .text             UEditText.obj(?IsEmpty@UEditText@@SA_NPAUSEditText@@@Z)
00441690 0000002e .text             UEditText.obj(?ClipCut@UEditText@@SAXPAUSEditText@@@Z)
004416c0 000000c8 .text             UEditText.obj(?ClipCopy@UEditText@@SAXPAUSEditText@@@Z)
00441790 000000d1 .text             UEditText.obj(?ClipPaste@UEditText@@SAXPAUSEditText@@@Z)
00441870 0000002a .text             UEditText.obj(?SetDrawHandler@UEditText@@SAXPAUSEditText@@P6AX0ABVSRect@@@Z@Z)
004418a0 00000775 .text             UEditText.obj(?Draw@UEditText@@SAXPAUSEditText@@PAVTImageObj@@ABVSRect@@G@Z)
00442020 0000002a .text             UEditText.obj(?SetScreenDeltaHandler@UEditText@@SAXPAUSEditText@@P6AX0AAJ1@Z@Z)
00442050 0000029e .text             UEditText.obj(?MouseDown@UEditText@@SAXPAUSEditText@@ABUSMouseMsgData@@@Z)
004422f0 00000098 .text             UEditText.obj(?MouseUp@UEditText@@SAXPAUSEditText@@ABUSMouseMsgData@@@Z)
00442390 0000009f .text             UEditText.obj(?MouseEnter@UEditText@@SAXPAUSEditText@@ABUSMouseMsgData@@@Z)
00442430 0000004c .text             UEditText.obj(?MouseLeave@UEditText@@SAXPAUSEditText@@ABUSMouseMsgData@@@Z)
00442480 00000199 .text             UEditText.obj(?MouseMove@UEditText@@SAXPAUSEditText@@ABUSMouseMsgData@@@Z)
00442620 000005e4 .text             UEditText.obj(?KeyChar@UEditText@@SA_NPAUSEditText@@ABUSKeyMsgData@@@Z)
00442c10 0000004d .text             UEditText.obj(?DragEnter@UEditText@@SAXPAUSEditText@@ABUSDragMsgData@@@Z)
00442c60 000000a5 .text             UEditText.obj(?DragLeave@UEditText@@SAXPAUSEditText@@ABUSDragMsgData@@@Z)
00442d10 0000015e .text             UEditText.obj(?DragMove@UEditText@@SAXPAUSEditText@@ABUSDragMsgData@@@Z)
00442e70 00000250 .text             UEditText.obj(?Drop@UEditText@@SA_NPAUSEditText@@ABUSDragMsgData@@@Z)
004430c0 00000031 .text             UEditText.obj(?IsSelfDrag@UEditText@@SA_NPAUSEditText@@PAVTDragObj@@@Z)
00443100 000000e0 .text             UEditText.obj(?BlinkCaret@UEditText@@SAXPAUSEditText@@@Z)
004431e0 00000081 .text             UEditText.obj(?GetCaretRect@UEditText@@SA_NPAUSEditText@@AAVSRect@@@Z)
00443270 0000022e .text             UEditText.obj(?LowCalcLines@UEditText@@SAXPAVTImageObj@@PAVTHdlObj@@1KAAK@Z)
004434a0 000003d5 .text             UEditText.obj(?LowInsert@UEditText@@SA_NPAVTImageObj@@PAVTHdlObj@@1KAAKKPBXKPAK4@Z)
00443880 000005e3 .text             UEditText.obj(?LowDelete@UEditText@@SA_NPAVTImageObj@@PAVTHdlObj@@1KAAKKKPAK3@Z)
00443e70 00000662 .text             UEditText.obj(?LowReplace@UEditText@@SA_NPAVTImageObj@@PAVTHdlObj@@1KAAKKKPBXKPAK4@Z)
004444e0 000000e1 .text             UEditText.obj(?_ETCalcLineStarts@@YAXPAUSEditText@@@Z)
004445d0 00000038 .text             UEditText.obj(?_ETCalcLineHeight@@YAXPAUSEditText@@@Z)
00444610 00000043 .text             UEditText.obj(?_ETCalcSelectRgn@@YAXPAUSEditText@@@Z)
00444660 000000b6 .text             UEditText.obj(?_ETCalcCaretRect@@YAXPAUSEditText@@@Z)
00444720 000000a7 .text             UEditText.obj(?_ETGetLineHoriz@@YAJPAVTImageObj@@PBXKABVSRect@@F@Z)
004447d0 000000c6 .text             UEditText.obj(?_ETOffsetToLine@@YAKPAUSEditText@@K@Z)
004448a0 0000017b .text             UEditText.obj(?_ETOffsetToPoint@@YAXPAUSEditText@@KAAVSPoint@@@Z)
00444a20 00000077 .text             UEditText.obj(?_ETPointToLine@@YAKPAUSEditText@@ABVSPoint@@@Z)
00444aa0 00000159 .text             UEditText.obj(?_ETPointToOffset@@YAKPAUSEditText@@ABVSPoint@@@Z)
00444c00 000000a3 .text             UEditText.obj(?_ETVerifySelect@@YAXPAUSEditText@@@Z)
00444cb0 00000181 .text             UEditText.obj(?_ETGetRangeRgn@@YAXPAUSEditText@@KKPAVTRegionObj@@@Z)
00444e40 00000172 .text             UEditText.obj(?_ETGetRangeRect@@YAXPAUSEditText@@KKAAVSRect@@@Z)
00444fc0 0000003d .text             UEditText.obj(?_ETReorder@@YAXAAK0@Z)
00445000 0000018e .text             UEditText.obj(?_ETSetDragInsertPos@@YAXPAUSEditText@@K@Z)
00445190 00000300 .text             UEditText.obj(?_ETSetSelect@@YA_NPAUSEditText@@KKPAVSRect@@@Z)
00445490 00000059 .text             UEditText.obj(?_ETRedrawAll@@YAXPAUSEditText@@@Z)
004454f0 0000005c .text             UEditText.obj(?_ETFindWord@@YAXPAUSEditText@@KAAK1@Z)
00445550 00000097 .text             UEditText.obj(?_ETFindLine@@YAXPAUSEditText@@KAAK1@Z)
004455f0 000000ce .text             UEditText.obj(?_ETSetCaretBlinkVis@@YAXPAUSEditText@@_N@Z)
004456c0 000001fb .text             UEditText.obj(?_ETDrag@@YAXPAUSEditText@@ABVSPoint@@@Z)
004458c0 0000002a .text             UEditText.obj(??1?$scopekiller@VTDragObj@@@@QAE@XZ)
004458f0 0000002f .text             UFieldData.obj(?New@UFieldData@@SAPAVTFieldDataObj@@PAVTHdlObj@@K@Z)
00445920 00000037 .text             UFieldData.obj(?Dispose@UFieldData@@SAXPAVTFieldDataObj@@@Z)
00445960 00000078 .text             UFieldData.obj(?GetFieldID@UFieldData@@SAGPAVTFieldDataObj@@G@Z)
004459e0 00000068 .text             UFieldData.obj(?GetFieldIndex@UFieldData@@SAGPAVTFieldDataObj@@G@Z)
00445a50 00000033 .text             UFieldData.obj(?GetFieldCount@UFieldData@@SAGPAVTFieldDataObj@@@Z)
00445a90 000000ff .text             UFieldData.obj(?ReadFieldByIndex@UFieldData@@SAKPAVTFieldDataObj@@GKPAXK@Z)
00445b90 0000001f .text             UFieldData.obj(?GetFieldByIndex@UFieldData@@SAKPAVTFieldDataObj@@GPAXK@Z)
00445bb0 000000ce .text             UFieldData.obj(?ReadField@UFieldData@@SAKPAVTFieldDataObj@@GKPAXK@Z)
00445c80 0000005b .text             UFieldData.obj(?GetFieldSize@UFieldData@@SAKPAVTFieldDataObj@@G@Z)
00445ce0 00000074 .text             UFieldData.obj(?DeleteAllFields@UFieldData@@SAXPAVTFieldDataObj@@@Z)
00445d60 00000239 .text             UFieldData.obj(?AddField@UFieldData@@SAXPAVTFieldDataObj@@GPBXK@Z)
00445fa0 0000008b .text             UFieldData.obj(?AddInteger@UFieldData@@SAXPAVTFieldDataObj@@GJ@Z)
00446030 00000029 .text             UFieldData.obj(?AddPString@UFieldData@@SAXPAVTFieldDataObj@@GPBE@Z)
00446060 0000004d .text             UFieldData.obj(?AddCString@UFieldData@@SAXPAVTFieldDataObj@@GPBD@Z)
004460b0 0000001f .text             UFieldData.obj(?GetField@UFieldData@@SAKPAVTFieldDataObj@@GPAXK@Z)
004460d0 0000009a .text             UFieldData.obj(?GetInteger@UFieldData@@SAJPAVTFieldDataObj@@G@Z)
00446170 0000009a .text             UFieldData.obj(?GetIntegerByIndex@UFieldData@@SAJPAVTFieldDataObj@@G@Z)
00446210 0000002a .text             UFieldData.obj(?GetPString@UFieldData@@SAXPAVTFieldDataObj@@GPAEK@Z)
00446240 00000028 .text             UFieldData.obj(?GetCString@UFieldData@@SAXPAVTFieldDataObj@@GPADK@Z)
00446270 00000046 .text             UFieldData.obj(?GetDataHandle@UFieldData@@SAPAVTHdlObj@@PAVTFieldDataObj@@@Z)
004462c0 00000082 .text             UFieldData.obj(?SetDataHandle@UFieldData@@SAXPAVTFieldDataObj@@PAVTHdlObj@@K@Z)
00446350 0000026c .text             UFieldData.obj(?_FDBuildTables@@YAXPAUSFieldData@@@Z)
004465c0 000001bf .text             UFieldData.obj(?_FDSortLookupTable@@YAXPAUSFieldData@@@Z)
00446780 00000152 .text             UFieldData.obj(?_FDSearchLookupTable@@YA_NPAUSFieldData@@GAAK@Z)
004468e0 0000008f .text             UFieldData.obj(?_FDGetFieldOffset@@YA_NPAVTFieldDataObj@@GAAK@Z)
00446970 000000e6 .text             CTextView.obj(??0CTextView@@QAE@PAVCViewHandler@@ABVSRect@@G@Z)
00446a60 00000040 .text             CTextView.obj(??1CTextView@@UAE@XZ)
00446aa0 00000045 .text             CTextView.obj(?SetFont@CTextView@@QAEXPBE0KK@Z)
00446af0 0000003f .text             CTextView.obj(?SetText@CTextView@@QAEXPBXK@Z)
00446b30 00000047 .text             CTextView.obj(?InsertText@CTextView@@QAEXKPBXK_N@Z)
00446b80 00000044 .text             CTextView.obj(?DeleteText@CTextView@@QAEXKK_N@Z)
00446bd0 0000002e .text             CTextView.obj(?Draw@CTextView@@UAEXPAVTImageObj@@ABVSRect@@K@Z)
00446c00 00000030 .text             CTextView.obj(?MouseDown@CTextView@@UAEXABUSMouseMsgData@@@Z)
00446c30 00000030 .text             CTextView.obj(?MouseUp@CTextView@@UAEXABUSMouseMsgData@@@Z)
00446c60 00000030 .text             CTextView.obj(?MouseEnter@CTextView@@UAEXABUSMouseMsgData@@@Z)
00446c90 00000030 .text             CTextView.obj(?MouseLeave@CTextView@@UAEXABUSMouseMsgData@@@Z)
00446cc0 00000030 .text             CTextView.obj(?MouseMove@CTextView@@UAEXABUSMouseMsgData@@@Z)
00446cf0 00000165 .text             CTextView.obj(?KeyDown@CTextView@@UAE_NABUSKeyMsgData@@@Z)
00446e60 00000015 .text             CTextView.obj(?KeyUp@CTextView@@UAEXABUSKeyMsgData@@@Z)
00446e80 00000022 .text             CTextView.obj(?KeyRepeat@CTextView@@UAE_NABUSKeyMsgData@@@Z)
00446eb0 0000003c .text             CTextView.obj(?SetBounds@CTextView@@UAE_NABVSRect@@@Z)
00446ef0 000000a1 .text             CTextView.obj(?UpdateActive@CTextView@@IAEXXZ)
00446fa0 00000046 .text             CTextView.obj(?ChangeState@CTextView@@UAE_NG@Z)
00446ff0 0000001f .text             CTextView.obj(?SetTabSelectText@CTextView@@QAEX_N@Z)
00447010 00000052 .text             CTextView.obj(?TabFocusNext@CTextView@@UAE_NXZ)
00447070 00000052 .text             CTextView.obj(?TabFocusPrev@CTextView@@UAE_NXZ)
004470d0 00000061 .text             CTextView.obj(?SetEnable@CTextView@@UAE_N_N@Z)
00447140 00000030 .text             CTextView.obj(?DragEnter@CTextView@@UAEXABUSDragMsgData@@@Z)
00447170 00000030 .text             CTextView.obj(?DragMove@CTextView@@UAEXABUSDragMsgData@@@Z)
004471a0 00000030 .text             CTextView.obj(?DragLeave@CTextView@@UAEXABUSDragMsgData@@@Z)
004471d0 0000008a .text             CTextView.obj(?Drop@CTextView@@UAE_NABUSDragMsgData@@@Z)
00447260 00000033 .text             CTextView.obj(?TextDrawHandler@CTextView@@KAXPAUSEditText@@ABVSRect@@@Z)
004472a0 0000002a .text             CTextView.obj(?TextScreenDeltaHandler@CTextView@@KAXPAUSEditText@@AAJ1@Z)
004472d0 00000021 .text             CTextView.obj(?Timer@CTextView@@UAEXPAVTTimerObj@@@Z)
00447300 00000027 .text             CTextView.obj(?IsSelfDrag@CTextView@@UBE_NPAVTDragObj@@@Z)
00447330 00000021 .text             CTextView.obj(?GetFullHeight@CTextView@@UBEKXZ)
00447360 00000029 .text             CTextView.obj(?SetEnterKeyAction@CTextView@@QAEXGG@Z)
00447390 00000118 .text             CTextView.obj(?MakeTextBoxView@@YAPAVCScrollerView@@PAVCViewHandler@@ABVSRect@@GPAPAVCTextView@@@Z)
004474b0 00000047 .text             CTextView.obj(??_ECScrollerView@@UAE@I@Z)
00447500 00000047 .text             CTextView.obj(??_ECTextView@@UAE@I@Z)
00447550 00000102 .text             CPasswordTextView.obj(??0CPasswordTextView@@QAE@PAVCViewHandler@@ABVSRect@@@Z)
00447660 0000004c .text             CPasswordTextView.obj(??1CPasswordTextView@@UAE@XZ)
004476b0 000000a3 .text             CPasswordTextView.obj(?SetText@CPasswordTextView@@QAEXPBXK@Z)
00447760 00000025 .text             CPasswordTextView.obj(?IsEmpty@CPasswordTextView@@QBE_NXZ)
00447790 0000002e .text             CPasswordTextView.obj(?Draw@CPasswordTextView@@UAEXPAVTImageObj@@ABVSRect@@K@Z)
004477c0 00000039 .text             CPasswordTextView.obj(?MouseDown@CPasswordTextView@@UAEXABUSMouseMsgData@@@Z)
00447800 00000039 .text             CPasswordTextView.obj(?MouseUp@CPasswordTextView@@UAEXABUSMouseMsgData@@@Z)
00447840 00000039 .text             CPasswordTextView.obj(?MouseEnter@CPasswordTextView@@UAEXABUSMouseMsgData@@@Z)
00447880 00000039 .text             CPasswordTextView.obj(?MouseLeave@CPasswordTextView@@UAEXABUSMouseMsgData@@@Z)
004478c0 00000039 .text             CPasswordTextView.obj(?MouseMove@CPasswordTextView@@UAEXABUSMouseMsgData@@@Z)
00447900 000002ae .text             CPasswordTextView.obj(?KeyDown@CPasswordTextView@@UAE_NABUSKeyMsgData@@@Z)
00447bb0 00000015 .text             CPasswordTextView.obj(?KeyUp@CPasswordTextView@@UAEXABUSKeyMsgData@@@Z)
00447bd0 00000055 .text             CPasswordTextView.obj(?KeyRepeat@CPasswordTextView@@UAE_NABUSKeyMsgData@@@Z)
00447c30 0000003c .text             CPasswordTextView.obj(?SetBounds@CPasswordTextView@@UAE_NABVSRect@@@Z)
00447c70 00000091 .text             CPasswordTextView.obj(?UpdateActive@CPasswordTextView@@IAEXXZ)
00447d10 0000006a .text             CPasswordTextView.obj(?ChangeState@CPasswordTextView@@UAE_NG@Z)
00447d80 0000005b .text             CPasswordTextView.obj(?TabFocusNext@CPasswordTextView@@UAE_NXZ)
00447de0 0000005b .text             CPasswordTextView.obj(?TabFocusPrev@CPasswordTextView@@UAE_NXZ)
00447e40 00000061 .text             CPasswordTextView.obj(?SetEnable@CPasswordTextView@@UAE_N_N@Z)
00447eb0 00000033 .text             CPasswordTextView.obj(?TextDrawHandler@CPasswordTextView@@KAXPAUSEditText@@ABVSRect@@@Z)
00447ef0 00000021 .text             CPasswordTextView.obj(?Timer@CPasswordTextView@@UAEXPAVTTimerObj@@@Z)
00447f20 0000010f .text             CPasswordTextView.obj(?MakePasswordBoxView@@YAPAVCScrollerView@@PAVCViewHandler@@ABVSRect@@GPAPAVCPasswordTextView@@@Z)
00448030 00000047 .text             CPasswordTextView.obj(??_ECPasswordTextView@@UAE@I@Z)
00448080 00000075 .text             ExceptionX86.obj(__RegisterExceptionTables)
00448100 00000205 .text             ExceptionX86.obj(?ExX86_FindExceptionRecord@@YAXPADPAUExceptionInfo@@@Z)
00448310 00000023 .text             ExceptionX86.obj(?ExX86_CurrentAction@@YAGPBUActionIterator@@@Z)
00448340 00000178 .text             ExceptionX86.obj(?ExX86_NextAction@@YAGPAUActionIterator@@@Z)
004484c0 00000131 .text             ExceptionX86.obj(?ExX86_PopStackFrame@@YAPADPAUThrowContext@@PAUExceptionInfo@@@Z)
00448600 000000bb .text             ExceptionX86.obj(?ExX86_GetLocalAddr@@YAPADPAUThrowContext@@J@Z)
004486c0 00000045 .text             ExceptionX86.obj(?ExX86_GetOuterLocalAddr@@YAPADPAUThrowContext@@PAUActionIterator@@J@Z)
00448710 00000060 .text             ExceptionX86.obj(?ExX86_GetValue@@YAJPAUThrowContext@@JF@Z)
00448770 0000002c .text             ExceptionX86.obj(?ExX86_DestroyLocal@@YAXPAUThrowContext@@PBUex_destroylocal@@@Z)
004487a0 00000044 .text             ExceptionX86.obj(?ExX86_DestroyLocalCond@@YAXPAUThrowContext@@PBUex_destroylocalcond@@@Z)
004487f0 0000002f .text             ExceptionX86.obj(?ExX86_DestroyLocalPointer@@YAXPAUThrowContext@@PBUex_destroylocalpointer@@@Z)
00448820 0000006b .text             ExceptionX86.obj(?ExX86_DestroyLocalArray@@YAXPAUThrowContext@@PBUex_destroylocalarray@@@Z)
00448890 00000095 .text             ExceptionX86.obj(?ExX86_DestroyPartialArray@@YAXPAUThrowContext@@PBUex_destroypartialarray@@@Z)
00448930 00000035 .text             ExceptionX86.obj(?ExX86_DestroyMember@@YAXPAUThrowContext@@PBUex_destroymember@@H@Z)
00448970 0000004d .text             ExceptionX86.obj(?ExX86_DestroyMemberCond@@YAXPAUThrowContext@@PBUex_destroymembercond@@@Z)
004489c0 00000074 .text             ExceptionX86.obj(?ExX86_DestroyMemberArray@@YAXPAUThrowContext@@PBUex_destroymemberarray@@@Z)
00448a40 00000025 .text             ExceptionX86.obj(?ExX86_DeletePointer@@YAXPAUThrowContext@@PBUex_deletepointer@@@Z)
00448a70 0000003d .text             ExceptionX86.obj(?ExX86_DeletePointerCond@@YAXPAUThrowContext@@PBUex_deletepointercond@@@Z)
00448ab0 00000274 .text             ExceptionX86.obj(?ExX86_UnwindStack@@YAXPAUThrowContext@@PAUExceptionInfo@@PAX@Z)
00448d30 00000055 .text             ExceptionX86.obj(?ExX86_IsInSpecification@@YAHPADPAUex_specification@@@Z)
00448d90 00000097 .text             ExceptionX86.obj(___unexpected)
00448e30 00000041 .text             ExceptionX86.obj(??1bad_exception@std@@UAE@XZ)
00448e80 0000001f .text             ExceptionX86.obj(??1exception@std@@UAE@XZ)
00448ea0 00000027 .text             ExceptionX86.obj(??0bad_exception@std@@QAE@XZ)
00448ed0 0000001f .text             ExceptionX86.obj(??0exception@std@@QAE@XZ)
00448ef0 000000a9 .text             ExceptionX86.obj(?ExX86_HandleUnexpected@@YAXPAUThrowContext@@PAUExceptionInfo@@PAUex_specification@@@Z)
00448fa0 00000275 .text             ExceptionX86.obj(?ExX86_ThrowHandler@@YAXPAUThrowContext@@@Z)
00449220 00000039 .text             ExceptionX86.obj(??4ExceptionInfo@@QAEAAU0@ABU0@@Z)
00449260 0000005b .text             ExceptionX86.obj(___throw)
004492c0 00000013 .text             ExceptionX86.obj(?ignore@@YAXXZ)
004492e0 000000f2 .text             ExceptionX86.obj(_ExX86_FindCatcher)
004493e0 00000058 .text             ExceptionX86.obj(??_Eexception@std@@UAE@I@Z)
00449440 00000018 .text             ExceptionX86.obj(?what@exception@std@@UBEPBDXZ)
00449460 00000058 .text             ExceptionX86.obj(??_Ebad_exception@std@@UAE@I@Z)
004494c0 00000018 .text             ExceptionX86.obj(?what@bad_exception@std@@UBEPBDXZ)
004494e0 0000000f .text             ExceptionX86.obj
004494f0 000000bb .text             UMath.obj(?GetRandom@UMath@@SAJJJ@Z)
004495b0 0000002d .text             CLinkedList.obj(?AddFirst@CLinkedList@@QAEXPAVCLink@@@Z)
004495e0 0000005a .text             CLinkedList.obj(?AddLast@CLinkedList@@QAEXPAVCLink@@@Z)
00449640 0000003b .text             CLinkedList.obj(?RemoveFirst@CLinkedList@@QAEPAVCLink@@XZ)
00449680 00000041 .text             CLinkedList.obj(?IsInList@CLinkedList@@QBE_NPBVCLink@@@Z)
004496d0 00000077 .text             CLinkedList.obj(?RemoveLink@CLinkedList@@QAE_NPAVCLink@@@Z)
00449750 00000026 .text             UGUID(W).obj(?Generate@UGUID@@SAXAAUSGUID@@@Z)
00449780 00000017 .text             UGUID(W).obj(?IsEqual@UGUID@@SA_NABUSGUID@@0@Z)
004497a0 0000008b .text             UGUID(W).obj(?Flatten@UGUID@@SAKABUSGUID@@PAX@Z)
00449830 00000086 .text             UGUID(W).obj(?Unflatten@UGUID@@SAXAAUSGUID@@PBX@Z)
004498c0 0000021e .text             CView.obj(??0CView@@QAE@PAVCViewHandler@@ABVSRect@@@Z)
00449ae0 0000009c .text             CView.obj(??1CView@@UAE@XZ)
00449b80 00000093 .text             CView.obj(?SetHandler@CView@@UAEXPAVCViewHandler@@@Z)
00449c20 00000026 .text             CView.obj(?GetRegion@CView@@UBEXPAVTRegionObj@@@Z)
00449c50 000001bf .text             CView.obj(?SetBounds@CView@@UAE_NABVSRect@@@Z)
00449e10 0000010e .text             CView.obj(?SetVisible@CView@@UAE_N_N@Z)
00449f20 00000059 .text             CView.obj(?SetEnable@CView@@UAE_N_N@Z)
00449f80 00000036 .text             CView.obj(?SetCanFocus@CView@@UAEX_N@Z)
00449fc0 00000076 .text             CView.obj(?ChangeState@CView@@UAE_NG@Z)
0044a040 00000080 .text             CView.obj(?TabFocusNext@CView@@UAE_NXZ)
0044a0c0 00000080 .text             CView.obj(?TabFocusPrev@CView@@UAE_NXZ)
0044a140 00000015 .text             CView.obj(?Draw@CView@@UAEXPAVTImageObj@@ABVSRect@@K@Z)
0044a160 000000f9 .text             CView.obj(?Hit@CView@@QAEXKKKPBXK@Z)
0044a260 0000006c .text             CView.obj(?MouseDown@CView@@UAEXABUSMouseMsgData@@@Z)
0044a2d0 0000008e .text             CView.obj(?MouseUp@CView@@UAEXABUSMouseMsgData@@@Z)
0044a360 000000a1 .text             CView.obj(?MouseEnter@CView@@UAEXABUSMouseMsgData@@@Z)
0044a410 000000ae .text             CView.obj(?MouseMove@CView@@UAEXABUSMouseMsgData@@@Z)
0044a4c0 0000006e .text             CView.obj(?MouseLeave@CView@@UAEXABUSMouseMsgData@@@Z)
0044a530 00000046 .text             CView.obj(?CaptureMouse@CView@@QAEXXZ)
0044a580 00000043 .text             CView.obj(?ReleaseMouse@CView@@QAEXXZ)
0044a5d0 00000036 .text             CView.obj(?MouseCaptureReleased@CView@@UAEXXZ)
0044a610 00000017 .text             CView.obj(?KeyDown@CView@@UAE_NABUSKeyMsgData@@@Z)
0044a630 00000015 .text             CView.obj(?KeyUp@CView@@UAEXABUSKeyMsgData@@@Z)
0044a650 00000017 .text             CView.obj(?KeyRepeat@CView@@UAE_NABUSKeyMsgData@@@Z)
0044a670 00000017 .text             CView.obj(?IsSelfDrag@CView@@UBE_NPAVTDragObj@@@Z)
0044a690 00000052 .text             CView.obj(?DragEnter@CView@@UAEXABUSDragMsgData@@@Z)
0044a6f0 00000025 .text             CView.obj(?DragMove@CView@@UAEXABUSDragMsgData@@@Z)
0044a720 00000043 .text             CView.obj(?DragLeave@CView@@UAEXABUSDragMsgData@@@Z)
0044a770 00000017 .text             CView.obj(?Drop@CView@@UAE_NABUSDragMsgData@@@Z)
0044a790 00000013 .text             CView.obj(?UpdateQuickTime@CView@@UAEXXZ)
0044a7b0 00000015 .text             CView.obj(?SendToQuickTime@CView@@UAEXABUEventRecord@@@Z)
0044a7d0 00000019 .text             CView.obj(?TimerHandler@CView@@KAXPAX0KPBXK@Z)
0044a7f0 00000015 .text             CView.obj(?Timer@CView@@UAEXPAVTTimerObj@@@Z)
0044a810 0000003c .text             CView.obj(?GetFullSize@CView@@UBEXAAK0@Z)
0044a850 0000001f .text             CView.obj(?GetFullHeight@CView@@UBEKXZ)
0044a870 0000001f .text             CView.obj(?GetFullWidth@CView@@UBEKXZ)
0044a890 0000006c .text             CView.obj(?SetFullSize@CView@@QAEXXZ)
0044a900 0000005f .text             CView.obj(?SetFullHeight@CView@@QAEXXZ)
0044a960 0000005f .text             CView.obj(?SetFullWidth@CView@@QAEXXZ)
0044a9c0 000000ac .text             CView.obj(?Refresh@CView@@MAEXABVSRect@@@Z)
0044aa70 00000050 .text             CView.obj(?GetScreenDelta@CView@@QBEXAAJ0@Z)
0044aac0 0000007c .text             CView.obj(?IsPointWithin@CView@@UBE_NABVSPoint@@@Z)
0044ab40 00000038 .text             CView.obj(?SetHasChanged@CView@@UAEX_N@Z)
0044ab80 0000003a .text             CView.obj(?MakeRectVisible@CView@@QAEXABVSRect@@G@Z)
0044abc0 00000086 .text             CView.obj(?GetVisibleRect@CView@@QBEXAAVSRect@@@Z)
0044ac50 00000039 .text             CView.obj(?GetParentWindow@CView@@QAEPAVCWindow@@XZ)
0044ac90 00000015 .text             CView.obj(?HandleInstall@CViewHandler@@UAEXPAVCView@@@Z)
0044acb0 00000015 .text             CView.obj(?HandleRemove@CViewHandler@@UAEXPAVCView@@@Z)
0044acd0 00000015 .text             CView.obj(?HandleSetBounds@CViewHandler@@UAEXPAVCView@@ABVSRect@@@Z)
0044acf0 00000015 .text             CView.obj(?HandleRefresh@CViewHandler@@UAEXPAVCView@@ABVSRect@@@Z)
0044ad10 00000015 .text             CView.obj(?HandleSetVisible@CViewHandler@@UAEXPAVCView@@_N@Z)
0044ad30 00000015 .text             CView.obj(?HandleHit@CViewHandler@@UAEXPAVCView@@ABUSHitMsgData@@@Z)
0044ad50 00000015 .text             CView.obj(?HandleMakeRectVisible@CViewHandler@@UAEXABVSRect@@G@Z)
0044ad70 00000015 .text             CView.obj(?HandleCaptureMouse@CViewHandler@@UAEXPAVCView@@@Z)
0044ad90 00000015 .text             CView.obj(?HandleReleaseMouse@CViewHandler@@UAEXPAVCView@@@Z)
0044adb0 00000018 .text             CView.obj(?HandleGetCaptureMouseView@CViewHandler@@UAEPAVCView@@XZ)
0044add0 00000018 .text             CView.obj(?HandleGetParentWindow@CViewHandler@@UAEPAVCWindow@@XZ)
0044adf0 00000028 .text             CView.obj(?HandleGetScreenDelta@CViewHandler@@UAEXPAVCView@@AAJ1@Z)
0044ae20 00000078 .text             CView.obj(?HandleGetVisibleRect@CViewHandler@@UAEXPAVCView@@AAVSRect@@@Z)
0044aea0 00000028 .text             CView.obj(?HandleGetOrigin@CViewHandler@@UAEXAAVSPoint@@@Z)
0044aed0 00000047 .text             CView.obj(??_ECView@@UAE@I@Z)
0044af20 000001d2 .text             CScrollerView.obj(??0CScrollerView@@QAE@PAVCViewHandler@@ABVSRect@@@Z)
0044b100 000001d4 .text             CScrollerView.obj(??0CScrollerView@@QAE@PAVCViewHandler@@ABVSRect@@KG@Z)
0044b2e0 0000004c .text             CScrollerView.obj(??1CScrollerView@@UAE@XZ)
0044b330 00000086 .text             CScrollerView.obj(?SetOptions@CScrollerView@@UAEXG@Z)
0044b3c0 00000069 .text             CScrollerView.obj(?SetCanFocus@CScrollerView@@UAEX_N@Z)
0044b430 00000064 .text             CScrollerView.obj(?SetMargin@CScrollerView@@UAEXG@Z)
0044b4a0 00000027 .text             CScrollerView.obj(?GetVisibleContentHeight@CScrollerView@@QBEJXZ)
0044b4d0 00000027 .text             CScrollerView.obj(?GetVisibleContentWidth@CScrollerView@@QBEJXZ)
0044b500 000001bb .text             CScrollerView.obj(?SetScroll@CScrollerView@@UAEXKK@Z)
0044b6c0 00000033 .text             CScrollerView.obj(?GetScroll@CScrollerView@@QBEXAAK0@Z)
0044b700 0000006d .text             CScrollerView.obj(?Scroll@CScrollerView@@QAEXJJ@Z)
0044b770 00000044 .text             CScrollerView.obj(?ScrollToTop@CScrollerView@@QAEXXZ)
0044b7c0 00000044 .text             CScrollerView.obj(?ScrollToLeft@CScrollerView@@QAEXXZ)
0044b810 00000044 .text             CScrollerView.obj(?ScrollToBottom@CScrollerView@@QAEXXZ)
0044b860 00000044 .text             CScrollerView.obj(?ScrollToRight@CScrollerView@@QAEXXZ)
0044b8b0 00000145 .text             CScrollerView.obj(?ScrollToRect@CScrollerView@@QAEXABVSRect@@G@Z)
0044ba00 00000620 .text             CScrollerView.obj(?Draw@CScrollerView@@UAEXPAVTImageObj@@ABVSRect@@K@Z)
0044c020 00000029 .text             CScrollerView.obj(??1StOriginSaver@@QAE@XZ)
0044c050 00000035 .text             CScrollerView.obj(??1StClipSaver@@QAE@XZ)
0044c090 00000021 .text             CScrollerView.obj(??1StRegion@@QAE@XZ)
0044c0c0 000005fe .text             CScrollerView.obj(?MouseDown@CScrollerView@@UAEXABUSMouseMsgData@@@Z)
0044c6c0 00000394 .text             CScrollerView.obj(?MouseUp@CScrollerView@@UAEXABUSMouseMsgData@@@Z)
0044ca60 0000002b .text             CScrollerView.obj(?MouseEnter@CScrollerView@@UAEXABUSMouseMsgData@@@Z)
0044ca90 000002af .text             CScrollerView.obj(?MouseMove@CScrollerView@@UAEXABUSMouseMsgData@@@Z)
0044cd40 000000b1 .text             CScrollerView.obj(?MouseLeave@CScrollerView@@UAEXABUSMouseMsgData@@@Z)
0044ce00 000000ac .text             CScrollerView.obj(?KeyDown@CScrollerView@@UAE_NABUSKeyMsgData@@@Z)
0044ceb0 0000004e .text             CScrollerView.obj(?KeyUp@CScrollerView@@UAEXABUSKeyMsgData@@@Z)
0044cf00 000000ac .text             CScrollerView.obj(?KeyRepeat@CScrollerView@@UAE_NABUSKeyMsgData@@@Z)
0044cfb0 0000002b .text             CScrollerView.obj(?DragEnter@CScrollerView@@UAEXABUSDragMsgData@@@Z)
0044cfe0 0000020b .text             CScrollerView.obj(?DragMove@CScrollerView@@UAEXABUSDragMsgData@@@Z)
0044d1f0 0000012a .text             CScrollerView.obj(?DragLeave@CScrollerView@@UAEXABUSDragMsgData@@@Z)
0044d320 000000a0 .text             CScrollerView.obj(?Drop@CScrollerView@@UAE_NABUSDragMsgData@@@Z)
0044d3c0 00000042 .text             CScrollerView.obj(?UpdateQuickTime@CScrollerView@@UAEXXZ)
0044d410 00000047 .text             CScrollerView.obj(?SendToQuickTime@CScrollerView@@UAEXABUEventRecord@@@Z)
0044d460 000001d2 .text             CScrollerView.obj(?Timer@CScrollerView@@UAEXPAVTTimerObj@@@Z)
0044d640 00000081 .text             CScrollerView.obj(?SetEnable@CScrollerView@@UAE_N_N@Z)
0044d6d0 000001c7 .text             CScrollerView.obj(?UpdateActive@CScrollerView@@IAEXXZ)
0044d8a0 00000066 .text             CScrollerView.obj(?ChangeState@CScrollerView@@UAE_NG@Z)
0044d910 0000004f .text             CScrollerView.obj(?TabFocusNext@CScrollerView@@UAE_NXZ)
0044d960 0000004f .text             CScrollerView.obj(?TabFocusPrev@CScrollerView@@UAE_NXZ)
0044d9b0 000002d8 .text             CScrollerView.obj(?SetBounds@CScrollerView@@UAE_NABVSRect@@@Z)
0044dc90 0000005e .text             CScrollerView.obj(?MouseCaptureReleased@CScrollerView@@UAEXXZ)
0044dcf0 0000004f .text             CScrollerView.obj(?CalcRects@CScrollerView@@IAEXXZ)
0044dd40 00000512 .text             CScrollerView.obj(?IntCalcRects@CScrollerView@@MAEXXZ)
0044e260 0000008d .text             CScrollerView.obj(?CalcValues@CScrollerView@@IAEXXZ)
0044e2f0 0000018a .text             CScrollerView.obj(?CalcValuesAndRefresh@CScrollerView@@IAEXXZ)
0044e480 000000eb .text             CScrollerView.obj(?IntCalcValues@CScrollerView@@MAEXXZ)
0044e570 000000b5 .text             CScrollerView.obj(?HandleInstall@CScrollerView@@MAEXPAVCView@@@Z)
0044e630 00000097 .text             CScrollerView.obj(?HandleRemove@CScrollerView@@MAEXPAVCView@@@Z)
0044e6d0 0000008b .text             CScrollerView.obj(?HandleRefresh@CScrollerView@@MAEXPAVCView@@ABVSRect@@@Z)
0044e760 00000038 .text             CScrollerView.obj(?HandleHit@CScrollerView@@MAEXPAVCView@@ABUSHitMsgData@@@Z)
0044e7a0 00000039 .text             CScrollerView.obj(?HandleGetScreenDelta@CScrollerView@@MAEXPAVCView@@AAJ1@Z)
0044e7e0 00000094 .text             CScrollerView.obj(?HandleGetVisibleRect@CScrollerView@@MAEXPAVCView@@AAVSRect@@@Z)
0044e880 00000058 .text             CScrollerView.obj(?HandleSetBounds@CScrollerView@@MAEXPAVCView@@ABVSRect@@@Z)
0044e8e0 00000025 .text             CScrollerView.obj(?HandleMakeRectVisible@CScrollerView@@MAEXABVSRect@@G@Z)
0044e910 0000006b .text             CScrollerView.obj(?HandleCaptureMouse@CScrollerView@@MAEXPAVCView@@@Z)
0044e980 00000052 .text             CScrollerView.obj(?HandleReleaseMouse@CScrollerView@@MAEXPAVCView@@@Z)
0044e9e0 0000004c .text             CScrollerView.obj(?HandleGetOrigin@CScrollerView@@MAEXAAVSPoint@@@Z)
0044ea30 00000030 .text             CScrollerView.obj(?HandleGetCaptureMouseView@CScrollerView@@MAEPAVCView@@XZ)
0044ea60 0000001d .text             CScrollerView.obj(?HandleGetParentWindow@CScrollerView@@MAEPAVCWindow@@XZ)
0044ea80 00000008 .text             CScrollerView.obj(@44@?HandleGetParentWindow@CScrollerView@@MAEPAVCWindow@@XZ)
0044ea90 00000008 .text             CScrollerView.obj(@44@?HandleGetCaptureMouseView@CScrollerView@@MAEPAVCView@@XZ)
0044eaa0 00000008 .text             CScrollerView.obj(@44@?HandleGetOrigin@CScrollerView@@MAEXAAVSPoint@@@Z)
0044eab0 00000008 .text             CScrollerView.obj(@44@?HandleReleaseMouse@CScrollerView@@MAEXPAVCView@@@Z)
0044eac0 00000008 .text             CScrollerView.obj(@44@?HandleCaptureMouse@CScrollerView@@MAEXPAVCView@@@Z)
0044ead0 00000008 .text             CScrollerView.obj(@44@?HandleMakeRectVisible@CScrollerView@@MAEXABVSRect@@G@Z)
0044eae0 00000008 .text             CScrollerView.obj(@44@?HandleGetVisibleRect@CScrollerView@@MAEXPAVCView@@AAVSRect@@@Z)
0044eaf0 00000008 .text             CScrollerView.obj(@44@?HandleGetScreenDelta@CScrollerView@@MAEXPAVCView@@AAJ1@Z)
0044eb00 00000008 .text             CScrollerView.obj(@44@?HandleHit@CScrollerView@@MAEXPAVCView@@ABUSHitMsgData@@@Z)
0044eb10 00000008 .text             CScrollerView.obj(@44@?HandleRefresh@CScrollerView@@MAEXPAVCView@@ABVSRect@@@Z)
0044eb20 00000008 .text             CScrollerView.obj(@44@?HandleSetBounds@CScrollerView@@MAEXPAVCView@@ABVSRect@@@Z)
0044eb30 00000008 .text             CScrollerView.obj(@44@?HandleRemove@CScrollerView@@MAEXPAVCView@@@Z)
0044eb40 00000008 .text             CScrollerView.obj(@44@?HandleInstall@CScrollerView@@MAEXPAVCView@@@Z)
0044eb50 00000008 .text             CScrollerView.obj(@44@??_ECScrollerView@@UAE@I@Z)
0044eb60 00000048 .text             ANSI.obj(_malloc)
0044ebb0 0000004c .text             ANSI.obj(_realloc)
0044ec00 0000000e .text             ANSI.obj(_free)
0044ec10 00000019 .text             ANSI.obj(_memcpy)
0044ec30 00000019 .text             ANSI.obj(_memmove)
0044ec50 0000001b .text             ANSI.obj(_memset)
0044ec70 0000009c .text             ANSI.obj(_memcmp)
0044ed10 00000035 .text             ANSI.obj(_strlen)
0044ed50 00000061 .text             ANSI.obj(_strcpy)
0044edc0 00000079 .text             ANSI.obj(_strchr)
0044ee40 0000004f .text             ANSI.obj(_pstrcpy)
0044ee90 00000074 .text             ANSI.obj(_pstrncpy)
0044ef10 00000079 .text             ANSI.obj(_pstrcat)
0044ef90 000001c4 .text             ANSI.obj(_strtol)
0044f160 000001ac .text             ANSI.obj(_strtoul)
0044f310 00000031 .text             ANSI.obj(_exit)
0044f350 00000039 .text             ANSI.obj(_atexit)
0044f390 0000000d .text             ANSI.obj(_abort)
0044f3a0 00000030 .text             stackall.obj(__chkstk)
0044f3d0 0000000b .text             stackall.obj(__stack_alloc)
0044f3e0 00000135 .text             UFileSys.obj(?GetPathTargetName@UFileSys@@SAKPBXKPAXKPAKPAPAE@Z)
0044f520 000001c0 .text             UFileSys.obj(?ValidateFilePath@UFileSys@@SAKPAXK@Z)
0044f6e0 0000003b .text             CViewContainer.obj(??0CSingleViewContainer@@QAE@XZ)
0044f720 0000005a .text             CViewContainer.obj(??1CSingleViewContainer@@UAE@XZ)
0044f780 0000003e .text             CViewContainer.obj(?SetView@CSingleViewContainer@@UAEXPAVCView@@@Z)
0044f7c0 0000004a .text             CViewContainer.obj(?DetachView@CSingleViewContainer@@UAEPAVCView@@XZ)
0044f810 00000038 .text             CViewContainer.obj(?GetNextView@CSingleViewContainer@@UBE_NAAPAVCView@@AAK@Z)
0044f850 00000064 .text             CViewContainer.obj(?HandleInstall@CSingleViewContainer@@MAEXPAVCView@@@Z)
0044f8c0 0000002c .text             CViewContainer.obj(?HandleRemove@CSingleViewContainer@@MAEXPAVCView@@@Z)
0044f8f0 0000004c .text             CViewContainer.obj(??0CMultiViewContainer@@QAE@XZ)
0044f940 000000b8 .text             CViewContainer.obj(??1CMultiViewContainer@@UAE@XZ)
0044fa00 0000005a .text             CViewContainer.obj(?GetNextView@CMultiViewContainer@@UBE_NAAPAVCView@@AAK@Z)
0044fa60 00000023 .text             CViewContainer.obj(?HandleInstall@CMultiViewContainer@@MAEXPAVCView@@@Z)
0044fa90 0000002f .text             CViewContainer.obj(?HandleRemove@CMultiViewContainer@@MAEXPAVCView@@@Z)
0044fac0 00000047 .text             CViewContainer.obj(??_ECMultiViewContainer@@UAE@I@Z)
0044fb10 00000047 .text             CViewContainer.obj(??_ECSingleViewContainer@@UAE@I@Z)
0044fb60 00000038 .text             MWRTTI.obj(?strequal@@YAHPBD0@Z)
0044fba0 000001ab .text             MWRTTI.obj(___dynamic_cast)
0044fd50 00000041 .text             MWRTTI.obj(??1bad_cast@std@@UAE@XZ)
0044fda0 00000027 .text             MWRTTI.obj(??0bad_cast@std@@QAE@XZ)
0044fdd0 00000058 .text             MWRTTI.obj(??_Ebad_cast@std@@UAE@I@Z)
0044fe30 00000018 .text             MWRTTI.obj(?what@bad_cast@std@@UBEPBDXZ)
0044fe50 00000043 .text             CLabelView.obj(??0CLabelView@@QAE@PAVCViewHandler@@ABVSRect@@@Z)
0044fea0 00000040 .text             CLabelView.obj(??1CLabelView@@UAE@XZ)
0044fee0 00000065 .text             CLabelView.obj(?SetText@CLabelView@@UAEXPBXK@Z)
0044ff50 00000046 .text             CLabelView.obj(?SetFont@CLabelView@@QAEXPAVTFontDescObj@@@Z)
0044ffa0 00000061 .text             CLabelView.obj(?SetFont@CLabelView@@QAEXPBE0KK@Z)
00450010 000000a8 .text             CLabelView.obj(?GetTextHeight@CLabelView@@QBEKXZ)
004500c0 00000090 .text             CLabelView.obj(?Draw@CLabelView@@UAEXPAVTImageObj@@ABVSRect@@K@Z)
00450150 00000047 .text             CLabelView.obj(??_ECLabelView@@UAE@I@Z)
004501a0 00000045 .text             CItemsView.obj(??0CItemsView@@QAE@PAVCViewHandler@@ABVSRect@@@Z)
004501f0 00000048 .text             CItemsView.obj(?GetItemRegion@CItemsView@@UBEXKPAVTRegionObj@@@Z)
00450240 000000ca .text             CItemsView.obj(?PointToItem@CItemsView@@UBEKABVSPoint@@@Z)
00450310 0000004d .text             CItemsView.obj(?RefreshItem@CItemsView@@QAEXK@Z)
00450360 00000088 .text             CItemsView.obj(?MakeItemVisible@CItemsView@@QAEXKG@Z)
004503f0 000000a6 .text             CItemsView.obj(?GetFullSize@CItemsView@@UBEXAAK0@Z)
004504a0 0000007a .text             CItemsView.obj(?GetFullHeight@CItemsView@@UBEKXZ)
00450520 0000007a .text             CItemsView.obj(?GetFullWidth@CItemsView@@UBEKXZ)
004505a0 00000088 .text             CItemsView.obj(?Draw@CItemsView@@UAEXPAVTImageObj@@ABVSRect@@K@Z)
00450630 000000d8 .text             CItemsView.obj(?MouseDown@CItemsView@@UAEXABUSMouseMsgData@@@Z)
00450710 00000057 .text             CItemsView.obj(?MouseUp@CItemsView@@UAEXABUSMouseMsgData@@@Z)
00450770 0000002b .text             CItemsView.obj(?MouseEnter@CItemsView@@UAEXABUSMouseMsgData@@@Z)
004507a0 000000c0 .text             CItemsView.obj(?MouseMove@CItemsView@@UAEXABUSMouseMsgData@@@Z)
00450860 00000057 .text             CItemsView.obj(?MouseLeave@CItemsView@@UAEXABUSMouseMsgData@@@Z)
004508c0 00000015 .text             CItemsView.obj(?ItemDraw@CItemsView@@MAEXKPAVTImageObj@@ABVSRect@@1K@Z)
004508e0 00000015 .text             CItemsView.obj(?ItemMouseDown@CItemsView@@MAEXKABUSMouseMsgData@@@Z)
00450900 00000015 .text             CItemsView.obj(?ItemMouseUp@CItemsView@@MAEXKABUSMouseMsgData@@@Z)
00450920 00000015 .text             CItemsView.obj(?ItemMouseEnter@CItemsView@@MAEXKABUSMouseMsgData@@@Z)
00450940 00000015 .text             CItemsView.obj(?ItemMouseMove@CItemsView@@MAEXKABUSMouseMsgData@@@Z)
00450960 00000015 .text             CItemsView.obj(?ItemMouseLeave@CItemsView@@MAEXKABUSMouseMsgData@@@Z)
00450980 00000069 .text             CItemsView.obj(?ItemsInserted@CItemsView@@MAEXKK@Z)
004509f0 00000069 .text             CItemsView.obj(?ItemsRemoved@CItemsView@@MAEXKK@Z)
00450a60 00000015 .text             CItemsView.obj(?ItemsMoved@CItemsView@@MAEXKKK@Z)
00450a80 00000015 .text             CItemsView.obj(?ItemsSwapped@CItemsView@@MAEXKKK@Z)
00450aa0 00000073 .text             CItemsView.obj(??0CSelectableItemsView@@QAE@PAVCViewHandler@@ABVSRect@@@Z)
00450b20 00000048 .text             CItemsView.obj(?GetFirstSelectedItem@CSelectableItemsView@@UBEKXZ)
00450b70 00000060 .text             CItemsView.obj(?GetLastSelectedItem@CSelectableItemsView@@UBEKXZ)
00450bd0 00000052 .text             CItemsView.obj(?SetItemRangeSelect@CSelectableItemsView@@UAEXKK_N@Z)
00450c30 00000072 .text             CItemsView.obj(?DeselectAll@CSelectableItemsView@@QAEXXZ)
00450cb0 0000001f .text             CItemsView.obj(?SetBehaviour@CSelectableItemsView@@UAEXG@Z)
00450cd0 00000080 .text             CItemsView.obj(?GetSelectedItemsRegion@CSelectableItemsView@@UBEXPAVTRegionObj@@@Z)
00450d50 000000af .text             CItemsView.obj(?GetSelectedItemsRect@CSelectableItemsView@@UBEXAAVSRect@@@Z)
00450e00 00000030 .text             CItemsView.obj(?GetSelectedItemsImage@CSelectableItemsView@@UBEPAVTImageObj@@AAVSPoint@@@Z)
00450e30 00000056 .text             CItemsView.obj(?GetNextSelectedItem@CSelectableItemsView@@UBE_NAAK@Z)
00450e90 0000032b .text             CItemsView.obj(?KeyDown@CSelectableItemsView@@UAE_NABUSKeyMsgData@@@Z)
004511c0 00000015 .text             CItemsView.obj(?KeyUp@CSelectableItemsView@@UAEXABUSKeyMsgData@@@Z)
004511e0 00000022 .text             CItemsView.obj(?KeyRepeat@CSelectableItemsView@@UAE_NABUSKeyMsgData@@@Z)
00451210 0000004f .text             CItemsView.obj(?Drop@CSelectableItemsView@@UAE_NABUSDragMsgData@@@Z)
00451260 00000086 .text             CItemsView.obj(?ChangeState@CSelectableItemsView@@UAE_NG@Z)
004512f0 0000052e .text             CItemsView.obj(?ItemMouseDown@CSelectableItemsView@@MAEXKABUSMouseMsgData@@@Z)
00451820 00000056 .text             CItemsView.obj(?ItemMouseUp@CSelectableItemsView@@MAEXKABUSMouseMsgData@@@Z)
00451880 00000023 .text             CItemsView.obj(?ItemMouseEnter@CSelectableItemsView@@MAEXKABUSMouseMsgData@@@Z)
004518b0 00000224 .text             CItemsView.obj(?ItemMouseMove@CSelectableItemsView@@MAEXKABUSMouseMsgData@@@Z)
00451ae0 00000015 .text             CItemsView.obj(?ItemMouseLeave@CSelectableItemsView@@MAEXKABUSMouseMsgData@@@Z)
00451b00 00000042 .text             CItemsView.obj(?ItemDrag@CSelectableItemsView@@MAEXKABUSMouseMsgData@@@Z)
00451b50 0000004d .text             CListView.obj(??0CListView@@QAE@PAVCViewHandler@@ABVSRect@@@Z)
00451ba0 0000003c .text             CListView.obj(?IsValidItem@CListView@@UBE_NK@Z)
00451be0 00000036 .text             CListView.obj(?GetNextItem@CListView@@UBE_NAAK@Z)
00451c20 00000073 .text             CListView.obj(?GetPrevItem@CListView@@UBE_NAAK@Z)
00451ca0 0000007a .text             CListView.obj(?SetItemSelect@CListView@@UAEXK_N@Z)
00451d20 00000025 .text             CListView.obj(?IsItemSelected@CListView@@UBE_NK@Z)
00451d50 00000020 .text             CListView.obj(?GetFirstSelectedItem@CListView@@UBEKXZ)
00451d70 00000020 .text             CListView.obj(?GetLastSelectedItem@CListView@@UBEKXZ)
00451d90 00000119 .text             CListView.obj(?SetItemRangeSelect@CListView@@UAEXKK_N@Z)
00451eb0 00000073 .text             CListView.obj(?GetItemRect@CListView@@UBEXKAAVSRect@@@Z)
00451f30 000000ee .text             CListView.obj(?GetSelectedItemsRect@CListView@@UBEXAAVSRect@@@Z)
00452020 0000008f .text             CListView.obj(?PointToItem@CListView@@UBEKABVSPoint@@@Z)
004520b0 0000003c .text             CListView.obj(?GetFullSize@CListView@@UBEXAAK0@Z)
004520f0 0000006a .text             CListView.obj(?GetFullHeight@CListView@@UBEKXZ)
00452160 0000001f .text             CListView.obj(?GetFullWidth@CListView@@UBEKXZ)
00452180 00000161 .text             CListView.obj(?Draw@CListView@@UAEXPAVTImageObj@@ABVSRect@@K@Z)
004522f0 00000020 .text             CListView.obj(?DragEnter@CListView@@UAEXABUSDragMsgData@@@Z)
00452310 00000020 .text             CListView.obj(?DragLeave@CListView@@UAEXABUSDragMsgData@@@Z)
00452330 000000a8 .text             CListView.obj(?ItemsInserted@CListView@@MAEXKK@Z)
004523e0 000000a6 .text             CListView.obj(?ItemsRemoved@CListView@@MAEXKK@Z)
00452490 000000dd .text             CListView.obj(?ItemsMoved@CListView@@MAEXKKK@Z)
00452570 000000dd .text             CListView.obj(?ItemsSwapped@CListView@@MAEXKKK@Z)
00452650 00000033 .text             CBoolArray.obj(??0CBoolArray@@QAE@XZ)
00452690 00000021 .text             CBoolArray.obj(??1CBoolArray@@QAE@XZ)
004526c0 0000007c .text             CBoolArray.obj(?ExpandData@CBoolArray@@IAEXK@Z)
00452740 0000008c .text             CBoolArray.obj(?ShrinkData@CBoolArray@@IAEXK@Z)
004527d0 0000005d .text             CBoolArray.obj(?ShiftItems@CBoolArray@@IAEXKKK@Z)
00452830 000000be .text             CBoolArray.obj(?InsertItems@CBoolArray@@QAEKKK_N@Z)
004528f0 00000064 .text             CBoolArray.obj(?RemoveItems@CBoolArray@@QAEXKK@Z)
00452960 0000003b .text             CBoolArray.obj(?Clear@CBoolArray@@QAEXXZ)
004529a0 0000006d .text             CBoolArray.obj(?GetItem@CBoolArray@@QBE_NK@Z)
00452a10 00000060 .text             CBoolArray.obj(?SetItem@CBoolArray@@QAEXK_N@Z)
00452a70 00000079 .text             CBoolArray.obj(?GetFirstSet@CBoolArray@@QBEKXZ)
00452af0 00000079 .text             CBoolArray.obj(?GetLastSet@CBoolArray@@QBEKXZ)
00452b70 0000010d .text             CBoolArray.obj(?MoveItems@CBoolArray@@QAEXKKK@Z)
00452c80 0000006c .text             CBoolArray.obj(?SwapItems@CBoolArray@@QAEXKKK@Z)
00452cf0 000002bf .text             UUserInterface(W).obj(?UUserInterface_DrawStandardBox@@YAXPAVTImageObj@@ABVSRect@@PBVSColor@@_N33@Z)
00452fb0 000003f6 .text             UUserInterface(W).obj(?UUserInterface_DrawEtchedBox@@YAXPAVTImageObj@@ABVSRect@@PBXK@Z)
004533b0 00000349 .text             UUserInterface(W).obj(?UUserInterface_DrawSunkenBox@@YAXPAVTImageObj@@ABVSRect@@PBVSColor@@@Z)
00453700 00000349 .text             UUserInterface(W).obj(?UUserInterface_DrawRaisedBox@@YAXPAVTImageObj@@ABVSRect@@PBVSColor@@@Z)
00453a50 000001db .text             UUserInterface(W).obj(?UUserInterface_DrawBarBox@@YAXPAVTImageObj@@ABVSRect@@@Z)
00453c30 000000ac .text             UUserInterface(W).obj(?GetHighlightColor@UUserInterface@@SAXPAVSColor@@0@Z)
00453ce0 000000eb .text             UUserInterface(W).obj(?GetSysColor@UUserInterface@@SA_NKAAVSColor@@@Z)
00453dd0 00000291 .text             UGraphics(W).obj(?Init@UGraphics@@SAXXZ)
00454070 0000007c .text             UGraphics(W).obj(?SetOrigin@UGraphics@@SAXPAVTImageObj@@ABVSPoint@@@Z)
004540f0 00000030 .text             UGraphics(W).obj(?GetOrigin@UGraphics@@SAXPAVTImageObj@@AAVSPoint@@@Z)
00454120 00000055 .text             UGraphics(W).obj(?AddOrigin@UGraphics@@SAXPAVTImageObj@@JJ@Z)
00454180 000000b8 .text             UGraphics(W).obj(?SetClip@UGraphics@@SAXPAVTImageObj@@PAVTRegionObj@@@Z)
00454240 000000a5 .text             UGraphics(W).obj(?GetClip@UGraphics@@SAXPAVTImageObj@@PAVTRegionObj@@@Z)
004542f0 00000044 .text             UGraphics(W).obj(?IntersectClip@UGraphics@@SAXPAVTImageObj@@ABVSRect@@@Z)
00454340 000000e3 .text             UGraphics(W).obj(?IntersectClip@UGraphics@@SAXPAVTImageObj@@PAVTRegionObj@@ABVSRect@@@Z)
00454430 0000003f .text             UGraphics(W).obj(?MoveClip@UGraphics@@SAXPAVTImageObj@@JJ@Z)
00454470 0000009c .text             UGraphics(W).obj(?Reset@UGraphics@@SAXPAVTImageObj@@@Z)
00454510 0000004f .text             UGraphics(W).obj(?SetPenSize@UGraphics@@SAXPAVTImageObj@@K@Z)
00454560 000000fc .text             UGraphics(W).obj(?SetInkColor@UGraphics@@SAXPAVTImageObj@@ABVSColor@@@Z)
00454660 00000076 .text             UGraphics(W).obj(?SetInkMode@UGraphics@@SAXPAVTImageObj@@KPBVSColor@@@Z)
004546e0 00000056 .text             UGraphics(W).obj(?GetInkColor@UGraphics@@SAXPAVTImageObj@@AAVSColor@@@Z)
00454740 0000015c .text             UGraphics(W).obj(?UGraphics_DrawLine@@YAXPAVTImageObj@@ABUSLine@@K@Z)
004548a0 00000069 .text             UGraphics(W).obj(?UGraphics_DrawRegion@@YAXPAVTImageObj@@PAVTRegionObj@@K@Z)
00454910 00000063 .text             UGraphics(W).obj(?UGraphics_FillRect@@YAXPAVTImageObj@@ABVSRect@@@Z)
00454980 00000142 .text             UGraphics(W).obj(?UGraphics_FrameRect@@YAXPAVTImageObj@@ABVSRect@@@Z)
00454ad0 00000077 .text             UGraphics(W).obj(?UGraphics_SetPixel@@YAXPAVTImageObj@@ABVSPoint@@ABVSColor@@@Z)
00454b50 00000053 .text             UGraphics(W).obj(?ResetFont@UGraphics@@SAXPAVTImageObj@@@Z)
00454bb0 00000115 .text             UGraphics(W).obj(?SetFontEffect@UGraphics@@SAXPAVTImageObj@@K@Z)
00454cd0 0000011d .text             UGraphics(W).obj(?SetFont@UGraphics@@SAXPAVTImageObj@@PBE1KK@Z)
00454df0 000000b4 .text             UGraphics(W).obj(?SetFont@UGraphics@@SAXPAVTImageObj@@PAVTFontDescObj@@@Z)
00454eb0 0000004b .text             UGraphics(W).obj(?GetFontHeight@UGraphics@@SAKPAVTImageObj@@@Z)
00454f00 00000051 .text             UGraphics(W).obj(?GetFontLineHeight@UGraphics@@SAKPAVTImageObj@@@Z)
00454f60 00000049 .text             UGraphics(W).obj(?GetTextWidth@UGraphics@@SAKPAVTImageObj@@PBXKK@Z)
00454fb0 000000e8 .text             UGraphics(W).obj(?_GRCalcMaxFit@@YAKPAUHDC__@@PBXKK@Z)
004550a0 000000bb .text             UGraphics(W).obj(?GetTextLineBreak@UGraphics@@SAKPAVTImageObj@@PBXKK@Z)
00455160 0000022e .text             UGraphics(W).obj(?WidthToChar@UGraphics@@SAKPAVTImageObj@@PBXKKPA_N@Z)
00455390 000000f4 .text             UGraphics(W).obj(?UGraphics_DrawText@@YAXPAVTImageObj@@ABVSRect@@PBXKKK@Z)
00455490 000000f6 .text             UGraphics(W).obj(?UGraphics_DrawTruncText@@YAXPAVTImageObj@@ABVSRect@@PBXKKK@Z)
00455590 000000d0 .text             UGraphics(W).obj(?UGraphics_DrawTextBox@@YAXPAVTImageObj@@ABVSRect@@1PBXKKK@Z)
00455660 000000a6 .text             UGraphics(W).obj(?UGraphics_GetTextBoxHeight@@YAKPAVTImageObj@@ABVSRect@@PBXKKK@Z)
00455710 000003b6 .text             UGraphics(W).obj(?UGraphics_DrawTextLines@@YAXPAVTImageObj@@ABVSRect@@PBXKPBKKKKK@Z)
00455ad0 00000d30 .text             UGraphics(W).obj(?UGraphics_CopyPixels@@YAXPAVTImageObj@@ABVSPoint@@ABUSPixmap@@1KKK@Z)
00456800 00000044 .text             UGraphics(W).obj(?_GRConvertBGRAandRGBA@@YAXPAXK@Z)
00456850 00000062 .text             UGraphics(W).obj(?_GRCopyRGBAandBGRA@@YAXPBXPAXK@Z)
004568c0 0000056f .text             UGraphics(W).obj(?UGraphics_CopyPixelsTrans@@YAXPAVTImageObj@@ABVSPoint@@ABUSPixmap@@1KKKK@Z)
00456e30 0000000a .text             UGraphics(W).obj(?GetDummyImage@UGraphics@@SAPAVTImageObj@@XZ)
00456e40 0000000a .text             UGraphics(W).obj(?_ImageToDC@@YAPAUHDC__@@PAVTImageObj@@@Z)
00456e50 00000055 .text             UGraphics(W).obj(?_NewDCImage@@YAPAVTImageObj@@PAUHDC__@@KK@Z)
00456eb0 0000006c .text             UGraphics(W).obj(?_DisposeDCImage@@YAXPAVTImageObj@@@Z)
00456f20 00000039 .text             UGraphics(W).obj(?_SetVirtualOrigin@@YAXPAVTImageObj@@ABVSPoint@@@Z)
00456f60 00000039 .text             UGraphics(W).obj(?_GetVirtualOrigin@@YAXPAVTImageObj@@AAVSPoint@@@Z)
00456fa0 00000039 .text             UGraphics(W).obj(?_AddVirtualOrigin@@YAXPAVTImageObj@@ABVSPoint@@@Z)
00456fe0 00000036 .text             UGraphics(W).obj(?_ResetVirtualOrigin@@YAXPAVTImageObj@@@Z)
00457020 0000009b .text             UGraphics(W).obj(?_FontNameToWinName@@YAKPBEPADK@Z)
004570c0 0000009b .text             UGraphics(W).obj(?New@UFontDesc@@SAPAVTFontDescObj@@PBE0KK@Z)
00457160 0000001d .text             UGraphics(W).obj(?Dispose@UFontDesc@@SAXPAVTFontDescObj@@@Z)
00457180 0000002f .text             UGraphics(W).obj(?Clone@UFontDesc@@SAPAVTFontDescObj@@PAV2@@Z)
004571b0 00000049 .text             UGraphics(W).obj(?SetAlign@UFontDesc@@SAXPAVTFontDescObj@@K@Z)
00457200 00000018 .text             UGraphics(W).obj(?GetAlign@UFontDesc@@SAKPAVTFontDescObj@@@Z)
00457220 00000069 .text             UGraphics(W).obj(?SetColor@UFontDesc@@SAXPAVTFontDescObj@@ABVSColor@@@Z)
00457290 00000005 .text             UGraphics(W).obj
004572a0 000000b4 .text             UGraphics.obj(?DrawLine@UGraphics@@SAXPAVTImageObj@@ABUSLine@@K@Z)
00457360 000000ce .text             UGraphics.obj(?DrawRegion@UGraphics@@SAXPAVTImageObj@@PAVTRegionObj@@K@Z)
00457430 000000a6 .text             UGraphics.obj(?FillRect@UGraphics@@SAXPAVTImageObj@@ABVSRect@@@Z)
004574e0 000000a6 .text             UGraphics.obj(?FrameRect@UGraphics@@SAXPAVTImageObj@@ABVSRect@@@Z)
00457590 00000094 .text             UGraphics.obj(?SetPixel@UGraphics@@SAXPAVTImageObj@@ABVSPoint@@ABVSColor@@@Z)
00457630 000000ce .text             UGraphics.obj(?DrawText@UGraphics@@SAXPAVTImageObj@@ABVSRect@@PBXKKK@Z)
00457700 000000ce .text             UGraphics.obj(?DrawTruncText@UGraphics@@SAXPAVTImageObj@@ABVSRect@@PBXKKK@Z)
004577d0 0000010e .text             UGraphics.obj(?DrawTextBox@UGraphics@@SAXPAVTImageObj@@ABVSRect@@1PBXKKK@Z)
004578e0 000000dc .text             UGraphics.obj(?GetTextBoxHeight@UGraphics@@SAKPAVTImageObj@@ABVSRect@@PBXKKK@Z)
004579c0 000000e2 .text             UGraphics.obj(?DrawTextLines@UGraphics@@SAXPAVTImageObj@@ABVSRect@@PBXKPBKKKKK@Z)
00457ab0 000000ac .text             UGraphics.obj(?CopyPixels@UGraphics@@SAXPAVTImageObj@@ABVSPoint@@ABUSPixmap@@1KKK@Z)
00457b60 000000b2 .text             UGraphics.obj(?CopyPixelsTrans@UGraphics@@SAXPAVTImageObj@@ABVSPoint@@ABUSPixmap@@1KKKK@Z)
00457c20 00000637 .text             UGraphics.obj(?GetLinePoly@UGraphics@@SAXABVSPoint@@0KPAV2@@Z)
00458260 000000da .text             UGraphics.obj(?MergeColorTable@UGraphics@@SAKPAKKKPBKK@Z)
00458340 000000ed .text             UGraphics.obj(?GetNearestColor@UGraphics@@SAKKPBKKK@Z)
00458430 00000054 .text             UGraphics.obj(?GetExactColor@UGraphics@@SA_NKPBKKAAK@Z)
00458490 0000016f .text             UGraphics.obj(?ValidateCopyRects@UGraphics@@SA_NABVSRect@@0AAVSPoint@@1AAK2@Z)
00458600 000000e1 .text             UIcon(W).obj(?Load@UIcon@@SAPAVTIconObj@@J@Z)
004586f0 00000033 .text             UIcon(W).obj(?Release@UIcon@@SAXPAVTIconObj@@@Z)
00458730 0000002c .text             UIcon(W).obj(?UIcon_Draw@@YAXPAVTIconObj@@PAVTImageObj@@ABVSRect@@GG@Z)
00458760 000000c2 .text             UIcon.obj(?Draw@UIcon@@SAXPAVTIconObj@@PAVTImageObj@@ABVSRect@@GG@Z)
00458830 00000029 .text             CDragAndDroppable.obj(??0CDragAndDroppable@@QAE@XZ)
00458860 0000001e .text             CDragAndDroppable.obj(?SetDragAndDropHandler@CDragAndDroppable@@UAEXPAVCDragAndDropHandler@@@Z)
00458880 000000ae .text             UCheckBox.obj(?Draw@UCheckBox@@SAXPAVTImageObj@@ABVSRect@@ABUSCheckBoxInfo@@@Z)
00458930 000000ae .text             UCheckBox.obj(?DrawFocused@UCheckBox@@SAXPAVTImageObj@@ABVSRect@@ABUSCheckBoxInfo@@@Z)
004589e0 000000ae .text             UCheckBox.obj(?DrawHilited@UCheckBox@@SAXPAVTImageObj@@ABVSRect@@ABUSCheckBoxInfo@@@Z)
00458a90 000000ae .text             UCheckBox.obj(?DrawDisabled@UCheckBox@@SAXPAVTImageObj@@ABVSRect@@ABUSCheckBoxInfo@@@Z)
00458b40 000000ed .text             CContainerView.obj(??0CContainerView@@QAE@PAVCViewHandler@@ABVSRect@@@Z)
00458c30 00000054 .text             CContainerView.obj(??1CContainerView@@UAE@XZ)
00458c90 00000164 .text             CContainerView.obj(?GetNextTabView@CContainerView@@MBEPAVCView@@XZ)
00458e00 000001b8 .text             CContainerView.obj(?GetPrevTabView@CContainerView@@MBEPAVCView@@XZ)
00458fc0 00000094 .text             CContainerView.obj(?PointToView@CContainerView@@QBEPAVCView@@ABVSPoint@@@Z)
00459060 00000237 .text             CContainerView.obj(?Draw@CContainerView@@UAEXPAVTImageObj@@ABVSRect@@K@Z)
004592a0 000002a2 .text             CContainerView.obj(?MouseDown@CContainerView@@UAEXABUSMouseMsgData@@@Z)
00459550 0000014e .text             CContainerView.obj(?MouseUp@CContainerView@@UAEXABUSMouseMsgData@@@Z)
004596a0 0000002b .text             CContainerView.obj(?MouseEnter@CContainerView@@UAEXABUSMouseMsgData@@@Z)
004596d0 0000011d .text             CContainerView.obj(?MouseMove@CContainerView@@UAEXABUSMouseMsgData@@@Z)
004597f0 000000a5 .text             CContainerView.obj(?MouseLeave@CContainerView@@UAEXABUSMouseMsgData@@@Z)
004598a0 0000034e .text             CContainerView.obj(?KeyDown@CContainerView@@UAE_NABUSKeyMsgData@@@Z)
00459bf0 000000f7 .text             CContainerView.obj(?KeyUp@CContainerView@@UAEXABUSKeyMsgData@@@Z)
00459cf0 0000004c .text             CContainerView.obj(?KeyRepeat@CContainerView@@UAE_NABUSKeyMsgData@@@Z)
00459d40 0000002b .text             CContainerView.obj(?DragEnter@CContainerView@@UAEXABUSDragMsgData@@@Z)
00459d70 0000011a .text             CContainerView.obj(?DragMove@CContainerView@@UAEXABUSDragMsgData@@@Z)
00459e90 000000a5 .text             CContainerView.obj(?DragLeave@CContainerView@@UAEXABUSDragMsgData@@@Z)
00459f40 00000041 .text             CContainerView.obj(?Drop@CContainerView@@UAE_NABUSDragMsgData@@@Z)
00459f90 0000007b .text             CContainerView.obj(?UpdateQuickTime@CContainerView@@UAEXXZ)
0045a010 00000080 .text             CContainerView.obj(?SendToQuickTime@CContainerView@@UAEXABUEventRecord@@@Z)
0045a090 0000019f .text             CContainerView.obj(?ChangeState@CContainerView@@UAE_NG@Z)
0045a230 000000e9 .text             CContainerView.obj(?SetFocusView@CContainerView@@UAE_NPAVCView@@@Z)
0045a320 00000207 .text             CContainerView.obj(?TabFocusNext@CContainerView@@UAE_NXZ)
0045a530 00000248 .text             CContainerView.obj(?TabFocusPrev@CContainerView@@UAE_NXZ)
0045a780 000001b4 .text             CContainerView.obj(?SetBounds@CContainerView@@UAE_NABVSRect@@@Z)
0045a940 00000042 .text             CContainerView.obj(?MouseCaptureReleased@CContainerView@@UAEXXZ)
0045a990 0000007c .text             CContainerView.obj(?HandleInstall@CContainerView@@MAEXPAVCView@@@Z)
0045aa10 00000215 .text             CContainerView.obj(?HandleRemove@CContainerView@@MAEXPAVCView@@@Z)
0045ac30 00000074 .text             CContainerView.obj(?HandleRefresh@CContainerView@@MAEXPAVCView@@ABVSRect@@@Z)
0045acb0 00000038 .text             CContainerView.obj(?HandleHit@CContainerView@@MAEXPAVCView@@ABUSHitMsgData@@@Z)
0045acf0 00000039 .text             CContainerView.obj(?HandleGetScreenDelta@CContainerView@@MAEXPAVCView@@AAJ1@Z)
0045ad30 0000004c .text             CContainerView.obj(?HandleGetVisibleRect@CContainerView@@MAEXPAVCView@@AAVSRect@@@Z)
0045ad80 0000003e .text             CContainerView.obj(?HandleCaptureMouse@CContainerView@@MAEXPAVCView@@@Z)
0045adc0 00000042 .text             CContainerView.obj(?HandleReleaseMouse@CContainerView@@MAEXPAVCView@@@Z)
0045ae10 0000004c .text             CContainerView.obj(?HandleGetOrigin@CContainerView@@MAEXAAVSPoint@@@Z)
0045ae60 00000019 .text             CContainerView.obj(?HandleGetCaptureMouseView@CContainerView@@MAEPAVCView@@XZ)
0045ae80 0000001d .text             CContainerView.obj(?HandleGetParentWindow@CContainerView@@MAEPAVCWindow@@XZ)
0045aea0 00000008 .text             CContainerView.obj(@44@?HandleGetParentWindow@CContainerView@@MAEPAVCWindow@@XZ)
0045aeb0 00000008 .text             CContainerView.obj(@44@?HandleGetCaptureMouseView@CContainerView@@MAEPAVCView@@XZ)
0045aec0 00000008 .text             CContainerView.obj(@44@?HandleGetOrigin@CContainerView@@MAEXAAVSPoint@@@Z)
0045aed0 00000008 .text             CContainerView.obj(@44@?HandleReleaseMouse@CContainerView@@MAEXPAVCView@@@Z)
0045aee0 00000008 .text             CContainerView.obj(@44@?HandleCaptureMouse@CContainerView@@MAEXPAVCView@@@Z)
0045aef0 00000008 .text             CContainerView.obj(@44@?HandleGetVisibleRect@CContainerView@@MAEXPAVCView@@AAVSRect@@@Z)
0045af00 00000008 .text             CContainerView.obj(@44@?HandleGetScreenDelta@CContainerView@@MAEXPAVCView@@AAJ1@Z)
0045af10 00000008 .text             CContainerView.obj(@44@?HandleHit@CContainerView@@MAEXPAVCView@@ABUSHitMsgData@@@Z)
0045af20 00000008 .text             CContainerView.obj(@44@?HandleRefresh@CContainerView@@MAEXPAVCView@@ABVSRect@@@Z)
0045af30 00000008 .text             CContainerView.obj(@44@?HandleRemove@CContainerView@@MAEXPAVCView@@@Z)
0045af40 00000008 .text             CContainerView.obj(@44@?HandleInstall@CContainerView@@MAEXPAVCView@@@Z)
0045af50 00000008 .text             CContainerView.obj(@44@??_ECContainerView@@UAE@I@Z)
0045af60 000000da .text             CTabbedView.obj(??0CTabbedView@@QAE@PAVCViewHandler@@ABVSRect@@@Z)
0045b040 000000b1 .text             CTabbedView.obj(??1CTabbedView@@UAE@XZ)
0045b100 00000126 .text             CTabbedView.obj(?InsertTab@CTabbedView@@QAEXGPBXK@Z)
0045b230 00000030 .text             CTabbedView.obj(?AddTab@CTabbedView@@QAEXPBE@Z)
0045b260 0000002d .text             CTabbedView.obj(?IsValidTab@CTabbedView@@QBE_NG@Z)
0045b290 0000002b .text             CTabbedView.obj(?SetFont@CTabbedView@@QAEXPAVTFontDescObj@@@Z)
0045b2c0 00000138 .text             CTabbedView.obj(?SetTabView@CTabbedView@@QAEXGPAVCView@@@Z)
0045b400 0000007b .text             CTabbedView.obj(?GetTabView@CTabbedView@@QBEPAVCView@@G@Z)
0045b480 000000e3 .text             CTabbedView.obj(?SetCurrentTab@CTabbedView@@QAEXG@Z)
0045b570 00000057 .text             CTabbedView.obj(?GetContentRect@CTabbedView@@QBEXAAVSRect@@@Z)
0045b5d0 00000041 .text             CTabbedView.obj(?RefreshContent@CTabbedView@@IAEXXZ)
0045b620 000000b6 .text             CTabbedView.obj(?RefreshTabs@CTabbedView@@IAEXGG@Z)
0045b6e0 0000004f .text             CTabbedView.obj(?RefreshTab@CTabbedView@@IAEXG@Z)
0045b730 0000004a .text             CTabbedView.obj(?GetTabWidth@CTabbedView@@MBEGPBXK@Z)
0045b780 000000a9 .text             CTabbedView.obj(?GetTabLeft@CTabbedView@@MBEJG@Z)
0045b830 00000070 .text             CTabbedView.obj(?GetTabRight@CTabbedView@@MBEJG@Z)
0045b8a0 00000097 .text             CTabbedView.obj(?GetTabRect@CTabbedView@@MBEXGAAVSRect@@@Z)
0045b940 00000169 .text             CTabbedView.obj(?PointToTab@CTabbedView@@MBEGABVSPoint@@PAVSRect@@@Z)
0045bab0 00000d63 .text             CTabbedView.obj(?Draw@CTabbedView@@UAEXPAVTImageObj@@ABVSRect@@K@Z)
0045c820 00000472 .text             CTabbedView.obj(?DrawTab@CTabbedView@@MAEXPAVTImageObj@@ABVSRect@@PBXKABVSColor@@3333@Z)
0045cca0 0000008a .text             CTabbedView.obj(?DrawEnabledTab@CTabbedView@@MAEXPAVTImageObj@@ABVSRect@@PBXK_N@Z)
0045cd30 0000008a .text             CTabbedView.obj(?DrawDisabledTab@CTabbedView@@MAEXPAVTImageObj@@ABVSRect@@PBXK_N@Z)
0045cdc0 00000264 .text             CTabbedView.obj(?MouseDown@CTabbedView@@UAEXABUSMouseMsgData@@@Z)
0045d030 00000255 .text             CTabbedView.obj(?MouseUp@CTabbedView@@UAEXABUSMouseMsgData@@@Z)
0045d290 0000002b .text             CTabbedView.obj(?MouseEnter@CTabbedView@@UAEXABUSMouseMsgData@@@Z)
0045d2c0 000000f2 .text             CTabbedView.obj(?MouseLeave@CTabbedView@@UAEXABUSMouseMsgData@@@Z)
0045d3c0 000002b6 .text             CTabbedView.obj(?MouseMove@CTabbedView@@UAEXABUSMouseMsgData@@@Z)
0045d680 0000005c .text             CTabbedView.obj(?KeyDown@CTabbedView@@UAE_NABUSKeyMsgData@@@Z)
0045d6e0 00000050 .text             CTabbedView.obj(?KeyUp@CTabbedView@@UAEXABUSKeyMsgData@@@Z)
0045d730 0000005c .text             CTabbedView.obj(?KeyRepeat@CTabbedView@@UAE_NABUSKeyMsgData@@@Z)
0045d790 00000085 .text             CTabbedView.obj(?UpdateActive@CTabbedView@@IAEXXZ)
0045d820 00000081 .text             CTabbedView.obj(?ChangeState@CTabbedView@@UAE_NG@Z)
0045d8b0 000000b8 .text             CTabbedView.obj(?TabFocusPrev@CTabbedView@@UAE_NXZ)
0045d970 000000b8 .text             CTabbedView.obj(?TabFocusNext@CTabbedView@@UAE_NXZ)
0045da30 00000061 .text             CTabbedView.obj(?SetEnable@CTabbedView@@UAE_N_N@Z)
0045daa0 000001b4 .text             CTabbedView.obj(?SetBounds@CTabbedView@@UAE_NABVSRect@@@Z)
0045dc60 0000004b .text             CTabbedView.obj(?MouseCaptureReleased@CTabbedView@@UAEXXZ)
0045dcb0 0000002b .text             CTabbedView.obj(?DragEnter@CTabbedView@@UAEXABUSDragMsgData@@@Z)
0045dce0 000001c5 .text             CTabbedView.obj(?DragMove@CTabbedView@@UAEXABUSDragMsgData@@@Z)
0045deb0 000000c8 .text             CTabbedView.obj(?DragLeave@CTabbedView@@UAEXABUSDragMsgData@@@Z)
0045df80 000000c9 .text             CTabbedView.obj(?Drop@CTabbedView@@UAE_NABUSDragMsgData@@@Z)
0045e050 0000007b .text             CTabbedView.obj(?UpdateQuickTime@CTabbedView@@UAEXXZ)
0045e0d0 00000080 .text             CTabbedView.obj(?SendToQuickTime@CTabbedView@@UAEXABUEventRecord@@@Z)
0045e150 000000cd .text             CTabbedView.obj(?HandleRemove@CTabbedView@@MAEXPAVCView@@@Z)
0045e220 00000099 .text             CTabbedView.obj(?HandleRefresh@CTabbedView@@MAEXPAVCView@@ABVSRect@@@Z)
0045e2c0 00000038 .text             CTabbedView.obj(?HandleHit@CTabbedView@@MAEXPAVCView@@ABUSHitMsgData@@@Z)
0045e300 00000049 .text             CTabbedView.obj(?HandleGetScreenDelta@CTabbedView@@MAEXPAVCView@@AAJ1@Z)
0045e350 00000074 .text             CTabbedView.obj(?HandleGetVisibleRect@CTabbedView@@MAEXPAVCView@@AAVSRect@@@Z)
0045e3d0 000000aa .text             CTabbedView.obj(?HandleCaptureMouse@CTabbedView@@MAEXPAVCView@@@Z)
0045e480 00000042 .text             CTabbedView.obj(?HandleReleaseMouse@CTabbedView@@MAEXPAVCView@@@Z)
0045e4d0 0000004c .text             CTabbedView.obj(?HandleGetOrigin@CTabbedView@@MAEXAAVSPoint@@@Z)
0045e520 00000019 .text             CTabbedView.obj(?HandleGetCaptureMouseView@CTabbedView@@MAEPAVCView@@XZ)
0045e540 0000001d .text             CTabbedView.obj(?HandleGetParentWindow@CTabbedView@@MAEPAVCWindow@@XZ)
0045e560 00000047 .text             CTabbedView.obj(??_ECTabbedView@@UAE@I@Z)
0045e5b0 00000008 .text             CTabbedView.obj(@44@?HandleGetParentWindow@CTabbedView@@MAEPAVCWindow@@XZ)
0045e5c0 00000008 .text             CTabbedView.obj(@44@?HandleGetCaptureMouseView@CTabbedView@@MAEPAVCView@@XZ)
0045e5d0 00000008 .text             CTabbedView.obj(@44@?HandleGetOrigin@CTabbedView@@MAEXAAVSPoint@@@Z)
0045e5e0 00000008 .text             CTabbedView.obj(@44@?HandleReleaseMouse@CTabbedView@@MAEXPAVCView@@@Z)
0045e5f0 00000008 .text             CTabbedView.obj(@44@?HandleCaptureMouse@CTabbedView@@MAEXPAVCView@@@Z)
0045e600 00000008 .text             CTabbedView.obj(@44@?HandleGetVisibleRect@CTabbedView@@MAEXPAVCView@@AAVSRect@@@Z)
0045e610 00000008 .text             CTabbedView.obj(@44@?HandleGetScreenDelta@CTabbedView@@MAEXPAVCView@@AAJ1@Z)
0045e620 00000008 .text             CTabbedView.obj(@44@?HandleHit@CTabbedView@@MAEXPAVCView@@ABUSHitMsgData@@@Z)
0045e630 00000008 .text             CTabbedView.obj(@44@?HandleRefresh@CTabbedView@@MAEXPAVCView@@ABVSRect@@@Z)
0045e640 00000008 .text             CTabbedView.obj(@44@?HandleRemove@CTabbedView@@MAEXPAVCView@@@Z)
0045e650 00000008 .text             CTabbedView.obj(@44@??_ECTabbedView@@UAE@I@Z)
0045e660 00000117 .text             CButtonView.obj(??0CButtonView@@QAE@PAVCViewHandler@@ABVSRect@@@Z)
0045e780 0000004e .text             CButtonView.obj(??1CButtonView@@UAE@XZ)
0045e7d0 00000065 .text             CButtonView.obj(?SetTitle@CButtonView@@UAEXPBXK@Z)
0045e840 00000046 .text             CButtonView.obj(?SetFont@CButtonView@@UAEXPAVTFontDescObj@@@Z)
0045e890 00000062 .text             CButtonView.obj(?SetDefault@CButtonView@@UAEX_N@Z)
0045e900 0000007c .text             CButtonView.obj(?Flash@CButtonView@@UAEXXZ)
0045e980 0000015f .text             CButtonView.obj(?Draw@CButtonView@@UAEXPAVTImageObj@@ABVSRect@@K@Z)
0045eae0 00000086 .text             CButtonView.obj(?MouseDown@CButtonView@@UAEXABUSMouseMsgData@@@Z)
0045eb70 0000009d .text             CButtonView.obj(?MouseUp@CButtonView@@UAEXABUSMouseMsgData@@@Z)
0045ec10 000000c6 .text             CButtonView.obj(?MouseEnter@CButtonView@@UAEXABUSMouseMsgData@@@Z)
0045ece0 0000005a .text             CButtonView.obj(?MouseLeave@CButtonView@@UAEXABUSMouseMsgData@@@Z)
0045ed40 000000de .text             CButtonView.obj(?KeyDown@CButtonView@@UAE_NABUSKeyMsgData@@@Z)
0045ee20 00000181 .text             CButtonView.obj(?UpdateActive@CButtonView@@IAEXXZ)
0045efb0 00000046 .text             CButtonView.obj(?ChangeState@CButtonView@@UAE_NG@Z)
0045f000 00000061 .text             CButtonView.obj(?SetEnable@CButtonView@@UAE_N_N@Z)
0045f070 0000009e .text             CButtonView.obj(?Timer@CButtonView@@UAEXPAVTTimerObj@@@Z)
0045f110 00000282 .text             CButtonView.obj(?BuildButtons@CButtonView@@SA_NPAVCContainerView@@ABVSRect@@PAUSButtons@@@Z)
0045f3a0 00000047 .text             CButtonView.obj(??_ECButtonView@@UAE@I@Z)
0045f3f0 00000056 .text             CBoxView.obj(??0CBoxView@@QAE@PAVCViewHandler@@ABVSRect@@@Z)
0045f450 00000077 .text             CBoxView.obj(??0CBoxView@@QAE@PAVCViewHandler@@ABVSRect@@GPBEPAVTFontDescObj@@@Z)
0045f4d0 00000040 .text             CBoxView.obj(??1CBoxView@@UAE@XZ)
0045f510 00000065 .text             CBoxView.obj(?SetTitle@CBoxView@@UAEXPBXK@Z)
0045f580 00000046 .text             CBoxView.obj(?SetFont@CBoxView@@UAEXPAVTFontDescObj@@@Z)
0045f5d0 00000048 .text             CBoxView.obj(?SetStyle@CBoxView@@UAEXG@Z)
0045f620 00000015 .text             CBoxView.obj(?SetPattern@CBoxView@@UAEXF@Z)
0045f640 000000ff .text             CBoxView.obj(?Draw@CBoxView@@UAEXPAVTImageObj@@ABVSRect@@K@Z)
0045f740 00000047 .text             CBoxView.obj(??_ECBoxView@@UAE@I@Z)
0045f790 000000d1 .text             CCheckBoxView.obj(??0CCheckBoxView@@QAE@PAVCViewHandler@@ABVSRect@@@Z)
0045f870 00000040 .text             CCheckBoxView.obj(??1CCheckBoxView@@UAE@XZ)
0045f8b0 00000065 .text             CCheckBoxView.obj(?SetTitle@CCheckBoxView@@UAEXPBXK@Z)
0045f920 00000046 .text             CCheckBoxView.obj(?SetFont@CCheckBoxView@@UAEXPAVTFontDescObj@@@Z)
0045f970 00000043 .text             CCheckBoxView.obj(?SetStyle@CCheckBoxView@@UAEXG@Z)
0045f9c0 00000056 .text             CCheckBoxView.obj(?SetMark@CCheckBoxView@@UAEXG@Z)
0045fa20 00000150 .text             CCheckBoxView.obj(?Draw@CCheckBoxView@@UAEXPAVTImageObj@@ABVSRect@@K@Z)
0045fb70 0000006f .text             CCheckBoxView.obj(?MouseDown@CCheckBoxView@@UAEXABUSMouseMsgData@@@Z)
0045fbe0 00000116 .text             CCheckBoxView.obj(?MouseUp@CCheckBoxView@@UAEXABUSMouseMsgData@@@Z)
0045fd00 000000c6 .text             CCheckBoxView.obj(?MouseEnter@CCheckBoxView@@UAEXABUSMouseMsgData@@@Z)
0045fdd0 00000053 .text             CCheckBoxView.obj(?MouseLeave@CCheckBoxView@@UAEXABUSMouseMsgData@@@Z)
0045fe30 00000116 .text             CCheckBoxView.obj(?KeyDown@CCheckBoxView@@UAE_NABUSKeyMsgData@@@Z)
0045ff50 00000145 .text             CCheckBoxView.obj(?UpdateActive@CCheckBoxView@@IAEXXZ)
004600a0 00000046 .text             CCheckBoxView.obj(?ChangeState@CCheckBoxView@@UAE_NG@Z)
004600f0 00000061 .text             CCheckBoxView.obj(?SetEnable@CCheckBoxView@@UAE_N_N@Z)
00460160 00000089 .text             CCheckBoxView.obj(?RefreshBox@CCheckBoxView@@MAEXXZ)
004601f0 00000047 .text             CCheckBoxView.obj(??_ECCheckBoxView@@UAE@I@Z)
00460240 00000106 .text             CIconButtonView.obj(??0CIconButtonView@@QAE@PAVCViewHandler@@ABVSRect@@@Z)
00460350 0000005a .text             CIconButtonView.obj(??1CIconButtonView@@UAE@XZ)
004603b0 00000065 .text             CIconButtonView.obj(?SetTitle@CIconButtonView@@UAEXPBXK@Z)
00460420 00000046 .text             CIconButtonView.obj(?SetFont@CIconButtonView@@UAEXPAVTFontDescObj@@@Z)
00460470 00000048 .text             CIconButtonView.obj(?SetOptions@CIconButtonView@@UAEXG@Z)
004604c0 0000007b .text             CIconButtonView.obj(?Flash@CIconButtonView@@UAEXXZ)
00460540 0000015b .text             CIconButtonView.obj(?Draw@CIconButtonView@@UAEXPAVTImageObj@@ABVSRect@@K@Z)
004606a0 00000076 .text             CIconButtonView.obj(?MouseDown@CIconButtonView@@UAEXABUSMouseMsgData@@@Z)
00460720 00000086 .text             CIconButtonView.obj(?MouseUp@CIconButtonView@@UAEXABUSMouseMsgData@@@Z)
004607b0 000000c5 .text             CIconButtonView.obj(?MouseEnter@CIconButtonView@@UAEXABUSMouseMsgData@@@Z)
00460880 00000059 .text             CIconButtonView.obj(?MouseLeave@CIconButtonView@@UAEXABUSMouseMsgData@@@Z)
004608e0 000000de .text             CIconButtonView.obj(?KeyDown@CIconButtonView@@UAE_NABUSKeyMsgData@@@Z)
004609c0 00000178 .text             CIconButtonView.obj(?UpdateActive@CIconButtonView@@IAEXXZ)
00460b40 00000046 .text             CIconButtonView.obj(?ChangeState@CIconButtonView@@UAE_NG@Z)
00460b90 00000061 .text             CIconButtonView.obj(?SetEnable@CIconButtonView@@UAE_N_N@Z)
00460c00 0000009e .text             CIconButtonView.obj(?Timer@CIconButtonView@@UAEXPAVTTimerObj@@@Z)
00460ca0 00000047 .text             CIconButtonView.obj(??_ECIconButtonView@@UAE@I@Z)
00460cf0 00000039 .text             CIconView.obj(??0CIconView@@QAE@PAVCViewHandler@@ABVSRect@@@Z)
00460d30 00000033 .text             CIconView.obj(?SetIconID@CIconView@@QAEXJ@Z)
00460d70 0000005b .text             CIconView.obj(?SetIcon@CIconView@@UAEXPAVTIconObj@@@Z)
00460dd0 00000032 .text             CIconView.obj(?Draw@CIconView@@UAEXPAVTImageObj@@ABVSRect@@K@Z)
00460e10 0000004d .text             CIconView.obj(??_ECIconView@@UAE@I@Z)
00460e60 0000001b .text             CIconView.obj(??1CIconView@@UAE@XZ)
00460e80 000002c7 .text             UGUID.obj(?ToText@UGUID@@SAKABUSGUID@@PAXK@Z)
00461150 0000016c .text             UGUID.obj(?FromText@UGUID@@SA_NAAUSGUID@@PBXK@Z)
004612c0 00000118 .text             winmaincrt.obj(_WinMainCRTStartup)
004613e0 0000001a .text             \qtml\buildresults\NoSym\obj\qtmlClientPublic\ClientToolboxAPI.obj(_DestroyPortAssociation)
00461400 0000001a .text             \qtml\buildresults\NoSym\obj\qtmlClientPublic\ClientToolboxAPI.obj(_GetNativeWindowPort)
00461420 0000001a .text             \qtml\buildresults\NoSym\obj\qtmlClientPublic\ClientToolboxAPI.obj(_NativeEventToMacEvent)
00461440 00000010 .text             \qtml\buildresults\NoSym\obj\qtmlClientPublic\ClientToolboxAPI.obj(_BogusDispatcher)
00461450 00000150 .text             \qtml\buildresults\NoSym\obj\qtmlClientPublic\ClientToolboxAPI.obj(_autoPatchThoseAddresses)
004615a0 0000003b .text             UProgramCleanup.obj(??0Cleanup@UProgramCleanup@@IAE@XZ)
004615e0 0000008f .text             UProgramCleanup.obj(??1Cleanup@UProgramCleanup@@IAE@XZ)
00461670 00000049 .text             UProgramCleanup.obj(?InstallSystem@Cleanup@UProgramCleanup@@IAEXP6AXXZ@Z)
004616c0 0000004a .text             UProgramCleanup.obj(?InstallAppl@Cleanup@UProgramCleanup@@IAEXP6AXXZ@Z)
00461710 00000097 .text             UProgramCleanup.obj(?CleanupAppl@Cleanup@UProgramCleanup@@IAEXXZ)
004617b0 00000012 .text             UProgramCleanup.obj(?InstallSystem@UProgramCleanup@@SAXP6AXXZ@Z)
004617d0 00000012 .text             UProgramCleanup.obj(?InstallAppl@UProgramCleanup@@SAXP6AXXZ@Z)
004617f0 0000000f .text             UProgramCleanup.obj(?CleanupAppl@UProgramCleanup@@SAXXZ)
00461800 00000026 .text             UProgramCleanup.obj
00461830 000000c7 .text             UService(W).obj(?Init@UService@@SAXPAEE@Z)
00461900 00000066 .text             UService(W).obj(?IsInstalled@UService@@SA_NXZ)
00461970 0000015a .text             UService(W).obj(?Install@UService@@SA_NE@Z)
00461ad0 000000e5 .text             UService(W).obj(?Uninstall@UService@@SA_NXZ)
00461bc0 00000014 .text             UService(W).obj(?IsService@UService@@SA_NXZ)
00461be0 00000032 .text             UService(W).obj(?PostMessage@UService@@SAXKPBXKF@Z)
00461c20 00000069 .text             UService(W).obj(?Start@UService@@SA_NXZ)
00461c90 00000033 .text             UService(W).obj(?Register@UService@@SA_NXZ)
00461cd0 00000040 .text             UService(W).obj(?SetStatus@UService@@SAXKKKK@Z)
00461d10 00000016 .text             UService(W).obj(?UpdateStatus@UService@@SAXXZ)
00461d30 00000075 .text             UService(W).obj(?_ServiceMain@@YGXKPAPAD@Z)
00461db0 000000de .text             UService(W).obj(?_ServiceMessageHandler@@YGXK@Z)
00461e90 000002b8 .text             UOleAutomation(W).obj(?RegisterServer@UOleAutomation@@SA_NPBD0_N@Z)
00462150 000003c7 .text             UOleAutomation(W).obj(?IsRegisteredServer@UOleAutomation@@SA_NPBD0_N@Z)
00462520 0000001f .text             UOleAutomation(W).obj(??0_DProtocolHandler@@QAE@XZ)
00462540 000000af .text             UOleAutomation(W).obj(?Initialize@_DProtocolHandler@@UAGFPBD0@Z)
004625f0 000000d2 .text             UOleAutomation(W).obj(?Open@_DProtocolHandler@@UAGXPBD@Z)
004626d0 0000003e .text             UOleAutomation(W).obj(??0_DIProtocolUnknown@@QAE@XZ)
00462710 000000de .text             UOleAutomation(W).obj(?Create@_DIProtocolUnknown@@SAPAV1@XZ)
004627f0 00000090 .text             UOleAutomation(W).obj(?QueryInterface@_DIProtocolUnknown@@UAGJABU_GUID@@PAPAX@Z)
00462880 00000013 .text             UOleAutomation(W).obj(?AddRef@_DIProtocolUnknown@@UAGKXZ)
004628a0 0000002e .text             UOleAutomation(W).obj(?Release@_DIProtocolUnknown@@UAGKXZ)
004628d0 00000029 .text             UOleAutomation(W).obj(??0_DIProtocolClassFactory@@QAE@XZ)
00462900 00000050 .text             UOleAutomation(W).obj(?Create@_DIProtocolClassFactory@@SAPAV1@XZ)
00462950 00000078 .text             UOleAutomation(W).obj(?QueryInterface@_DIProtocolClassFactory@@UAGJABU_GUID@@PAPAX@Z)
004629d0 00000013 .text             UOleAutomation(W).obj(?AddRef@_DIProtocolClassFactory@@UAGKXZ)
004629f0 0000002e .text             UOleAutomation(W).obj(?Release@_DIProtocolClassFactory@@UAGKXZ)
00462a20 00000040 .text             UOleAutomation(W).obj(?CreateInstance@_DIProtocolClassFactory@@UAGJPAUIUnknown@@ABU_GUID@@PAPAX@Z)
00462a60 0000000c .text             UOleAutomation(W).obj(?LockServer@_DIProtocolClassFactory@@UAGJH@Z)
00462a70 00000104 .text             UOleAutomation(W).obj(?_InitInterfaceData@@YAXXZ)
00462b80 00000148 .text             UOleAutomation(W).obj(?_InitOleAutomationServer@@YA_NXZ)
00462cd0 00000045 .text             UOleAutomation(W).obj(?_UninitInterfaceData@@YAXXZ)
00462d20 0000007e .text             UOleAutomation(W).obj(?_UninitOleAutomationServer@@YAXXZ)
00462da0 00000007 .text             URegularTransport(W).obj(?HasTCP@URegularTransport@@SA_NXZ)
00462db0 00000029 .text             URegularTransport(W).obj(?_Deinit@@YAXXZ)
00462de0 0000028e .text             URegularTransport(W).obj(?Init@URegularTransport@@SAXXZ)
00463070 00000160 .text             URegularTransport(W).obj(?New@URegularTransport@@SAPAVTRegularTransportObj@@KK@Z)
004631d0 00000194 .text             URegularTransport(W).obj(?Dispose@URegularTransport@@SAXPAVTRegularTransportObj@@@Z)
00463370 0000003c .text             URegularTransport(W).obj(?SetMessageHandler@URegularTransport@@SAXPAVTRegularTransportObj@@P6AXPAX1KPBXK@Z11@Z)
004633b0 00000052 .text             URegularTransport(W).obj(?PostMessage@URegularTransport@@SAXPAVTRegularTransportObj@@KPBXKF@Z)
00463410 0000003e .text             URegularTransport(W).obj(?SetIPAddress@URegularTransport@@SAXPAVTRegularTransportObj@@USIPAddress@@@Z)
00463450 000000ca .text             URegularTransport(W).obj(?GetRemoteAddressText@URegularTransport@@SAKPAVTRegularTransportObj@@PAXK@Z)
00463520 000001bc .text             URegularTransport(W).obj(?GetLocalAddressText@URegularTransport@@SAKPAVTRegularTransportObj@@PAXK@Z)
004636e0 0000014d .text             URegularTransport(W).obj(?GetLocalAddress@URegularTransport@@SAKPAVTRegularTransportObj@@PAXK@Z)
00463830 000003d4 .text             URegularTransport(W).obj(?GetProxyServerAddress@URegularTransport@@SAKGPAXKPBXK@Z)
00463c10 00000018 .text             URegularTransport(W).obj(?IsConnected@URegularTransport@@SA_NPAVTRegularTransportObj@@@Z)
00463c30 000001fc .text             URegularTransport(W).obj(?StartConnect@URegularTransport@@SAXPAVTRegularTransportObj@@PBXKK@Z)
00463e30 00000090 .text             URegularTransport(W).obj(?GetConnectStatus@URegularTransport@@SAGPAVTRegularTransportObj@@@Z)
00463ec0 0000008d .text             URegularTransport(W).obj(?Disconnect@URegularTransport@@SAXPAVTRegularTransportObj@@@Z)
00463f50 00000026 .text             URegularTransport(W).obj(?StartDisconnect@URegularTransport@@SAXPAVTRegularTransportObj@@@Z)
00463f80 00000018 .text             URegularTransport(W).obj(?IsDisconnecting@URegularTransport@@SA_NPAVTRegularTransportObj@@@Z)
00463fa0 0000008d .text             URegularTransport(W).obj(?Listen@URegularTransport@@SAXPAVTRegularTransportObj@@PBXK@Z)
00464030 00000128 .text             URegularTransport(W).obj(?Accept@URegularTransport@@SAPAVTRegularTransportObj@@PAV2@PAXPAK@Z)
00464160 00000042 .text             URegularTransport(W).obj(?NewBuffer@URegularTransport@@SAPAXK@Z)
004641b0 00000018 .text             URegularTransport(W).obj(?DisposeBuffer@URegularTransport@@SAXPAX@Z)
004641d0 00000018 .text             URegularTransport(W).obj(?GetBufferSize@URegularTransport@@SAKPAX@Z)
004641f0 00000106 .text             URegularTransport(W).obj(?SendBuffer@URegularTransport@@SAXPAVTRegularTransportObj@@PAX@Z)
00464300 00000164 .text             URegularTransport(W).obj(?Send@URegularTransport@@SAXPAVTRegularTransportObj@@PBXK@Z)
00464470 00000207 .text             URegularTransport(W).obj(?ReceiveBuffer@URegularTransport@@SA_NPAVTRegularTransportObj@@AAPAXAAK@Z)
00464680 00000137 .text             URegularTransport(W).obj(?Receive@URegularTransport@@SAKPAVTRegularTransportObj@@PAXK@Z)
004647c0 00000054 .text             URegularTransport(W).obj(?GetReceiveSize@URegularTransport@@SAKPAVTRegularTransportObj@@@Z)
00464820 00000053 .text             URegularTransport(W).obj(?GetUnsentSize@URegularTransport@@SAKPAVTRegularTransportObj@@@Z)
00464880 00000071 .text             URegularTransport(W).obj(?NotifyReadyToReceive@URegularTransport@@SAXPAVTRegularTransportObj@@K@Z)
00464900 00000056 .text             URegularTransport(W).obj(?NotifyReadyToSend@URegularTransport@@SAXPAVTRegularTransportObj@@@Z)
00464960 00000092 .text             URegularTransport(W).obj(?IsReadyToReceive@URegularTransport@@SA_NPAVTRegularTransportObj@@K@Z)
00464a00 00000031 .text             URegularTransport(W).obj(?IsReadyToSend@URegularTransport@@SA_NPAVTRegularTransportObj@@@Z)
00464a40 00000255 .text             URegularTransport(W).obj(?SendUnit@URegularTransport@@SAXPAVTRegularTransportObj@@PBXK1K@Z)
00464ca0 00000010 .text             URegularTransport(W).obj(?IsRegisteredProtocol@URegularTransport@@SA_NPBE@Z)
00464cb0 000001dd .text             URegularTransport(W).obj(?LaunchURL@URegularTransport@@SA_NPBXKPAK1@Z)
00464e90 0000025a .text             URegularTransport(W).obj(?_TRStdToWinAddr@@YAKPBXKPAXK@Z)
004650f0 00000081 .text             URegularTransport(W).obj(?_TRWinToStdAddr@@YAKPBXKPAXK@Z)
00465180 0000003f .text             URegularTransport(W).obj(?_TRLookupSock@@YAPAUSRegularTransport@@I@Z)
004651c0 0000003f .text             URegularTransport(W).obj(?_TRLookupSockByLTHdl@@YAPAUSRegularTransport@@PAX@Z)
00465200 0000003f .text             URegularTransport(W).obj(?_TRLookupSockByULTHdl@@YAPAUSRegularTransport@@PAX@Z)
00465240 0000004b .text             URegularTransport(W).obj(?_TRLookupSockByFWLTHdl@@YAPAUSRegularTransport@@PAX@Z)
00465290 00000133 .text             URegularTransport(W).obj(?_TRNotifyReadyToReceive@@YA_NPAVTRegularTransportObj@@K_N@Z)
004653d0 000003cf .text             URegularTransport(W).obj(?_TRSockProc@@YGJPAUHWND__@@IIJ@Z)
004657a0 0000049d .text             URegularTransport(W).obj(?_TRAsyncProc@@YGJPAUHWND__@@IIJ@Z)
00465c40 000000bd .text             URegularTransport(W).obj(?_TRExtractNameAddr@@YAXABUSInternetNameAddress@@PADPAG@Z)
00465d00 0000009c .text             URegularTransport(W).obj(?_TRCappedSend@@YAKIPBXK@Z)
00465da0 000001b9 .text             URegularTransport(W).obj(?_TRSendQueued@@YAXPAVTRegularTransportObj@@@Z)
00465f60 000000a0 .text             URegularTransport(W).obj(?_TRGetUnsentData@@YAXPAVTRegularTransportObj@@PAV?$CPtrList@USSendData@@@@@Z)
00466000 00000094 .text             URegularTransport(W).obj(?_TRBindIPAddress@@YAXPAVTRegularTransportObj@@G@Z)
004660a0 00000104 .text             URegularTransport(W).obj(?_TRTryConnectViaFirewall@@YAXPAUSRegularTransport@@@Z)
004661b0 000000cb .text             URegularTransport(W).obj(?_IsRegisteredProtocol_InternetExplorer@@YA_NPBE@Z)
00466280 00000025 .text             UHttpTransport.obj(?_Deinit@@YAXXZ)
004662b0 00000039 .text             UHttpTransport.obj(?Init@UHttpTransport@@SAXXZ)
004662f0 00000139 .text             UHttpTransport.obj(?New@UHttpTransport@@SAPAVTHttpTransportObj@@KK@Z)
00466430 00000116 .text             UHttpTransport.obj(?Dispose@UHttpTransport@@SAXPAVTHttpTransportObj@@@Z)
00466550 0000003c .text             UHttpTransport.obj(?SetMessageHandler@UHttpTransport@@SAXPAVTHttpTransportObj@@P6AXPAX1KPBXK@Z11@Z)
00466590 00000052 .text             UHttpTransport.obj(?PostMessage@UHttpTransport@@SAXPAVTHttpTransportObj@@KPBXKF@Z)
004665f0 00000051 .text             UHttpTransport.obj(?SetIPAddress@UHttpTransport@@SAXPAVTHttpTransportObj@@USIPAddress@@@Z)
00466650 00000066 .text             UHttpTransport.obj(?GetRemoteAddressText@UHttpTransport@@SAKPAVTHttpTransportObj@@PAXK@Z)
004666c0 00000066 .text             UHttpTransport.obj(?GetLocalAddressText@UHttpTransport@@SAKPAVTHttpTransportObj@@PAXK@Z)
00466730 00000039 .text             UHttpTransport.obj(?IsConnected@UHttpTransport@@SA_NPAVTHttpTransportObj@@@Z)
00466770 0000006e .text             UHttpTransport.obj(?GetConnectStatus@UHttpTransport@@SAGPAVTHttpTransportObj@@@Z)
004667e0 000000a0 .text             UHttpTransport.obj(?Disconnect@UHttpTransport@@SAXPAVTHttpTransportObj@@@Z)
00466880 000000a0 .text             UHttpTransport.obj(?StartDisconnect@UHttpTransport@@SAXPAVTHttpTransportObj@@@Z)
00466920 00000027 .text             UHttpTransport.obj(?IsDisconnecting@UHttpTransport@@SA_NPAVTHttpTransportObj@@@Z)
00466950 0000003e .text             UHttpTransport.obj(?Listen@UHttpTransport@@SAXPAVTHttpTransportObj@@PBXK@Z)
00466990 00000150 .text             UHttpTransport.obj(?Accept@UHttpTransport@@SAPAVTHttpTransportObj@@PAV2@PAXPAK@Z)
00466ae0 00000116 .text             UHttpTransport.obj(?SendBuffer@UHttpTransport@@SAXPAVTHttpTransportObj@@PAX@Z)
00466c00 0000013f .text             UHttpTransport.obj(?Send@UHttpTransport@@SAXPAVTHttpTransportObj@@PBXK@Z)
00466d40 0000019e .text             UHttpTransport.obj(?ReceiveBuffer@UHttpTransport@@SA_NPAVTHttpTransportObj@@AAPAXAAK@Z)
00466ee0 000001b8 .text             UHttpTransport.obj(?Receive@UHttpTransport@@SAKPAVTHttpTransportObj@@PAXK@Z)
004670a0 00000053 .text             UHttpTransport.obj(?GetUnsentSize@UHttpTransport@@SAKPAVTHttpTransportObj@@@Z)
00467100 0000003f .text             UHttpTransport.obj(?NotifyReadyToSend@UHttpTransport@@SAXPAVTHttpTransportObj@@@Z)
00467140 000000ae .text             UHttpTransport.obj(?IsReadyToReceive@UHttpTransport@@SA_NPAVTHttpTransportObj@@K@Z)
004671f0 00000043 .text             UHttpTransport.obj(?IsReadyToSend@UHttpTransport@@SA_NPAVTHttpTransportObj@@@Z)
00467240 00000042 .text             UHttpTransport.obj(?SendUnit@UHttpTransport@@SAXPAVTHttpTransportObj@@PBXK1K@Z)
00467290 00000080 .text             UHttpTransport.obj(?_HttpConnectionOpenMessageHandler@@YAXPAX0KPBXK@Z)
00467310 00000124 .text             UHttpTransport.obj(?_HttpConnectionMessageHandler@@YAXPAX0KPBXK@Z)
00467440 00000074 .text             UHttpTransport.obj(?_HttpConnectionTimerHandler@@YAXPAX0KPBXK@Z)
004674c0 00000015 .text             UHttpTransport.obj(?_HttpConnectionOpenCloseTimerHandler@@YAXPAX0KPBXK@Z)
004674e0 0000016c .text             UHttpTransport.obj(?_CheckAddress@@YA_NPAVTHttpTransportObj@@_N@Z)
00467650 0000020b .text             UHttpTransport.obj(?_GetAddress@@YA_NPAVTHttpTransportObj@@PAEK1K@Z)
00467860 0000010f .text             UHttpTransport.obj(?_GetProxyAddresss@@YA_NAAUSInternetNameAddress@@@Z)
00467970 000000d9 .text             UHttpTransport.obj(?_AcceptConnection@@YA_NPAVTHttpTransportObj@@@Z)
00467a50 000000bc .text             UHttpTransport.obj(?_CheckConnectionEstabilished@@YA_NPAVTHttpTransportObj@@@Z)
00467b10 00000210 .text             UHttpTransport.obj(?_SearchConnectionOpenPair@@YA_NPAVTHttpTransportObj@@AAPAVTRegularTransportObj@@1AAUSGUID@@PAXPAK@Z)
00467d20 00000239 .text             UHttpTransport.obj(?_TryReconnect@@YA_NPAVTHttpTransportObj@@@Z)
00467f60 000000db .text             UHttpTransport.obj(?_WaitReconnect@@YA_NPAVTHttpTransportObj@@@Z)
00468040 00000168 .text             UHttpTransport.obj(?_SearchReconnect@@YA_NPAUSConnectionInfo@@@Z)
004681b0 00000213 .text             UHttpTransport.obj(?_ReceiveDisconnectData@@YA_NPAVTHttpTransportObj@@@Z)
004683d0 0000007b .text             UHttpTransport.obj(?_Disconnect@@YAXPAVTHttpTransportObj@@@Z)
00468450 000001f9 .text             UHttpTransport.obj(?_SendHttpPostHeader@@YA_NPAVTHttpTransportObj@@@Z)
00468650 0000010f .text             UHttpTransport.obj(?_SendHttpResponsePostHeader@@YA_NPAVTRegularTransportObj@@@Z)
00468760 00000190 .text             UHttpTransport.obj(?_SendHttpGetHeader@@YA_NPAVTHttpTransportObj@@@Z)
004688f0 00000107 .text             UHttpTransport.obj(?_SendHttpResponseGetHeader@@YA_NPAVTRegularTransportObj@@@Z)
00468a00 000000d9 .text             UHttpTransport.obj(?_SendHttpPadding@@YA_NPAVTRegularTransportObj@@K@Z)
00468ae0 00000035 .text             UHttpTransport.obj(?_SendDisconnectPost@@YAXPAVTRegularTransportObj@@@Z)
00468b20 0000005a .text             UHttpTransport.obj(?_SendDisconnectGet@@YAXPAVTRegularTransportObj@@@Z)
00468b80 0000048f .text             UHttpTransport.obj(?_ReceiveHttpHeader@@YA_NPAUSConnectionInfo@@@Z)
00469010 00000352 .text             UHttpTransport.obj(?_ReceiveHttpHeader@@YA_NPAVTHttpTransportObj@@@Z)
00469370 000001ed .text             UHttpTransport.obj(?_ReceiveHttpData@@YA_NPAVTHttpTransportObj@@@Z)
00469560 00000084 .text             UHttpTransport.obj(?_ReceiveHttpPadding@@YA_NPAUSConnectionInfo@@K@Z)
004695f0 00000085 .text             UHttpTransport.obj(?_ReceiveHttpPadding@@YA_NPAVTHttpTransportObj@@K@Z)
00469680 0000010b .text             UHttpTransport.obj(?_AddField_General@@YA_NPAPAXAAKPBE22@Z)
00469790 0000006e .text             UHttpTransport.obj(?_AddField_End@@YA_NPAPAXAAK@Z)
00469800 000000c6 .text             UHttpTransport.obj(?_GetHeaderSize@@YA_NPAXKAAK@Z)
004698d0 00000090 .text             UHttpTransport.obj(?_AddSendDataList@@YAXPAVTHttpTransportObj@@K@Z)
00469960 000000f7 .text             UHttpTransport.obj(?_ClearSendDataList@@YA_NPAVTHttpTransportObj@@@Z)
00469a60 00000070 .text             UHttpTransport.obj(?_GetUnsentSize@@YAKPAVTHttpTransportObj@@@Z)
00469ad0 0000009a .text             UHttpTransport.obj(?_CleanConnectionOpenList@@YAXXZ)
00469b70 00000076 .text             UHttpTransport.obj(?_ClearConnectionOpenList@@YAXXZ)
00469bf0 0000007f .text             UHttpTransport.obj(?_CleanConnectionCloseList@@YAXXZ)
00469c70 00000099 .text             UHttpTransport.obj(?_ClearConnectionCloseList@@YAXXZ)
00469d10 00000068 .text             UHttpTransport.obj
00469d80 0000001e .text             UHttpTransport.obj(??1?$CPtrList@USHttpTransport@@@@QAE@XZ)
00469da0 0000001e .text             UHttpTransport.obj(??1?$CPtrList@VTRegularTransportObj@@@@QAE@XZ)
00469dc0 0000001e .text             UHttpTransport.obj(??1?$CPtrList@USConnectionInfo@@@@QAE@XZ)
00469de0 0000022d .text             UIDVarArray.obj(?GetItem@UIDVarArray@@SAKPBXKKPAXK@Z)
0046a010 0000000e .text             delarrop.obj(??_V@YAXPAX@Z)
0046a020 00000005 .text             URegion(W).obj(?Init@URegion@@SAXXZ)
0046a030 0000003d .text             URegion(W).obj(?New@URegion@@SAPAVTRegionObj@@XZ)
0046a070 0000006e .text             URegion(W).obj(?New@URegion@@SAPAVTRegionObj@@PAV2@@Z)
0046a0e0 00000014 .text             URegion(W).obj(?Dispose@URegion@@SAXPAVTRegionObj@@@Z)
0046a100 00000011 .text             URegion(W).obj(?GetBounds@URegion@@SAXPAVTRegionObj@@AAVSRect@@@Z)
0046a120 00000042 .text             URegion(W).obj(?SetBounds@URegion@@SAXPAVTRegionObj@@ABVSRect@@@Z)
0046a170 00000014 .text             URegion(W).obj(?Move@URegion@@SAXPAVTRegionObj@@JJ@Z)
0046a190 00000031 .text             URegion(W).obj(?Add@URegion@@SAXPAVTRegionObj@@0@Z)
0046a1d0 00000076 .text             URegion(W).obj(?AddRect@URegion@@SAXPAVTRegionObj@@ABVSRect@@@Z)
0046a250 00000075 .text             URegion(W).obj(?SetRect@URegion@@SAXPAVTRegionObj@@ABVSRect@@@Z)
0046a2d0 0000001f .text             URegion(W).obj(?IsPointWithin@URegion@@SA_NPAVTRegionObj@@ABVSPoint@@@Z)
0046a2f0 0000007a .text             URegion(W).obj(?SetEmpty@URegion@@SAXPAVTRegionObj@@@Z)
0046a370 00000005 .text             URegion(W).obj(?SetOutline@URegion@@SAXPAVTRegionObj@@FF@Z)
0046a380 00000015 .text             UDragAndDrop(W).obj(?Init@UDragAndDrop@@SAXXZ)
0046a3a0 00000007 .text             UDragAndDrop(W).obj(?IsAvailable@UDragAndDrop@@SA_NXZ)
0046a3b0 00000065 .text             UDragAndDrop(W).obj(?New@UDragAndDrop@@SAPAVTDragObj@@XZ)
0046a420 000000a6 .text             UDragAndDrop(W).obj(?Dispose@UDragAndDrop@@SAXPAVTDragObj@@@Z)
0046a4d0 000000fe .text             UDragAndDrop(W).obj(?Track@UDragAndDrop@@SA_NPAVTDragObj@@ABVSPoint@@PAVTRegionObj@@@Z)
0046a5d0 00000015 .text             UDragAndDrop(W).obj(?SetDragAction@UDragAndDrop@@SAXPAVTDragObj@@G@Z)
0046a5f0 00000019 .text             UDragAndDrop(W).obj(?GetDragAction@UDragAndDrop@@SAGPAVTDragObj@@@Z)
0046a610 00000015 .text             UDragAndDrop(W).obj(?AcceptDrop@UDragAndDrop@@SAXPAVTDragObj@@@Z)
0046a630 00000015 .text             UDragAndDrop(W).obj(?RejectDrop@UDragAndDrop@@SAXPAVTDragObj@@@Z)
0046a650 00000042 .text             UDragAndDrop(W).obj(?GetItemCount@UDragAndDrop@@SAKPAVTDragObj@@@Z)
0046a6a0 00000008 .text             UDragAndDrop(W).obj(?GetItem@UDragAndDrop@@SAKPAVTDragObj@@K@Z)
0046a6b0 000000ba .text             UDragAndDrop(W).obj(?HasFlavor@UDragAndDrop@@SA_NPAVTDragObj@@K@Z)
0046a770 0000027d .text             UDragAndDrop(W).obj(?AddTextFlavor@UDragAndDrop@@SAXPAVTDragObj@@KPBXKKK@Z)
0046a9f0 0000021f .text             UDragAndDrop(W).obj(?GetFlavorData@UDragAndDrop@@SAKPAVTDragObj@@KKPAXKK@Z)
0046ac10 000001b0 .text             UDragAndDrop(W).obj(?GetFlavorDataSize@UDragAndDrop@@SAKPAVTDragObj@@KK@Z)
0046adc0 00000007 .text             UDragAndDrop(W).obj(?DropLocationIsTrash@UDragAndDrop@@SA_NPAVTDragObj@@@Z)
0046add0 00000046 .text             UDragAndDrop(W).obj(?DrawHilite@UDragAndDrop@@SAXPAVTImageObj@@ABVSRect@@ABVSColor@@@Z)
0046ae20 00000038 .text             UDragAndDrop(W).obj(?DrawHilite@UDragAndDrop@@SAXPAVTImageObj@@ABVSRect@@@Z)
0046ae60 000000b9 .text             UDragAndDrop(W).obj(?Equals@UDragAndDrop@@SA_NPAVTDragObj@@0@Z)
0046af20 00000058 .text             UDragAndDrop(W).obj(?_DDLookupAWFlav@@YAPBUFlavMap@@K@Z)
0046af80 0000005a .text             UDragAndDrop(W).obj(?_DDLookupWinFlav@@YAPBUFlavMap@@G@Z)
0046afe0 00000068 .text             UDragAndDrop(W).obj(?_DDRegisterWinForDrop@@YAXPAUHWND__@@PAX@Z)
0046b050 00000034 .text             UDragAndDrop(W).obj(??0_DDDataObject@@QAE@PAPAUSDDFlav@@@Z)
0046b090 000000b7 .text             UDragAndDrop(W).obj(?QueryInterface@_DDDataObject@@UAGJABU_GUID@@PAPAX@Z)
0046b150 00000013 .text             UDragAndDrop(W).obj(?AddRef@_DDDataObject@@UAGKXZ)
0046b170 0000002e .text             UDragAndDrop(W).obj(?Release@_DDDataObject@@UAGKXZ)
0046b1a0 0000026b .text             UDragAndDrop(W).obj(?GetData@_DDDataObject@@UAGJPAUtagFORMATETC@@PAUtagSTGMEDIUM@@@Z)
0046b410 0000035f .text             UDragAndDrop(W).obj(?GetDataHere@_DDDataObject@@UAGJPAUtagFORMATETC@@PAUtagSTGMEDIUM@@@Z)
0046b770 000000f5 .text             UDragAndDrop(W).obj(?QueryGetData@_DDDataObject@@UAGJPAUtagFORMATETC@@@Z)
0046b870 0000001b .text             UDragAndDrop(W).obj(?GetCanonicalFormatEtc@_DDDataObject@@UAGJPAUtagFORMATETC@@0@Z)
0046b890 000001fb .text             UDragAndDrop(W).obj(?SetData@_DDDataObject@@UAGJPAUtagFORMATETC@@PAUtagSTGMEDIUM@@H@Z)
0046ba90 0000014c .text             UDragAndDrop(W).obj(?EnumFormatEtc@_DDDataObject@@UAGJKPAPAUIEnumFORMATETC@@@Z)
0046bbe0 0000000c .text             UDragAndDrop(W).obj(?DAdvise@_DDDataObject@@UAGJPAUtagFORMATETC@@KPAUIAdviseSink@@PAK@Z)
0046bbf0 0000000c .text             UDragAndDrop(W).obj(?DUnadvise@_DDDataObject@@UAGJK@Z)
0046bc00 0000000c .text             UDragAndDrop(W).obj(?EnumDAdvise@_DDDataObject@@UAGJPAPAUIEnumSTATDATA@@@Z)
0046bc10 00000029 .text             UDragAndDrop(W).obj(??0_DDDropSource@@QAE@XZ)
0046bc40 00000068 .text             UDragAndDrop(W).obj(?QueryInterface@_DDDropSource@@UAGJABU_GUID@@PAPAX@Z)
0046bcb0 00000013 .text             UDragAndDrop(W).obj(?AddRef@_DDDropSource@@UAGKXZ)
0046bcd0 0000002e .text             UDragAndDrop(W).obj(?Release@_DDDropSource@@UAGKXZ)
0046bd00 00000034 .text             UDragAndDrop(W).obj(?QueryContinueDrag@_DDDropSource@@UAGJHK@Z)
0046bd40 0000000c .text             UDragAndDrop(W).obj(?GiveFeedback@_DDDropSource@@UAGJK@Z)
0046bd50 000000b7 .text             UDragAndDrop(W).obj(??0_DDFormatEtcEnum@@QAE@KPAUtagFORMATETC@@@Z)
0046be10 00000068 .text             UDragAndDrop(W).obj(?QueryInterface@_DDFormatEtcEnum@@UAGJABU_GUID@@PAPAX@Z)
0046be80 00000013 .text             UDragAndDrop(W).obj(?AddRef@_DDFormatEtcEnum@@UAGKXZ)
0046bea0 0000002e .text             UDragAndDrop(W).obj(?Release@_DDFormatEtcEnum@@UAGKXZ)
0046bed0 000000d7 .text             UDragAndDrop(W).obj(?Next@_DDFormatEtcEnum@@UAGJKPAUtagFORMATETC@@PAK@Z)
0046bfb0 0000007f .text             UDragAndDrop(W).obj(?Skip@_DDFormatEtcEnum@@UAGJK@Z)
0046c030 00000018 .text             UDragAndDrop(W).obj(?Reset@_DDFormatEtcEnum@@UAGJXZ)
0046c050 0000007b .text             UDragAndDrop(W).obj(?Clone@_DDFormatEtcEnum@@UAGJPAPAUIEnumFORMATETC@@@Z)
0046c0d0 00000066 .text             UDragAndDrop(W).obj(??0_DDDropTarget@@QAE@PAX@Z)
0046c140 00000068 .text             UDragAndDrop(W).obj(?QueryInterface@_DDDropTarget@@UAGJABU_GUID@@PAPAX@Z)
0046c1b0 00000013 .text             UDragAndDrop(W).obj(?AddRef@_DDDropTarget@@UAGKXZ)
0046c1d0 0000002e .text             UDragAndDrop(W).obj(?Release@_DDDropTarget@@UAGKXZ)
0046c200 0000009e .text             UDragAndDrop(W).obj(?DragEnter@_DDDropTarget@@UAGJPAUIDataObject@@KU_POINTL@@PAK@Z)
0046c2a0 00000084 .text             UDragAndDrop(W).obj(?DragOver@_DDDropTarget@@UAGJKU_POINTL@@PAK@Z)
0046c330 00000063 .text             UDragAndDrop(W).obj(?DragLeave@_DDDropTarget@@UAGJXZ)
0046c3a0 000000d2 .text             UDragAndDrop(W).obj(?Drop@_DDDropTarget@@UAGJPAUIDataObject@@KU_POINTL@@PAK@Z)
0046c480 00000073 .text             UDragAndDrop(W).obj(?DispatchDrag@_DDDropTarget@@UAGHKKU_POINTL@@PAK@Z)
0046c500 00000056 .text             UTooltip.obj(??0_TTCToolTipView@@QAE@PAVCViewHandler@@ABVSRect@@ABVSColor@@@Z)
0046c560 00000034 .text             UTooltip.obj(??1_TTCToolTipView@@UAE@XZ)
0046c5a0 0000004b .text             UTooltip.obj(?Draw@_TTCToolTipView@@UAEXPAVTImageObj@@ABVSRect@@K@Z)
0046c5f0 000000e2 .text             UTooltip.obj(??0_TTCToolTipWin@@QAE@XZ)
0046c6e0 00000031 .text             UTooltip.obj(?SetText@_TTCToolTipWin@@QAEXPBE@Z)
0046c720 00000141 .text             UTooltip.obj(?RecalcDims@_TTCToolTipWin@@QAEXXZ)
0046c870 00000062 .text             UTooltip.obj(?_TTTimerHandler@@YAXPAX0KPBXK@Z)
0046c8e0 0000004e .text             UTooltip.obj(?_TTTimerStop@@YAXXZ)
0046c930 00000055 .text             UTooltip.obj(?Init@UTooltip@@SAXXZ)
0046c990 00000101 .text             UTooltip.obj(?Activate@UTooltip@@SAXPAVCView@@PBE@Z)
0046caa0 00000068 .text             UTooltip.obj(?Hide@UTooltip@@SAXXZ)
0046cb10 0000000b .text             UTooltip.obj(?GetState@UTooltip@@SAGXZ)
0046cb20 00000012 .text             UTooltip.obj(?IsEnabled@UTooltip@@SA_NXZ)
0046cb40 00000061 .text             UTooltip.obj(??_E_TTCToolTipWin@@UAE@I@Z)
0046cbb0 00000027 .text             UTooltip.obj(??1_TTCToolTipWin@@UAE@XZ)
0046cbe0 00000058 .text             UTooltip.obj(??_E_TTCToolTipView@@UAE@I@Z)
0046cc40 000000ff .text             GrafTypes.obj(??_5SRect@@QAEAAV0@ABV0@@Z)
0046cd40 00000076 .text             GrafTypes.obj(?Intersects@SRect@@QBE_NABV1@@Z)
0046cdc0 000000d6 .text             GrafTypes.obj(?GetIntersection@SRect@@QBE_NABV1@AAV1@@Z)
0046cea0 0000012d .text             GrafTypes.obj(?Constrain@SRect@@QAEXABV1@@Z)
0046cfd0 00000091 .text             GrafTypes.obj(?Center@SRect@@QAEXABV1@@Z)
0046d070 00000053 .text             GrafTypes.obj(?CenterHoriz@SRect@@QAEXABV1@@Z)
0046d0d0 00000057 .text             GrafTypes.obj(?CenterVert@SRect@@QAEXABV1@@Z)
0046d130 00000068 .text             GrafTypes.obj(?MoveTo@SRect@@QAEXJJ@Z)
0046d1a0 00000273 .text             GrafTypes.obj(?Align@SRect@@QAEXGABV1@@Z)
0046d420 000000c6 .text             GrafTypes.obj(?SetIdentity@SMatrix3@@QAEXXZ)
0046d4f0 00000128 .text             GrafTypes.obj(?Rotate@SMatrix3@@QAEXN@Z)
0046d620 000000ed .text             GrafTypes.obj(?TransformPoints@SMatrix3@@QBEXPAUSFloatPoint@@K@Z)
0046d710 00000d1f .text             GrafTypes.obj
0046e430 000000db .text             UKeyboard.obj(?FindKeyCommand@UKeyboard@@SAKABUSKeyMsgData@@PBUSKeyCmd@@K@Z)
0046e510 00000040 .text             ctype.obj(_tolower)
0046e550 00000040 .text             ctype.obj(_toupper)
0046e590 00000072 .text             UDateTime.obj(?IsLeapYear@UDateTime@@SA_NKK@Z)
0046e610 00000015 .text             arith.obj(_labs)
0046e630 0000002d .text             globdest.obj(___register_global_object)
0046e660 0000000f .text             UMessageSys.obj(?New@UMessageSys@@SAPAVTMessageSysObj@@XZ)
0046e670 00000030 .text             UMessageSys.obj(?SetDefaultProc@UMessageSys@@SAXPAVTMessageSysObj@@P6AXPAX1KPBXK@Z1@Z)
0046e6a0 00000034 .text             UMessageSys.obj(?GetDefaultProc@UMessageSys@@SAXPAVTMessageSysObj@@AAP6AXPAX1KPBXK@ZAAPAX@Z)
0046e6e0 000000ff .text             UMessageSys.obj(?Post@UMessageSys@@SAXPAVTMessageSysObj@@KPBXKFP6AXPAX2K1K@Z22@Z)
0046e7e0 000001d9 .text             UMessageSys.obj(?Replace@UMessageSys@@SAXPAVTMessageSysObj@@KPBXKFP6AXPAX2K1K@Z22@Z)
0046e9c0 00000108 .text             UMessageSys.obj(?Flush@UMessageSys@@SAXPAVTMessageSysObj@@P6AXPAX1KPBXK@Z11@Z)
0046ead0 00000212 .text             UMessageSys.obj(?Execute@UMessageSys@@SA_NPAVTMessageSysObj@@PBK@Z)
0046ecf0 00000057 .text             CPictureView.obj(??0CPictureView@@QAE@PAVCViewHandler@@ABVSRect@@@Z)
0046ed50 00000034 .text             CPictureView.obj(?Draw@CPictureView@@UAEXPAVTImageObj@@ABVSRect@@K@Z)
0046ed90 0000005e .text             CPictureView.obj(??_ECPictureView@@UAE@I@Z)
0046edf0 0000002c .text             CPictureView.obj(??1CPictureView@@UAE@XZ)
0046ee20 0000010e .text             UClipboard(W).obj(?GetData@UClipboard@@SAPAVTHdlObj@@PBD@Z)
0046ef30 00000220 .text             UClipboard(W).obj(?SetData@UClipboard@@SAXPBDPBXK@Z)
0046f150 0000002d .text             UClipboard(W).obj(?_MIMEToWinClipFormat@@YAKPBXK@Z)
0046f180 0000000d .text             UText(W).obj(?GetCaretTime@UText@@SAKXZ)
0046f190 0000000a .text             NMWException.obj(?dthandler@std@@YAXXZ)
0046f1a0 0000000a .text             NMWException.obj(?duhandler@std@@YAXXZ)
0046f1b0 00000024 .text             NMWException.obj(?set_terminate@std@@YAP6AXXZP6AXXZ@Z)
0046f1e0 0000000b .text             NMWException.obj(?terminate@std@@YAXXZ)
0046f1f0 00000024 .text             NMWException.obj(?set_unexpected@std@@YAP6AXXZP6AXXZ@Z)
0046f220 0000000b .text             NMWException.obj(?unexpected@std@@YAXXZ)
0046f230 000001ea .text             NMWException.obj(___throw_catch_compare)
0046f420 00000018 .text             setjmp.x86.obj(__Setjmp)
0046f440 0000001f .text             setjmp.x86.obj(_longjmp)
0046f460 0000003d .text             runinit.obj(__RunInit)
0046f4a0 0000004b .text             runinit.obj(___detect_cpu_instruction_set)
0046f4f0 0000000d .text             UMath(W).obj(?CalcRandomSeed@UMath@@SAJXZ)
0046f500 00000012 .text             UMath(W).obj(?Cosine@UMath@@SANN@Z)
0046f520 00000012 .text             UMath(W).obj(?Sine@UMath@@SANN@Z)
0046f540 00000012 .text             UMath(W).obj(?ArcTangent@UMath@@SANN@Z)
0046f560 00000012 .text             UMath(W).obj(?SquareRoot@UMath@@SANN@Z)
0046f580 000000cc .text             UUserInterface.obj(?DrawStandardBox@UUserInterface@@SAXPAVTImageObj@@ABVSRect@@PBVSColor@@_N33@Z)
0046f650 000000b4 .text             UUserInterface.obj(?DrawEtchedBox@UUserInterface@@SAXPAVTImageObj@@ABVSRect@@PBXK@Z)
0046f710 000000ae .text             UUserInterface.obj(?DrawSunkenBox@UUserInterface@@SAXPAVTImageObj@@ABVSRect@@PBVSColor@@@Z)
0046f7c0 000000ae .text             UUserInterface.obj(?DrawRaisedBox@UUserInterface@@SAXPAVTImageObj@@ABVSRect@@PBVSColor@@@Z)
0046f870 000000a6 .text             UUserInterface.obj(?DrawBarBox@UUserInterface@@SAXPAVTImageObj@@ABVSRect@@@Z)
0046f920 000000b4 .text             UScrollBar.obj(?Draw@UScrollBar@@SAXPAVTImageObj@@ABVSRect@@ABUSScrollBarInfo@@K@Z)
0046f9e0 000000ae .text             UScrollBar.obj(?DrawDisabled@UScrollBar@@SAXPAVTImageObj@@ABVSRect@@ABUSScrollBarInfo@@@Z)
0046fa90 00000473 .text             UScrollBar.obj(?CalcVertRects@UScrollBar@@SAKABVSRect@@KKKKKKKPAV2@K@Z)
0046ff10 00000473 .text             UScrollBar.obj(?CalcHorizRects@UScrollBar@@SAKABVSRect@@KKKKKKKPAV2@K@Z)
00470390 000000af .text             UScrollBar.obj(?GetThumbDelta@UScrollBar@@SAJABVSRect@@ABUSScrollBarInfo@@ABVSPoint@@@Z)
00470440 00000112 .text             UScrollBar.obj(?GetThumbValue@UScrollBar@@SAKABVSRect@@ABUSScrollBarInfo@@ABVSPoint@@J@Z)
00470560 000003a4 .text             UScrollBar.obj(?PointToPart@UScrollBar@@SAKABVSRect@@ABUSScrollBarInfo@@ABVSPoint@@@Z)
00470910 000001e9 .text             UScrollBar.obj(?GetPartRect@UScrollBar@@SAXABVSRect@@ABUSScrollBarInfo@@KAAV2@@Z)
00470b00 00000029 .text             UBitString.obj(?Get@UBitString@@SA_NPBXK@Z)
00470b30 0000003e .text             UBitString.obj(?Set@UBitString@@SAXPAXK_N@Z)
00470b70 000000dc .text             UBitString.obj(?Copy@UBitString@@SAXPAXKKK@Z)
00470c50 0000005a .text             UBitString.obj(?GetFirstSet@UBitString@@SA_NPBXKAAK@Z)
00470cb0 00000049 .text             UBitString.obj(?GetLastSet@UBitString@@SA_NPBXKAAK@Z)
00470d00 000000ff .text             UPixmap.obj(?GetLayerSize@UPixmap@@SAXPAVTHdlObj@@KAAK1@Z)
00470e00 0000018d .text             UPixmap.obj(?GetNearestLayer@UPixmap@@SAKPAVTHdlObj@@PAVTImageObj@@ABVSRect@@@Z)
00470f90 000007b0 .text             UPixmap.obj(?Draw@UPixmap@@SAXPAVTHdlObj@@KPAVTImageObj@@ABVSRect@@GG@Z)
00471740 000000aa .text             UPixmap.obj(?IsValid@UPixmap@@SA_NABUSPixmap@@@Z)
004717f0 0000018c .text             UPixmap.obj(?_GRTransCopy8To32@@YAXKPAXKPBXKKKPBKK@Z)
00471980 00000266 .text             UPixmap.obj(?_GRTransCopy8To8@@YAXKPAXKPBXKKKPBKK2K@Z)
00471bf0 000001b2 .text             UCheckBox(W).obj(?UCheckBox_Draw@@YAXPAVTImageObj@@ABVSRect@@ABUSCheckBoxInfo@@@Z)
00471db0 00000205 .text             UCheckBox(W).obj(?UCheckBox_DrawFocused@@YAXPAVTImageObj@@ABVSRect@@ABUSCheckBoxInfo@@@Z)
00471fc0 00000205 .text             UCheckBox(W).obj(?UCheckBox_DrawHilited@@YAXPAVTImageObj@@ABVSRect@@ABUSCheckBoxInfo@@@Z)
004721d0 000001fb .text             UCheckBox(W).obj(?UCheckBox_DrawDisabled@@YAXPAVTImageObj@@ABVSRect@@ABUSCheckBoxInfo@@@Z)
004723d0 000000ae .text             UButton.obj(?Draw@UButton@@SAXPAVTImageObj@@ABVSRect@@ABUSButtonInfo@@@Z)
00472480 000000ae .text             UButton.obj(?DrawFocused@UButton@@SAXPAVTImageObj@@ABVSRect@@ABUSButtonInfo@@@Z)
00472530 000000ae .text             UButton.obj(?DrawHilited@UButton@@SAXPAVTImageObj@@ABVSRect@@ABUSButtonInfo@@@Z)
004725e0 000000ae .text             UButton.obj(?DrawDisabled@UButton@@SAXPAVTImageObj@@ABVSRect@@ABUSButtonInfo@@@Z)
00472690 000000ae .text             UIconButton.obj(?Draw@UIconButton@@SAXPAVTImageObj@@ABVSRect@@ABUSIconButtonInfo@@@Z)
00472740 000000ae .text             UIconButton.obj(?DrawFocused@UIconButton@@SAXPAVTImageObj@@ABVSRect@@ABUSIconButtonInfo@@@Z)
004727f0 000000ae .text             UIconButton.obj(?DrawHilited@UIconButton@@SAXPAVTImageObj@@ABVSRect@@ABUSIconButtonInfo@@@Z)
004728a0 000000ae .text             UIconButton.obj(?DrawDisabled@UIconButton@@SAXPAVTImageObj@@ABVSRect@@ABUSIconButtonInfo@@@Z)
00472950 00000447 .text             UIconButton.obj(?CalcRects@UIconButton@@SAXPAVTImageObj@@ABVSRect@@ABUSIconButtonInfo@@PAV3@33@Z)
00472da0 00000025 .text             excrtl.obj(?__SEHUnwindHandler@@YA?AW4_EXCEPTION_DISPOSITION@@PAU_EXCEPTION_RECORD@@PAUTryExceptFrame@@PAU_CONTEXT@@PAPAU3@@Z)
00472dd0 000000ee .text             excrtl.obj(?SEHUnwindState@@YAXPAUTryExceptFrame@@PAU_CONTEXT@@H@Z)
00472ec0 0000024c .text             excrtl.obj(___SEHFrameHandler)
00473110 0000000f .text             excrtl.obj
00473120 0000002d .text             exchand.obj(__MWCHandler)
00473150 00000049 .text             exchand.obj(__HandleUnexpectedSEHException)
004731a0 00000045 .text             startup.win32.obj(___dup_core)
004731f0 000001e3 .text             startup.win32.obj(___set_errno)
004733e0 0000000a .text             startup.win32.obj(___get_MSL_init_count)
004733f0 0000017f .text             startup.win32.obj(__InitStdHandles)
00473570 00000044 .text             startup.win32.obj(__CRTStartup)
004735c0 00000041 .text             startup.win32.obj(___init_critical_regions)
00473610 00000038 .text             setupargs.obj(__FreeCommandLine)
00473650 00000019 .text             setupargs.obj(__MemFailure)
00473670 00000060 .text             setupargs.obj(__MoreArgs)
004736d0 0000016d .text             setupargs.obj(__ExpandArgument)
00473840 000002d9 .text             setupargs.obj(__SetupArgs)
00473b20 0000006b .text             QTDispatcherW.obj(?Message@UDebug@BigRedH@@SAXPBDZZ)
00473b90 0000002a .text             QTDispatcherW.obj(??0?$TGuard@VCMutex@BigRedH@@@BigRedH@@QAE@ABVCMutex@1@@Z)
00473bc0 00000020 .text             QTDispatcherW.obj(??1?$TGuard@VCMutex@BigRedH@@@BigRedH@@QAE@XZ)
00473be0 00000033 .text             CDataHandlerComponent.obj(??1?$auto_ptr@VCDataHandlerComponent@BigRedH@@@std@@QAE@XZ)
00473c20 00000020 .text             CDataHandlerComponent.obj(??0?$auto_ptr@VCDataHandlerComponent@BigRedH@@@std@@QAE@PAVCDataHandlerComponent@BigRedH@@@Z)
00473c40 0000001e .text             CDataHandlerComponent.obj(??1?$__list_imp@PBXV?$allocator@PBX@std@@@std@@QAE@XZ)
00473c60 0000004b .text             CDataHandlerComponent.obj(??1?$__list_deleter@PBXV?$allocator@PBX@std@@@std@@QAE@XZ)
00473cb0 0000002b .text             CDataHandlerComponent.obj(?end@?$__list_deleter@PBXV?$allocator@PBX@std@@@std@@QAE?AV?$generic_iterator@$0A@@12@XZ)
00473ce0 00000020 .text             CDataHandlerComponent.obj(??0?$generic_iterator@$0A@@?$__list_deleter@PBXV?$allocator@PBX@std@@@std@@AAE@PAUnode_base@12@@Z)
00473d00 00000020 .text             CDataHandlerComponent.obj(?tail@?$__list_deleter@PBXV?$allocator@PBX@std@@@std@@QAEAAUnode_base@12@XZ)
00473d20 00000016 .text             CDataHandlerComponent.obj(?second@?$compressed_pair_imp@V?$allocator@Unode@?$__list_deleter@PBXV?$allocator@PBX@std@@@std@@@std@@Unode_base@?$__list_deleter@PBXV?$allocator@PBX@std@@@2@$00@details@Metrowerks@@QA...)
00473d40 0000002d .text             CDataHandlerComponent.obj(?begin@?$__list_deleter@PBXV?$allocator@PBX@std@@@std@@QAE?AV?$generic_iterator@$0A@@12@XZ)
00473d70 00000020 .text             CDataHandlerComponent.obj(??0?$generic_iterator@$0A@@?$__list_deleter@PBXV?$allocator@PBX@std@@@std@@AAE@PAUnode@12@@Z)
00473d90 0000001e .text             CDataHandlerComponent.obj(??0?$__list_imp@PBXV?$allocator@PBX@std@@@std@@IAE@XZ)
00473db0 0000003c .text             CDataHandlerComponent.obj(?push_back@?$__list_imp@PBXV?$allocator@PBX@std@@@std@@IAEXABQBX@Z)
00473df0 0000003a .text             CDataHandlerComponent.obj(?remove@?$__list_imp@PBXV?$allocator@PBX@std@@@std@@IAEXABQBX@Z)
00473e30 0000002c .text             CDataHandlerComponent.obj(??0?$binder2nd@U?$equal_to@PBX@std@@ABQBX@std@@QAE@ABU?$equal_to@PBX@1@ABQBX@Z)
00473e60 00000015 .text             CDataHandlerComponent.obj(??1CString@BigRedH@@QAE@XZ)
00473e80 00000018 .text             CDataHandlerComponent.obj(?size@?$basic_string@_WU?$char_traits@_W@std@@V?$allocator@_W@2@@std@@QBEIXZ)
00473ea0 00000019 .text             CDataHandlerComponent.obj(?__data@?$basic_string@_WU?$char_traits@_W@std@@V?$allocator@_W@2@@std@@ABEPB_WXZ)
00473ec0 0000001d .text             CDataHandlerComponent.obj(?c_str@CString@BigRedH@@QBEPB_WXZ)
00473ee0 0000001d .text             CDataHandlerComponent.obj(?c_str@?$basic_string@_WU?$char_traits@_W@std@@V?$allocator@_W@2@@std@@QBEPB_WXZ)
00473f00 00000010 .text             CDataHandlerComponent.obj(?length@?$char_traits@_W@std@@SAIPB_W@Z)
00473f10 00000023 .text             CDataHandlerComponent.obj(??4CString@BigRedH@@QAEAAV01@ABV01@@Z)
00473f40 00000022 .text             CDataHandlerComponent.obj(??4?$basic_string@_WU?$char_traits@_W@std@@V?$allocator@_W@2@@std@@QAEAAV01@ABV01@@Z)
00473f70 00000026 .text             CDataHandlerComponent.obj(?assign@?$basic_string@_WU?$char_traits@_W@std@@V?$allocator@_W@2@@std@@QAEAAV12@ABV12@@Z)
00473fa0 00000030 .text             CDataHandlerComponent.obj(??0CString@BigRedH@@QAE@PB_W@Z)
00473fd0 00000016 .text             CDataHandlerComponent.obj(??0?$allocator@_W@std@@QAE@XZ)
00473ff0 00000035 .text             CDataHandlerComponent.obj(??0CString@BigRedH@@QAE@ABV01@II@Z)
00474030 0000002b .text             CDataHandlerComponent.obj(??0CString@BigRedH@@QAE@XZ)
00474060 00000043 .text             CDataHandlerComponent.obj(??0?$basic_string@_WU?$char_traits@_W@std@@V?$allocator@_W@2@@std@@QAE@ABV?$allocator@_W@1@@Z)
004740b0 0000002c .text             CDataHandlerComponent.obj(??0?$_EmptyMemberOpt@V?$allocator@_W@std@@I@std@@QAE@ABV?$allocator@_W@1@@Z)
004740e0 00000018 .text             CDataHandlerComponent.obj(??0?$allocator@_W@std@@QAE@ABV01@@Z)
00474100 00000029 .text             CDataHandlerComponent.obj(?data@?$basic_string@_WU?$char_traits@_W@std@@V?$allocator@_W@2@@std@@QBEPB_WXZ)
00474130 00000101 .text             CDataHandlerComponent.obj(?remove_if@?$@V?$binder2nd@U?$equal_to@PBX@std@@ABQBX@std@@@?$__list_imp@PBXV?$allocator@PBX@std@@@2@IAEXV12@@Z)
00474240 00000019 .text             CDataHandlerComponent.obj(??8std@@YA_NABV?$generic_iterator@$0A@@?$__list_deleter@PBXV?$allocator@PBX@std@@@0@0@Z)
00474260 00000022 .text             CDataHandlerComponent.obj(??4?$generic_iterator@$0A@@?$__list_deleter@PBXV?$allocator@PBX@std@@@std@@QAEAAV012@ABV012@@Z)
00474290 00000019 .text             CDataHandlerComponent.obj(??9std@@YA_NABV?$generic_iterator@$0A@@?$__list_deleter@PBXV?$allocator@PBX@std@@@0@0@Z)
004742b0 00000023 .text             CDataHandlerComponent.obj(??E?$generic_iterator@$0A@@?$__list_deleter@PBXV?$allocator@PBX@std@@@std@@QAEAAV012@XZ)
004742e0 00000022 .text             CDataHandlerComponent.obj(??0?$generic_iterator@$0A@@?$__list_deleter@PBXV?$allocator@PBX@std@@@std@@QAE@ABV012@@Z)
00474310 00000028 .text             CDataHandlerComponent.obj(??R?$binder2nd@U?$equal_to@PBX@std@@ABQBX@std@@QAE_NAAPBX@Z)
00474340 00000029 .text             CDataHandlerComponent.obj(??R?$equal_to@PBX@std@@QBE_NABQBX0@Z)
00474370 0000001b .text             CDataHandlerComponent.obj(??D?$generic_iterator@$0A@@?$__list_deleter@PBXV?$allocator@PBX@std@@@std@@QBEAAPBXXZ)
00474390 00000020 .text             CDataHandlerComponent.obj(?min@?$@I@std@@YAABIABI0@Z)
004743b0 0000001b .text             CDataHandlerComponent.obj(??1out_of_range@std@@UAE@XZ)
004743d0 00000032 .text             CDataHandlerComponent.obj(??1logic_error@std@@UAE@XZ)
00474410 0000001e .text             CDataHandlerComponent.obj(??1_MSLstring@std@@QAE@XZ)
00474430 0000002c .text             CDataHandlerComponent.obj(??0out_of_range@std@@QAE@PBD@Z)
00474460 00000037 .text             CDataHandlerComponent.obj(??0logic_error@std@@QAE@PBD@Z)
004744a0 00000047 .text             CDataHandlerComponent.obj(??0_MSLstring@std@@QAE@PBD@Z)
004744f0 00000018 .text             CDataHandlerComponent.obj(??B?$_RefCountedPtr@DU?$_Array@D@std@@@std@@QBEPBDXZ)
00474510 000000cd .text             CDataHandlerComponent.obj(?assign@?$basic_string@_WU?$char_traits@_W@std@@V?$allocator@_W@2@@std@@QAEAAV12@ABV12@II@Z)
004745e0 00000018 .text             CDataHandlerComponent.obj(?copy@?$char_traits@_W@std@@SAPA_WPA_WPB_WI@Z)
00474600 00000019 .text             CDataHandlerComponent.obj(?__data@?$basic_string@_WU?$char_traits@_W@std@@V?$allocator@_W@2@@std@@AAEPA_WXZ)
00474620 00000029 .text             CDataHandlerComponent.obj(?erase@?$basic_string@_WU?$char_traits@_W@std@@V?$allocator@_W@2@@std@@QAEAAV12@II@Z)
00474650 0000003a .text             CDataHandlerComponent.obj(??1?$basic_string@_WU?$char_traits@_W@std@@V?$allocator@_W@2@@std@@QAE@XZ)
00474690 0000001e .text             CDataHandlerComponent.obj(?deallocate@?$allocator@_W@std@@QAEXPA_WI@Z)
004746b0 00000089 .text             CDataHandlerComponent.obj(??0?$basic_string@_WU?$char_traits@_W@std@@V?$allocator@_W@2@@std@@QAE@PB_WABV?$allocator@_W@1@@Z)
00474740 0000001b .text             CDataHandlerComponent.obj(??1length_error@std@@UAE@XZ)
00474760 0000002c .text             CDataHandlerComponent.obj(??0length_error@std@@QAE@PBD@Z)
00474790 0000001c .text             CDataHandlerComponent.obj(?max_size@?$allocator@_W@std@@QBEIXZ)
004747b0 0000000a .text             CDataHandlerComponent.obj(?max@?$numeric_limits@I@std@@SAIXZ)
004747c0 000000b2 .text             CDataHandlerComponent.obj(??0?$basic_string@_WU?$char_traits@_W@std@@V?$allocator@_W@2@@std@@QAE@ABV01@IIABV?$allocator@_W@1@@Z)
00474880 0000002e .text             CDataHandlerComponent.obj(?init@?$basic_string@_WU?$char_traits@_W@std@@V?$allocator@_W@2@@std@@AAEXPA_W0ABV?$allocator@_W@2@Urandom_access_iterator_tag@2@@Z)
004748b0 00000029 .text             CDataHandlerComponent.obj(?get_allocator@?$basic_string@_WU?$char_traits@_W@std@@V?$allocator@_W@2@@std@@QBE?AV?$allocator@_W@2@XZ)
004748e0 000000d1 .text             CDataHandlerComponent.obj(?erase@?$__list_deleter@PBXV?$allocator@PBX@std@@@std@@QAE?AV?$generic_iterator@$0A@@12@V312@0@Z)
004749c0 0000001d .text             CDataHandlerComponent.obj(?sz@?$__list_deleter@PBXV?$allocator@PBX@std@@@std@@QAEAAIXZ)
004749e0 00000016 .text             CDataHandlerComponent.obj(?second@?$compressed_pair_imp@V?$allocator@PBX@std@@I$00@details@Metrowerks@@QAEAAIXZ)
00474a00 0000001e .text             CDataHandlerComponent.obj(?deallocate@?$allocator@Unode@?$__list_deleter@PBXV?$allocator@PBX@std@@@std@@@std@@QAEXPAUnode@?$__list_deleter@PBXV?$allocator@PBX@std@@@2@I@Z)
00474a20 00000020 .text             CDataHandlerComponent.obj(?node_alloc@?$__list_deleter@PBXV?$allocator@PBX@std@@@std@@QAEAAV?$allocator@Unode@?$__list_deleter@PBXV?$allocator@PBX@std@@@std@@@2@XZ)
00474a40 00000016 .text             CDataHandlerComponent.obj(?first@?$compressed_pair_imp@V?$allocator@Unode@?$__list_deleter@PBXV?$allocator@PBX@std@@@std@@@std@@Unode_base@?$__list_deleter@PBXV?$allocator@PBX@std@@@2@$00@details@Metrowerks@@QAE...)
00474a60 00000015 .text             CDataHandlerComponent.obj(?destroy@?$allocator@PBX@std@@QAEXPAPBX@Z)
00474a80 0000001d .text             CDataHandlerComponent.obj(?alloc@?$__list_deleter@PBXV?$allocator@PBX@std@@@std@@QAEAAV?$allocator@PBX@2@XZ)
00474aa0 00000016 .text             CDataHandlerComponent.obj(?first@?$compressed_pair_imp@V?$allocator@PBX@std@@I$00@details@Metrowerks@@QAEAAV?$allocator@PBX@std@@XZ)
00474ac0 00000025 .text             CDataHandlerComponent.obj(?remove_nodes@?$__list_deleter@PBXV?$allocator@PBX@std@@@std@@CAXPAUnode_base@12@0@Z)
00474af0 0000000a .text             CDataHandlerComponent.obj(?__iterator2pointer@?$__list_deleter@PBXV?$allocator@PBX@std@@@std@@SAPAUnode@12@AAV?$generic_iterator@$0A@@12@@Z)
00474b00 000000b0 .text             CDataHandlerComponent.obj(?insert@?$__list_deleter@PBXV?$allocator@PBX@std@@@std@@QAE?AV?$generic_iterator@$0A@@12@V312@ABQBX@Z)
00474bb0 00000044 .text             CDataHandlerComponent.obj(??1?$alloc_ptr@Unode@?$__list_deleter@PBXV?$allocator@PBX@std@@@std@@AAV?$allocator@Unode@?$__list_deleter@PBXV?$allocator@PBX@std@@@std@@@3@U?$number@I$00@Metrowerks@@@Metrowerks@@QAE@...)
00474c00 0000002b .text             CDataHandlerComponent.obj(?capacity@?$alloc_ptr@Unode@?$__list_deleter@PBXV?$allocator@PBX@std@@@std@@AAV?$allocator@Unode@?$__list_deleter@PBXV?$allocator@PBX@std@@@std@@@3@U?$number@I$00@Metrowerks@@@Metrowerk...)
00474c30 00000018 .text             CDataHandlerComponent.obj(??B?$number@I$00@Metrowerks@@QBEIXZ)
00474c50 00000016 .text             CDataHandlerComponent.obj(?first@?$compressed_pair_imp@U?$number@I$00@Metrowerks@@PAUnode@?$__list_deleter@PBXV?$allocator@PBX@std@@@std@@$00@details@Metrowerks@@QBEABU?$number@I$00@3@XZ)
00474c70 00000019 .text             CDataHandlerComponent.obj(?second@?$compressed_pair_imp@AAV?$allocator@Unode@?$__list_deleter@PBXV?$allocator@PBX@std@@@std@@@std@@V?$compressed_pair@U?$number@I$00@Metrowerks@@PAUnode@?$__list_deleter@PBXV?$all...)
00474c90 0000001d .text             CDataHandlerComponent.obj(?allocator@?$alloc_ptr@Unode@?$__list_deleter@PBXV?$allocator@PBX@std@@@std@@AAV?$allocator@Unode@?$__list_deleter@PBXV?$allocator@PBX@std@@@std@@@3@U?$number@I$00@Metrowerks@@@Metrower...)
00474cb0 00000018 .text             CDataHandlerComponent.obj(?first@?$compressed_pair_imp@AAV?$allocator@Unode@?$__list_deleter@PBXV?$allocator@PBX@std@@@std@@@std@@V?$compressed_pair@U?$number@I$00@Metrowerks@@PAUnode@?$__list_deleter@PBXV?$allo...)
00474cd0 00000024 .text             CDataHandlerComponent.obj(?get@?$alloc_ptr@Unode@?$__list_deleter@PBXV?$allocator@PBX@std@@@std@@AAV?$allocator@Unode@?$__list_deleter@PBXV?$allocator@PBX@std@@@std@@@3@U?$number@I$00@Metrowerks@@@Metrowerks@@QB...)
00474d00 00000016 .text             CDataHandlerComponent.obj(?second@?$compressed_pair_imp@U?$number@I$00@Metrowerks@@PAUnode@?$__list_deleter@PBXV?$allocator@PBX@std@@@std@@$00@details@Metrowerks@@QBEABQAUnode@?$__list_deleter@PBXV?$allocator@PB...)
00474d20 00000015 .text             CDataHandlerComponent.obj(?__pointer2iterator@?$__list_deleter@PBXV?$allocator@PBX@std@@@std@@SA?AV?$generic_iterator@$0A@@12@PAUnode@12@@Z)
00474d40 0000002b .text             CDataHandlerComponent.obj(?insert_nodes@?$__list_deleter@PBXV?$allocator@PBX@std@@@std@@CAXPAUnode_base@12@00@Z)
00474d70 0000003a .text             CDataHandlerComponent.obj(?release@?$alloc_ptr@Unode@?$__list_deleter@PBXV?$allocator@PBX@std@@@std@@AAV?$allocator@Unode@?$__list_deleter@PBXV?$allocator@PBX@std@@@std@@@3@U?$number@I$00@Metrowerks@@@Metrowerks...)
00474db0 00000016 .text             CDataHandlerComponent.obj(?second@?$compressed_pair_imp@U?$number@I$00@Metrowerks@@PAUnode@?$__list_deleter@PBXV?$allocator@PBX@std@@@std@@$00@details@Metrowerks@@QAEAAPAUnode@?$__list_deleter@PBXV?$allocator@PB...)
00474dd0 00000019 .text             CDataHandlerComponent.obj(?second@?$compressed_pair_imp@AAV?$allocator@Unode@?$__list_deleter@PBXV?$allocator@PBX@std@@@std@@@std@@V?$compressed_pair@U?$number@I$00@Metrowerks@@PAUnode@?$__list_deleter@PBXV?$all...)
00474df0 00000056 .text             CDataHandlerComponent.obj(?construct@?$allocator@PBX@std@@QAEXPAPBXABQBX@Z)
00474e50 00000005 .text             CDataHandlerComponent.obj(??3@YAXPAX0@Z)
00474e60 00000008 .text             CDataHandlerComponent.obj(??2@YAPAXIPAX@Z)
00474e70 0000001d .text             CDataHandlerComponent.obj(??C?$alloc_ptr@Unode@?$__list_deleter@PBXV?$allocator@PBX@std@@@std@@AAV?$allocator@Unode@?$__list_deleter@PBXV?$allocator@PBX@std@@@std@@@3@U?$number@I$00@Metrowerks@@@Metrowerks@@QBEP...)
00474e90 00000037 .text             CDataHandlerComponent.obj(??0?$alloc_ptr@Unode@?$__list_deleter@PBXV?$allocator@PBX@std@@@std@@AAV?$allocator@Unode@?$__list_deleter@PBXV?$allocator@PBX@std@@@std@@@3@U?$number@I$00@Metrowerks@@@Metrowerks@@QAE@...)
00474ed0 00000026 .text             CDataHandlerComponent.obj(??0?$compressed_pair@AAV?$allocator@Unode@?$__list_deleter@PBXV?$allocator@PBX@std@@@std@@@std@@V?$compressed_pair@U?$number@I$00@Metrowerks@@PAUnode@?$__list_deleter@PBXV?$allocator@PB...)
00474f00 0000002e .text             CDataHandlerComponent.obj(??0?$compressed_pair_imp@AAV?$allocator@Unode@?$__list_deleter@PBXV?$allocator@PBX@std@@@std@@@std@@V?$compressed_pair@U?$number@I$00@Metrowerks@@PAUnode@?$__list_deleter@PBXV?$allocato...)
00474f30 00000023 .text             CDataHandlerComponent.obj(??0?$compressed_pair@U?$number@I$00@Metrowerks@@PAUnode@?$__list_deleter@PBXV?$allocator@PBX@std@@@std@@@Metrowerks@@QAE@ABV01@@Z)
00474f60 00000022 .text             CDataHandlerComponent.obj(??0?$compressed_pair_imp@U?$number@I$00@Metrowerks@@PAUnode@?$__list_deleter@PBXV?$allocator@PBX@std@@@std@@$00@details@Metrowerks@@QAE@ABV012@@Z)
00474f90 00000026 .text             CDataHandlerComponent.obj(??0?$compressed_pair@U?$number@I$00@Metrowerks@@PAUnode@?$__list_deleter@PBXV?$allocator@PBX@std@@@std@@@Metrowerks@@QAE@ABU?$number@I$00@1@PAUnode@?$__list_deleter@PBXV?$allocator@PBX@...)
00474fc0 0000002b .text             CDataHandlerComponent.obj(??0?$compressed_pair_imp@U?$number@I$00@Metrowerks@@PAUnode@?$__list_deleter@PBXV?$allocator@PBX@std@@@std@@$00@details@Metrowerks@@QAE@ABU?$number@I$00@2@PAUnode@?$__list_deleter@PBXV?...)
00474ff0 00000030 .text             CDataHandlerComponent.obj(?allocate@?$allocator@Unode@?$__list_deleter@PBXV?$allocator@PBX@std@@@std@@@std@@QAEPAUnode@?$__list_deleter@PBXV?$allocator@PBX@std@@@2@IPBX@Z)
00475020 00000064 .text             CDataHandlerComponent.obj(??0?$__list_deleter@PBXV?$allocator@PBX@std@@@std@@QAE@XZ)
00475090 00000023 .text             CDataHandlerComponent.obj(??0?$compressed_pair@V?$allocator@Unode@?$__list_deleter@PBXV?$allocator@PBX@std@@@std@@@std@@Unode_base@?$__list_deleter@PBXV?$allocator@PBX@std@@@2@@Metrowerks@@QAE@ABV?$allocator@Uno...)
004750c0 00000023 .text             CDataHandlerComponent.obj(??0?$compressed_pair_imp@V?$allocator@Unode@?$__list_deleter@PBXV?$allocator@PBX@std@@@std@@@std@@Unode_base@?$__list_deleter@PBXV?$allocator@PBX@std@@@2@$00@details@Metrowerks@@QAE@ABV...)
004750f0 00000018 .text             CDataHandlerComponent.obj(??0?$allocator@Unode@?$__list_deleter@PBXV?$allocator@PBX@std@@@std@@@std@@QAE@ABV01@@Z)
00475110 00000018 .text             CDataHandlerComponent.obj(??0?$@PBX@?$allocator@Unode@?$__list_deleter@PBXV?$allocator@PBX@std@@@std@@@std@@QAE@ABV?$allocator@PBX@1@@Z)
00475130 00000023 .text             CDataHandlerComponent.obj(??0?$compressed_pair@V?$allocator@PBX@std@@I@Metrowerks@@QAE@I@Z)
00475160 00000028 .text             CDataHandlerComponent.obj(??0?$compressed_pair_imp@V?$allocator@PBX@std@@I$00@details@Metrowerks@@QAE@I@Z)
00475190 00000016 .text             CDataHandlerComponent.obj(??0?$allocator@PBX@std@@QAE@XZ)
004751b0 0000001b .text             CDataHandlerComponent.obj(??C?$__pointer_plus_bit@Unode_base@?$__red_black_tree@$00@std@@@std@@QBEPAUnode_base@?$__red_black_tree@$00@1@XZ)
004751d0 0000001b .text             CDataHandlerComponent.obj(??B?$__pointer_plus_bit@Unode_base@?$__red_black_tree@$00@std@@@std@@QBEPAUnode_base@?$__red_black_tree@$00@1@XZ)
004751f0 00000020 .text             CDataHandlerComponent.obj(??0anchor@?$__red_black_tree@$00@std@@QAE@PAUnode_base@12@@Z)
00475210 00000047 .text             CDataHandlerComponent.obj(??_Elength_error@std@@UAE@I@Z)
00475260 00000020 .text             CDataHandlerComponent.obj(?what@logic_error@std@@UBEPBDXZ)
00475280 0000001d .text             CDataHandlerComponent.obj(?c_str@_MSLstring@std@@QBEPBDXZ)
004752a0 00000047 .text             CDataHandlerComponent.obj(??_Elogic_error@std@@UAE@I@Z)
004752f0 00000047 .text             CDataHandlerComponent.obj(??_Eout_of_range@std@@UAE@I@Z)
00475340 00000043 .text             CDataHandlerComponent.obj(??1?$_RefCountedPtr@DU?$_Array@D@std@@@std@@QAE@XZ)
00475390 0000000e .text             CDataHandlerComponent.obj(?destroy@?$_Array@D@std@@SAXPAD@Z)
004753a0 00000086 .text             CDataHandlerComponent.obj(??0?$_RefCountedPtr@DU?$_Array@D@std@@@std@@QAE@PAD@Z)
00475430 00000136 .text             CDataHandlerComponent.obj(?change_size@?$basic_string@_WU?$char_traits@_W@std@@V?$allocator@_W@2@@std@@AAEXI_N@Z)
00475570 00000011 .text             CDataHandlerComponent.obj(?assign@?$char_traits@_W@std@@SAXAA_WAB_W@Z)
00475590 00000018 .text             CDataHandlerComponent.obj(?copy@?$@_W@std@@YAPA_WPA_W00@Z)
004755b0 00000042 .text             CDataHandlerComponent.obj(?copy@?$__copy@_W$00$00@std@@SAPA_WPA_W00@Z)
00475600 00000024 .text             CDataHandlerComponent.obj(?allocate@?$allocator@_W@std@@QAEPA_WIPBX@Z)
00475630 00000020 .text             CDataHandlerComponent.obj(?max@?$@I@std@@YAABIABI0@Z)
00475650 00000013 .text             CDataHandlerComponent.obj(?recommend@?$basic_string@_WU?$char_traits@_W@std@@V?$allocator@_W@2@@std@@CAII@Z)
00475670 00000030 .text             CDataHandlerComponent.obj(?max_size@?$basic_string@_WU?$char_traits@_W@std@@V?$allocator@_W@2@@std@@QBEIXZ)
004756a0 000000b3 .text             CDataHandlerComponent.obj(?init@?$basic_string@_WU?$char_traits@_W@std@@V?$allocator@_W@2@@std@@AAEXPB_W0ABV?$allocator@_W@2@Urandom_access_iterator_tag@2@@Z)
00475760 00000279 .text             CDataHandlerComponent.obj(?replace@?$basic_string@_WU?$char_traits@_W@std@@V?$allocator@_W@2@@std@@QAEAAV12@III_W@Z)
004759e0 00000018 .text             CDataHandlerComponent.obj(?move@?$char_traits@_W@std@@SAPA_WPA_WPB_WI@Z)
00475a00 0000001a .text             CDataHandlerComponent.obj(?assign@?$char_traits@_W@std@@SAPA_WPA_WI_W@Z)
00475a20 00000019 .text             CDataHandlerComponent.obj(?capacity@?$basic_string@_WU?$char_traits@_W@std@@V?$allocator@_W@2@@std@@QBEIXZ)
00475a40 00000028 .text             CDataHandlerComponent.obj(??4?$__pointer_plus_bit@Unode_base@?$__red_black_tree@$00@std@@@std@@QAEAAV01@PAUnode_base@?$__red_black_tree@$00@1@@Z)
00475a70 00000269 .text             CDataHandlerComponent.obj(?balance_insert@?$__red_black_tree@$00@std@@KAXPAUnode_base@12@0@Z)
00475ce0 00000020 .text             CDataHandlerComponent.obj(?color@node_base@?$__red_black_tree@$00@std@@QBE?AW1Color@23@XZ)
00475d00 0000001f .text             CDataHandlerComponent.obj(?bit@?$__pointer_plus_bit@Unode_base@?$__red_black_tree@$00@std@@@std@@QBE_NXZ)
00475d20 0000002b .text             CDataHandlerComponent.obj(?set_color@node_base@?$__red_black_tree@$00@std@@QAEXW1Color@23@@Z)
00475d50 00000037 .text             CDataHandlerComponent.obj(?bit@?$__pointer_plus_bit@Unode_base@?$__red_black_tree@$00@std@@@std@@QAEX_N@Z)
00475d90 000000ad .text             CDataHandlerComponent.obj(?rotate_right@?$__red_black_tree@$00@std@@CAXPAUnode_base@12@AAPAU312@@Z)
00475e40 00000034 .text             CDataHandlerComponent.obj(??4?$__pointer_plus_bit@Unode_base@?$__red_black_tree@$00@std@@@std@@QAEAAV01@ABV01@@Z)
00475e80 000000ab .text             CDataHandlerComponent.obj(?rotate_left@?$__red_black_tree@$00@std@@CAXPAUnode_base@12@AAPAU312@@Z)
00475f30 00000028 .text             CDataHandlerComponent.obj
00475f60 00000010 .text             newarrop.obj(??_U@YAPAXI@Z)
00475f70 0000002a .text             wstring.obj(_wcslen)
00475f9a 00000006 .text             WSOCK32.dll(_WSACleanup@0)
00475fa0 00000006 .text             WSOCK32.dll(_WSAStartup@8)
00475fa6 00000006 .text             WSOCK32.dll(_socket@12)
00475fac 00000006 .text             WSOCK32.dll(_WSAGetLastError@0)
00475fb2 00000006 .text             WSOCK32.dll(_setsockopt@20)
00475fb8 00000006 .text             WSOCK32.dll(_closesocket@4)
00475fbe 00000006 .text             WSOCK32.dll(_WSAAsyncSelect@16)
00475fc4 00000006 .text             WSOCK32.dll(_WSACancelAsyncRequest@4)
00475fca 00000006 .text             WSOCK32.dll(_gethostname@8)
00475fd0 00000006 .text             WSOCK32.dll(_gethostbyname@4)
00475fd6 00000006 .text             WSOCK32.dll(_getsockname@12)
00475fdc 00000006 .text             WSOCK32.dll(_getpeername@12)
00475fe2 00000006 .text             WSOCK32.dll(_WSAAsyncGetHostByName@20)
00475fe8 00000006 .text             WSOCK32.dll(_htons@4)
00475fee 00000006 .text             WSOCK32.dll(_connect@12)
00475ff4 00000006 .text             WSOCK32.dll(_shutdown@8)
00475ffa 00000006 .text             WSOCK32.dll(_listen@8)
00476000 00000006 .text             WSOCK32.dll(_accept@12)
00476006 00000006 .text             WSOCK32.dll(_send@16)
0047600c 00000006 .text             WSOCK32.dll(_ioctlsocket@12)
00476012 00000006 .text             WSOCK32.dll(_recv@16)
00476018 00000006 .text             WSOCK32.dll(_sendto@24)
0047601e 00000006 .text             WSOCK32.dll(_inet_addr@4)
00476024 00000006 .text             WSOCK32.dll(_ntohs@4)
0047602a 00000006 .text             WSOCK32.dll(_bind@12)
00476030 00000035 .text             ThreadLocalData.obj(__InitializeThreadDataIndex)
00476070 00000230 .text             ThreadLocalData.obj(__InitializeThreadData)
004762a0 00000024 .text             ThreadLocalData.obj(___end_critical_region)
004762d0 00000024 .text             ThreadLocalData.obj(___begin_critical_region)
00476300 00000028 .text             ThreadLocalData.obj(__InitializeMainThreadData)
00476330 00000067 .text             ThreadLocalData.obj(__GetThreadLocalData)
004763a0 00000012 .text             math_x87.obj(_atan)
004763c0 0000001f .text             math_x87.obj(_cos)
004763e0 0000001f .text             math_x87.obj(_sin)
00476400 0000003a .text             math_x87.obj(_sqrt)
00476440 00000337 .text             UScrollBar(W).obj(?UScrollBar_Draw@@YAXPAVTImageObj@@ABVSRect@@ABUSScrollBarInfo@@K@Z)
00476780 000002f0 .text             UScrollBar(W).obj(?UScrollBar_DrawDisabled@@YAXPAVTImageObj@@ABVSRect@@ABUSScrollBarInfo@@@Z)
00476a70 00000159 .text             UScrollBar(W).obj(?_SBDrawBox@@YAXPAUHDC__@@PBUtagRECT@@@Z)
00476bd0 0000006d .text             UScrollBar(W).obj(?_SBDrawBoxHilited@@YAXPAUHDC__@@PBUtagRECT@@@Z)
00476c40 000000de .text             UScrollBar(W).obj(?_SBDrawBkgndBox@@YAXPAUHDC__@@PBUtagRECT@@_N@Z)
00476d20 0000012b .text             UScrollBar(W).obj(?_SBDrawDownArrow@@YAXPAUHDC__@@PBUtagRECT@@PAUHPEN__@@@Z)
00476e50 0000012b .text             UScrollBar(W).obj(?_SBDrawUpArrow@@YAXPAUHDC__@@PBUtagRECT@@PAUHPEN__@@@Z)
00476f80 0000012b .text             UScrollBar(W).obj(?_SBDrawLeftArrow@@YAXPAUHDC__@@PBUtagRECT@@PAUHPEN__@@@Z)
004770b0 0000012b .text             UScrollBar(W).obj(?_SBDrawRightArrow@@YAXPAUHDC__@@PBUtagRECT@@PAUHPEN__@@@Z)
004771e0 00000062 .text             UButton(W).obj(?UButton_Draw@@YAXPAVTImageObj@@ABVSRect@@ABUSButtonInfo@@@Z)
00477250 00000062 .text             UButton(W).obj(?UButton_DrawFocused@@YAXPAVTImageObj@@ABVSRect@@ABUSButtonInfo@@@Z)
004772c0 00000027 .text             UButton(W).obj(?UButton_DrawHilited@@YAXPAVTImageObj@@ABVSRect@@ABUSButtonInfo@@@Z)
004772f0 00000029 .text             UButton(W).obj(?UButton_DrawDisabled@@YAXPAVTImageObj@@ABVSRect@@ABUSButtonInfo@@@Z)
00477320 00000147 .text             UButton(W).obj(?_DrawButton@@YAXPAUHDC__@@PBUtagRECT@@PBXK_N3@Z)
00477470 000000e2 .text             UButton(W).obj(?_DrawButtonHilited@@YAXPAUHDC__@@PBUtagRECT@@PBXK_N@Z)
00477560 00000229 .text             UButton(W).obj(?_DrawButtonDefault@@YAXPAUHDC__@@PBUtagRECT@@PBXK_N@Z)
00477790 00000018 .text             UIconButton(W).obj(?UIconButton_Draw@@YAXPAVTImageObj@@ABVSRect@@ABUSIconButtonInfo@@@Z)
004777b0 00000018 .text             UIconButton(W).obj(?UIconButton_DrawFocused@@YAXPAVTImageObj@@ABVSRect@@ABUSIconButtonInfo@@@Z)
004777d0 0000014f .text             UIconButton(W).obj(?UIconButton_DrawHilited@@YAXPAVTImageObj@@ABVSRect@@ABUSIconButtonInfo@@@Z)
00477920 000001a5 .text             UIconButton(W).obj(?UIconButton_DrawDisabled@@YAXPAVTImageObj@@ABVSRect@@ABUSIconButtonInfo@@@Z)
00477ad0 00000165 .text             UIconButton(W).obj(?_DrawIconButton@@YAXPAVTImageObj@@ABVSRect@@ABUSIconButtonInfo@@_N@Z)
00477c36 00000006 .text             KERNEL32.dll(_RtlUnwind@16)
00477c40 00000062 .text             ansi_files.obj(___flush_all)
00477cb0 00000089 .text             sysenv.win32.obj(___env_stricmp)
00477d40 0000007e .text             sysenv.win32.obj(_init_environ)
00477dc0 0000005d .text             sysenv.win32.obj(_resize_environ)
00477e20 0000002b .text             sysenv.win32.obj(__SetupEnv)
00477e50 000000cd .text             sysenv.win32.obj(_search_env)
00477f20 00000187 .text             sysenv.win32.obj(___msl_putenv)
004780b0 00000074 .text             CMutex_W.obj(??0CMutex@BigRedH@@QAE@XZ)
00478130 00000027 .text             CMutex_W.obj(??1CThreadException@BigRedH@@UAE@XZ)
00478160 0000003f .text             CMutex_W.obj(??0CThreadException@BigRedH@@QAE@W1ETask@01@W5EAWError@UAWError@1@PBDHK@Z)
004781a0 0000006d .text             CMutex_W.obj(??1CMutex@BigRedH@@QAE@XZ)
00478210 0000000b .text             CMutex_W.obj(?Breakpoint@UDebug@BigRedH@@SAXXZ)
00478220 00000056 .text             CMutex_W.obj(?Acquire@CMutex@BigRedH@@QAEXXZ)
00478280 0000004d .text             CMutex_W.obj(?Release@CMutex@BigRedH@@QAEXXZ)
004782d0 00000058 .text             CMutex_W.obj(??_ECThreadException@BigRedH@@UAE@I@Z)
00478330 00000046 .text             CThreadManager.obj(?Instance@CThreadManager@BigRedH@@SAAAV12@XZ)
00478380 00000018 .text             CThreadManager.obj(??D?$auto_ptr@VCThreadManager@BigRedH@@@std@@QBEAAVCThreadManager@BigRedH@@XZ)
004783a0 00000033 .text             CThreadManager.obj(?reset@?$auto_ptr@VCThreadManager@BigRedH@@@std@@QAEXPAVCThreadManager@BigRedH@@@Z)
004783e0 00000058 .text             CThreadManager.obj(??_ECThreadManager@BigRedH@@QAE@I@Z)
00478440 00000018 .text             CThreadManager.obj(?get@?$auto_ptr@VCThreadManager@BigRedH@@@std@@QBEPAVCThreadManager@BigRedH@@XZ)
00478460 00000022 .text             CThreadManager.obj(??1?$auto_ptr@VCThreadManager@BigRedH@@@std@@QAE@XZ)
00478490 00000020 .text             CThreadManager.obj(??0?$auto_ptr@VCThreadManager@BigRedH@@@std@@QAE@PAVCThreadManager@BigRedH@@@Z)
004784b0 0000002e .text             CThreadManager.obj(??0CThreadManager@BigRedH@@AAE@XZ)
004784e0 0000001e .text             CThreadManager.obj(??1?$map@PAXPAVCThread@BigRedH@@U?$less@PAX@std@@V?$allocator@U?$pair@QAXPAVCThread@BigRedH@@@std@@@4@@std@@QAE@XZ)
00478500 00000035 .text             CThreadManager.obj(??1?$__tree@U?$pair@QAXPAVCThread@BigRedH@@@std@@Vvalue_compare@?$map@PAXPAVCThread@BigRedH@@U?$less@PAX@std@@V?$allocator@U?$pair@QAXPAVCThread@BigRedH@@@std@@@4@@2@V?$allocator@U?$pair@QAXPA...)
00478540 0000001d .text             CThreadManager.obj(?root@?$__tree@U?$pair@QAXPAVCThread@BigRedH@@@std@@Vvalue_compare@?$map@PAXPAVCThread@BigRedH@@U?$less@PAX@std@@V?$allocator@U?$pair@QAXPAVCThread@BigRedH@@@std@@@4@@2@V?$allocator@U?$pair@QA...)
00478560 00000020 .text             CThreadManager.obj(?tail@?$__tree@U?$pair@QAXPAVCThread@BigRedH@@@std@@Vvalue_compare@?$map@PAXPAVCThread@BigRedH@@U?$less@PAX@std@@V?$allocator@U?$pair@QAXPAVCThread@BigRedH@@@std@@@4@@2@V?$allocator@U?$pair@QA...)
00478580 00000016 .text             CThreadManager.obj(?second@?$compressed_pair_imp@V?$allocator@Unode@?$__tree@U?$pair@QAXPAVCThread@BigRedH@@@std@@Vvalue_compare@?$map@PAXPAVCThread@BigRedH@@U?$less@PAX@std@@V?$allocator@U?$pair@QAXPAVCThread@B...)
004785a0 00000034 .text             CThreadManager.obj(??0?$map@PAXPAVCThread@BigRedH@@U?$less@PAX@std@@V?$allocator@U?$pair@QAXPAVCThread@BigRedH@@@std@@@4@@std@@QAE@XZ)
004785e0 00000016 .text             CThreadManager.obj(??0?$allocator@U?$pair@QAXPAVCThread@BigRedH@@@std@@@std@@QAE@XZ)
00478600 00000016 .text             CThreadManager.obj(??0value_compare@?$map@PAXPAVCThread@BigRedH@@U?$less@PAX@std@@V?$allocator@U?$pair@QAXPAVCThread@BigRedH@@@std@@@4@@std@@IAE@XZ)
00478620 00000029 .text             CThreadManager.obj(??1CThreadManager@BigRedH@@QAE@XZ)
00478650 00000095 .text             CThreadManager.obj(?GetCurrentThread@CThreadManager@BigRedH@@QAEPAVCThread@2@XZ)
004786f0 00000025 .text             CThreadManager.obj(??A?$map@PAXPAVCThread@BigRedH@@U?$less@PAX@std@@V?$allocator@U?$pair@QAXPAVCThread@BigRedH@@@std@@@4@@std@@QAEAAPAVCThread@BigRedH@@ABQAX@Z)
00478720 00000019 .text             CThreadManager.obj(??9std@@YA_NABV?$__generic_iterator@$0A@@?$__tree@U?$pair@QAXPAVCThread@BigRedH@@@std@@Vvalue_compare@?$map@PAXPAVCThread@BigRedH@@U?$less@PAX@std@@V?$allocator@U?$pair@QAXPAVCThread@BigRedH@@...)
00478740 00000026 .text             CThreadManager.obj(?end@?$map@PAXPAVCThread@BigRedH@@U?$less@PAX@std@@V?$allocator@U?$pair@QAXPAVCThread@BigRedH@@@std@@@4@@std@@QAE?AV?$__generic_iterator@$0A@@?$__tree@U?$pair@QAXPAVCThread@BigRedH@@@std@@Vval...)
00478770 0000002e .text             CThreadManager.obj(?end@?$__tree@U?$pair@QAXPAVCThread@BigRedH@@@std@@Vvalue_compare@?$map@PAXPAVCThread@BigRedH@@U?$less@PAX@std@@V?$allocator@U?$pair@QAXPAVCThread@BigRedH@@@std@@@4@@2@V?$allocator@U?$pair@QAX...)
004787a0 00000015 .text             CThreadManager.obj(?__pointer2iterator@?$__tree@U?$pair@QAXPAVCThread@BigRedH@@@std@@Vvalue_compare@?$map@PAXPAVCThread@BigRedH@@U?$less@PAX@std@@V?$allocator@U?$pair@QAXPAVCThread@BigRedH@@@std@@@4@@2@V?$alloca...)
004787c0 00000020 .text             CThreadManager.obj(??0?$__generic_iterator@$0A@@?$__tree@U?$pair@QAXPAVCThread@BigRedH@@@std@@Vvalue_compare@?$map@PAXPAVCThread@BigRedH@@U?$less@PAX@std@@V?$allocator@U?$pair@QAXPAVCThread@BigRedH@@@std@@@4@@2@...)
004787e0 00000029 .text             CThreadManager.obj(?find@?$map@PAXPAVCThread@BigRedH@@U?$less@PAX@std@@V?$allocator@U?$pair@QAXPAVCThread@BigRedH@@@std@@@4@@std@@QAE?AV?$__generic_iterator@$0A@@?$__tree@U?$pair@QAXPAVCThread@BigRedH@@@std@@Vva...)
00478810 00000020 .text             CThreadManager.obj(?front@?$__tree@U?$pair@QAXPAVCThread@BigRedH@@@std@@Vvalue_compare@?$map@PAXPAVCThread@BigRedH@@U?$less@PAX@std@@V?$allocator@U?$pair@QAXPAVCThread@BigRedH@@@std@@@4@@2@V?$allocator@U?$pair@Q...)
00478830 00000019 .text             CThreadManager.obj(?second@?$compressed_pair_imp@Vvalue_compare@?$map@PAXPAVCThread@BigRedH@@U?$less@PAX@std@@V?$allocator@U?$pair@QAXPAVCThread@BigRedH@@@std@@@4@@std@@PAUnode@?$__tree@U?$pair@QAXPAVCThread@Big...)
00478850 00000016 .text             CThreadManager.obj(??0?$generic_iterator@$0A@@?$__list_deleter@PBXV?$allocator@PBX@std@@@std@@QAE@XZ)
00478870 0000001d .text             CThreadManager.obj(?sz@?$__tree@U?$pair@QAXPAVCThread@BigRedH@@@std@@Vvalue_compare@?$map@PAXPAVCThread@BigRedH@@U?$less@PAX@std@@V?$allocator@U?$pair@QAXPAVCThread@BigRedH@@@std@@@4@@2@V?$allocator@U?$pair@QAXP...)
00478890 00000016 .text             CThreadManager.obj(?second@?$compressed_pair_imp@V?$allocator@U?$pair@QAXPAVCThread@BigRedH@@@std@@@std@@I$00@details@Metrowerks@@QBEABIXZ)
004788b0 000000f6 .text             CThreadManager.obj(?find_or_insert@?$@PAXPAVCThread@BigRedH@@@?$__tree@U?$pair@QAXPAVCThread@BigRedH@@@std@@Vvalue_compare@?$map@PAXPAVCThread@BigRedH@@U?$less@PAX@std@@V?$allocator@U?$pair@QAXPAVCThread@BigRedH...)
004789b0 0000002d .text             CThreadManager.obj(??0?$pair@QAXPAVCThread@BigRedH@@@std@@QAE@ABQAXABQAVCThread@BigRedH@@@Z)
004789e0 00000025 .text             CThreadManager.obj(??Rvalue_compare@?$map@PAXPAVCThread@BigRedH@@U?$less@PAX@std@@V?$allocator@U?$pair@QAXPAVCThread@BigRedH@@@std@@@4@@std@@QBE_NABU?$pair@QAXPAVCThread@BigRedH@@@2@ABQAX@Z)
00478a10 00000029 .text             CThreadManager.obj(??R?$less@PAX@std@@QBE_NABQAX0@Z)
00478a40 00000025 .text             CThreadManager.obj(??Rvalue_compare@?$map@PAXPAVCThread@BigRedH@@U?$less@PAX@std@@V?$allocator@U?$pair@QAXPAVCThread@BigRedH@@@std@@@4@@std@@QBE_NABQAXABU?$pair@QAXPAVCThread@BigRedH@@@2@@Z)
00478a70 00000020 .text             CThreadManager.obj(?comp@?$__tree@U?$pair@QAXPAVCThread@BigRedH@@@std@@Vvalue_compare@?$map@PAXPAVCThread@BigRedH@@U?$less@PAX@std@@V?$allocator@U?$pair@QAXPAVCThread@BigRedH@@@std@@@4@@2@V?$allocator@U?$pair@QA...)
00478a90 00000016 .text             CThreadManager.obj(?first@?$compressed_pair_imp@Vvalue_compare@?$map@PAXPAVCThread@BigRedH@@U?$less@PAX@std@@V?$allocator@U?$pair@QAXPAVCThread@BigRedH@@@std@@@4@@std@@PAUnode@?$__tree@U?$pair@QAXPAVCThread@BigR...)
00478ab0 000000c7 .text             CThreadManager.obj(?find@?$@PAX@?$__tree@U?$pair@QAXPAVCThread@BigRedH@@@std@@Vvalue_compare@?$map@PAXPAVCThread@BigRedH@@U?$less@PAX@std@@V?$allocator@U?$pair@QAXPAVCThread@BigRedH@@@std@@@4@@2@V?$allocator@U?$...)
00478b80 00000016 .text             CThreadManager.obj(?second@?$compressed_pair_imp@V?$allocator@U?$pair@QAXPAVCThread@BigRedH@@@std@@@std@@I$00@details@Metrowerks@@QAEAAIXZ)
00478ba0 00000015 .text             CThreadManager.obj(?destroy@?$allocator@U?$pair@QAXPAVCThread@BigRedH@@@std@@@std@@QAEXPAU?$pair@QAXPAVCThread@BigRedH@@@2@@Z)
00478bc0 00000016 .text             CThreadManager.obj(?first@?$compressed_pair_imp@V?$allocator@U?$pair@QAXPAVCThread@BigRedH@@@std@@@std@@I$00@details@Metrowerks@@QAEAAV?$allocator@U?$pair@QAXPAVCThread@BigRedH@@@std@@@std@@XZ)
00478be0 00000059 .text             CThreadManager.obj(?construct@?$allocator@U?$pair@QAXPAVCThread@BigRedH@@@std@@@std@@QAEXPAU?$pair@QAXPAVCThread@BigRedH@@@2@ABU32@@Z)
00478c40 00000030 .text             CThreadManager.obj(??0?$pair@QAXPAVCThread@BigRedH@@@std@@QAE@ABU01@@Z)
00478c70 0000006b .text             CThreadManager.obj(?destroy@?$__tree@U?$pair@QAXPAVCThread@BigRedH@@@std@@Vvalue_compare@?$map@PAXPAVCThread@BigRedH@@U?$less@PAX@std@@V?$allocator@U?$pair@QAXPAVCThread@BigRedH@@@std@@@4@@2@V?$allocator@U?$pair...)
00478ce0 0000001e .text             CThreadManager.obj(?deallocate@?$allocator@Unode@?$__tree@U?$pair@QAXPAVCThread@BigRedH@@@std@@Vvalue_compare@?$map@PAXPAVCThread@BigRedH@@U?$less@PAX@std@@V?$allocator@U?$pair@QAXPAVCThread@BigRedH@@@std@@@4@@2...)
00478d00 00000020 .text             CThreadManager.obj(?node_alloc@?$__tree@U?$pair@QAXPAVCThread@BigRedH@@@std@@Vvalue_compare@?$map@PAXPAVCThread@BigRedH@@U?$less@PAX@std@@V?$allocator@U?$pair@QAXPAVCThread@BigRedH@@@std@@@4@@2@V?$allocator@U?$p...)
00478d20 00000016 .text             CThreadManager.obj(?first@?$compressed_pair_imp@V?$allocator@Unode@?$__tree@U?$pair@QAXPAVCThread@BigRedH@@@std@@Vvalue_compare@?$map@PAXPAVCThread@BigRedH@@U?$less@PAX@std@@V?$allocator@U?$pair@QAXPAVCThread@Bi...)
00478d40 0000001d .text             CThreadManager.obj(?alloc@?$__tree@U?$pair@QAXPAVCThread@BigRedH@@@std@@Vvalue_compare@?$map@PAXPAVCThread@BigRedH@@U?$less@PAX@std@@V?$allocator@U?$pair@QAXPAVCThread@BigRedH@@@std@@@4@@2@V?$allocator@U?$pair@Q...)
00478d60 0000001d .text             CThreadManager.obj(?sz@?$__tree@U?$pair@QAXPAVCThread@BigRedH@@@std@@Vvalue_compare@?$map@PAXPAVCThread@BigRedH@@U?$less@PAX@std@@V?$allocator@U?$pair@QAXPAVCThread@BigRedH@@@std@@@4@@2@V?$allocator@U?$pair@QAXP...)
00478d80 00000067 .text             CThreadManager.obj(??0?$__tree@U?$pair@QAXPAVCThread@BigRedH@@@std@@Vvalue_compare@?$map@PAXPAVCThread@BigRedH@@U?$less@PAX@std@@V?$allocator@U?$pair@QAXPAVCThread@BigRedH@@@std@@@4@@2@V?$allocator@U?$pair@QAXPA...)
00478df0 00000023 .text             CThreadManager.obj(??0?$compressed_pair@Vvalue_compare@?$map@PAXPAVCThread@BigRedH@@U?$less@PAX@std@@V?$allocator@U?$pair@QAXPAVCThread@BigRedH@@@std@@@4@@std@@PAUnode@?$__tree@U?$pair@QAXPAVCThread@BigRedH@@@st...)
00478e20 00000023 .text             CThreadManager.obj(??0?$compressed_pair_imp@Vvalue_compare@?$map@PAXPAVCThread@BigRedH@@U?$less@PAX@std@@V?$allocator@U?$pair@QAXPAVCThread@BigRedH@@@std@@@4@@std@@PAUnode@?$__tree@U?$pair@QAXPAVCThread@BigRedH@...)
00478e50 00000023 .text             CThreadManager.obj(??0value_compare@?$map@PAXPAVCThread@BigRedH@@U?$less@PAX@std@@V?$allocator@U?$pair@QAXPAVCThread@BigRedH@@@std@@@4@@std@@QAE@ABV012@@Z)
00478e80 00000023 .text             CThreadManager.obj(??0?$compressed_pair@V?$allocator@Unode@?$__tree@U?$pair@QAXPAVCThread@BigRedH@@@std@@Vvalue_compare@?$map@PAXPAVCThread@BigRedH@@U?$less@PAX@std@@V?$allocator@U?$pair@QAXPAVCThread@BigRedH@@@...)
00478eb0 0000002d .text             CThreadManager.obj(??0?$compressed_pair_imp@V?$allocator@Unode@?$__tree@U?$pair@QAXPAVCThread@BigRedH@@@std@@Vvalue_compare@?$map@PAXPAVCThread@BigRedH@@U?$less@PAX@std@@V?$allocator@U?$pair@QAXPAVCThread@BigRed...)
00478ee0 00000018 .text             CThreadManager.obj(??0?$allocator@Unode@?$__tree@U?$pair@QAXPAVCThread@BigRedH@@@std@@Vvalue_compare@?$map@PAXPAVCThread@BigRedH@@U?$less@PAX@std@@V?$allocator@U?$pair@QAXPAVCThread@BigRedH@@@std@@@4@@2@V?$alloc...)
00478f00 00000018 .text             CThreadManager.obj(??0?$@U?$pair@QAXPAVCThread@BigRedH@@@std@@@?$allocator@Unode@?$__tree@U?$pair@QAXPAVCThread@BigRedH@@@std@@Vvalue_compare@?$map@PAXPAVCThread@BigRedH@@U?$less@PAX@std@@V?$allocator@U?$pair@QA...)
00478f20 00000026 .text             CThreadManager.obj(??0?$compressed_pair@V?$allocator@U?$pair@QAXPAVCThread@BigRedH@@@std@@@std@@I@Metrowerks@@QAE@ABV?$allocator@U?$pair@QAXPAVCThread@BigRedH@@@std@@@std@@I@Z)
00478f50 0000002b .text             CThreadManager.obj(??0?$compressed_pair_imp@V?$allocator@U?$pair@QAXPAVCThread@BigRedH@@@std@@@std@@I$00@details@Metrowerks@@QAE@ABV?$allocator@U?$pair@QAXPAVCThread@BigRedH@@@std@@@std@@I@Z)
00478f80 00000018 .text             CThreadManager.obj(??0?$allocator@U?$pair@QAXPAVCThread@BigRedH@@@std@@@std@@QAE@ABV01@@Z)
00478fa0 00000136 .text             CThreadManager.obj(?insert_node_at@?$__tree@U?$pair@QAXPAVCThread@BigRedH@@@std@@Vvalue_compare@?$map@PAXPAVCThread@BigRedH@@U?$less@PAX@std@@V?$allocator@U?$pair@QAXPAVCThread@BigRedH@@@std@@@4@@2@V?$allocator@...)
004790e0 00000030 .text             CThreadManager.obj(?allocate@?$allocator@Unode@?$__tree@U?$pair@QAXPAVCThread@BigRedH@@@std@@Vvalue_compare@?$map@PAXPAVCThread@BigRedH@@U?$less@PAX@std@@V?$allocator@U?$pair@QAXPAVCThread@BigRedH@@@std@@@4@@2@V...)
00479110 0000001a .text             CThreadManager.obj(?max_size@?$__tree@U?$pair@QAXPAVCThread@BigRedH@@@std@@Vvalue_compare@?$map@PAXPAVCThread@BigRedH@@U?$less@PAX@std@@V?$allocator@U?$pair@QAXPAVCThread@BigRedH@@@std@@@4@@2@V?$allocator@U?$pai...)
00479130 0000001d .text             CThreadManager.obj(?size@?$__tree@U?$pair@QAXPAVCThread@BigRedH@@@std@@Vvalue_compare@?$map@PAXPAVCThread@BigRedH@@U?$less@PAX@std@@V?$allocator@U?$pair@QAXPAVCThread@BigRedH@@@std@@@4@@2@V?$allocator@U?$pair@QA...)
00479150 00000028 .text             CThreadManager.obj
00479180 00000029 .text             CDataProvider.obj(?GetAvailable@CInStream@BigRedH@@QAEKXZ)
004791b0 00000031 .text             CDataProvider.obj(?Read@CInStream@BigRedH@@QAEKPAXK@Z)
004791f0 00000019 .text             CDataProvider.obj(?GetID@CMessage@BigRedH@@QBEKXZ)
00479210 00000042 .text             CString_W.obj(??0CString@BigRedH@@QAE@PBD@Z)
00479260 00000046 .text             CString_W.obj(?Init@CString@BigRedH@@AAEXPBXI@Z)
004792b0 00000028 .text             UStringConverter.obj(?append@CString@BigRedH@@QAEAAV12@I_W@Z)
004792e0 000000f7 .text             UStringConverter.obj(?StringDataToUnistring@UStringConverter@BigRedH@@CA?AVCString@2@PBXKW1EStringEncoding@12@@Z)
004793e0 000000b4 .text             UStringConverter.obj(?append@?$basic_string@_WU?$char_traits@_W@std@@V?$allocator@_W@2@@std@@QAEAAV12@I_W@Z)
004794a0 0000001c .text             wmem.obj(_wmemcpy)
004794c0 0000001c .text             wmem.obj(_wmemmove)
004794e0 00000036 .text             wmem.obj(_wmemset)
00479520 00000019 .text             compiler_math.obj(__reduce)
00479540 0000004f .text             file_io.win32.obj(_find_temp_info)
00479590 0000008a .text             file_io.win32.obj(___msl_lseek)
00479620 00000170 .text             file_io.win32.obj(___msl_write)
00479790 00000081 .text             file_io.win32.obj(___msl_close)
00479820 00000151 .text             file_io.win32.obj(___msl_read)
00479980 00000039 .text             file_io.win32.obj(___read_file)
004799c0 0000004c .text             file_io.win32.obj(___write_file)
00479a10 0000006f .text             file_io.win32.obj(___close_file)
00479a80 0000001c .text             file_io.win32.obj(___delete_file)
00479aa0 00000005 .text             buffer_io.obj(___convert_from_newlines)
00479ab0 0000003b .text             buffer_io.obj(___prep_buffer)
00479af0 000000b8 .text             buffer_io.obj(___flush_buffer)
00479bb0 0000015e .text             file_io.obj(_fflush)
00479d10 0000003c .text             file_io.obj(___msl_strdup)
00479d50 00000061 .text             CException.obj(??0CException@BigRedH@@QAE@W5EAWError@UAWError@1@PBDHK@Z)
00479dc0 0000005b .text             CException.obj(??0CException@BigRedH@@QAE@ABV01@@Z)
00479e20 0000002a .text             CException.obj(??1CException@BigRedH@@UAE@XZ)
00479e50 00000049 .text             CException.obj(?SetSource@CException@BigRedH@@QAEXPBDH@Z)
00479ea0 0000006f .text             CException.obj(?GetMessageA@CException@BigRedH@@UBE?AVCString@2@XZ)
00479f10 00000023 .text             CException.obj(??YCString@BigRedH@@QAEAAV01@PB_W@Z)
00479f40 00000022 .text             CException.obj(??Y?$basic_string@_WU?$char_traits@_W@std@@V?$allocator@_W@2@@std@@QAEAAV01@PB_W@Z)
00479f70 0000002c .text             CException.obj(?append@?$basic_string@_WU?$char_traits@_W@std@@V?$allocator@_W@2@@std@@QAEAAV12@PB_W@Z)
00479fa0 00000023 .text             CException.obj(??4CString@BigRedH@@QAEAAV01@PB_W@Z)
00479fd0 00000022 .text             CException.obj(??4?$basic_string@_WU?$char_traits@_W@std@@V?$allocator@_W@2@@std@@QAEAAV01@PB_W@Z)
0047a000 0000002c .text             CException.obj(?assign@?$basic_string@_WU?$char_traits@_W@std@@V?$allocator@_W@2@@std@@QAEAAV12@PB_W@Z)
0047a030 00000058 .text             CException.obj(??_ECException@BigRedH@@UAE@I@Z)
0047a090 000000ce .text             CException.obj(?append@?$basic_string@_WU?$char_traits@_W@std@@V?$allocator@_W@2@@std@@QAEAAV12@PB_WI@Z)
0047a160 0000003c .text             CException.obj(?assign@?$basic_string@_WU?$char_traits@_W@std@@V?$allocator@_W@2@@std@@QAEAAV12@PB_WI@Z)
0047a1a0 00000026 .text             CException.obj(?append@?$basic_string@_WU?$char_traits@_W@std@@V?$allocator@_W@2@@std@@QAEAAV12@ABV12@@Z)
0047a1d0 0000007c .text             CException.obj(??0?$basic_string@_WU?$char_traits@_W@std@@V?$allocator@_W@2@@std@@QAE@PB_WIABV?$allocator@_W@1@@Z)
0047a250 000000c7 .text             CException.obj(?append@?$basic_string@_WU?$char_traits@_W@std@@V?$allocator@_W@2@@std@@QAEAAV12@ABV12@II@Z)
0047a320 00000005 .text             CThread_W.obj(?Initialize@CThread@BigRedH@@CAXXZ)
0047a330 0000000d .text             CThread_W.obj(?GetCurrentID@CThread@BigRedH@@CAPAXXZ)
0047a340 0000013b .text             CListener.obj(??0CListener@BigRedH@@QAE@XZ)
0047a480 0000001e .text             CListener.obj(??1?$list@PAVCBroadcaster@BigRedH@@V?$allocator@PAVCBroadcaster@BigRedH@@@std@@@std@@QAE@XZ)
0047a4a0 0000003f .text             CListener.obj(??0CMessageException@BigRedH@@QAE@W1ETask@01@W5EAWError@UAWError@1@PBDHK@Z)
0047a4e0 00000027 .text             CListener.obj(??1CMessageException@BigRedH@@UAE@XZ)
0047a510 00000036 .text             CListener.obj(??0CMessageException@BigRedH@@QAE@ABVCException@1@W1ETask@01@@Z)
0047a550 0000001e .text             CListener.obj(??0?$list@PAVCBroadcaster@BigRedH@@V?$allocator@PAVCBroadcaster@BigRedH@@@std@@@std@@QAE@XZ)
0047a570 000000db .text             CListener.obj(??1CListener@BigRedH@@UAE@XZ)
0047a650 00000014 .text             CListener.obj(??9std@@YA_NABV?$generic_iterator@$0A@@?$list@PAVCBroadcaster@BigRedH@@V?$allocator@PAVCBroadcaster@BigRedH@@@std@@@0@0@Z)
0047a670 00000036 .text             CListener.obj(?end@?$list@PAVCBroadcaster@BigRedH@@V?$allocator@PAVCBroadcaster@BigRedH@@@std@@@std@@QAE?AV?$generic_iterator@$0A@@12@XZ)
0047a6b0 00000023 .text             CListener.obj(??0?$generic_iterator@$0A@@?$list@PAVCBroadcaster@BigRedH@@V?$allocator@PAVCBroadcaster@BigRedH@@@std@@@std@@AAE@V0?$__list_deleter@PBXV?$allocator@PBX@std@@@2@@Z)
0047a6e0 0000003d .text             CListener.obj(??E?$generic_iterator@$0A@@?$list@PAVCBroadcaster@BigRedH@@V?$allocator@PAVCBroadcaster@BigRedH@@@std@@@std@@QAE?AV012@H@Z)
0047a720 00000023 .text             CListener.obj(??0?$generic_iterator@$0A@@?$list@PAVCBroadcaster@BigRedH@@V?$allocator@PAVCBroadcaster@BigRedH@@@std@@@std@@QAE@ABV012@@Z)
0047a750 0000001d .text             CListener.obj(??D?$generic_iterator@$0A@@?$list@PAVCBroadcaster@BigRedH@@V?$allocator@PAVCBroadcaster@BigRedH@@@std@@@std@@QBEAAPAVCBroadcaster@BigRedH@@XZ)
0047a770 00000022 .text             CListener.obj(??4?$generic_iterator@$0A@@?$list@PAVCBroadcaster@BigRedH@@V?$allocator@PAVCBroadcaster@BigRedH@@@std@@@std@@QAEAAV012@ABV012@@Z)
0047a7a0 00000036 .text             CListener.obj(?begin@?$list@PAVCBroadcaster@BigRedH@@V?$allocator@PAVCBroadcaster@BigRedH@@@std@@@std@@QAE?AV?$generic_iterator@$0A@@12@XZ)
0047a7e0 0000001e .text             CListener.obj(??0?$generic_iterator@$0A@@?$list@PAVCBroadcaster@BigRedH@@V?$allocator@PAVCBroadcaster@BigRedH@@@std@@@std@@QAE@XZ)
0047a800 00000023 .text             CListener.obj(??0?$list@PAVCBroadcaster@BigRedH@@V?$allocator@PAVCBroadcaster@BigRedH@@@std@@@std@@QAE@ABV01@@Z)
0047a830 00000057 .text             CListener.obj(??0?$__list_imp@PBXV?$allocator@PBX@std@@@std@@IAE@ABV01@@Z)
0047a890 0000002b .text             CListener.obj(?end@?$__list_deleter@PBXV?$allocator@PBX@std@@@std@@QBE?AV?$generic_iterator@$00@12@XZ)
0047a8c0 00000020 .text             CListener.obj(??0?$generic_iterator@$00@?$__list_deleter@PBXV?$allocator@PBX@std@@@std@@AAE@PBUnode_base@12@@Z)
0047a8e0 00000020 .text             CListener.obj(?tail@?$__list_deleter@PBXV?$allocator@PBX@std@@@std@@QBEABUnode_base@12@XZ)
0047a900 00000016 .text             CListener.obj(?second@?$compressed_pair_imp@V?$allocator@Unode@?$__list_deleter@PBXV?$allocator@PBX@std@@@std@@@std@@Unode_base@?$__list_deleter@PBXV?$allocator@PBX@std@@@2@$00@details@Metrowerks@@QBEABUnode_bas...)
0047a920 0000002d .text             CListener.obj(?begin@?$__list_deleter@PBXV?$allocator@PBX@std@@@std@@QBE?AV?$generic_iterator@$00@12@XZ)
0047a950 00000020 .text             CListener.obj(??0?$generic_iterator@$00@?$__list_deleter@PBXV?$allocator@PBX@std@@@std@@AAE@PBUnode@12@@Z)
0047a970 0000001d .text             CListener.obj(?alloc@?$__list_deleter@PBXV?$allocator@PBX@std@@@std@@QBEABV?$allocator@PBX@2@XZ)
0047a990 00000016 .text             CListener.obj(?first@?$compressed_pair_imp@V?$allocator@PBX@std@@I$00@details@Metrowerks@@QBEABV?$allocator@PBX@std@@XZ)
0047a9b0 000000d0 .text             CListener.obj(?RemoveBroadcaster@CListener@BigRedH@@IAEXAAVCBroadcaster@2@@Z)
0047aa80 00000020 .text             CListener.obj(?remove@?$list@PAVCBroadcaster@BigRedH@@V?$allocator@PAVCBroadcaster@BigRedH@@@std@@@std@@QAEXABQAVCBroadcaster@BigRedH@@@Z)
0047aaa0 00000058 .text             CListener.obj(??_ECMessageException@BigRedH@@UAE@I@Z)
0047ab00 00000058 .text             CListener.obj(??_ECListener@BigRedH@@UAE@I@Z)
0047ab60 00000043 .text             CListener.obj(?init@?$@V?$generic_iterator@$00@?$__list_deleter@PBXV?$allocator@PBX@std@@@std@@@?$__list_imp@PBXV?$allocator@PBX@std@@@3@IAEXV123@0@Z)
0047abb0 00000019 .text             CListener.obj(??9std@@YA_NABV?$generic_iterator@$00@?$__list_deleter@PBXV?$allocator@PBX@std@@@0@0@Z)
0047abd0 00000023 .text             CListener.obj(??E?$generic_iterator@$00@?$__list_deleter@PBXV?$allocator@PBX@std@@@std@@QAEAAV012@XZ)
0047ac00 0000001b .text             CListener.obj(??D?$generic_iterator@$00@?$__list_deleter@PBXV?$allocator@PBX@std@@@std@@QBEABQBXXZ)
0047ac20 00000069 .text             CListener.obj(??0?$__list_deleter@PBXV?$allocator@PBX@std@@@std@@QAE@ABV?$allocator@PBX@1@@Z)
0047ac90 00000026 .text             CListener.obj(??0?$compressed_pair@V?$allocator@PBX@std@@I@Metrowerks@@QAE@ABV?$allocator@PBX@std@@I@Z)
0047acc0 0000002b .text             CListener.obj(??0?$compressed_pair_imp@V?$allocator@PBX@std@@I$00@details@Metrowerks@@QAE@ABV?$allocator@PBX@std@@I@Z)
0047acf0 00000018 .text             CListener.obj(??0?$allocator@PBX@std@@QAE@ABV01@@Z)
0047ad10 0000001d .text             CBroadcaster.obj(?root@?$__tree@PAVCListener@BigRedH@@U?$less@PAVCListener@BigRedH@@@std@@V?$allocator@PAVCListener@BigRedH@@@4@@std@@AAEAAPAUnode@12@XZ)
0047ad30 00000020 .text             CBroadcaster.obj(?tail@?$__tree@PAVCListener@BigRedH@@U?$less@PAVCListener@BigRedH@@@std@@V?$allocator@PAVCListener@BigRedH@@@4@@std@@AAEAAUanchor@?$__red_black_tree@$00@2@XZ)
0047ad50 00000016 .text             CBroadcaster.obj(?second@?$compressed_pair_imp@V?$allocator@Unode@?$__tree@PAVCListener@BigRedH@@U?$less@PAVCListener@BigRedH@@@std@@V?$allocator@PAVCListener@BigRedH@@@4@@std@@@std@@Uanchor@?$__red_black_tree@$...)
0047ad70 00000014 .text             CBroadcaster.obj(??9std@@YA_NABV?$generic_iterator@$0A@@?$list@PAVCListener@BigRedH@@V?$allocator@PAVCListener@BigRedH@@@std@@@0@0@Z)
0047ad90 00000036 .text             CBroadcaster.obj(?end@?$list@PAVCListener@BigRedH@@V?$allocator@PAVCListener@BigRedH@@@std@@@std@@QAE?AV?$generic_iterator@$0A@@12@XZ)
0047add0 00000023 .text             CBroadcaster.obj(??0?$generic_iterator@$0A@@?$list@PAVCListener@BigRedH@@V?$allocator@PAVCListener@BigRedH@@@std@@@std@@AAE@V0?$__list_deleter@PBXV?$allocator@PBX@std@@@2@@Z)
0047ae00 00000023 .text             CBroadcaster.obj(??0?$generic_iterator@$0A@@?$list@PAVCListener@BigRedH@@V?$allocator@PAVCListener@BigRedH@@@std@@@std@@QAE@ABV012@@Z)
0047ae30 0000001d .text             CBroadcaster.obj(??D?$generic_iterator@$0A@@?$list@PAVCListener@BigRedH@@V?$allocator@PAVCListener@BigRedH@@@std@@@std@@QBEAAPAVCListener@BigRedH@@XZ)
0047ae50 00000022 .text             CBroadcaster.obj(??4?$generic_iterator@$0A@@?$list@PAVCListener@BigRedH@@V?$allocator@PAVCListener@BigRedH@@@std@@@std@@QAEAAV012@ABV012@@Z)
0047ae80 00000036 .text             CBroadcaster.obj(?begin@?$list@PAVCListener@BigRedH@@V?$allocator@PAVCListener@BigRedH@@@std@@@std@@QAE?AV?$generic_iterator@$0A@@12@XZ)
0047aec0 0000001e .text             CBroadcaster.obj(??0?$generic_iterator@$0A@@?$list@PAVCListener@BigRedH@@V?$allocator@PAVCListener@BigRedH@@@std@@@std@@QAE@XZ)
0047aee0 00000020 .text             CBroadcaster.obj(?push_back@?$list@PAVCListener@BigRedH@@V?$allocator@PAVCListener@BigRedH@@@std@@@std@@QAEXABQAVCListener@BigRedH@@@Z)
0047af00 00000022 .text             CBroadcaster.obj(??0?$__generic_iterator@$00@?$__tree@PAVCListener@BigRedH@@U?$less@PAVCListener@BigRedH@@@std@@V?$allocator@PAVCListener@BigRedH@@@4@@std@@QAE@ABV?$__generic_iterator@$0A@@12@@Z)
0047af30 00000125 .text             CBroadcaster.obj(?RemoveListener@CBroadcaster@BigRedH@@QAEXAAVCListener@2@@Z)
0047b060 0000004e .text             CBroadcaster.obj(?insert@?$set@PAVCListener@BigRedH@@U?$less@PAVCListener@BigRedH@@@std@@V?$allocator@PAVCListener@BigRedH@@@4@@std@@QAE?AU?$pair@V?$__generic_iterator@$00@?$__tree@PAVCListener@BigRedH@@U?$less@...)
0047b0b0 0000002f .text             CBroadcaster.obj(??0?$pair@V?$__generic_iterator@$00@?$__tree@PAVCListener@BigRedH@@U?$less@PAVCListener@BigRedH@@@std@@V?$allocator@PAVCListener@BigRedH@@@4@@std@@_N@std@@QAE@ABV?$__generic_iterator@$00@?$__tre...)
0047b0e0 00000022 .text             CBroadcaster.obj(??0?$__generic_iterator@$00@?$__tree@PAVCListener@BigRedH@@U?$less@PAVCListener@BigRedH@@@std@@V?$allocator@PAVCListener@BigRedH@@@4@@std@@QAE@ABV012@@Z)
0047b110 00000020 .text             CBroadcaster.obj(?remove@?$list@PAVCListener@BigRedH@@V?$allocator@PAVCListener@BigRedH@@@std@@@std@@QAEXABQAVCListener@BigRedH@@@Z)
0047b130 0000001e .text             CBroadcaster.obj(??E?$generic_iterator@$0A@@?$list@PAVCListener@BigRedH@@V?$allocator@PAVCListener@BigRedH@@@std@@@std@@QAEAAV012@XZ)
0047b150 00000015 .text             CBroadcaster.obj(?__pointer2iterator@?$__tree@PAVCListener@BigRedH@@U?$less@PAVCListener@BigRedH@@@std@@V?$allocator@PAVCListener@BigRedH@@@4@@std@@SA?AV?$__generic_iterator@$0A@@12@PAUnode@12@@Z)
0047b170 00000020 .text             CBroadcaster.obj(??0?$__generic_iterator@$0A@@?$__tree@PAVCListener@BigRedH@@U?$less@PAVCListener@BigRedH@@@std@@V?$allocator@PAVCListener@BigRedH@@@4@@std@@AAE@PAUnode@12@@Z)
0047b190 00000020 .text             CBroadcaster.obj(?front@?$__tree@PAVCListener@BigRedH@@U?$less@PAVCListener@BigRedH@@@std@@V?$allocator@PAVCListener@BigRedH@@@4@@std@@AAEAAPAUnode@12@XZ)
0047b1b0 00000016 .text             CBroadcaster.obj(?second@?$compressed_pair_imp@U?$less@PAVCListener@BigRedH@@@std@@PAUnode@?$__tree@PAVCListener@BigRedH@@U?$less@PAVCListener@BigRedH@@@std@@V?$allocator@PAVCListener@BigRedH@@@4@@2@$00@details@...)
0047b1d0 00000022 .text             CBroadcaster.obj(??0?$__generic_iterator@$0A@@?$__tree@PAVCListener@BigRedH@@U?$less@PAVCListener@BigRedH@@@std@@V?$allocator@PAVCListener@BigRedH@@@4@@std@@QAE@ABV012@@Z)
0047b200 00000029 .text             CBroadcaster.obj(??R?$less@PAVCListener@BigRedH@@@std@@QBE_NABQAVCListener@BigRedH@@0@Z)
0047b230 00000020 .text             CBroadcaster.obj(?comp@?$__tree@PAVCListener@BigRedH@@U?$less@PAVCListener@BigRedH@@@std@@V?$allocator@PAVCListener@BigRedH@@@4@@std@@AAEAAU?$less@PAVCListener@BigRedH@@@2@XZ)
0047b250 00000016 .text             CBroadcaster.obj(?first@?$compressed_pair_imp@U?$less@PAVCListener@BigRedH@@@std@@PAUnode@?$__tree@PAVCListener@BigRedH@@U?$less@PAVCListener@BigRedH@@@std@@V?$allocator@PAVCListener@BigRedH@@@4@@2@$00@details@M...)
0047b270 0000001e .text             CBroadcaster.obj(?deallocate@?$allocator@Unode@?$__tree@PAVCListener@BigRedH@@U?$less@PAVCListener@BigRedH@@@std@@V?$allocator@PAVCListener@BigRedH@@@4@@std@@@std@@QAEXPAUnode@?$__tree@PAVCListener@BigRedH@@U?$l...)
0047b290 00000020 .text             CBroadcaster.obj(?node_alloc@?$__tree@PAVCListener@BigRedH@@U?$less@PAVCListener@BigRedH@@@std@@V?$allocator@PAVCListener@BigRedH@@@4@@std@@AAEAAV?$allocator@Unode@?$__tree@PAVCListener@BigRedH@@U?$less@PAVCList...)
0047b2b0 00000016 .text             CBroadcaster.obj(?first@?$compressed_pair_imp@V?$allocator@Unode@?$__tree@PAVCListener@BigRedH@@U?$less@PAVCListener@BigRedH@@@std@@V?$allocator@PAVCListener@BigRedH@@@4@@std@@@std@@Uanchor@?$__red_black_tree@$0...)
0047b2d0 0000001d .text             CBroadcaster.obj(?alloc@?$__tree@PAVCListener@BigRedH@@U?$less@PAVCListener@BigRedH@@@std@@V?$allocator@PAVCListener@BigRedH@@@4@@std@@AAEAAV?$allocator@PAVCListener@BigRedH@@@2@XZ)
0047b2f0 00000016 .text             CBroadcaster.obj(?first@?$compressed_pair_imp@V?$allocator@PAVCListener@BigRedH@@@std@@I$00@details@Metrowerks@@QAEAAV?$allocator@PAVCListener@BigRedH@@@std@@XZ)
0047b310 0000012c .text             CBroadcaster.obj(?insert_one@?$__tree@PAVCListener@BigRedH@@U?$less@PAVCListener@BigRedH@@@std@@V?$allocator@PAVCListener@BigRedH@@@4@@std@@QAE?AU?$pair@V?$__generic_iterator@$0A@@?$__tree@PAVCListener@BigRedH@@...)
0047b440 0000002f .text             CBroadcaster.obj(??0?$pair@V?$__generic_iterator@$0A@@?$__tree@PAVCListener@BigRedH@@U?$less@PAVCListener@BigRedH@@@std@@V?$allocator@PAVCListener@BigRedH@@@4@@std@@_N@std@@QAE@ABV?$__generic_iterator@$0A@@?$__t...)
0047b470 00000136 .text             CBroadcaster.obj(?insert_node_at@?$__tree@PAVCListener@BigRedH@@U?$less@PAVCListener@BigRedH@@@std@@V?$allocator@PAVCListener@BigRedH@@@4@@std@@AAEPAUnode@12@PAU312@_N1ABQAVCListener@BigRedH@@@Z)
0047b5b0 0000001d .text             CBroadcaster.obj(?sz@?$__tree@PAVCListener@BigRedH@@U?$less@PAVCListener@BigRedH@@@std@@V?$allocator@PAVCListener@BigRedH@@@4@@std@@AAEAAIXZ)
0047b5d0 00000016 .text             CBroadcaster.obj(?second@?$compressed_pair_imp@V?$allocator@PAVCListener@BigRedH@@@std@@I$00@details@Metrowerks@@QAEAAIXZ)
0047b5f0 00000056 .text             CBroadcaster.obj(?construct@?$allocator@PAVCListener@BigRedH@@@std@@QAEXPAPAVCListener@BigRedH@@ABQAV34@@Z)
0047b650 00000024 .text             CBroadcaster.obj(?allocate@?$allocator@Unode@?$__tree@PAVCListener@BigRedH@@U?$less@PAVCListener@BigRedH@@@std@@V?$allocator@PAVCListener@BigRedH@@@4@@std@@@std@@QAEPAUnode@?$__tree@PAVCListener@BigRedH@@U?$less...)
0047b680 0000001a .text             CBroadcaster.obj(?max_size@?$__tree@PAVCListener@BigRedH@@U?$less@PAVCListener@BigRedH@@@std@@V?$allocator@PAVCListener@BigRedH@@@4@@std@@QBEIXZ)
0047b6a0 0000001d .text             CBroadcaster.obj(?size@?$__tree@PAVCListener@BigRedH@@U?$less@PAVCListener@BigRedH@@@std@@V?$allocator@PAVCListener@BigRedH@@@4@@std@@QBEIXZ)
0047b6c0 0000001d .text             CBroadcaster.obj(?sz@?$__tree@PAVCListener@BigRedH@@U?$less@PAVCListener@BigRedH@@@std@@V?$allocator@PAVCListener@BigRedH@@@4@@std@@ABEABIXZ)
0047b6e0 00000016 .text             CBroadcaster.obj(?second@?$compressed_pair_imp@V?$allocator@PAVCListener@BigRedH@@@std@@I$00@details@Metrowerks@@QBEABIXZ)
0047b700 0000003f .text             CSyncTCPStreamBuffer.obj(??0CStreamException@BigRedH@@QAE@W1ETask@01@W5EAWError@UAWError@1@PBDHK@Z)
0047b740 00000027 .text             CSyncTCPStreamBuffer.obj(??1CStreamException@BigRedH@@UAE@XZ)
0047b770 00000036 .text             CSyncTCPStreamBuffer.obj(??0CStreamException@BigRedH@@QAE@ABVCException@1@W1ETask@01@@Z)
0047b7b0 00000058 .text             CSyncTCPStreamBuffer.obj(??_ECStreamException@BigRedH@@UAE@I@Z)
0047b810 00000034 .text             CStreamBuffer.obj(?GetWithEndianOrdering@CStreamBuffer@BigRedH@@QAEXPAXK@Z)
0047b850 0000007a .text             CStreamBuffer.obj(?ArrangeOrder@CEndianOrder@BigRedH@@QAEXPAEK@Z)
0047b8d0 00000065 .text             CStreamBuffer.obj(?GetAll@CStreamBuffer@BigRedH@@QAEXPAXK@Z)
0047b940 00000133 .text             CStreamBuffer.obj(?IsSourceFor@CStreamBuffer@BigRedH@@QAE_NABVCMessage@2@@Z)
0047ba80 00000019 .text             CStreamBuffer.obj(?GetSource@?$TObjectMessageS@_NAAVCAsyncStreamBuffer@BigRedH@@@BigRedH@@QBEAAVCAsyncStreamBuffer@2@XZ)
0047baa0 00000045 .text             mbstring.obj(___mbtowc_noconv)
0047baf0 00000020 .text             mbstring.obj(___wctomb_noconv)
0047bb10 000000ee .text             file_pos.obj(__ftell)
0047bc00 0000002f .text             file_pos.obj(_ftell)
0047bc30 00000024 .text             file_pos.obj(___end_critical_region)
0047bc60 00000024 .text             file_pos.obj(___begin_critical_region)
0047bc90 00000066 .text             UAWError_W.obj(?TranslateErrorCode@UAWError@BigRedH@@SA?AW5EAWError@12@K@Z)
0047bd00 0000002b .text             CMessageWrangler.obj(?end@?$__list_deleter@U?$pair@PAVCListener@BigRedH@@PAVCMessage@2@@std@@V?$allocator@U?$pair@PAVCListener@BigRedH@@PAVCMessage@2@@std@@@2@@std@@QAE?AV?$generic_iterator@$0A@@12@XZ)
0047bd30 00000020 .text             CMessageWrangler.obj(??0?$generic_iterator@$0A@@?$__list_deleter@U?$pair@PAVCListener@BigRedH@@PAVCMessage@2@@std@@V?$allocator@U?$pair@PAVCListener@BigRedH@@PAVCMessage@2@@std@@@2@@std@@AAE@PAUnode_base@12@@Z)
0047bd50 00000020 .text             CMessageWrangler.obj(?tail@?$__list_deleter@U?$pair@PAVCListener@BigRedH@@PAVCMessage@2@@std@@V?$allocator@U?$pair@PAVCListener@BigRedH@@PAVCMessage@2@@std@@@2@@std@@QAEAAUnode_base@12@XZ)
0047bd70 00000016 .text             CMessageWrangler.obj(?second@?$compressed_pair_imp@V?$allocator@Unode@?$__list_deleter@U?$pair@PAVCListener@BigRedH@@PAVCMessage@2@@std@@V?$allocator@U?$pair@PAVCListener@BigRedH@@PAVCMessage@2@@std@@@2@@std@@@s...)
0047bd90 0000002d .text             CMessageWrangler.obj(?begin@?$__list_deleter@U?$pair@PAVCListener@BigRedH@@PAVCMessage@2@@std@@V?$allocator@U?$pair@PAVCListener@BigRedH@@PAVCMessage@2@@std@@@2@@std@@QAE?AV?$generic_iterator@$0A@@12@XZ)
0047bdc0 00000020 .text             CMessageWrangler.obj(??0?$generic_iterator@$0A@@?$__list_deleter@U?$pair@PAVCListener@BigRedH@@PAVCMessage@2@@std@@V?$allocator@U?$pair@PAVCListener@BigRedH@@PAVCMessage@2@@std@@@2@@std@@AAE@PAUnode@12@@Z)
0047bde0 00000177 .text             CMessageWrangler.obj(?RegisterListener@CMessageWrangler@BigRedH@@AAEXAAVCListener@2@@Z)
0047bf60 00000014 .text             CMessageWrangler.obj(??8std@@YA_NABV?$generic_iterator@$0A@@?$list@PAVCListener@BigRedH@@V?$allocator@PAVCListener@BigRedH@@@std@@@0@0@Z)
0047bf80 00000048 .text             CMessageWrangler.obj(?find@?$@V?$generic_iterator@$0A@@?$list@PAVCListener@BigRedH@@V?$allocator@PAVCListener@BigRedH@@@std@@@std@@PAVCListener@BigRedH@@@3@YA?AV123@V123@0ABQAV45@@Z)
0047bfd0 0000021c .text             CMessageWrangler.obj(?UnregisterListener@CMessageWrangler@BigRedH@@AAEXAAVCListener@2@@Z)
0047c1f0 00000019 .text             CMessageWrangler.obj(??8std@@YA_NABV?$generic_iterator@$0A@@?$__list_deleter@U?$pair@PAVCListener@BigRedH@@PAVCMessage@2@@std@@V?$allocator@U?$pair@PAVCListener@BigRedH@@PAVCMessage@2@@std@@@2@@0@0@Z)
0047c210 00000022 .text             CMessageWrangler.obj(??4?$generic_iterator@$0A@@?$__list_deleter@U?$pair@PAVCListener@BigRedH@@PAVCMessage@2@@std@@V?$allocator@U?$pair@PAVCListener@BigRedH@@PAVCMessage@2@@std@@@2@@std@@QAEAAV012@ABV012@@Z)
0047c240 00000019 .text             CMessageWrangler.obj(??9std@@YA_NABV?$generic_iterator@$0A@@?$__list_deleter@U?$pair@PAVCListener@BigRedH@@PAVCMessage@2@@std@@V?$allocator@U?$pair@PAVCListener@BigRedH@@PAVCMessage@2@@std@@@2@@0@0@Z)
0047c260 00000023 .text             CMessageWrangler.obj(??E?$generic_iterator@$0A@@?$__list_deleter@U?$pair@PAVCListener@BigRedH@@PAVCMessage@2@@std@@V?$allocator@U?$pair@PAVCListener@BigRedH@@PAVCMessage@2@@std@@@2@@std@@QAEAAV012@XZ)
0047c290 00000022 .text             CMessageWrangler.obj(??0?$generic_iterator@$0A@@?$__list_deleter@U?$pair@PAVCListener@BigRedH@@PAVCMessage@2@@std@@V?$allocator@U?$pair@PAVCListener@BigRedH@@PAVCMessage@2@@std@@@2@@std@@QAE@ABV012@@Z)
0047c2c0 00000029 .text             CMessageWrangler.obj(??RFindListener@CMessageWrangler@BigRedH@@QBE_NABU?$pair@PAVCListener@BigRedH@@PAVCMessage@2@@std@@@Z)
0047c2f0 0000001b .text             CMessageWrangler.obj(??D?$generic_iterator@$0A@@?$__list_deleter@U?$pair@PAVCListener@BigRedH@@PAVCMessage@2@@std@@V?$allocator@U?$pair@PAVCListener@BigRedH@@PAVCMessage@2@@std@@@2@@std@@QBEAAU?$pair@PAVCListene...)
0047c310 00000020 .text             CMessageWrangler.obj(??0FindListener@CMessageWrangler@BigRedH@@QAE@PAVCListener@2@@Z)
0047c330 000000d1 .text             CMessageWrangler.obj(?erase@?$__list_deleter@U?$pair@PAVCListener@BigRedH@@PAVCMessage@2@@std@@V?$allocator@U?$pair@PAVCListener@BigRedH@@PAVCMessage@2@@std@@@2@@std@@QAE?AV?$generic_iterator@$0A@@12@V312@0@Z)
0047c410 0000001d .text             CMessageWrangler.obj(?sz@?$__list_deleter@U?$pair@PAVCListener@BigRedH@@PAVCMessage@2@@std@@V?$allocator@U?$pair@PAVCListener@BigRedH@@PAVCMessage@2@@std@@@2@@std@@QAEAAIXZ)
0047c430 00000016 .text             CMessageWrangler.obj(?second@?$compressed_pair_imp@V?$allocator@U?$pair@PAVCListener@BigRedH@@PAVCMessage@2@@std@@@std@@I$00@details@Metrowerks@@QAEAAIXZ)
0047c450 0000001e .text             CMessageWrangler.obj(?deallocate@?$allocator@Unode@?$__list_deleter@U?$pair@PAVCListener@BigRedH@@PAVCMessage@2@@std@@V?$allocator@U?$pair@PAVCListener@BigRedH@@PAVCMessage@2@@std@@@2@@std@@@std@@QAEXPAUnode@?$_...)
0047c470 00000020 .text             CMessageWrangler.obj(?node_alloc@?$__list_deleter@U?$pair@PAVCListener@BigRedH@@PAVCMessage@2@@std@@V?$allocator@U?$pair@PAVCListener@BigRedH@@PAVCMessage@2@@std@@@2@@std@@QAEAAV?$allocator@Unode@?$__list_delete...)
0047c490 00000016 .text             CMessageWrangler.obj(?first@?$compressed_pair_imp@V?$allocator@Unode@?$__list_deleter@U?$pair@PAVCListener@BigRedH@@PAVCMessage@2@@std@@V?$allocator@U?$pair@PAVCListener@BigRedH@@PAVCMessage@2@@std@@@2@@std@@@st...)
0047c4b0 00000015 .text             CMessageWrangler.obj(?destroy@?$allocator@U?$pair@PAVCListener@BigRedH@@PAVCMessage@2@@std@@@std@@QAEXPAU?$pair@PAVCListener@BigRedH@@PAVCMessage@2@@2@@Z)
0047c4d0 0000001d .text             CMessageWrangler.obj(?alloc@?$__list_deleter@U?$pair@PAVCListener@BigRedH@@PAVCMessage@2@@std@@V?$allocator@U?$pair@PAVCListener@BigRedH@@PAVCMessage@2@@std@@@2@@std@@QAEAAV?$allocator@U?$pair@PAVCListener@BigRe...)
0047c4f0 00000016 .text             CMessageWrangler.obj(?first@?$compressed_pair_imp@V?$allocator@U?$pair@PAVCListener@BigRedH@@PAVCMessage@2@@std@@@std@@I$00@details@Metrowerks@@QAEAAV?$allocator@U?$pair@PAVCListener@BigRedH@@PAVCMessage@2@@std@...)
0047c510 00000025 .text             CMessageWrangler.obj(?remove_nodes@?$__list_deleter@U?$pair@PAVCListener@BigRedH@@PAVCMessage@2@@std@@V?$allocator@U?$pair@PAVCListener@BigRedH@@PAVCMessage@2@@std@@@2@@std@@CAXPAUnode_base@12@0@Z)
0047c540 0000000a .text             CMessageWrangler.obj(?__iterator2pointer@?$__list_deleter@U?$pair@PAVCListener@BigRedH@@PAVCMessage@2@@std@@V?$allocator@U?$pair@PAVCListener@BigRedH@@PAVCMessage@2@@std@@@2@@std@@SAPAUnode@12@AAV?$generic_itera...)
0047c550 00000033 .text             CFSLocalFileRefWin.obj(??1?$auto_ptr@VCInStream@BigRedH@@@std@@QAE@XZ)
0047c590 00000020 .text             CFSLocalFileRefWin.obj(??0?$auto_ptr@VCInStream@BigRedH@@@std@@QAE@PAVCInStream@BigRedH@@@Z)
0047c5b0 00000023 .text             CFSLocalFileRefWin.obj(??4?$auto_ptr@VCInStream@BigRedH@@@std@@QAEAAV01@U?$auto_ptr_ref@VCInStream@BigRedH@@@1@@Z)
0047c5e0 00000044 .text             CFSLocalFileRefWin.obj(?reset@?$auto_ptr@VCInStream@BigRedH@@@std@@QAEXPAVCInStream@BigRedH@@@Z)
0047c630 00000025 .text             CFSLocalFileRefWin.obj(??B?$@VCInStream@BigRedH@@@?$auto_ptr@VCInStream@BigRedH@@@std@@QAE?AU?$auto_ptr_ref@VCInStream@BigRedH@@@3@XZ)
0047c660 0000002b .text             CFSLocalFileRefWin.obj(?release@?$auto_ptr@VCInStream@BigRedH@@@std@@QAEPAVCInStream@BigRedH@@XZ)
0047c690 00000018 .text             CFSLocalFileRefWin.obj(?get@?$auto_ptr@VCInStream@BigRedH@@@std@@QBEPAVCInStream@BigRedH@@XZ)
0047c6b0 00000033 .text             CMemoryObjectCache.obj(??1?$auto_ptr@VCMemoryObjectCache@BigRedH@@@std@@QAE@XZ)
0047c6f0 00000020 .text             CMemoryObjectCache.obj(??0?$auto_ptr@VCMemoryObjectCache@BigRedH@@@std@@QAE@PAVCMemoryObjectCache@BigRedH@@@Z)
0047c710 00000058 .text             CMemoryObjectCache.obj(??_ECFlattenable@BigRedH@@UAE@I@Z)
0047c770 00000028 .text             CMemoryObjectCache.obj
0047c7a0 00000034 .text             CFlattenable.obj(??0CFlattenable@BigRedH@@QAE@XZ)
0047c7e0 00000032 .text             CFlattenable.obj(??1CFlattenable@BigRedH@@UAE@XZ)
0047c820 00000064 .text             CFlattenable.obj(?GetInStream@CFlattenable@BigRedH@@IAEAAVCInStream@2@XZ)
0047c890 00000034 .text             CFlattenable.obj(?AttachInStream@CFlattenable@BigRedH@@UAEXAAV?$auto_ptr@VCInStream@BigRedH@@@std@@@Z)
0047c8d0 0000002c .text             CFlattenable.obj(?AddListener@CInStream@BigRedH@@QAEXAAVCListener@2@@Z)
0047c900 00000018 .text             CFlattenable.obj(??C?$auto_ptr@VCInStream@BigRedH@@@std@@QBEPAVCInStream@BigRedH@@XZ)
0047c920 00000029 .text             CFlattenable.obj(??4?$auto_ptr@VCInStream@BigRedH@@@std@@QAEAAV01@AAV01@@Z)
0047c950 00000147 .text             CFlattenable.obj(?ListenToMessage@CFlattenable@BigRedH@@MAEXABVCMessage@2@@Z)
0047caa0 00000025 .text             CFlattenable.obj(?IsSourceFor@CInStream@BigRedH@@QAE_NABVCMessage@2@@Z)
0047cad0 00000022 .text             CFlattenable.obj(?Create@?$TObjectFunctor@VCStringObject@BigRedH@@VCFlattenable@2@@BigRedH@@SAPAVCFlattenable@2@XZ)
0047cb00 00000022 .text             CFlattenable.obj(?Create@?$TObjectFunctor@VCResourceList@BigRedH@@VCFlattenable@2@@BigRedH@@SAPAVCFlattenable@2@XZ)
0047cb30 00000027 .text             CGenericObject.obj(?Close@CInStream@BigRedH@@QAEXXZ)
0047cb60 00000029 .text             CGenericObject.obj(?IsEOF@CInStream@BigRedH@@QAE_NXZ)
0047cb90 00000029 .text             CGenericObject.obj(?IsOpen@CInStream@BigRedH@@QAE_NXZ)
0047cbc0 00000039 .text             CStringObject.obj(??0CStringObject@BigRedH@@QAE@XZ)
0047cc00 00000032 .text             CStringObject.obj(??1CStringObject@BigRedH@@UAE@XZ)
0047cc40 000000d1 .text             CStringObject.obj(?AttachInStream@CStringObject@BigRedH@@MAEXAAV?$auto_ptr@VCInStream@BigRedH@@@std@@@Z)
0047cd20 000000e5 .text             CStringObject.obj(?ListenToMessage@CStringObject@BigRedH@@MAEXABVCMessage@2@@Z)
0047ce10 00000186 .text             CStringObject.obj(?TryToReadSomeMore@CStringObject@BigRedH@@AAEXXZ)
0047cfa0 00000058 .text             CStringObject.obj(??_ECStringObject@BigRedH@@UAE@I@Z)
0047d000 0000003c .text             CResourceList.obj(??0CResourceList@BigRedH@@QAE@XZ)
0047d040 0000001e .text             CResourceList.obj(??1?$vector@UListEntry@CResourceList@BigRedH@@V?$allocator@UListEntry@CResourceList@BigRedH@@@std@@@std@@QAE@XZ)
0047d060 0000001e .text             CResourceList.obj(??1?$__vector_imp@UListEntry@CResourceList@BigRedH@@V?$allocator@UListEntry@CResourceList@BigRedH@@@std@@$0A@@std@@QAE@XZ)
0047d080 0000001e .text             CResourceList.obj(??0?$vector@UListEntry@CResourceList@BigRedH@@V?$allocator@UListEntry@CResourceList@BigRedH@@@std@@@std@@QAE@XZ)
0047d0a0 0000001e .text             CResourceList.obj(??0?$__vector_imp@UListEntry@CResourceList@BigRedH@@V?$allocator@UListEntry@CResourceList@BigRedH@@@std@@$0A@@std@@IAE@XZ)
0047d0c0 00000034 .text             CResourceList.obj(??0?$__vector_deleter@UListEntry@CResourceList@BigRedH@@V?$allocator@UListEntry@CResourceList@BigRedH@@@std@@@std@@QAE@XZ)
0047d100 00000023 .text             CResourceList.obj(??0?$compressed_pair@V?$allocator@UListEntry@CResourceList@BigRedH@@@std@@I@Metrowerks@@QAE@I@Z)
0047d130 00000028 .text             CResourceList.obj(??0?$compressed_pair_imp@V?$allocator@UListEntry@CResourceList@BigRedH@@@std@@I$00@details@Metrowerks@@QAE@I@Z)
0047d160 00000016 .text             CResourceList.obj(??0?$allocator@UListEntry@CResourceList@BigRedH@@@std@@QAE@XZ)
0047d180 00000054 .text             CResourceList.obj(??1CResourceList@BigRedH@@UAE@XZ)
0047d1e0 000000d4 .text             CResourceList.obj(?AttachInStream@CResourceList@BigRedH@@MAEXAAV?$auto_ptr@VCInStream@BigRedH@@@std@@@Z)
0047d2c0 000000e8 .text             CResourceList.obj(?ListenToMessage@CResourceList@BigRedH@@MAEXABVCMessage@2@@Z)
0047d3b0 000000ab .text             CResourceList.obj(?TryToReadSomeMore@CResourceList@BigRedH@@AAEXXZ)
0047d460 00000020 .text             CResourceList.obj(?push_back@?$vector@UListEntry@CResourceList@BigRedH@@V?$allocator@UListEntry@CResourceList@BigRedH@@@std@@@std@@QAEXABUListEntry@CResourceList@BigRedH@@@Z)
0047d480 0000002b .text             CResourceList.obj(?push_back@?$__vector_imp@UListEntry@CResourceList@BigRedH@@V?$allocator@UListEntry@CResourceList@BigRedH@@@std@@$0A@@std@@IAEXABUListEntry@CResourceList@BigRedH@@@Z)
0047d4b0 00000031 .text             CResourceList.obj(?end@?$__vector_imp@UListEntry@CResourceList@BigRedH@@V?$allocator@UListEntry@CResourceList@BigRedH@@@std@@$0A@@std@@IAEPAUListEntry@CResourceList@BigRedH@@XZ)
0047d4f0 00000019 .text             CResourceList.obj(?data@?$__vector_deleter@UListEntry@CResourceList@BigRedH@@V?$allocator@UListEntry@CResourceList@BigRedH@@@std@@@std@@QAEAAPAUListEntry@CResourceList@BigRedH@@XZ)
0047d510 00000028 .text             CResourceList.obj(??5CInStream@BigRedH@@QAEAAV01@AAK@Z)
0047d540 00000020 .text             CResourceList.obj(?reserve@?$vector@UListEntry@CResourceList@BigRedH@@V?$allocator@UListEntry@CResourceList@BigRedH@@@std@@@std@@QAEXI@Z)
0047d560 0000002c .text             CResourceList.obj(?SetExpect@CInStream@BigRedH@@QAEXK@Z)
0047d590 00000058 .text             CResourceList.obj(??_ECResourceList@BigRedH@@UAE@I@Z)
0047d5f0 00000325 .text             CResourceList.obj(?insert@?$__vector_imp@UListEntry@CResourceList@BigRedH@@V?$allocator@UListEntry@CResourceList@BigRedH@@@std@@$0A@@std@@IAEXPAUListEntry@CResourceList@BigRedH@@IABU345@@Z)
0047d920 00000022 .text             CResourceList.obj(?swap@?$__vector_deleter@UListEntry@CResourceList@BigRedH@@V?$allocator@UListEntry@CResourceList@BigRedH@@@std@@@std@@QAEXAAV12@@Z)
0047d950 00000044 .text             CResourceList.obj(?swap@?$@UListEntry@CResourceList@BigRedH@@V?$allocator@UListEntry@CResourceList@BigRedH@@@std@@@5@YAXAAV?$__vector_deleter@UListEntry@CResourceList@BigRedH@@V?$allocator@UListEntry@CResourceLi...)
0047d9a0 0000002a .text             CResourceList.obj(?swap@?$@I@std@@YAXAAI0@Z)
0047d9d0 0000002a .text             CResourceList.obj(?swap@?$@PAUListEntry@CResourceList@BigRedH@@@std@@YAXAAPAU123@0@Z)
0047da00 00000010 .text             CResourceList.obj(?swap@?$@V?$allocator@UListEntry@CResourceList@BigRedH@@@std@@I@Metrowerks@@YAXAAV?$compressed_pair@V?$allocator@UListEntry@CResourceList@BigRedH@@@std@@I@3@0@Z)
0047da10 00000020 .text             CResourceList.obj(?swap@?$compressed_pair@V?$allocator@UListEntry@CResourceList@BigRedH@@@std@@I@Metrowerks@@QAEXAAV12@@Z)
0047da30 00000022 .text             CResourceList.obj(?swap@?$compressed_pair_imp@V?$allocator@UListEntry@CResourceList@BigRedH@@@std@@I$00@details@Metrowerks@@QAEXAAV123@@Z)
0047da60 0000001d .text             CResourceList.obj(?begin@?$__vector_imp@UListEntry@CResourceList@BigRedH@@V?$allocator@UListEntry@CResourceList@BigRedH@@@std@@$0A@@std@@IAEPAUListEntry@CResourceList@BigRedH@@XZ)
0047da80 00000028 .text             CResourceList.obj(?allocate@?$allocator@UListEntry@CResourceList@BigRedH@@@std@@QAEPAUListEntry@CResourceList@BigRedH@@IPBX@Z)
0047dab0 0000001d .text             CResourceList.obj(?cap@?$__vector_deleter@UListEntry@CResourceList@BigRedH@@V?$allocator@UListEntry@CResourceList@BigRedH@@@std@@@std@@QAEAAIXZ)
0047dad0 00000016 .text             CResourceList.obj(?second@?$compressed_pair_imp@V?$allocator@UListEntry@CResourceList@BigRedH@@@std@@I$00@details@Metrowerks@@QAEAAIXZ)
0047daf0 00000039 .text             CResourceList.obj(??0?$__vector_deleter@UListEntry@CResourceList@BigRedH@@V?$allocator@UListEntry@CResourceList@BigRedH@@@std@@@std@@QAE@ABV?$allocator@UListEntry@CResourceList@BigRedH@@@1@@Z)
0047db30 00000026 .text             CResourceList.obj(??0?$compressed_pair@V?$allocator@UListEntry@CResourceList@BigRedH@@@std@@I@Metrowerks@@QAE@ABV?$allocator@UListEntry@CResourceList@BigRedH@@@std@@I@Z)
0047db60 0000002b .text             CResourceList.obj(??0?$compressed_pair_imp@V?$allocator@UListEntry@CResourceList@BigRedH@@@std@@I$00@details@Metrowerks@@QAE@ABV?$allocator@UListEntry@CResourceList@BigRedH@@@std@@I@Z)
0047db90 00000018 .text             CResourceList.obj(??0?$allocator@UListEntry@CResourceList@BigRedH@@@std@@QAE@ABV01@@Z)
0047dbb0 00000016 .text             CResourceList.obj(?fill_n@?$@UListEntry@CResourceList@BigRedH@@IU123@@std@@YAXPAU123@IABU123@@Z)
0047dbd0 00000022 .text             CResourceList.obj(?fill_n@?$__fill_n@UListEntry@CResourceList@BigRedH@@I$0A@@std@@SAXPAUListEntry@CResourceList@BigRedH@@IABU345@@Z)
0047dc00 00000030 .text             CResourceList.obj(??4ListEntry@CResourceList@BigRedH@@QAEAAU012@ABU012@@Z)
0047dc30 00000018 .text             CResourceList.obj(?copy_backward@?$@UListEntry@CResourceList@BigRedH@@@std@@YAPAU123@PAU123@00@Z)
0047dc50 00000025 .text             CResourceList.obj(?copy_backward@?$__copy_backward@UListEntry@CResourceList@BigRedH@@$0A@$0A@@std@@SAPAUListEntry@CResourceList@BigRedH@@PAU345@00@Z)
0047dc80 00000064 .text             CResourceList.obj(?construct@?$allocator@UListEntry@CResourceList@BigRedH@@@std@@QAEXPAUListEntry@CResourceList@BigRedH@@ABU345@@Z)
0047dcf0 0000001d .text             CResourceList.obj(?alloc@?$__vector_deleter@UListEntry@CResourceList@BigRedH@@V?$allocator@UListEntry@CResourceList@BigRedH@@@std@@@std@@QAEAAV?$allocator@UListEntry@CResourceList@BigRedH@@@2@XZ)
0047dd10 00000016 .text             CResourceList.obj(?first@?$compressed_pair_imp@V?$allocator@UListEntry@CResourceList@BigRedH@@@std@@I$00@details@Metrowerks@@QAEAAV?$allocator@UListEntry@CResourceList@BigRedH@@@std@@XZ)
0047dd30 0000001d .text             CResourceList.obj(?capacity@?$__vector_imp@UListEntry@CResourceList@BigRedH@@V?$allocator@UListEntry@CResourceList@BigRedH@@@std@@$0A@@std@@IBEIXZ)
0047dd50 0000001d .text             CResourceList.obj(?cap@?$__vector_deleter@UListEntry@CResourceList@BigRedH@@V?$allocator@UListEntry@CResourceList@BigRedH@@@std@@@std@@QBEABIXZ)
0047dd70 00000016 .text             CResourceList.obj(?second@?$compressed_pair_imp@V?$allocator@UListEntry@CResourceList@BigRedH@@@std@@I$00@details@Metrowerks@@QBEABIXZ)
0047dd90 00000024 .text             CResourceList.obj(?max_size@?$__vector_imp@UListEntry@CResourceList@BigRedH@@V?$allocator@UListEntry@CResourceList@BigRedH@@@std@@$0A@@std@@IBEIXZ)
0047ddc0 0000001d .text             CResourceList.obj(?max_size@?$allocator@UListEntry@CResourceList@BigRedH@@@std@@QBEIXZ)
0047dde0 0000001d .text             CResourceList.obj(?alloc@?$__vector_deleter@UListEntry@CResourceList@BigRedH@@V?$allocator@UListEntry@CResourceList@BigRedH@@@std@@@std@@QBEABV?$allocator@UListEntry@CResourceList@BigRedH@@@2@XZ)
0047de00 00000016 .text             CResourceList.obj(?first@?$compressed_pair_imp@V?$allocator@UListEntry@CResourceList@BigRedH@@@std@@I$00@details@Metrowerks@@QBEABV?$allocator@UListEntry@CResourceList@BigRedH@@@std@@XZ)
0047de20 00000105 .text             CResourceList.obj(?reserve@?$__vector_imp@UListEntry@CResourceList@BigRedH@@V?$allocator@UListEntry@CResourceList@BigRedH@@@std@@$0A@@std@@IAEXI@Z)
0047df30 0000004e .text             CResourceList.obj(??1?$__vector_deleter@UListEntry@CResourceList@BigRedH@@V?$allocator@UListEntry@CResourceList@BigRedH@@@std@@@std@@QAE@XZ)
0047df80 0000001e .text             CResourceList.obj(?deallocate@?$allocator@UListEntry@CResourceList@BigRedH@@@std@@QAEXPAUListEntry@CResourceList@BigRedH@@I@Z)
0047dfa0 00000065 .text             CResourceList.obj(?clear@?$__vector_deleter@UListEntry@CResourceList@BigRedH@@V?$allocator@UListEntry@CResourceList@BigRedH@@@std@@@std@@QAEXXZ)
0047e010 00000015 .text             CResourceList.obj(?destroy@?$allocator@UListEntry@CResourceList@BigRedH@@@std@@QAEXPAUListEntry@CResourceList@BigRedH@@@Z)
0047f000 00000099 .rdata            HotlineServ.cp
0047f099 00000001 .rdata            HotlineServ.cp
0047f09a 00000237 .rdata            HotlineServ.cp
0047f2d1 00000001 .rdata            HotlineServ.cp
0047f2d2 00000001 .rdata            HotlineServ.cp
0047f2d3 00000001 .rdata            HotlineServ.cp
0047f2d4 00000001 .rdata            HotlineServ.cp
0047f2d5 00000001 .rdata            HotlineServ.cp
0047f2d6 00000001 .rdata            HotlineServ.cp
0047f2d7 00000001 .rdata            HotlineServ.cp
0047f2d8 00000001 .rdata            HotlineServ.cp
0047f2d9 0000001d .rdata            HotlineServ.cp
0047f2f6 00000001 .rdata            HotlineServ.cp
0047f2f7 0000010f .rdata            HotlineServ.cp
0047f406 00000049 .rdata            HotlineServ.cp
0047f44f 00000001 .rdata            HotlineServ.cp
0047f450 00000001 .rdata            HotlineServ.cp
0047f451 00000055 .rdata            HotlineServ.cp
0047f4a6 00000001 .rdata            HotlineServ.cp
0047f4a7 00000093 .rdata            HotlineServ.cp
0047f53a 00000001 .rdata            HotlineServ.cp
0047f53b 00000001 .rdata            HotlineServ.cp
0047f53c 0000001d .rdata            HotlineServ.cp
0047f55c 00000030 .rdata            HotlineServ.cp(@7877)
0047f58c 00000001 .rdata            HotlineServ.cp
0047f58d 00000001 .rdata            HotlineServ.cp
0047f58e 00000001 .rdata            HotlineServ.cp
0047f58f 00000001 .rdata            HotlineServ.cp
0047f590 00000001 .rdata            HotlineServ.cp
0047f591 00000001 .rdata            HotlineServ.cp
0047f592 00000029 .rdata            HotlineServ.cp
0047f5bb 00000001 .rdata            HotlineServ.cp
0047f5bc 00000029 .rdata            HotlineServ.cp
0047f5e5 00000001 .rdata            HotlineServ.cp
0047f5e6 00000001 .rdata            HotlineServ.cp
0047f5e7 00000001 .rdata            HotlineServ.cp
0047f5e8 000001ab .rdata            HotlineServ.cp
0047f793 00000001 .rdata            HotlineServ.cp
0047f794 0000008d .rdata            HotlineServ.cp
0047f821 00000001 .rdata            HotlineServ.cp
0047f822 00000001 .rdata            HotlineServ.cp
0047f823 0000003b .rdata            HotlineServ.cp
0047f85e 00000001 .rdata            HotlineServ.cp
0047f85f 00000001 .rdata            HotlineServ.cp
0047f860 00000020 .rdata            HotlineServ.cp(@8506)
0047f880 00000020 .rdata            HotlineServ.cp(@8505)
0047f8a0 00000001 .rdata            HotlineServ.cp
0047f8a1 00000001 .rdata            HotlineServ.cp
0047f8a2 000000b9 .rdata            HotlineServ.cp
0047f95b 00000001 .rdata            HotlineServ.cp
0047f95c 00000019 .rdata            HotlineServ.cp
0047f975 00000033 .rdata            HotlineServ.cp
0047f9a8 00000091 .rdata            HotlineServ.cp
0047fa3c 00000030 .rdata            HotlineServ.cp(@8824)
0047fa6c 00000063 .rdata            HotlineServ.cp
0047facf 00000001 .rdata            HotlineServ.cp
0047fad0 00000001 .rdata            HotlineServ.cp
0047fad1 00000001 .rdata            HotlineServ.cp
0047fad2 00000001 .rdata            HotlineServ.cp
0047fad3 00000001 .rdata            HotlineServ.cp
0047fad4 00000049 .rdata            HotlineServ.cp
0047fb1d 00000001 .rdata            HotlineServ.cp
0047fb1e 000000af .rdata            HotlineServ.cp
0047fbcd 00000001 .rdata            HotlineServ.cp
0047fbce 00000001 .rdata            HotlineServ.cp
0047fbcf 00000041 .rdata            HotlineServ.cp
0047fc10 00000001 .rdata            HotlineServ.cp
0047fc11 00000001 .rdata            HotlineServ.cp
0047fc12 00000041 .rdata            HotlineServ.cp
0047fc53 00000029 .rdata            HotlineServ.cp
0047fc7c 00000001 .rdata            HotlineServ.cp
0047fc7d 00000043 .rdata            HotlineServ.cp
0047fcc0 000000ab .rdata            HotlineServ.cp
0047fd6b 0000002f .rdata            HotlineServ.cp
0047fd9a 00000001 .rdata            HotlineServ.cp
0047fd9b 00000001 .rdata            HotlineServ.cp
0047fd9c 00000019 .rdata            HotlineServ.cp
0047fdb5 00000001 .rdata            HotlineServ.cp
0047fdb6 00000001 .rdata            HotlineServ.cp
0047fdb7 00000001 .rdata            HotlineServ.cp
0047fdb8 00000021 .rdata            HotlineServ.cp
0047fdd9 00000051 .rdata            HotlineServ.cp
0047fe2a 00000001 .rdata            HotlineServ.cp
0047fe2b 00000001 .rdata            HotlineServ.cp
0047fe2c 0000005f .rdata            HotlineServ.cp
0047fe8b 0000002d .rdata            HotlineServ.cp
0047feb8 00000001 .rdata            HotlineServ.cp
0047feb9 00000051 .rdata            HotlineServ.cp
0047ff0a 00000001 .rdata            HotlineServ.cp
0047ff0b 00000001 .rdata            HotlineServ.cp
0047ff0c 00000001 .rdata            HotlineServ.cp
0047ff0d 00000001 .rdata            HotlineServ.cp
0047ff0e 00000001 .rdata            HotlineServ.cp
0047ff0f 00000001 .rdata            HotlineServ.cp
0047ff10 00000001 .rdata            HotlineServ.cp
0047ff11 00000001 .rdata            HotlineServ.cp
0047ff12 00000039 .rdata            HotlineServ.cp
0047ff4b 00000039 .rdata            HotlineServ.cp
0047ff84 00000039 .rdata            HotlineServ.cp
0047ffbd 00000039 .rdata            HotlineServ.cp
0047fff6 00000001 .rdata            HotlineServ.cp
0047fff7 00000097 .rdata            HotlineServ.cp
0048008e 00000019 .rdata            HotlineServ.cp
004800a7 0000005b .rdata            HotlineServ.cp
00480102 00000019 .rdata            HotlineServ.cp
0048011b 00000029 .rdata            HotlineServ.cp
00480144 00000019 .rdata            HotlineServ.cp
0048015d 00000019 .rdata            HotlineServ.cp
00480176 00000057 .rdata            HotlineServ.cp
004801cd 00000001 .rdata            HotlineServ.cp
004801ce 00000001 .rdata            HotlineServ.cp
004801cf 00000001 .rdata            HotlineServ.cp
004801d0 00000001 .rdata            HotlineServ.cp
004801d1 0000002b .rdata            HotlineServ.cp
004801fc 00000059 .rdata            HotlineServ.cp
00480255 00000001 .rdata            HotlineServ.cp
00480256 00000019 .rdata            HotlineServ.cp
0048026f 00000001 .rdata            HotlineServ.cp
00480270 00000001 .rdata            HotlineServ.cp
00480271 00000061 .rdata            HotlineServ.cp
004802d2 00000001 .rdata            HotlineServ.cp
004802d3 00000061 .rdata            HotlineServ.cp
00480334 00000059 .rdata            HotlineServ.cp
0048038d 00000001 .rdata            HotlineServ.cp
0048038e 00000001 .rdata            HotlineServ.cp
0048038f 00000001 .rdata            HotlineServ.cp
00480390 00000001 .rdata            HotlineServ.cp
00480391 00000001 .rdata            HotlineServ.cp
00480392 00000067 .rdata            HotlineServ.cp
004803f9 0000003f .rdata            HotlineServ.cp
00480438 00000001 .rdata            HotlineServ.cp
00480439 00000001 .rdata            HotlineServ.cp
0048043c 00000014 .rdata            HotlineServ.cp(@12189)
00480450 00000014 .rdata            HotlineServ.cp(@12188)
00480464 00000001 .rdata            HotlineServ.cp
00480465 00000001 .rdata            HotlineServ.cp
00480466 00000001 .rdata            HotlineServ.cp
00480467 0000004b .rdata            HotlineServ.cp
004804b2 000000af .rdata            HotlineServ.cp
00480561 000000fb .rdata            HotlineServ.cp
0048065c 00000001 .rdata            HotlineServ.cp
0048065d 00000029 .rdata            HotlineServ.cp
00480686 00000001 .rdata            HotlineServ.cp
00480687 00000001 .rdata            HotlineServ.cp
00480688 00000001 .rdata            HotlineServ.cp
00480689 00000001 .rdata            HotlineServ.cp
0048068a 00000373 .rdata            HotlineServ.cp
004809fd 00000001 .rdata            HotlineServ.cp
004809fe 0000003b .rdata            HotlineServ.cp
00480a39 000000b5 .rdata            HotlineServ.cp
00480af0 00000030 .rdata            HotlineServ.cp(@14144)
00480b20 000000b7 .rdata            HotlineServ.cp
00480bd7 00000001 .rdata            HotlineServ.cp
00480bd8 00000001 .rdata            HotlineServ.cp
00480bd9 00000063 .rdata            HotlineServ.cp
00480c3c 00000135 .rdata            HotlineServ.cp
00480d74 00000014 .rdata            HotlineServ.cp(@14931)
00480d88 0000016f .rdata            HotlineServ.cp
00480ef7 00000001 .rdata            HotlineServ.cp
00480ef8 00000001 .rdata            HotlineServ.cp
00480ef9 00000001 .rdata            HotlineServ.cp
00480efa 00000001 .rdata            HotlineServ.cp
00480efb 00000001 .rdata            HotlineServ.cp
00480efc 00000001 .rdata            HotlineServ.cp
00480efd 00000039 .rdata            HotlineServ.cp
00480f36 00000001 .rdata            HotlineServ.cp
00480f37 00000001 .rdata            HotlineServ.cp
00480f38 00000001 .rdata            HotlineServ.cp
00480f39 00000001 .rdata            HotlineServ.cp
00480f3a 00000001 .rdata            HotlineServ.cp
00480f3b 00000001 .rdata            HotlineServ.cp
00480f3c 00000001 .rdata            HotlineServ.cp
00480f3d 00000001 .rdata            HotlineServ.cp
00480f3e 00000001 .rdata            HotlineServ.cp
00480f3f 00000031 .rdata            HotlineServTrans.cp
00480f70 00000041 .rdata            HotlineServTrans.cp
00480fb1 00000029 .rdata            HotlineServTrans.cp
00480fda 00000019 .rdata            HotlineServTrans.cp
00480ff3 00000043 .rdata            HotlineServTrans.cp
00481036 0000007b .rdata            HotlineServTrans.cp
004810b1 000000a1 .rdata            HotlineServTrans.cp
00481152 00000089 .rdata            HotlineServTrans.cp
004811db 0000018b .rdata            HotlineServTrans.cp
00481366 0000009d .rdata            HotlineServTrans.cp
00481403 0000007d .rdata            HotlineServTrans.cp
00481480 000000d5 .rdata            HotlineServTrans.cp
00481555 000000a3 .rdata            HotlineServTrans.cp
004815f8 000000cb .rdata            HotlineServTrans.cp
004816c3 0000007f .rdata            HotlineServTrans.cp
00481742 0000009b .rdata            HotlineServTrans.cp
004817dd 0000008d .rdata            HotlineServTrans.cp
0048186a 000000ef .rdata            HotlineServTrans.cp
00481959 00000031 .rdata            HotlineServTrans.cp
0048198a 00000199 .rdata            HotlineServTrans.cp
00481b23 0000010f .rdata            HotlineServTrans.cp
00481c32 000001d9 .rdata            HotlineServTrans.cp
00481e0b 0000022b .rdata            HotlineServTrans.cp
00482036 00000051 .rdata            HotlineServTrans.cp
00482087 00000001 .rdata            HotlineServTrans.cp
00482088 000002e9 .rdata            HotlineServTrans.cp
00482371 00000263 .rdata            HotlineServTrans.cp
004825d4 000000cb .rdata            HotlineServTrans.cp
0048269f 00000087 .rdata            HotlineServTrans.cp
00482726 00000001 .rdata            HotlineServTrans.cp
00482727 00000033 .rdata            HotlineServTrans.cp
0048275a 00000033 .rdata            HotlineServTrans.cp
0048278d 00000087 .rdata            HotlineServTrans.cp
00482814 0000005f .rdata            HotlineServTrans.cp
00482873 00000117 .rdata            HotlineServTrans.cp
0048298a 00000211 .rdata            HotlineServTrans.cp
00482b9b 00000091 .rdata            HotlineServTrans.cp
00482c2c 000000e9 .rdata            HotlineServTrans.cp
00482d15 00000001 .rdata            HotlineServTrans.cp
00482d18 0000001c .rdata            HotlineServTrans.cp(@11562)
00482d34 0000014f .rdata            HotlineServTrans.cp
00482e84 00000018 .rdata            HotlineServTrans.cp(@11827)
00482e9c 000001dd .rdata            HotlineServTrans.cp
0048307c 0000003c .rdata            HotlineServTrans.cp(@11946)
004830b8 00000137 .rdata            HotlineServTrans.cp
004831f0 00000004 .rdata            HotlineServTrans.cp(@12033)
004831f4 000000ef .rdata            HotlineServTrans.cp
004832e3 000000f3 .rdata            HotlineServTrans.cp
004833d6 00000001 .rdata            HotlineServTrans.cp
004833d7 00000089 .rdata            HotlineServTrans.cp
00483460 00000029 .rdata            HotlineServTrans.cp
00483489 00000029 .rdata            HotlineServTrans.cp
004834b2 000000eb .rdata            HotlineServTrans.cp
0048359d 00000001 .rdata            HotlineServTrans.cp
0048359e 00000001 .rdata            HotlineServViews.cp
0048359f 00000001 .rdata            HotlineServViews.cp
004835a0 00000001 .rdata            HotlineServViews.cp
004835a1 00000001 .rdata            HotlineServViews.cp
004835a2 00000019 .rdata            HotlineServViews.cp
004835bb 00000001 .rdata            HotlineServViews.cp
004835bc 00000001 .rdata            HotlineServViews.cp
004835bd 00000001 .rdata            HotlineServViews.cp
004835be 00000001 .rdata            HotlineServViews.cp
004835bf 00000001 .rdata            HotlineServViews.cp
004835c0 00000001 .rdata            HotlineServViews.cp
004835c1 00000043 .rdata            HotlineServViews.cp
00483604 00000001 .rdata            HotlineServViews.cp
00483605 00000001 .rdata            HotlineServViews.cp
00483606 00000001 .rdata            HotlineServViews.cp
00483607 0000005b .rdata            HotlineServViews.cp
00483662 00000001 .rdata            HotlineServViews.cp
00483663 00000001 .rdata            HotlineServViews.cp
00483664 00000001 .rdata            HotlineServViews.cp
00483665 00000001 .rdata            HotlineServViews.cp
00483666 00000001 .rdata            HotlineServViews.cp
00483667 00000001 .rdata            HotlineServViews.cp
00483668 00000001 .rdata            HotlineServViews.cp
00483669 00000001 .rdata            HotlineServViews.cp
0048366a 00000001 .rdata            HotlineServViews.cp
0048366b 00000001 .rdata            HotlineServViews.cp
0048366c 00000001 .rdata            HotlineServViews.cp
0048366d 00000001 .rdata            HotlineServViews.cp
0048366e 00000001 .rdata            HotlineServViews.cp
0048366f 00000001 .rdata            HotlineServViews.cp
00483670 00000001 .rdata            HotlineServViews.cp
00483671 00000001 .rdata            HotlineServViews.cp
00483672 00000001 .rdata            HotlineServViews.cp
00483673 00000001 .rdata            HotlineServViews.cp
00483674 00000001 .rdata            HotlineServViews.cp
00483675 00000001 .rdata            HotlineServViews.cp
00483676 00000001 .rdata            HotlineServViews.cp
00483677 00000001 .rdata            HotlineServViews.cp
00483678 00000001 .rdata            HotlineServViews.cp
00483679 00000001 .rdata            HotlineServViews.cp
0048367a 00000001 .rdata            HotlineServViews.cp
0048367b 00000001 .rdata            HotlineServViews.cp
0048367c 00000001 .rdata            HotlineServViews.cp
0048367d 00000001 .rdata            HotlineServViews.cp
0048367e 00000001 .rdata            HotlineServViews.cp
0048367f 00000001 .rdata            HotlineServViews.cp
00483680 00000001 .rdata            HotlineServViews.cp
00483681 00000001 .rdata            HotlineServViews.cp
00483682 00000001 .rdata            HotlineServViews.cp
00483683 00000001 .rdata            HotlineServViews.cp
00483684 00000001 .rdata            HotlineServViews.cp
00483685 00000001 .rdata            HotlineServViews.cp
00483686 00000001 .rdata            HotlineServViews.cp
00483687 0000001d .rdata            HotlineServViews.cp
004836a4 00000001 .rdata            HotlineServViews.cp
004836a5 00000001 .rdata            HotlineServViews.cp
004836a6 00000001 .rdata            HotlineServViews.cp
004836a7 0000013f .rdata            HotlineServWindows.cp
004837e6 000002ff .rdata            HotlineServWindows.cp
00483ae5 00000001 .rdata            HotlineServWindows.cp
00483ae6 000000f7 .rdata            HotlineServWindows.cp
00483bdd 00000187 .rdata            HotlineServWindows.cp
00483d64 000001af .rdata            HotlineServWindows.cp
00483f13 00000177 .rdata            HotlineServWindows.cp
0048408a 000001df .rdata            HotlineServWindows.cp
00484269 00000187 .rdata            HotlineServWindows.cp
004843f0 00000001 .rdata            HotlineServWindows.cp
004843f1 00000001 .rdata            HotlineServWindows.cp
004843f2 00000001 .rdata            HotlineServWindows.cp
004843f3 00000001 .rdata            HotlineServWindows.cp
004843f4 00000001 .rdata            HotlineServWindows.cp
004843f5 00000001 .rdata            HotlineServWindows.cp
004843f6 00000001 .rdata            HotlineServWindows.cp
004843f7 00000117 .rdata            HotlineServWindows.cp
0048450e 00000001 .rdata            HotlineServWindows.cp
0048450f 00000157 .rdata            HotlineServWindows.cp
00484666 00000001 .rdata            HotlineServWindows.cp
00484667 00000001 .rdata            HotlineServWindows.cp
00484668 000001a7 .rdata            HotlineServWindows.cp
0048480f 00000001 .rdata            HotlineServWindows.cp
00484810 00000001 .rdata            HotlineServWindows.cp
00484811 00000001 .rdata            HotlineServWindows.cp
00484812 000001b7 .rdata            HotlineServWindows.cp
004849c9 00000001 .rdata            HotlineServWindows.cp
004849ca 00000001 .rdata            HotlineServWindows.cp
004849cb 00000001 .rdata            HotlineServWindows.cp
004849cc 000000c7 .rdata            HotlineServWindows.cp
00484a93 0000005f .rdata            HotlineServWindows.cp
00484af2 00000147 .rdata            HotlineServWindows.cp
00484c39 0000012f .rdata            HotlineServWindows.cp
00484d68 000003d1 .rdata            HotlineServWindows.cp
00485139 00000001 .rdata            HotlineServWindows.cp
0048513a 000000ef .rdata            HotlineServWindows.cp
00485229 0000017f .rdata            HotlineServWindows.cp
004853a8 00000001 .rdata            HotlineServWindows.cp
004853a9 00000001 .rdata            HotlineServWindows.cp
004853aa 00000001 .rdata            HotlineServWindows.cp
004853ab 00000001 .rdata            HotlineServWindows.cp
004853ac 00000001 .rdata            HotlineServWindows.cp
004853ad 00000001 .rdata            HotlineServWindows.cp
004853ae 00000001 .rdata            HotlineServWindows.cp
004853af 00000001 .rdata            HotlineServWindows.cp
004853b0 00000001 .rdata            HotlineServMisc.cp
004853b1 00000019 .rdata            HotlineServNewsDatabase.cp
004853ca 00000059 .rdata            HotlineServNewsDatabase.cp
00485423 00000145 .rdata            HotlineServNewsDatabase.cp
00485568 000000b3 .rdata            HotlineServNewsDatabase.cp
0048561b 0000009b .rdata            HotlineServNewsDatabase.cp
004856b6 0000011f .rdata            HotlineServNewsDatabase.cp
004857d5 00000113 .rdata            HotlineServNewsDatabase.cp
004858e8 00000031 .rdata            HotlineServNewsDatabase.cp
00485919 00000001 .rdata            HotlineServNewsDatabase.cp
0048591a 00000021 .rdata            HotlineServNewsDatabase.cp
0048593b 00000001 .rdata            HotlineServNewsDatabase.cp
0048593c 00000031 .rdata            HotlineServNewsDatabase.cp
0048596d 00000031 .rdata            HotlineServNewsDatabase.cp
0048599e 00000001 .rdata            HotlineServNewsDatabase.cp
0048599f 00000001 .rdata            HotlineServNewsDatabase.cp
004859a0 00000001 .rdata            HotlineServNewsDatabase.cp
004859a1 00000001 .rdata            HotlineServNewsDatabase.cp
004859a2 00000001 .rdata            HotlineServNewsDatabase.cp
004859a3 00000001 .rdata            HotlineServNewsDatabase.cp
004859a4 00000001 .rdata            HotlineServNewsDatabase.cp
004859a5 00000001 .rdata            HotlineServNewsDatabase.cp
004859a6 00000001 .rdata            HotlineServNewsDatabase.cp
004859a7 00000001 .rdata            HotlineServNewsDatabase.cp
004859a8 00000001 .rdata            HotlineServNewsDatabase.cp
004859a9 00000001 .rdata            HotlineServNewsDatabase.cp
004859aa 00000001 .rdata            HotlineServNewsDatabase.cp
004859ab 00000001 .rdata            HotlineServNewsDatabase.cp
004859ac 00000001 .rdata            HotlineServNewsDatabase.cp
004859ad 00000001 .rdata            HotlineServNewsDatabase.cp
004859ae 00000019 .rdata            HotlineFolderDownload.cp
004859c7 00000001 .rdata            HotlineFolderDownload.cp
004859c8 00000001 .rdata            HotlineFolderDownload.cp
004859c9 00000001 .rdata            HotlineFolderDownload.cp
004859ca 00000093 .rdata            HotlineFolderDownload.cp
00485a5d 00000001 .rdata            HotlineFolderDownload.cp
00485a5e 00000001 .rdata            HotlineFolderDownload.cp
00485a5f 00000001 .rdata            HotlineFolderDownload.cp
00485a60 00000001 .rdata            HotlineFolderDownload.cp
00485a61 00000001 .rdata            HotlineFolderDownload.cp
00485a62 00000001 .rdata            HotlineFolderDownload.cp
00485a63 00000001 .rdata            HotlineFolderDownload.cp
00485a64 0000003b .rdata            UOperatingSystem(W).obj
00485a9f 0000001d .rdata            UOperatingSystem(W).obj
00485abc 00000001 .rdata            UOperatingSystem(W).obj
00485abd 00000033 .rdata            UOperatingSystem(W).obj
00485af0 00000001 .rdata            UTransport.obj
00485af1 00000001 .rdata            UTransport.obj
00485af2 00000001 .rdata            UTransport.obj
00485af3 00000001 .rdata            UTransport.obj
00485af4 00000001 .rdata            UTransport.obj
00485af5 00000001 .rdata            UTransport.obj
00485af6 00000001 .rdata            UTransport.obj
00485af7 00000001 .rdata            UTransport.obj
00485af8 00000001 .rdata            UTransport.obj
00485af9 00000001 .rdata            UTransport.obj
00485afa 00000001 .rdata            UTransport.obj
00485afb 00000001 .rdata            UTransport.obj
00485afc 00000001 .rdata            UTransport.obj
00485afd 00000001 .rdata            UTransport.obj
00485afe 00000001 .rdata            UTransport.obj
00485aff 00000001 .rdata            UTransport.obj
00485b00 00000001 .rdata            UTransport.obj
00485b01 00000001 .rdata            UTransport.obj
00485b02 00000001 .rdata            UTransport.obj
00485b03 00000001 .rdata            UTransport.obj
00485b04 00000001 .rdata            UTransport.obj
00485b05 00000001 .rdata            UTransport.obj
00485b06 00000001 .rdata            UTransport.obj
00485b07 00000001 .rdata            UTransport.obj
00485b08 00000001 .rdata            UTransport.obj
00485b09 00000001 .rdata            UTransport.obj
00485b0a 00000001 .rdata            UTransport.obj
00485b0b 00000001 .rdata            UTransport.obj
00485b0c 00000001 .rdata            UTransport.obj
00485b0d 00000001 .rdata            UTransport.obj
00485b0e 00000001 .rdata            UTransport.obj
00485b0f 00000001 .rdata            UTransport.obj
00485b10 00000001 .rdata            UTransport.obj
00485b11 00000001 .rdata            UError.obj
00485b12 0000006f .rdata            UError.obj
00485b81 00000001 .rdata            UError.obj
00485b82 00000001 .rdata            UError.obj
00485b83 00000001 .rdata            URez.obj
00485b84 0000005f .rdata            URez.obj
00485be3 00000001 .rdata            URez.obj
00485be4 00000001 .rdata            URez.obj
00485be5 00000001 .rdata            URez.obj
00485be6 00000091 .rdata            URez.obj
00485c77 00000021 .rdata            URez.obj
00485c98 00000001 .rdata            URez.obj
00485c99 00000001 .rdata            URez.obj
00485c9a 00000053 .rdata            URez.obj
00485ced 00000001 .rdata            URez.obj
00485cee 00000001 .rdata            URez.obj
00485cef 00000001 .rdata            URez.obj
00485cf0 00000019 .rdata            URez.obj
00485d09 00000001 .rdata            URez.obj
00485d0a 00000051 .rdata            URez.obj
00485d5b 00000055 .rdata            URez.obj
00485db0 00000073 .rdata            URez.obj
00485e23 00000001 .rdata            UMemory.obj
00485e24 00000001 .rdata            UMemory.obj
00485e25 00000001 .rdata            UMemory.obj
00485e26 00000001 .rdata            UMemory.obj
00485e27 00000001 .rdata            UMemory.obj
00485e28 00000001 .rdata            UMemory.obj
00485e29 00000001 .rdata            UMemory.obj
00485e2a 00000001 .rdata            UMemory.obj
00485e2b 00000001 .rdata            UMemory.obj
00485e2c 00000001 .rdata            UMemory.obj
00485e2d 00000001 .rdata            UMemory.obj
00485e2e 00000001 .rdata            UMemory.obj
00485e2f 00000001 .rdata            UMemory.obj
00485e30 00000001 .rdata            UMemory.obj
00485e31 00000001 .rdata            UMemory.obj
00485e32 00000001 .rdata            UMemory.obj
00485e33 00000029 .rdata            UMemory.obj
00485e5c 00000001 .rdata            UError(W).obj
00485e5d 00000061 .rdata            UError(W).obj
00485ebe 00000001 .rdata            UError(W).obj
00485ebf 00000001 .rdata            UError(W).obj
00485ec0 00000001 .rdata            UError(W).obj
00485ec1 00000001 .rdata            UError(W).obj
00485ec2 00000001 .rdata            UError(W).obj
00485ec3 00000001 .rdata            destroy.obj
00485ec4 00000001 .rdata            CApplication.obj
00485ec5 00000001 .rdata            CApplication.obj
00485ec6 00000001 .rdata            CApplication.obj
00485ec7 00000001 .rdata            CApplication.obj
00485ec8 00000001 .rdata            CApplication.obj
00485ec9 00000001 .rdata            CApplication.obj
00485eca 00000001 .rdata            CApplication.obj
00485ecb 00000001 .rdata            CApplication.obj
00485ecc 00000019 .rdata            CApplication.obj
00485ee5 00000001 .rdata            CApplication.obj
00485ee6 00000001 .rdata            CApplication.obj
00485ee7 00000001 .rdata            CApplication.obj
00485ee8 00000001 .rdata            CApplication.obj
00485eec 00000094 .rdata            CApplication.obj(@7651)
00485f80 00000001 .rdata            CApplication.obj
00485f81 00000001 .rdata            CApplication.obj
00485f82 00000001 .rdata            CApplication.obj
00485f83 00000001 .rdata            CPtrList.obj
00485f84 00000001 .rdata            CPtrList.obj
00485f85 00000001 .rdata            CPtrList.obj
00485f86 00000001 .rdata            CPtrList.obj
00485f87 0000001d .rdata            CPtrList.obj
00485fa4 0000001d .rdata            CPtrList.obj
00485fc1 00000001 .rdata            CPtrList.obj
00485fc2 00000001 .rdata            CPtrList.obj
00485fc3 00000001 .rdata            CPtrList.obj
00485fc4 00000001 .rdata            USound(W).obj
00485fc5 00000001 .rdata            USound(W).obj
00485fc6 00000001 .rdata            USound(W).obj
00485fc7 00000001 .rdata            USound(W).obj
00485fc8 00000001 .rdata            USound(W).obj
00485fc9 00000001 .rdata            USound(W).obj
00485fca 00000001 .rdata            USound(W).obj
00485fcb 0000002d .rdata            USound(W).obj
00485ff8 00000001 .rdata            USound.obj
00485ff9 0000007b .rdata            USound.obj
00486074 00000001 .rdata            USound.obj
00486075 00000001 .rdata            USound.obj
00486076 00000001 .rdata            UWindow(W).obj
00486077 00000001 .rdata            UWindow(W).obj
00486078 0000000c .rdata            UWindow(W).obj(@7634)
00486084 0000009b .rdata            UWindow(W).obj
0048611f 00000001 .rdata            UWindow(W).obj
00486120 00000001 .rdata            UWindow(W).obj
00486121 00000001 .rdata            UWindow(W).obj
00486122 00000001 .rdata            UWindow(W).obj
00486123 00000001 .rdata            UWindow(W).obj
00486124 00000001 .rdata            UWindow(W).obj
00486125 00000001 .rdata            UWindow(W).obj
00486126 00000001 .rdata            UWindow(W).obj
00486127 00000001 .rdata            UWindow(W).obj
00486128 00000001 .rdata            UWindow(W).obj
00486129 00000001 .rdata            UWindow(W).obj
0048612c 0000002c .rdata            UWindow(W).obj(@8004)
00486158 00000001 .rdata            UWindow(W).obj
00486159 00000001 .rdata            UWindow(W).obj
0048615a 00000001 .rdata            UWindow(W).obj
0048615b 00000001 .rdata            UWindow(W).obj
0048615c 00000001 .rdata            UWindow(W).obj
0048615d 00000001 .rdata            UWindow(W).obj
0048615e 00000001 .rdata            UWindow(W).obj
0048615f 00000001 .rdata            UWindow(W).obj
00486160 00000001 .rdata            UWindow(W).obj
00486161 00000001 .rdata            UWindow(W).obj
00486162 00000001 .rdata            UWindow(W).obj
00486163 00000001 .rdata            UWindow(W).obj
00486164 00000001 .rdata            UWindow(W).obj
00486165 00000001 .rdata            UWindow(W).obj
00486166 00000001 .rdata            UWindow(W).obj
00486167 00000001 .rdata            UWindow(W).obj
00486168 00000001 .rdata            UWindow(W).obj
00486169 00000001 .rdata            UWindow(W).obj
0048616a 00000001 .rdata            UWindow(W).obj
0048616b 00000001 .rdata            UWindow(W).obj
0048616c 00000001 .rdata            UWindow(W).obj
0048616d 000000d3 .rdata            UWindow(W).obj
00486240 00000001 .rdata            UWindow(W).obj
00486241 00000001 .rdata            UWindow(W).obj
00486242 00000001 .rdata            UWindow(W).obj
00486243 000004c5 .rdata            UWindow(W).obj
00486708 00000001 .rdata            UWindow(W).obj
00486709 00000075 .rdata            UWindow(W).obj
0048677e 00000001 .rdata            UWindow(W).obj
0048677f 00000001 .rdata            UWindow(W).obj
00486780 00000001 .rdata            UWindow(W).obj
00486781 00000001 .rdata            UWindow(W).obj
00486782 00000001 .rdata            UWindow(W).obj
00486783 00000001 .rdata            UWindow(W).obj
00486784 00000001 .rdata            UWindow(W).obj
00486785 00000001 .rdata            UWindow(W).obj
00486786 00000001 .rdata            UWindow(W).obj
00486787 00000001 .rdata            UWindow(W).obj
00486788 00000001 .rdata            UWindow(W).obj
00486789 00000001 .rdata            UWindow(W).obj
0048678a 00000001 .rdata            UWindow(W).obj
0048678b 00000001 .rdata            UWindow(W).obj
0048678c 00000001 .rdata            UWindow(W).obj
0048678d 00000001 .rdata            UWindow(W).obj
0048678e 00000001 .rdata            UWindow(W).obj
0048678f 00000001 .rdata            UWindow(W).obj
00486790 00000001 .rdata            UWindow(W).obj
00486791 00000001 .rdata            UWindow(W).obj
00486792 00000001 .rdata            UWindow(W).obj
00486793 00000001 .rdata            UWindow(W).obj
00486794 00000001 .rdata            UWindow(W).obj
00486795 00000043 .rdata            UTransact.obj
004867d8 00000001 .rdata            UTransact.obj
004867d9 00000001 .rdata            UTransact.obj
004867da 00000001 .rdata            UTransact.obj
004867db 00000001 .rdata            UTransact.obj
004867dc 00000001 .rdata            UTransact.obj
004867dd 00000001 .rdata            UTransact.obj
004867de 00000001 .rdata            UTransact.obj
004867df 00000001 .rdata            UTransact.obj
004867e0 00000001 .rdata            UTransact.obj
004867e1 00000001 .rdata            UTransact.obj
004867e2 00000001 .rdata            UTransact.obj
004867e3 00000043 .rdata            UTransact.obj
00486826 00000001 .rdata            UTransact.obj
00486827 00000001 .rdata            UTransact.obj
00486828 00000001 .rdata            UTransact.obj
00486829 00000001 .rdata            UTransact.obj
0048682a 0000003b .rdata            UTransact.obj
00486865 00000001 .rdata            UTransact.obj
00486866 00000001 .rdata            UTransact.obj
00486867 00000001 .rdata            UTransact.obj
00486868 00000021 .rdata            UTransact.obj
00486889 00000001 .rdata            UTransact.obj
0048688a 00000001 .rdata            UTransact.obj
0048688b 00000001 .rdata            UTransact.obj
0048688c 00000021 .rdata            UTransact.obj
004868ad 00000001 .rdata            UTransact.obj
004868ae 00000001 .rdata            UTransact.obj
004868af 00000001 .rdata            UTransact.obj
004868b0 00000001 .rdata            UTransact.obj
004868b1 00000001 .rdata            UTransact.obj
004868b2 00000043 .rdata            UTransact.obj
004868f5 00000065 .rdata            UTransact.obj
0048695a 00000001 .rdata            UTransact.obj
0048695b 00000073 .rdata            UFileSys(W).obj
004869ce 00000057 .rdata            UFileSys(W).obj
00486a25 00000001 .rdata            UFileSys(W).obj
00486a26 00000033 .rdata            UFileSys(W).obj
00486a59 00000001 .rdata            UFileSys(W).obj
00486a5a 00000001 .rdata            UFileSys(W).obj
00486a5b 00000001 .rdata            UFileSys(W).obj
00486a5c 00000010 .rdata            UFileSys(W).obj(@7796)
00486a6c 00000001 .rdata            UFileSys(W).obj
00486a6d 00000001 .rdata            UFileSys(W).obj
00486a6e 00000001 .rdata            UFileSys(W).obj
00486a6f 00000001 .rdata            UFileSys(W).obj
00486a70 00000001 .rdata            UFileSys(W).obj
00486a71 00000001 .rdata            UFileSys(W).obj
00486a72 00000001 .rdata            UFileSys(W).obj
00486a73 00000001 .rdata            UFileSys(W).obj
00486a74 00000001 .rdata            UFileSys(W).obj
00486a75 00000001 .rdata            UFileSys(W).obj
00486a76 00000001 .rdata            UFileSys(W).obj
00486a77 00000001 .rdata            UFileSys(W).obj
00486a78 00000001 .rdata            UFileSys(W).obj
00486a79 00000001 .rdata            UFileSys(W).obj
00486a7a 00000001 .rdata            UFileSys(W).obj
00486a7b 00000001 .rdata            UFileSys(W).obj
00486a7c 00000001 .rdata            UFileSys(W).obj
00486a7d 00000001 .rdata            UFileSys(W).obj
00486a7e 00000001 .rdata            UFileSys(W).obj
00486a7f 00000001 .rdata            UFileSys(W).obj
00486a80 00000001 .rdata            UFileSys(W).obj
00486a81 00000001 .rdata            UFileSys(W).obj
00486a82 00000001 .rdata            UFileSys(W).obj
00486a83 00000001 .rdata            UFileSys(W).obj
00486a84 00000001 .rdata            UFileSys(W).obj
00486a85 00000001 .rdata            UFileSys(W).obj
00486a86 00000001 .rdata            UFileSys(W).obj
00486a87 00000001 .rdata            UFileSys(W).obj
00486a88 00000001 .rdata            UFileSys(W).obj
00486a89 00000001 .rdata            UFileSys(W).obj
00486a8a 00000001 .rdata            UFileSys(W).obj
00486a8b 00000001 .rdata            UFileSys(W).obj
00486a8c 00000165 .rdata            UFileSys(W).obj
00486bf1 00000021 .rdata            UFileSys(W).obj
00486c12 00000001 .rdata            UFileSys(W).obj
00486c13 00000001 .rdata            UFileSys(W).obj
00486c14 00000001 .rdata            UFileSys(W).obj
00486c15 00000001 .rdata            UFileSys(W).obj
00486c16 00000001 .rdata            UFileSys(W).obj
00486c17 0000005b .rdata            UFileSys(W).obj
00486c72 00000001 .rdata            UFileSys(W).obj
00486c73 00000001 .rdata            UFileSys(W).obj
00486c74 00000014 .rdata            UFileSys(W).obj(@9286)
00486c88 00000001 .rdata            UFileSys(W).obj
00486c89 00000001 .rdata            UFileSys(W).obj
00486c8a 0000007d .rdata            UFileSys(W).obj
00486d07 00000001 .rdata            UFileSys(W).obj
00486d08 00000018 .rdata            UFileSys(W).obj(@9439)
00486d20 00000001 .rdata            UFileSys(W).obj
00486d21 00000001 .rdata            UFileSys(W).obj
00486d22 00000001 .rdata            UFileSys(W).obj
00486d23 00000001 .rdata            UFileSys(W).obj
00486d24 00000001 .rdata            UFileSys(W).obj
00486d25 00000001 .rdata            UFileSys(W).obj
00486d26 00000001 .rdata            UFileSys(W).obj
00486d28 0000000c .rdata            UFileSys(W).obj(@9644)
00486d34 00000001 .rdata            UFileSys(W).obj
00486d35 00000001 .rdata            UFileSys(W).obj
00486d36 00000001 .rdata            UFileSys(W).obj
00486d37 00000001 .rdata            UFileSys(W).obj
00486d38 00000001 .rdata            UFileSys(W).obj
00486d39 00000001 .rdata            UFileSys(W).obj
00486d3a 00000073 .rdata            UFileSys(W).obj
00486dad 00000001 .rdata            UFileSys(W).obj
00486dae 00000001 .rdata            UFileSys(W).obj
00486daf 00000001 .rdata            UFileSys(W).obj
00486db0 00000047 .rdata            UFileSys(W).obj
00486df7 0000003b .rdata            UFileSys(W).obj
00486e32 00000077 .rdata            CWindow.obj
00486ea9 00000001 .rdata            CWindow.obj
00486eaa 0000003b .rdata            CWindow.obj
00486ee5 00000001 .rdata            CWindow.obj
00486ee6 00000001 .rdata            CWindow.obj
00486ee7 00000001 .rdata            CWindow.obj
00486ee8 00000001 .rdata            CWindow.obj
00486ee9 00000001 .rdata            CWindow.obj
00486eea 00000001 .rdata            CWindow.obj
00486eeb 00000001 .rdata            CWindow.obj
00486eec 00000001 .rdata            CWindow.obj
00486eed 00000001 .rdata            CWindow.obj
00486eee 00000001 .rdata            CWindow.obj
00486eef 00000001 .rdata            CWindow.obj
00486ef0 00000001 .rdata            CWindow.obj
00486ef1 00000001 .rdata            CWindow.obj
00486ef2 00000001 .rdata            CWindow.obj
00486ef3 00000001 .rdata            CWindow.obj
00486ef4 00000001 .rdata            CWindow.obj
00486ef5 00000001 .rdata            CWindow.obj
00486ef6 00000001 .rdata            CWindow.obj
00486ef7 00000001 .rdata            CWindow.obj
00486ef8 00000001 .rdata            CWindow.obj
00486ef9 00000001 .rdata            CWindow.obj
00486efa 00000001 .rdata            CWindow.obj
00486efb 00000001 .rdata            CWindow.obj
00486efc 00000001 .rdata            CWindow.obj
00486efd 00000001 .rdata            CWindow.obj
00486efe 00000001 .rdata            CWindow.obj
00486eff 00000001 .rdata            CWindow.obj
00486f00 00000001 .rdata            CWindow.obj
00486f01 00000001 .rdata            CWindow.obj
00486f02 00000001 .rdata            CWindow.obj
00486f03 00000001 .rdata            CWindow.obj
00486f04 00000001 .rdata            CWindow.obj
00486f05 00000001 .rdata            CWindow.obj
00486f06 00000001 .rdata            CWindow.obj
00486f07 00000001 .rdata            CWindow.obj
00486f08 00000001 .rdata            CWindow.obj
00486f09 00000001 .rdata            CWindow.obj
00486f0a 00000001 .rdata            CWindow.obj
00486f0b 00000001 .rdata            CWindow.obj
00486f0c 00000001 .rdata            CWindow.obj
00486f0d 00000001 .rdata            CWindow.obj
00486f0e 00000001 .rdata            CWindow.obj
00486f0f 00000001 .rdata            CWindow.obj
00486f10 00000001 .rdata            CWindow.obj
00486f11 00000001 .rdata            CWindow.obj
00486f12 00000049 .rdata            CWindow.obj
00486f5b 00000001 .rdata            CWindow.obj
00486f5c 00000001 .rdata            CWindow.obj
00486f5d 00000001 .rdata            CWindow.obj
00486f5e 00000001 .rdata            CWindow.obj
00486f5f 00000001 .rdata            CWindow.obj
00486f60 00000001 .rdata            CWindow.obj
00486f61 00000001 .rdata            CWindow.obj
00486f62 00000001 .rdata            CWindow.obj
00486f63 00000001 .rdata            CWindow.obj
00486f64 00000001 .rdata            CWindow.obj
00486f65 00000001 .rdata            CWindow.obj
00486f66 00000001 .rdata            CWindow.obj
00486f67 00000001 .rdata            CWindow.obj
00486f68 00000001 .rdata            CWindow.obj
00486f69 00000001 .rdata            CWindow.obj
00486f6a 00000001 .rdata            CWindow.obj
00486f6b 00000001 .rdata            UKeyboard(W).obj
00486f6c 00000001 .rdata            UKeyboard(W).obj
00486f6d 00000001 .rdata            UKeyboard(W).obj
00486f6e 00000001 .rdata            UText.obj
00486f6f 00000001 .rdata            UText.obj
00486f70 00000001 .rdata            UText.obj
00486f71 00000001 .rdata            UText.obj
00486f72 00000001 .rdata            UText.obj
00486f73 00000001 .rdata            UText.obj
00486f74 00000001 .rdata            UText.obj
00486f75 00000001 .rdata            UText.obj
00486f76 00000001 .rdata            UText.obj
00486f77 00000001 .rdata            UText.obj
00486f78 00000001 .rdata            UText.obj
00486f79 00000001 .rdata            UText.obj
00486f7a 00000001 .rdata            UText.obj
00486f7b 00000001 .rdata            UText.obj
00486f7c 00000001 .rdata            UText.obj
00486f7d 00000001 .rdata            UText.obj
00486f80 00000150 .rdata            UText.obj(@8627)
004870d0 00000001 .rdata            UText.obj
004870d1 00000001 .rdata            UText.obj
004870d2 00000001 .rdata            UTimer(W).obj
004870d3 00000001 .rdata            UTimer(W).obj
004870d4 00000001 .rdata            UTimer(W).obj
004870d5 00000001 .rdata            UTimer(W).obj
004870d6 00000001 .rdata            UTimer(W).obj
004870d7 00000001 .rdata            UTimer(W).obj
004870d8 00000001 .rdata            UTimer(W).obj
004870d9 00000001 .rdata            UTimer(W).obj
004870da 0000001d .rdata            UTimer(W).obj
004870f7 00000001 .rdata            UApplication(W).obj
004870f8 00000001 .rdata            UApplication(W).obj
004870f9 00000001 .rdata            UApplication(W).obj
004870fa 00000001 .rdata            UApplication(W).obj
004870fb 00000001 .rdata            UApplication(W).obj
004870fc 00000001 .rdata            UApplication(W).obj
004870fd 00000001 .rdata            UApplication(W).obj
004870fe 00000001 .rdata            UApplication(W).obj
004870ff 00000001 .rdata            UApplication(W).obj
00487100 00000057 .rdata            UApplication(W).obj
00487157 00000001 .rdata            UApplication(W).obj
00487158 00000001 .rdata            UApplication(W).obj
00487159 00000001 .rdata            UApplication(W).obj
0048715a 00000001 .rdata            UApplication(W).obj
0048715b 00000001 .rdata            UApplication(W).obj
0048715c 00000001 .rdata            UApplication(W).obj
0048715d 00000001 .rdata            UApplication(W).obj
00487160 00000040 .rdata            UMouse(W).obj(@7559)
004871a0 00000001 .rdata            UMouse(W).obj
004871a1 00000001 .rdata            UMouse(W).obj
004871a2 00000001 .rdata            UMouse(W).obj
004871a3 00000001 .rdata            UMouse(W).obj
004871a4 00000001 .rdata            UMemory(W).obj
004871a5 00000001 .rdata            UMemory(W).obj
004871a6 00000001 .rdata            UMemory(W).obj
004871a7 00000001 .rdata            UMemory(W).obj
004871a8 00000001 .rdata            UMemory(W).obj
004871a9 00000001 .rdata            UMemory(W).obj
004871aa 00000001 .rdata            UMemory(W).obj
004871ab 00000001 .rdata            UMemory(W).obj
004871ac 00000001 .rdata            UMemory(W).obj
004871ad 00000001 .rdata            UMemory(W).obj
004871ae 00000001 .rdata            UMemory(W).obj
004871af 00000001 .rdata            UMemory(W).obj
004871b0 00000001 .rdata            UMemory(W).obj
004871b1 00000001 .rdata            UMemory(W).obj
004871b2 00000001 .rdata            UMemory(W).obj
004871b3 00000001 .rdata            UMemory(W).obj
004871b4 00000001 .rdata            UMemory(W).obj
004871b5 00000001 .rdata            UMemory(W).obj
004871b6 00000001 .rdata            UMemory(W).obj
004871b7 00000001 .rdata            UMemory(W).obj
004871b8 00000001 .rdata            UMemory(W).obj
004871b9 00000001 .rdata            UMemory(W).obj
004871ba 00000001 .rdata            UMemory(W).obj
004871bb 00000001 .rdata            UMemory(W).obj
004871bc 00000001 .rdata            UMemory(W).obj
004871bd 00000001 .rdata            UMemory(W).obj
004871be 00000001 .rdata            UMemory(W).obj
004871bf 00000001 .rdata            UMemory(W).obj
004871c0 00000001 .rdata            UMemory(W).obj
004871c1 00000043 .rdata            MsgBox.obj
00487204 00000043 .rdata            MsgBox.obj
00487247 00000001 .rdata            MsgBox.obj
00487248 0000005b .rdata            MsgBox.obj
004872a3 00000207 .rdata            MsgBox.obj
004874aa 00000001 .rdata            MsgBox.obj
004874ab 00000001 .rdata            UDateTime(W).obj
004874ac 00000001 .rdata            UDateTime(W).obj
004874ad 00000001 .rdata            UDateTime(W).obj
004874ae 00000001 .rdata            UDateTime(W).obj
004874af 00000001 .rdata            UDateTime(W).obj
004874b0 00000001 .rdata            UDateTime(W).obj
004874b1 00000001 .rdata            UDateTime(W).obj
004874b2 00000001 .rdata            UDateTime(W).obj
004874b3 00000001 .rdata            UDebug(W).obj
004874b4 00000001 .rdata            UDebug(W).obj
004874b5 00000001 .rdata            UDebug(W).obj
004874b6 00000063 .rdata            UEditText.obj
00487519 00000001 .rdata            UEditText.obj
0048751a 00000001 .rdata            UEditText.obj
0048751b 00000001 .rdata            UEditText.obj
0048751c 00000001 .rdata            UEditText.obj
0048751d 00000001 .rdata            UEditText.obj
0048751e 00000001 .rdata            UEditText.obj
0048751f 00000001 .rdata            UEditText.obj
00487520 00000001 .rdata            UEditText.obj
00487521 00000001 .rdata            UEditText.obj
00487522 00000001 .rdata            UEditText.obj
00487523 00000001 .rdata            UEditText.obj
00487524 00000001 .rdata            UEditText.obj
00487525 00000001 .rdata            UEditText.obj
00487526 00000019 .rdata            UEditText.obj
0048753f 00000001 .rdata            UEditText.obj
00487540 00000043 .rdata            UEditText.obj
00487583 00000043 .rdata            UEditText.obj
004875c6 00000043 .rdata            UEditText.obj
00487609 00000029 .rdata            UEditText.obj
00487632 00000001 .rdata            UEditText.obj
00487633 00000001 .rdata            UEditText.obj
00487634 00000019 .rdata            UEditText.obj
0048764d 00000043 .rdata            UEditText.obj
00487690 00000001 .rdata            UEditText.obj
00487691 0000011b .rdata            UEditText.obj
004877ac 00000001 .rdata            UEditText.obj
004877ad 00000019 .rdata            UEditText.obj
004877c6 00000001 .rdata            UEditText.obj
004877c7 0000002b .rdata            UEditText.obj
004877f2 00000001 .rdata            UEditText.obj
004877f3 00000001 .rdata            UEditText.obj
004877f4 00000019 .rdata            UEditText.obj
0048780d 00000001 .rdata            UEditText.obj
0048780e 00000001 .rdata            UEditText.obj
0048780f 00000001 .rdata            UEditText.obj
00487810 0000008f .rdata            UEditText.obj
0048789f 00000001 .rdata            UEditText.obj
004878a0 00000001 .rdata            UEditText.obj
004878a1 00000001 .rdata            UEditText.obj
004878a2 00000097 .rdata            UEditText.obj
00487939 000000ff .rdata            UEditText.obj
00487a38 0000016b .rdata            UEditText.obj
00487ba3 00000117 .rdata            UEditText.obj
00487cba 00000043 .rdata            UEditText.obj
00487cfd 00000001 .rdata            UEditText.obj
00487cfe 00000001 .rdata            UEditText.obj
00487cff 00000001 .rdata            UEditText.obj
00487d00 00000008 .rdata            UEditText.obj(@9407)
00487d08 00000001 .rdata            UEditText.obj
00487d09 00000001 .rdata            UEditText.obj
00487d0a 0000005b .rdata            UEditText.obj
00487d65 00000001 .rdata            UEditText.obj
00487d66 0000005b .rdata            UEditText.obj
00487dc1 00000001 .rdata            UEditText.obj
00487dc2 00000001 .rdata            UEditText.obj
00487dc3 00000001 .rdata            UEditText.obj
00487dc4 00000001 .rdata            UEditText.obj
00487dc5 00000001 .rdata            UEditText.obj
00487dc6 00000001 .rdata            UEditText.obj
00487dc7 00000001 .rdata            UEditText.obj
00487dc8 00000019 .rdata            UEditText.obj
00487de1 00000001 .rdata            UEditText.obj
00487de2 00000001 .rdata            UEditText.obj
00487de3 000000cb .rdata            UEditText.obj
00487eae 00000001 .rdata            UEditText.obj
00487eaf 00000001 .rdata            UFieldData.obj
00487eb0 00000001 .rdata            UFieldData.obj
00487eb1 00000001 .rdata            UFieldData.obj
00487eb2 00000001 .rdata            UFieldData.obj
00487eb3 00000001 .rdata            UFieldData.obj
00487eb4 00000019 .rdata            UFieldData.obj
00487ecd 00000001 .rdata            UFieldData.obj
00487ece 00000019 .rdata            UFieldData.obj
00487ee7 00000001 .rdata            UFieldData.obj
00487ee8 00000001 .rdata            UFieldData.obj
00487ee9 0000002b .rdata            UFieldData.obj
00487f14 00000001 .rdata            UFieldData.obj
00487f15 00000001 .rdata            UFieldData.obj
00487f16 00000001 .rdata            UFieldData.obj
00487f17 00000001 .rdata            UFieldData.obj
00487f18 00000010 .rdata            UFieldData.obj(@7979)
00487f28 00000001 .rdata            UFieldData.obj
00487f2c 00000010 .rdata            UFieldData.obj(@8005)
00487f3c 00000001 .rdata            UFieldData.obj
00487f3d 00000001 .rdata            UFieldData.obj
00487f3e 00000001 .rdata            UFieldData.obj
00487f3f 00000001 .rdata            UFieldData.obj
00487f40 00000001 .rdata            UFieldData.obj
00487f41 0000006d .rdata            UFieldData.obj
00487fae 00000001 .rdata            UFieldData.obj
00487faf 00000001 .rdata            UFieldData.obj
00487fb0 00000001 .rdata            UFieldData.obj
00487fb1 00000077 .rdata            CTextView.obj
00488028 00000001 .rdata            CTextView.obj
00488029 00000001 .rdata            CTextView.obj
0048802a 00000001 .rdata            CTextView.obj
0048802b 00000001 .rdata            CTextView.obj
0048802c 00000001 .rdata            CTextView.obj
0048802d 00000001 .rdata            CTextView.obj
0048802e 00000001 .rdata            CTextView.obj
0048802f 00000001 .rdata            CTextView.obj
00488030 00000001 .rdata            CTextView.obj
00488031 00000001 .rdata            CTextView.obj
00488032 00000001 .rdata            CTextView.obj
00488033 00000001 .rdata            CTextView.obj
00488034 00000001 .rdata            CTextView.obj
00488035 00000001 .rdata            CTextView.obj
00488036 00000001 .rdata            CTextView.obj
00488037 00000001 .rdata            CTextView.obj
00488038 00000001 .rdata            CTextView.obj
00488039 00000001 .rdata            CTextView.obj
0048803a 00000001 .rdata            CTextView.obj
0048803b 00000001 .rdata            CTextView.obj
0048803c 00000001 .rdata            CTextView.obj
0048803d 00000001 .rdata            CTextView.obj
0048803e 00000001 .rdata            CTextView.obj
0048803f 00000001 .rdata            CTextView.obj
00488040 00000001 .rdata            CTextView.obj
00488041 00000001 .rdata            CTextView.obj
00488042 00000001 .rdata            CTextView.obj
00488043 00000001 .rdata            CTextView.obj
00488044 00000001 .rdata            CTextView.obj
00488045 00000001 .rdata            CTextView.obj
00488046 00000001 .rdata            CTextView.obj
00488047 0000007f .rdata            CTextView.obj
004880c6 00000001 .rdata            CTextView.obj
004880c7 00000001 .rdata            CTextView.obj
004880c8 0000007f .rdata            CPasswordTextView.obj
00488147 00000001 .rdata            CPasswordTextView.obj
00488148 00000001 .rdata            CPasswordTextView.obj
00488149 00000001 .rdata            CPasswordTextView.obj
0048814a 00000001 .rdata            CPasswordTextView.obj
0048814b 00000001 .rdata            CPasswordTextView.obj
0048814c 00000001 .rdata            CPasswordTextView.obj
0048814d 00000001 .rdata            CPasswordTextView.obj
0048814e 00000001 .rdata            CPasswordTextView.obj
0048814f 00000001 .rdata            CPasswordTextView.obj
00488150 00000043 .rdata            CPasswordTextView.obj
00488193 00000001 .rdata            CPasswordTextView.obj
00488194 00000001 .rdata            CPasswordTextView.obj
00488195 00000001 .rdata            CPasswordTextView.obj
00488196 00000001 .rdata            CPasswordTextView.obj
00488197 00000001 .rdata            CPasswordTextView.obj
00488198 00000001 .rdata            CPasswordTextView.obj
00488199 00000001 .rdata            CPasswordTextView.obj
0048819a 00000001 .rdata            CPasswordTextView.obj
0048819b 00000001 .rdata            CPasswordTextView.obj
0048819c 00000001 .rdata            CPasswordTextView.obj
0048819d 0000007f .rdata            CPasswordTextView.obj
0048821c 00000001 .rdata            CPasswordTextView.obj
0048821d 00000001 .rdata            ExceptionX86.obj
00488220 00000008 .rdata            ExceptionX86.obj(@438)
00488228 00000001 .rdata            ExceptionX86.obj
00488229 00000001 .rdata            ExceptionX86.obj
0048822c 0000004c .rdata            ExceptionX86.obj(@482)
00488278 00000001 .rdata            ExceptionX86.obj
00488279 00000001 .rdata            ExceptionX86.obj
0048827c 0000001c .rdata            ExceptionX86.obj(@531)
00488298 00000001 .rdata            ExceptionX86.obj
00488299 00000001 .rdata            ExceptionX86.obj
0048829c 0000000c .rdata            ExceptionX86.obj(@558)
004882a8 00000001 .rdata            ExceptionX86.obj
004882a9 00000001 .rdata            ExceptionX86.obj
004882aa 00000001 .rdata            ExceptionX86.obj
004882ab 00000001 .rdata            ExceptionX86.obj
004882ac 00000001 .rdata            ExceptionX86.obj
004882ad 00000001 .rdata            ExceptionX86.obj
004882ae 00000001 .rdata            ExceptionX86.obj
004882af 00000001 .rdata            ExceptionX86.obj
004882b0 00000001 .rdata            ExceptionX86.obj
004882b1 00000001 .rdata            ExceptionX86.obj
004882b2 00000001 .rdata            ExceptionX86.obj
004882b4 0000004c .rdata            ExceptionX86.obj(@703)
00488300 00000091 .rdata            ExceptionX86.obj
00488391 00000001 .rdata            ExceptionX86.obj
00488392 00000043 .rdata            ExceptionX86.obj
004883d5 00000015 .rdata            ExceptionX86.obj
004883ea 00000001 .rdata            ExceptionX86.obj
004883eb 00000001 .rdata            ExceptionX86.obj
004883ec 00000001 .rdata            ExceptionX86.obj
004883ed 00000019 .rdata            ExceptionX86.obj
00488408 00000050 .rdata            ExceptionX86.obj(@884)
00488458 00000050 .rdata            ExceptionX86.obj(@883)
004884a8 00000001 .rdata            ExceptionX86.obj
004884a9 00000001 .rdata            ExceptionX86.obj
004884aa 00000001 .rdata            ExceptionX86.obj
004884ab 00000001 .rdata            ExceptionX86.obj
004884ac 00000050 .rdata            ExceptionX86.obj(@946)
004884fc 00000001 .rdata            ExceptionX86.obj
004884fd 00000001 .rdata            ExceptionX86.obj
004884fe 00000001 .rdata            ExceptionX86.obj
004884ff 00000001 .rdata            ExceptionX86.obj
00488500 00000001 .rdata            ExceptionX86.obj
00488501 00000001 .rdata            ExceptionX86.obj
00488502 00000001 .rdata            UMath.obj
00488503 00000001 .rdata            CLinkedList.obj
00488504 00000001 .rdata            CLinkedList.obj
00488505 00000001 .rdata            CLinkedList.obj
00488506 00000001 .rdata            CLinkedList.obj
00488507 00000001 .rdata            CLinkedList.obj
00488508 00000001 .rdata            UGUID(W).obj
00488509 00000001 .rdata            UGUID(W).obj
0048850a 00000001 .rdata            UGUID(W).obj
0048850b 00000001 .rdata            UGUID(W).obj
0048850c 00000001 .rdata            CView.obj
0048850d 00000001 .rdata            CView.obj
0048850e 00000001 .rdata            CView.obj
0048850f 00000001 .rdata            CView.obj
00488510 0000003b .rdata            CView.obj
0048854b 00000033 .rdata            CView.obj
0048857e 00000001 .rdata            CView.obj
0048857f 00000001 .rdata            CView.obj
00488580 00000001 .rdata            CView.obj
00488581 00000001 .rdata            CView.obj
00488582 00000001 .rdata            CView.obj
00488583 00000001 .rdata            CView.obj
00488584 00000001 .rdata            CView.obj
00488585 00000001 .rdata            CView.obj
00488586 00000001 .rdata            CView.obj
00488587 00000001 .rdata            CView.obj
00488588 00000001 .rdata            CView.obj
00488589 00000001 .rdata            CView.obj
0048858a 00000001 .rdata            CView.obj
0048858b 00000001 .rdata            CView.obj
0048858c 00000001 .rdata            CView.obj
0048858d 00000001 .rdata            CView.obj
0048858e 00000001 .rdata            CView.obj
0048858f 00000001 .rdata            CView.obj
00488590 00000001 .rdata            CView.obj
00488591 00000001 .rdata            CView.obj
00488592 00000001 .rdata            CView.obj
00488593 00000001 .rdata            CView.obj
00488594 00000001 .rdata            CView.obj
00488595 00000001 .rdata            CView.obj
00488596 00000001 .rdata            CView.obj
00488597 00000001 .rdata            CView.obj
00488598 00000001 .rdata            CView.obj
00488599 00000001 .rdata            CView.obj
0048859a 00000001 .rdata            CView.obj
0048859b 00000001 .rdata            CView.obj
0048859c 00000001 .rdata            CView.obj
0048859d 00000001 .rdata            CView.obj
0048859e 00000001 .rdata            CView.obj
0048859f 00000001 .rdata            CView.obj
004885a0 00000001 .rdata            CView.obj
004885a1 00000001 .rdata            CView.obj
004885a2 00000001 .rdata            CView.obj
004885a3 00000001 .rdata            CView.obj
004885a4 00000001 .rdata            CView.obj
004885a5 00000001 .rdata            CView.obj
004885a6 00000001 .rdata            CView.obj
004885a7 00000001 .rdata            CView.obj
004885a8 00000001 .rdata            CView.obj
004885a9 00000001 .rdata            CView.obj
004885aa 00000001 .rdata            CView.obj
004885ab 00000001 .rdata            CView.obj
004885ac 00000001 .rdata            CView.obj
004885ad 00000001 .rdata            CView.obj
004885ae 00000001 .rdata            CView.obj
004885af 00000001 .rdata            CView.obj
004885b0 00000001 .rdata            CView.obj
004885b1 00000001 .rdata            CView.obj
004885b2 00000001 .rdata            CView.obj
004885b3 00000001 .rdata            CView.obj
004885b4 00000001 .rdata            CView.obj
004885b5 0000001d .rdata            CScrollerView.obj
004885d2 0000001d .rdata            CScrollerView.obj
004885ef 00000001 .rdata            CScrollerView.obj
004885f0 00000001 .rdata            CScrollerView.obj
004885f1 00000001 .rdata            CScrollerView.obj
004885f2 00000001 .rdata            CScrollerView.obj
004885f3 00000001 .rdata            CScrollerView.obj
004885f4 00000001 .rdata            CScrollerView.obj
004885f5 00000001 .rdata            CScrollerView.obj
004885f6 00000001 .rdata            CScrollerView.obj
004885f7 00000001 .rdata            CScrollerView.obj
004885f8 00000001 .rdata            CScrollerView.obj
004885f9 00000001 .rdata            CScrollerView.obj
004885fa 00000001 .rdata            CScrollerView.obj
004885fb 00000001 .rdata            CScrollerView.obj
004885fc 00000001 .rdata            CScrollerView.obj
004885fd 00000089 .rdata            CScrollerView.obj
00488686 00000001 .rdata            CScrollerView.obj
00488687 00000001 .rdata            CScrollerView.obj
00488688 00000001 .rdata            CScrollerView.obj
0048868c 00000018 .rdata            CScrollerView.obj(@8071)
004886a4 0000001c .rdata            CScrollerView.obj(@8070)
004886c0 00000018 .rdata            CScrollerView.obj(@8069)
004886d8 0000001c .rdata            CScrollerView.obj(@8068)
004886f4 00000001 .rdata            CScrollerView.obj
004886f8 00000018 .rdata            CScrollerView.obj(@8169)
00488710 00000018 .rdata            CScrollerView.obj(@8168)
00488728 00000001 .rdata            CScrollerView.obj
00488729 00000001 .rdata            CScrollerView.obj
0048872a 00000001 .rdata            CScrollerView.obj
0048872b 00000001 .rdata            CScrollerView.obj
0048872c 00000010 .rdata            CScrollerView.obj(@8263)
0048873c 00000001 .rdata            CScrollerView.obj
00488740 00000010 .rdata            CScrollerView.obj(@8278)
00488750 00000001 .rdata            CScrollerView.obj
00488754 00000010 .rdata            CScrollerView.obj(@8297)
00488764 00000001 .rdata            CScrollerView.obj
00488765 00000001 .rdata            CScrollerView.obj
00488766 00000001 .rdata            CScrollerView.obj
00488767 00000001 .rdata            CScrollerView.obj
00488768 00000001 .rdata            CScrollerView.obj
00488769 00000001 .rdata            CScrollerView.obj
0048876a 00000001 .rdata            CScrollerView.obj
0048876c 00000018 .rdata            CScrollerView.obj(@8463)
00488784 00000018 .rdata            CScrollerView.obj(@8462)
0048879c 00000001 .rdata            CScrollerView.obj
0048879d 00000001 .rdata            CScrollerView.obj
0048879e 00000001 .rdata            CScrollerView.obj
0048879f 00000001 .rdata            CScrollerView.obj
004887a0 00000001 .rdata            CScrollerView.obj
004887a1 00000001 .rdata            CScrollerView.obj
004887a2 00000001 .rdata            CScrollerView.obj
004887a3 00000001 .rdata            CScrollerView.obj
004887a4 00000001 .rdata            CScrollerView.obj
004887a5 00000001 .rdata            CScrollerView.obj
004887a6 00000001 .rdata            CScrollerView.obj
004887a7 00000001 .rdata            CScrollerView.obj
004887a8 00000001 .rdata            CScrollerView.obj
004887a9 00000001 .rdata            CScrollerView.obj
004887aa 00000001 .rdata            CScrollerView.obj
004887ab 00000001 .rdata            CScrollerView.obj
004887ac 00000001 .rdata            CScrollerView.obj
004887ad 00000001 .rdata            CScrollerView.obj
004887ae 00000001 .rdata            CScrollerView.obj
004887af 00000001 .rdata            CScrollerView.obj
004887b0 00000001 .rdata            CScrollerView.obj
004887b1 00000001 .rdata            CScrollerView.obj
004887b2 00000001 .rdata            CScrollerView.obj
004887b3 00000001 .rdata            CScrollerView.obj
004887b4 00000001 .rdata            CScrollerView.obj
004887b5 00000001 .rdata            CScrollerView.obj
004887b6 0000001d .rdata            ANSI.obj
004887d3 0000001d .rdata            ANSI.obj
004887f0 00000001 .rdata            ANSI.obj
004887f1 00000001 .rdata            ANSI.obj
004887f2 00000001 .rdata            ANSI.obj
004887f3 00000001 .rdata            ANSI.obj
004887f4 00000001 .rdata            ANSI.obj
004887f5 00000001 .rdata            ANSI.obj
004887f6 00000001 .rdata            ANSI.obj
004887f7 00000001 .rdata            ANSI.obj
004887f8 00000001 .rdata            ANSI.obj
004887f9 00000001 .rdata            ANSI.obj
004887fa 00000001 .rdata            ANSI.obj
004887fb 00000001 .rdata            ANSI.obj
004887fc 00000001 .rdata            ANSI.obj
004887fd 00000001 .rdata            ANSI.obj
004887fe 00000001 .rdata            ANSI.obj
004887ff 00000001 .rdata            ANSI.obj
00488800 00000001 .rdata            stackall.obj
00488801 00000001 .rdata            stackall.obj
00488802 00000001 .rdata            UFileSys.obj
00488803 00000001 .rdata            UFileSys.obj
00488804 00000001 .rdata            CViewContainer.obj
00488805 00000001 .rdata            CViewContainer.obj
00488806 00000001 .rdata            CViewContainer.obj
00488807 00000001 .rdata            CViewContainer.obj
00488808 00000001 .rdata            CViewContainer.obj
00488809 00000001 .rdata            CViewContainer.obj
0048880a 00000001 .rdata            CViewContainer.obj
0048880b 00000001 .rdata            CViewContainer.obj
0048880c 0000001d .rdata            CViewContainer.obj
00488829 00000001 .rdata            CViewContainer.obj
0048882a 00000001 .rdata            CViewContainer.obj
0048882b 00000001 .rdata            CViewContainer.obj
0048882c 00000001 .rdata            CViewContainer.obj
0048882d 00000001 .rdata            CViewContainer.obj
0048882e 00000001 .rdata            MWRTTI.obj
0048882f 00000001 .rdata            MWRTTI.obj
00488830 00000015 .rdata            MWRTTI.obj
00488845 00000001 .rdata            MWRTTI.obj
00488846 00000001 .rdata            MWRTTI.obj
00488847 00000001 .rdata            MWRTTI.obj
00488848 00000001 .rdata            CLabelView.obj
00488849 00000001 .rdata            CLabelView.obj
0048884a 00000001 .rdata            CLabelView.obj
0048884b 00000001 .rdata            CLabelView.obj
0048884c 00000001 .rdata            CLabelView.obj
0048884d 00000029 .rdata            CLabelView.obj
00488876 00000029 .rdata            CLabelView.obj
0048889f 00000001 .rdata            CLabelView.obj
004888a0 00000001 .rdata            CItemsView.obj
004888a1 00000001 .rdata            CItemsView.obj
004888a2 00000001 .rdata            CItemsView.obj
004888a3 00000001 .rdata            CItemsView.obj
004888a4 00000001 .rdata            CItemsView.obj
004888a5 00000001 .rdata            CItemsView.obj
004888a6 00000001 .rdata            CItemsView.obj
004888a7 00000001 .rdata            CItemsView.obj
004888a8 00000001 .rdata            CItemsView.obj
004888a9 00000001 .rdata            CItemsView.obj
004888aa 00000001 .rdata            CItemsView.obj
004888ab 00000001 .rdata            CItemsView.obj
004888ac 00000001 .rdata            CItemsView.obj
004888ad 00000001 .rdata            CItemsView.obj
004888ae 00000001 .rdata            CItemsView.obj
004888af 00000001 .rdata            CItemsView.obj
004888b0 00000001 .rdata            CItemsView.obj
004888b1 00000001 .rdata            CItemsView.obj
004888b2 00000001 .rdata            CItemsView.obj
004888b3 00000001 .rdata            CItemsView.obj
004888b4 00000001 .rdata            CItemsView.obj
004888b5 00000001 .rdata            CItemsView.obj
004888b6 00000001 .rdata            CItemsView.obj
004888b7 00000001 .rdata            CItemsView.obj
004888b8 0000001d .rdata            CItemsView.obj
004888d5 00000001 .rdata            CItemsView.obj
004888d6 00000001 .rdata            CItemsView.obj
004888d7 00000001 .rdata            CItemsView.obj
004888d8 00000001 .rdata            CItemsView.obj
004888d9 00000001 .rdata            CItemsView.obj
004888da 00000031 .rdata            CItemsView.obj
0048890b 00000001 .rdata            CItemsView.obj
0048890c 00000001 .rdata            CItemsView.obj
0048890d 00000001 .rdata            CItemsView.obj
0048890e 00000001 .rdata            CItemsView.obj
0048890f 00000001 .rdata            CItemsView.obj
00488910 00000001 .rdata            CItemsView.obj
00488911 00000001 .rdata            CItemsView.obj
00488912 00000001 .rdata            CItemsView.obj
00488913 00000001 .rdata            CItemsView.obj
00488914 00000001 .rdata            CItemsView.obj
00488915 00000001 .rdata            CItemsView.obj
00488916 00000001 .rdata            CItemsView.obj
00488917 00000001 .rdata            CItemsView.obj
00488918 00000001 .rdata            CItemsView.obj
00488919 0000001d .rdata            CListView.obj
00488936 00000001 .rdata            CListView.obj
00488937 00000001 .rdata            CListView.obj
00488938 00000001 .rdata            CListView.obj
00488939 00000001 .rdata            CListView.obj
0048893a 00000001 .rdata            CListView.obj
0048893b 00000001 .rdata            CListView.obj
0048893c 00000001 .rdata            CListView.obj
0048893d 00000001 .rdata            CListView.obj
0048893e 00000001 .rdata            CListView.obj
0048893f 00000001 .rdata            CListView.obj
00488940 00000001 .rdata            CListView.obj
00488941 00000001 .rdata            CListView.obj
00488942 00000001 .rdata            CListView.obj
00488943 00000001 .rdata            CListView.obj
00488944 00000001 .rdata            CListView.obj
00488945 00000001 .rdata            CListView.obj
00488946 00000001 .rdata            CListView.obj
00488947 00000001 .rdata            CListView.obj
00488948 00000001 .rdata            CListView.obj
00488949 00000001 .rdata            CListView.obj
0048894a 00000001 .rdata            CListView.obj
0048894b 00000001 .rdata            CBoolArray.obj
0048894c 00000001 .rdata            CBoolArray.obj
0048894d 00000001 .rdata            CBoolArray.obj
0048894e 00000001 .rdata            CBoolArray.obj
0048894f 00000019 .rdata            CBoolArray.obj
00488968 00000019 .rdata            CBoolArray.obj
00488981 00000001 .rdata            CBoolArray.obj
00488982 00000001 .rdata            CBoolArray.obj
00488983 00000019 .rdata            CBoolArray.obj
0048899c 00000019 .rdata            CBoolArray.obj
004889b5 00000019 .rdata            CBoolArray.obj
004889ce 00000019 .rdata            CBoolArray.obj
004889e7 00000031 .rdata            CBoolArray.obj
00488a18 00000001 .rdata            CBoolArray.obj
00488a19 00000001 .rdata            UUserInterface(W).obj
00488a1a 00000001 .rdata            UUserInterface(W).obj
00488a1b 00000001 .rdata            UUserInterface(W).obj
00488a1c 00000001 .rdata            UUserInterface(W).obj
00488a1d 00000001 .rdata            UUserInterface(W).obj
00488a1e 00000001 .rdata            UUserInterface(W).obj
00488a20 00000024 .rdata            UUserInterface(W).obj(@7686)
00488a44 00000001 .rdata            UUserInterface(W).obj
00488a45 00000001 .rdata            UGraphics(W).obj
00488a46 00000001 .rdata            UGraphics(W).obj
00488a47 00000001 .rdata            UGraphics(W).obj
00488a48 00000001 .rdata            UGraphics(W).obj
00488a49 00000001 .rdata            UGraphics(W).obj
00488a4a 00000001 .rdata            UGraphics(W).obj
00488a4b 00000001 .rdata            UGraphics(W).obj
00488a4c 00000001 .rdata            UGraphics(W).obj
00488a4d 00000001 .rdata            UGraphics(W).obj
00488a4e 00000001 .rdata            UGraphics(W).obj
00488a4f 00000001 .rdata            UGraphics(W).obj
00488a50 00000001 .rdata            UGraphics(W).obj
00488a54 00000034 .rdata            UGraphics(W).obj(@7826)
00488a88 00000001 .rdata            UGraphics(W).obj
00488a89 00000001 .rdata            UGraphics(W).obj
00488a8a 00000001 .rdata            UGraphics(W).obj
00488a8c 0000000c .rdata            UGraphics(W).obj(@8109)
00488a98 00000001 .rdata            UGraphics(W).obj
00488a99 00000001 .rdata            UGraphics(W).obj
00488a9a 00000001 .rdata            UGraphics(W).obj
00488a9b 00000001 .rdata            UGraphics(W).obj
00488a9c 00000001 .rdata            UGraphics(W).obj
00488a9d 00000001 .rdata            UGraphics(W).obj
00488a9e 00000001 .rdata            UGraphics(W).obj
00488a9f 00000001 .rdata            UGraphics(W).obj
00488aa0 00000001 .rdata            UGraphics(W).obj
00488aa1 00000001 .rdata            UGraphics(W).obj
00488aa2 00000001 .rdata            UGraphics(W).obj
00488aa3 00000001 .rdata            UGraphics(W).obj
00488aa4 00000001 .rdata            UGraphics(W).obj
00488aa5 00000001 .rdata            UGraphics(W).obj
00488aa6 00000019 .rdata            UGraphics(W).obj
00488abf 00000019 .rdata            UGraphics(W).obj
00488ad8 00000019 .rdata            UGraphics(W).obj
00488af1 00000001 .rdata            UGraphics(W).obj
00488af2 00000001 .rdata            UGraphics(W).obj
00488af4 00000080 .rdata            UGraphics(W).obj(@9093)
00488b74 00000057 .rdata            UGraphics(W).obj
00488bcb 00000001 .rdata            UGraphics(W).obj
00488bcc 00000001 .rdata            UGraphics(W).obj
00488bd0 00000080 .rdata            UGraphics(W).obj(@9440)
00488c50 00000001 .rdata            UGraphics(W).obj
00488c51 00000001 .rdata            UGraphics(W).obj
00488c52 00000001 .rdata            UGraphics(W).obj
00488c53 00000001 .rdata            UGraphics(W).obj
00488c54 00000001 .rdata            UGraphics(W).obj
00488c55 00000001 .rdata            UGraphics(W).obj
00488c56 00000001 .rdata            UGraphics(W).obj
00488c57 00000001 .rdata            UGraphics(W).obj
00488c58 00000001 .rdata            UGraphics(W).obj
00488c59 00000001 .rdata            UGraphics(W).obj
00488c5a 00000001 .rdata            UGraphics(W).obj
00488c5b 00000001 .rdata            UGraphics(W).obj
00488c5c 00000001 .rdata            UGraphics(W).obj
00488c5d 00000001 .rdata            UGraphics(W).obj
00488c5e 00000001 .rdata            UGraphics(W).obj
00488c5f 00000001 .rdata            UGraphics(W).obj
00488c60 00000001 .rdata            UGraphics(W).obj
00488c61 00000001 .rdata            UGraphics.obj
00488c62 00000001 .rdata            UGraphics.obj
00488c63 00000001 .rdata            UGraphics.obj
00488c64 00000001 .rdata            UGraphics.obj
00488c65 00000001 .rdata            UGraphics.obj
00488c66 00000001 .rdata            UGraphics.obj
00488c67 00000001 .rdata            UGraphics.obj
00488c68 00000001 .rdata            UGraphics.obj
00488c69 00000001 .rdata            UGraphics.obj
00488c6a 00000001 .rdata            UGraphics.obj
00488c6b 00000001 .rdata            UGraphics.obj
00488c6c 00000001 .rdata            UGraphics.obj
00488c6d 00000001 .rdata            UGraphics.obj
00488c6e 00000001 .rdata            UGraphics.obj
00488c6f 00000001 .rdata            UGraphics.obj
00488c70 00000001 .rdata            UGraphics.obj
00488c71 00000001 .rdata            UGraphics.obj
00488c72 00000033 .rdata            UIcon(W).obj
00488ca5 00000001 .rdata            UIcon(W).obj
00488ca6 00000001 .rdata            UIcon(W).obj
00488ca7 00000001 .rdata            UIcon.obj
00488ca8 00000001 .rdata            CDragAndDroppable.obj
00488ca9 00000001 .rdata            CDragAndDroppable.obj
00488caa 00000001 .rdata            UCheckBox.obj
00488cab 00000001 .rdata            UCheckBox.obj
00488cac 00000001 .rdata            UCheckBox.obj
00488cad 00000001 .rdata            UCheckBox.obj
00488cae 0000001d .rdata            CContainerView.obj
00488ccb 00000001 .rdata            CContainerView.obj
00488ccc 00000001 .rdata            CContainerView.obj
00488ccd 00000001 .rdata            CContainerView.obj
00488cce 00000001 .rdata            CContainerView.obj
00488ccf 00000093 .rdata            CContainerView.obj
00488d62 0000002b .rdata            CContainerView.obj
00488d8d 00000021 .rdata            CContainerView.obj
00488dae 00000001 .rdata            CContainerView.obj
00488daf 00000001 .rdata            CContainerView.obj
00488db0 00000001 .rdata            CContainerView.obj
00488db1 00000001 .rdata            CContainerView.obj
00488db2 00000021 .rdata            CContainerView.obj
00488dd3 00000001 .rdata            CContainerView.obj
00488dd4 00000001 .rdata            CContainerView.obj
00488dd5 00000001 .rdata            CContainerView.obj
00488dd6 00000001 .rdata            CContainerView.obj
00488dd7 00000001 .rdata            CContainerView.obj
00488dd8 00000001 .rdata            CContainerView.obj
00488dd9 00000001 .rdata            CContainerView.obj
00488dda 00000001 .rdata            CContainerView.obj
00488ddb 00000001 .rdata            CContainerView.obj
00488ddc 0000004f .rdata            CContainerView.obj
00488e2b 0000004f .rdata            CContainerView.obj
00488e7a 00000001 .rdata            CContainerView.obj
00488e7b 00000001 .rdata            CContainerView.obj
00488e7c 00000001 .rdata            CContainerView.obj
00488e7d 0000002b .rdata            CContainerView.obj
00488ea8 00000001 .rdata            CContainerView.obj
00488ea9 00000001 .rdata            CContainerView.obj
00488eaa 00000001 .rdata            CContainerView.obj
00488eab 00000001 .rdata            CContainerView.obj
00488eac 00000001 .rdata            CContainerView.obj
00488ead 00000001 .rdata            CContainerView.obj
00488eae 00000001 .rdata            CContainerView.obj
00488eaf 00000001 .rdata            CContainerView.obj
00488eb0 00000001 .rdata            CContainerView.obj
00488eb1 0000001d .rdata            CTabbedView.obj
00488ece 00000001 .rdata            CTabbedView.obj
00488ecf 0000003b .rdata            CTabbedView.obj
00488f0a 00000001 .rdata            CTabbedView.obj
00488f0b 00000001 .rdata            CTabbedView.obj
00488f0c 00000001 .rdata            CTabbedView.obj
00488f0d 00000047 .rdata            CTabbedView.obj
00488f54 00000001 .rdata            CTabbedView.obj
00488f55 00000001 .rdata            CTabbedView.obj
00488f56 00000001 .rdata            CTabbedView.obj
00488f57 00000001 .rdata            CTabbedView.obj
00488f58 00000001 .rdata            CTabbedView.obj
00488f59 00000001 .rdata            CTabbedView.obj
00488f5a 00000001 .rdata            CTabbedView.obj
00488f5b 00000001 .rdata            CTabbedView.obj
00488f5c 00000019 .rdata            CTabbedView.obj
00488f75 00000019 .rdata            CTabbedView.obj
00488f8e 00000001 .rdata            CTabbedView.obj
00488f8f 000001fd .rdata            CTabbedView.obj
0048918c 00000001 .rdata            CTabbedView.obj
0048918d 00000001 .rdata            CTabbedView.obj
0048918e 00000001 .rdata            CTabbedView.obj
0048918f 00000001 .rdata            CTabbedView.obj
00489190 00000001 .rdata            CTabbedView.obj
00489191 00000001 .rdata            CTabbedView.obj
00489192 00000001 .rdata            CTabbedView.obj
00489193 00000001 .rdata            CTabbedView.obj
00489194 00000001 .rdata            CTabbedView.obj
00489195 00000001 .rdata            CTabbedView.obj
00489196 00000001 .rdata            CTabbedView.obj
00489197 00000001 .rdata            CTabbedView.obj
00489198 00000001 .rdata            CTabbedView.obj
00489199 00000001 .rdata            CTabbedView.obj
0048919a 00000001 .rdata            CTabbedView.obj
0048919b 00000001 .rdata            CTabbedView.obj
0048919c 00000001 .rdata            CTabbedView.obj
0048919d 00000001 .rdata            CTabbedView.obj
0048919e 00000001 .rdata            CTabbedView.obj
0048919f 00000001 .rdata            CTabbedView.obj
004891a0 00000001 .rdata            CTabbedView.obj
004891a1 00000001 .rdata            CTabbedView.obj
004891a2 00000001 .rdata            CTabbedView.obj
004891a3 00000001 .rdata            CTabbedView.obj
004891a4 00000001 .rdata            CTabbedView.obj
004891a5 00000001 .rdata            CTabbedView.obj
004891a6 00000001 .rdata            CTabbedView.obj
004891a7 00000001 .rdata            CTabbedView.obj
004891a8 00000001 .rdata            CTabbedView.obj
004891a9 00000019 .rdata            CTabbedView.obj
004891c2 00000001 .rdata            CTabbedView.obj
004891c3 00000001 .rdata            CTabbedView.obj
004891c4 00000001 .rdata            CTabbedView.obj
004891c5 00000001 .rdata            CTabbedView.obj
004891c6 00000001 .rdata            CTabbedView.obj
004891c7 00000001 .rdata            CButtonView.obj
004891c8 00000001 .rdata            CButtonView.obj
004891c9 00000001 .rdata            CButtonView.obj
004891ca 00000001 .rdata            CButtonView.obj
004891cb 00000001 .rdata            CButtonView.obj
004891cc 00000001 .rdata            CButtonView.obj
004891cd 0000003d .rdata            CButtonView.obj
0048920a 00000001 .rdata            CButtonView.obj
0048920b 00000001 .rdata            CButtonView.obj
0048920c 00000001 .rdata            CButtonView.obj
0048920d 00000001 .rdata            CButtonView.obj
0048920e 00000001 .rdata            CButtonView.obj
0048920f 00000001 .rdata            CButtonView.obj
00489210 00000001 .rdata            CButtonView.obj
00489211 00000001 .rdata            CButtonView.obj
00489212 00000001 .rdata            CButtonView.obj
00489213 0000002b .rdata            CButtonView.obj
0048923e 00000001 .rdata            CButtonView.obj
0048923f 00000001 .rdata            CBoxView.obj
00489240 0000001d .rdata            CBoxView.obj
0048925d 00000001 .rdata            CBoxView.obj
0048925e 00000001 .rdata            CBoxView.obj
0048925f 00000001 .rdata            CBoxView.obj
00489260 00000001 .rdata            CBoxView.obj
00489261 00000001 .rdata            CBoxView.obj
00489264 00000010 .rdata            CBoxView.obj(@7606)
00489274 00000021 .rdata            CBoxView.obj
00489295 00000001 .rdata            CBoxView.obj
00489296 00000001 .rdata            CCheckBoxView.obj
00489297 00000001 .rdata            CCheckBoxView.obj
00489298 00000001 .rdata            CCheckBoxView.obj
00489299 00000001 .rdata            CCheckBoxView.obj
0048929a 00000001 .rdata            CCheckBoxView.obj
0048929b 00000001 .rdata            CCheckBoxView.obj
0048929c 0000003d .rdata            CCheckBoxView.obj
004892d9 00000001 .rdata            CCheckBoxView.obj
004892da 00000001 .rdata            CCheckBoxView.obj
004892db 00000001 .rdata            CCheckBoxView.obj
004892dc 00000001 .rdata            CCheckBoxView.obj
004892dd 00000001 .rdata            CCheckBoxView.obj
004892de 00000001 .rdata            CCheckBoxView.obj
004892df 00000001 .rdata            CCheckBoxView.obj
004892e0 00000001 .rdata            CCheckBoxView.obj
004892e1 00000001 .rdata            CCheckBoxView.obj
004892e2 00000001 .rdata            CCheckBoxView.obj
004892e3 00000001 .rdata            CIconButtonView.obj
004892e4 00000001 .rdata            CIconButtonView.obj
004892e5 00000001 .rdata            CIconButtonView.obj
004892e6 00000001 .rdata            CIconButtonView.obj
004892e7 00000001 .rdata            CIconButtonView.obj
004892e8 00000001 .rdata            CIconButtonView.obj
004892e9 0000003d .rdata            CIconButtonView.obj
00489326 00000001 .rdata            CIconButtonView.obj
00489327 00000001 .rdata            CIconButtonView.obj
00489328 00000001 .rdata            CIconButtonView.obj
00489329 00000001 .rdata            CIconButtonView.obj
0048932a 00000001 .rdata            CIconButtonView.obj
0048932b 00000001 .rdata            CIconButtonView.obj
0048932c 00000001 .rdata            CIconButtonView.obj
0048932d 00000001 .rdata            CIconButtonView.obj
0048932e 00000001 .rdata            CIconButtonView.obj
0048932f 00000001 .rdata            CIconButtonView.obj
00489330 00000001 .rdata            CIconView.obj
00489331 00000001 .rdata            CIconView.obj
00489332 00000001 .rdata            CIconView.obj
00489333 00000001 .rdata            CIconView.obj
00489334 00000001 .rdata            CIconView.obj
00489335 00000001 .rdata            CIconView.obj
00489336 00000001 .rdata            UGUID.obj
00489337 00000001 .rdata            UGUID.obj
00489338 00000001 .rdata            UProgramCleanup.obj
00489339 0000001d .rdata            UProgramCleanup.obj
00489356 00000001 .rdata            UProgramCleanup.obj
00489357 00000001 .rdata            UProgramCleanup.obj
00489358 0000001d .rdata            UProgramCleanup.obj
00489375 00000001 .rdata            UProgramCleanup.obj
00489376 00000001 .rdata            UProgramCleanup.obj
00489377 00000001 .rdata            UProgramCleanup.obj
00489378 00000001 .rdata            UProgramCleanup.obj
00489379 00000001 .rdata            UService(W).obj
0048937a 00000001 .rdata            UService(W).obj
0048937b 00000001 .rdata            UService(W).obj
0048937c 00000001 .rdata            UService(W).obj
0048937d 00000001 .rdata            UService(W).obj
0048937e 00000001 .rdata            UService(W).obj
0048937f 00000001 .rdata            UService(W).obj
00489380 00000001 .rdata            UService(W).obj
00489381 00000001 .rdata            UService(W).obj
00489382 00000001 .rdata            UService(W).obj
00489383 0000001d .rdata            UService(W).obj
004893a0 00000014 .rdata            UService(W).obj(@7669)
004893b4 00000001 .rdata            UService(W).obj
004893b5 00000001 .rdata            UOleAutomation(W).obj
004893b6 00000001 .rdata            UOleAutomation(W).obj
004893b7 00000001 .rdata            UOleAutomation(W).obj
004893b8 00000001 .rdata            UOleAutomation(W).obj
004893b9 00000001 .rdata            UOleAutomation(W).obj
004893ba 00000001 .rdata            UOleAutomation(W).obj
004893bb 00000019 .rdata            UOleAutomation(W).obj
004893d4 00000001 .rdata            UOleAutomation(W).obj
004893d5 00000001 .rdata            UOleAutomation(W).obj
004893d6 00000001 .rdata            UOleAutomation(W).obj
004893d7 00000001 .rdata            UOleAutomation(W).obj
004893d8 00000019 .rdata            UOleAutomation(W).obj
004893f1 00000001 .rdata            UOleAutomation(W).obj
004893f2 00000001 .rdata            UOleAutomation(W).obj
004893f3 00000001 .rdata            UOleAutomation(W).obj
004893f4 00000001 .rdata            UOleAutomation(W).obj
004893f5 00000001 .rdata            UOleAutomation(W).obj
004893f6 00000001 .rdata            UOleAutomation(W).obj
004893f7 00000001 .rdata            UOleAutomation(W).obj
004893f8 00000001 .rdata            UOleAutomation(W).obj
004893f9 00000001 .rdata            UOleAutomation(W).obj
004893fa 00000001 .rdata            URegularTransport(W).obj
004893fb 00000001 .rdata            URegularTransport(W).obj
004893fc 00000001 .rdata            URegularTransport(W).obj
00489400 00000008 .rdata            URegularTransport(W).obj(@7621)
00489408 00000001 .rdata            URegularTransport(W).obj
00489409 00000001 .rdata            URegularTransport(W).obj
0048940a 00000001 .rdata            URegularTransport(W).obj
0048940b 00000001 .rdata            URegularTransport(W).obj
0048940c 00000001 .rdata            URegularTransport(W).obj
0048940d 00000001 .rdata            URegularTransport(W).obj
0048940e 00000001 .rdata            URegularTransport(W).obj
0048940f 00000001 .rdata            URegularTransport(W).obj
00489410 00000014 .rdata            URegularTransport(W).obj(@7944)
00489424 00000033 .rdata            URegularTransport(W).obj
00489457 00000001 .rdata            URegularTransport(W).obj
00489458 00000001 .rdata            URegularTransport(W).obj
00489459 00000001 .rdata            URegularTransport(W).obj
0048945a 00000001 .rdata            URegularTransport(W).obj
0048945b 00000001 .rdata            URegularTransport(W).obj
0048945c 00000001 .rdata            URegularTransport(W).obj
0048945d 00000001 .rdata            URegularTransport(W).obj
0048945e 00000033 .rdata            URegularTransport(W).obj
00489491 00000001 .rdata            URegularTransport(W).obj
00489492 00000001 .rdata            URegularTransport(W).obj
00489493 00000001 .rdata            URegularTransport(W).obj
00489494 0000001d .rdata            URegularTransport(W).obj
004894b1 0000001d .rdata            URegularTransport(W).obj
004894ce 0000001d .rdata            URegularTransport(W).obj
004894eb 0000001d .rdata            URegularTransport(W).obj
00489508 00000001 .rdata            URegularTransport(W).obj
00489509 00000001 .rdata            URegularTransport(W).obj
0048950a 00000001 .rdata            URegularTransport(W).obj
0048950b 00000001 .rdata            URegularTransport(W).obj
0048950c 00000001 .rdata            URegularTransport(W).obj
0048950d 00000001 .rdata            URegularTransport(W).obj
0048950e 0000005b .rdata            URegularTransport(W).obj
00489569 00000001 .rdata            URegularTransport(W).obj
0048956a 00000001 .rdata            URegularTransport(W).obj
0048956b 00000001 .rdata            URegularTransport(W).obj
0048956c 00000001 .rdata            URegularTransport(W).obj
0048956d 00000001 .rdata            URegularTransport(W).obj
0048956e 00000001 .rdata            URegularTransport(W).obj
0048956f 00000001 .rdata            URegularTransport(W).obj
00489570 00000001 .rdata            URegularTransport(W).obj
00489571 00000001 .rdata            URegularTransport(W).obj
00489574 00000080 .rdata            URegularTransport(W).obj(@8783)
004895f4 000000a5 .rdata            URegularTransport(W).obj
00489699 0000005f .rdata            URegularTransport(W).obj
004896f8 00000001 .rdata            URegularTransport(W).obj
004896f9 00000001 .rdata            URegularTransport(W).obj
004896fa 00000001 .rdata            URegularTransport(W).obj
004896fb 00000001 .rdata            URegularTransport(W).obj
004896fc 00000001 .rdata            URegularTransport(W).obj
004896fd 0000001d .rdata            URegularTransport(W).obj
0048971a 00000001 .rdata            URegularTransport(W).obj
0048971b 00000001 .rdata            UHttpTransport.obj
0048971c 00000001 .rdata            UHttpTransport.obj
0048971d 0000007b .rdata            UHttpTransport.obj
00489798 00000001 .rdata            UHttpTransport.obj
00489799 00000001 .rdata            UHttpTransport.obj
0048979a 00000001 .rdata            UHttpTransport.obj
0048979b 00000001 .rdata            UHttpTransport.obj
0048979c 00000001 .rdata            UHttpTransport.obj
0048979d 00000001 .rdata            UHttpTransport.obj
0048979e 00000001 .rdata            UHttpTransport.obj
0048979f 00000001 .rdata            UHttpTransport.obj
004897a0 00000001 .rdata            UHttpTransport.obj
004897a1 00000001 .rdata            UHttpTransport.obj
004897a2 00000001 .rdata            UHttpTransport.obj
004897a3 00000001 .rdata            UHttpTransport.obj
004897a4 00000001 .rdata            UHttpTransport.obj
004897a5 00000001 .rdata            UHttpTransport.obj
004897a6 00000001 .rdata            UHttpTransport.obj
004897a7 00000001 .rdata            UHttpTransport.obj
004897a8 00000001 .rdata            UHttpTransport.obj
004897a9 00000001 .rdata            UHttpTransport.obj
004897aa 00000001 .rdata            UHttpTransport.obj
004897ab 00000001 .rdata            UHttpTransport.obj
004897ac 00000001 .rdata            UHttpTransport.obj
004897ad 00000001 .rdata            UHttpTransport.obj
004897b0 0000001c .rdata            UHttpTransport.obj(@8143)
004897cc 00000001 .rdata            UHttpTransport.obj
004897d0 0000001c .rdata            UHttpTransport.obj(@8184)
004897ec 00000001 .rdata            UHttpTransport.obj
004897ed 00000001 .rdata            UHttpTransport.obj
004897ee 00000001 .rdata            UHttpTransport.obj
004897ef 00000001 .rdata            UHttpTransport.obj
004897f0 00000001 .rdata            UHttpTransport.obj
004897f1 00000001 .rdata            UHttpTransport.obj
004897f2 00000001 .rdata            UHttpTransport.obj
004897f3 00000001 .rdata            UHttpTransport.obj
004897f4 00000001 .rdata            UHttpTransport.obj
004897f5 00000001 .rdata            UHttpTransport.obj
004897f6 00000001 .rdata            UHttpTransport.obj
004897f7 00000001 .rdata            UHttpTransport.obj
004897f8 00000001 .rdata            UHttpTransport.obj
004897f9 00000001 .rdata            UHttpTransport.obj
004897fa 00000001 .rdata            UHttpTransport.obj
004897fb 00000001 .rdata            UHttpTransport.obj
004897fc 00000001 .rdata            UHttpTransport.obj
004897fd 00000001 .rdata            UHttpTransport.obj
004897fe 00000001 .rdata            UHttpTransport.obj
004897ff 00000001 .rdata            UHttpTransport.obj
00489800 00000001 .rdata            UHttpTransport.obj
00489801 00000001 .rdata            UHttpTransport.obj
00489802 00000001 .rdata            UHttpTransport.obj
00489803 00000001 .rdata            UHttpTransport.obj
00489804 00000001 .rdata            UHttpTransport.obj
00489805 00000001 .rdata            UHttpTransport.obj
00489806 00000001 .rdata            UHttpTransport.obj
00489807 00000001 .rdata            UHttpTransport.obj
00489808 00000001 .rdata            UHttpTransport.obj
00489809 00000001 .rdata            UHttpTransport.obj
0048980a 00000001 .rdata            UHttpTransport.obj
0048980b 00000001 .rdata            UHttpTransport.obj
0048980c 00000001 .rdata            UHttpTransport.obj
0048980d 00000001 .rdata            UHttpTransport.obj
0048980e 00000001 .rdata            UHttpTransport.obj
0048980f 00000001 .rdata            UHttpTransport.obj
00489810 00000001 .rdata            UHttpTransport.obj
00489811 00000001 .rdata            UHttpTransport.obj
00489812 00000001 .rdata            UHttpTransport.obj
00489813 00000001 .rdata            UHttpTransport.obj
00489814 00000001 .rdata            UIDVarArray.obj
00489815 00000001 .rdata            delarrop.obj
00489816 00000001 .rdata            URegion(W).obj
00489817 00000001 .rdata            URegion(W).obj
00489818 00000001 .rdata            URegion(W).obj
00489819 00000001 .rdata            URegion(W).obj
0048981a 00000001 .rdata            URegion(W).obj
0048981b 00000001 .rdata            URegion(W).obj
0048981c 00000001 .rdata            URegion(W).obj
0048981d 00000001 .rdata            URegion(W).obj
0048981e 00000001 .rdata            URegion(W).obj
0048981f 00000001 .rdata            URegion(W).obj
00489820 00000001 .rdata            URegion(W).obj
00489821 00000001 .rdata            URegion(W).obj
00489822 00000001 .rdata            URegion(W).obj
00489823 00000001 .rdata            UDragAndDrop(W).obj
00489824 00000001 .rdata            UDragAndDrop(W).obj
00489825 0000002b .rdata            UDragAndDrop(W).obj
00489850 00000001 .rdata            UDragAndDrop(W).obj
00489851 0000002b .rdata            UDragAndDrop(W).obj
0048987c 00000001 .rdata            UDragAndDrop(W).obj
0048987d 00000001 .rdata            UDragAndDrop(W).obj
0048987e 00000001 .rdata            UDragAndDrop(W).obj
0048987f 00000001 .rdata            UDragAndDrop(W).obj
00489880 00000001 .rdata            UDragAndDrop(W).obj
00489881 00000001 .rdata            UDragAndDrop(W).obj
00489882 00000001 .rdata            UDragAndDrop(W).obj
00489883 000000b5 .rdata            UDragAndDrop(W).obj
00489938 00000001 .rdata            UDragAndDrop(W).obj
00489939 00000001 .rdata            UDragAndDrop(W).obj
0048993a 00000001 .rdata            UDragAndDrop(W).obj
0048993b 00000001 .rdata            UDragAndDrop(W).obj
0048993c 00000001 .rdata            UDragAndDrop(W).obj
0048993d 00000001 .rdata            UDragAndDrop(W).obj
0048993e 00000001 .rdata            UDragAndDrop(W).obj
0048993f 00000001 .rdata            UDragAndDrop(W).obj
00489940 00000037 .rdata            UDragAndDrop(W).obj
00489977 00000001 .rdata            UDragAndDrop(W).obj
00489978 00000001 .rdata            UDragAndDrop(W).obj
00489979 00000001 .rdata            UDragAndDrop(W).obj
0048997a 00000001 .rdata            UDragAndDrop(W).obj
0048997b 0000002d .rdata            UDragAndDrop(W).obj
004899a8 0000002d .rdata            UDragAndDrop(W).obj
004899d5 00000001 .rdata            UDragAndDrop(W).obj
004899d6 00000001 .rdata            UDragAndDrop(W).obj
004899d7 00000001 .rdata            UDragAndDrop(W).obj
004899d8 0000002f .rdata            UDragAndDrop(W).obj
00489a07 00000001 .rdata            UDragAndDrop(W).obj
00489a08 00000001 .rdata            UDragAndDrop(W).obj
00489a09 00000001 .rdata            UDragAndDrop(W).obj
00489a0a 00000001 .rdata            UDragAndDrop(W).obj
00489a0b 00000001 .rdata            UDragAndDrop(W).obj
00489a0c 00000001 .rdata            UDragAndDrop(W).obj
00489a0d 00000001 .rdata            UDragAndDrop(W).obj
00489a0e 00000001 .rdata            UDragAndDrop(W).obj
00489a0f 00000001 .rdata            UDragAndDrop(W).obj
00489a10 0000002b .rdata            UDragAndDrop(W).obj
00489a3b 00000001 .rdata            UDragAndDrop(W).obj
00489a3c 00000001 .rdata            UDragAndDrop(W).obj
00489a3d 00000001 .rdata            UDragAndDrop(W).obj
00489a3e 00000001 .rdata            UDragAndDrop(W).obj
00489a3f 00000001 .rdata            UDragAndDrop(W).obj
00489a40 00000001 .rdata            UDragAndDrop(W).obj
00489a41 0000003d .rdata            UDragAndDrop(W).obj
00489a7e 00000001 .rdata            UDragAndDrop(W).obj
00489a7f 00000001 .rdata            UDragAndDrop(W).obj
00489a80 00000001 .rdata            UDragAndDrop(W).obj
00489a81 00000001 .rdata            UDragAndDrop(W).obj
00489a82 0000002d .rdata            UDragAndDrop(W).obj
00489aaf 00000001 .rdata            UDragAndDrop(W).obj
00489ab0 00000001 .rdata            UDragAndDrop(W).obj
00489ab1 00000001 .rdata            UDragAndDrop(W).obj
00489ab4 00000010 .rdata            UDragAndDrop(W).obj(@8694)
00489ac4 00000001 .rdata            UDragAndDrop(W).obj
00489ac5 00000025 .rdata            UTooltip.obj
00489aea 00000001 .rdata            UTooltip.obj
00489aeb 00000001 .rdata            UTooltip.obj
00489aec 0000003f .rdata            UTooltip.obj
00489b2b 00000001 .rdata            UTooltip.obj
00489b2c 00000001 .rdata            UTooltip.obj
00489b2d 00000001 .rdata            UTooltip.obj
00489b2e 00000001 .rdata            UTooltip.obj
00489b2f 00000019 .rdata            UTooltip.obj
00489b48 00000001 .rdata            UTooltip.obj
00489b49 00000001 .rdata            UTooltip.obj
00489b4a 00000001 .rdata            UTooltip.obj
00489b4b 00000001 .rdata            UTooltip.obj
00489b4c 00000001 .rdata            UTooltip.obj
00489b4d 00000001 .rdata            UTooltip.obj
00489b4e 00000001 .rdata            UTooltip.obj
00489b4f 00000001 .rdata            GrafTypes.obj
00489b50 00000001 .rdata            GrafTypes.obj
00489b51 00000001 .rdata            GrafTypes.obj
00489b52 00000001 .rdata            GrafTypes.obj
00489b53 00000001 .rdata            GrafTypes.obj
00489b54 00000001 .rdata            GrafTypes.obj
00489b55 00000001 .rdata            GrafTypes.obj
00489b56 00000001 .rdata            GrafTypes.obj
00489b57 00000001 .rdata            GrafTypes.obj
00489b58 00000001 .rdata            GrafTypes.obj
00489b59 00000001 .rdata            GrafTypes.obj
00489b5a 00000001 .rdata            GrafTypes.obj
00489b5b 00000001 .rdata            GrafTypes.obj
00489b5c 00000001 .rdata            UKeyboard.obj
00489b5d 00000001 .rdata            UDateTime.obj
00489b60 00000010 .rdata            obj\i386\shguids.obj(_IID_IShellLinkA)
00489b70 00000010 .rdata            obj\i386\shguids.obj(_CLSID_ShellLink)
00489b80 00000010 .rdata            obj\i386\objidl_i.obj(_IID_IDataObject)
00489b90 00000010 .rdata            obj\i386\objidl_i.obj(_IID_IEnumFORMATETC)
00489ba0 00000010 .rdata            obj\i386\objidl_i.obj(_IID_IPersistFile)
00489bb0 00000001 .rdata            globdest.obj
00489bb1 00000001 .rdata            UMessageSys.obj
00489bb2 00000001 .rdata            UMessageSys.obj
00489bb3 00000001 .rdata            UMessageSys.obj
00489bb4 00000033 .rdata            UMessageSys.obj
00489be7 00000001 .rdata            UMessageSys.obj
00489be8 00000001 .rdata            UMessageSys.obj
00489be9 0000005f .rdata            UMessageSys.obj
00489c48 00000001 .rdata            CPictureView.obj
00489c49 00000001 .rdata            CPictureView.obj
00489c4a 00000001 .rdata            CPictureView.obj
00489c4b 00000001 .rdata            CPictureView.obj
00489c4c 00000053 .rdata            UClipboard(W).obj
00489c9f 0000003b .rdata            UClipboard(W).obj
00489cda 00000001 .rdata            UClipboard(W).obj
00489cdb 00000001 .rdata            UText(W).obj
00489cdc 00000001 .rdata            NMWException.obj
00489cdd 00000001 .rdata            NMWException.obj
00489cde 00000001 .rdata            NMWException.obj
00489cdf 00000001 .rdata            NMWException.obj
00489ce0 00000001 .rdata            NMWException.obj
00489ce1 00000001 .rdata            NMWException.obj
00489ce4 00000028 .rdata            NMWException.obj(@438)
00489d0c 00000001 .rdata            NMWException.obj
00489d0d 00000001 .rdata            runinit.obj
00489d0e 00000001 .rdata            runinit.obj
00489d0f 00000001 .rdata            UMath(W).obj
00489d10 00000001 .rdata            UMath(W).obj
00489d11 00000001 .rdata            UMath(W).obj
00489d12 00000001 .rdata            UMath(W).obj
00489d13 00000001 .rdata            UMath(W).obj
00489d14 00000001 .rdata            UUserInterface.obj
00489d15 00000001 .rdata            UUserInterface.obj
00489d16 00000001 .rdata            UUserInterface.obj
00489d17 00000001 .rdata            UUserInterface.obj
00489d18 00000001 .rdata            UUserInterface.obj
00489d19 00000001 .rdata            UScrollBar.obj
00489d1a 00000001 .rdata            UScrollBar.obj
00489d1b 00000001 .rdata            UScrollBar.obj
00489d1c 00000001 .rdata            UScrollBar.obj
00489d1d 00000001 .rdata            UScrollBar.obj
00489d1e 00000001 .rdata            UScrollBar.obj
00489d1f 00000001 .rdata            UScrollBar.obj
00489d20 0000001c .rdata            UScrollBar.obj(@7937)
00489d3c 00000001 .rdata            UScrollBar.obj
00489d3d 00000001 .rdata            UBitString.obj
00489d3e 00000001 .rdata            UBitString.obj
00489d3f 00000001 .rdata            UBitString.obj
00489d40 00000001 .rdata            UBitString.obj
00489d41 00000001 .rdata            UBitString.obj
00489d42 00000019 .rdata            UPixmap.obj
00489d5b 00000001 .rdata            UPixmap.obj
00489d5c 0000003f .rdata            UPixmap.obj
00489d9c 00000080 .rdata            UPixmap.obj(@8252)
00489e1c 00000001 .rdata            UPixmap.obj
00489e1d 00000001 .rdata            UPixmap.obj
00489e1e 00000001 .rdata            UPixmap.obj
00489e1f 00000001 .rdata            UCheckBox(W).obj
00489e20 00000001 .rdata            UCheckBox(W).obj
00489e21 00000001 .rdata            UCheckBox(W).obj
00489e22 00000001 .rdata            UCheckBox(W).obj
00489e23 00000001 .rdata            UButton.obj
00489e24 00000001 .rdata            UButton.obj
00489e25 00000001 .rdata            UButton.obj
00489e26 00000001 .rdata            UButton.obj
00489e27 00000001 .rdata            UIconButton.obj
00489e28 00000001 .rdata            UIconButton.obj
00489e29 00000001 .rdata            UIconButton.obj
00489e2a 00000001 .rdata            UIconButton.obj
00489e2b 00000001 .rdata            UIconButton.obj
00489e2c 00000001 .rdata            excrtl.obj
00489e2d 00000001 .rdata            excrtl.obj
00489e2e 00000001 .rdata            excrtl.obj
00489e2f 00000001 .rdata            excrtl.obj
00489e30 00000001 .rdata            exchand.obj
00489e31 00000001 .rdata            exchand.obj
00489e34 000001c0 .rdata            startup.win32.obj(@153)
00489ff4 00000001 .rdata            setupargs.obj
00489ff5 00000001 .rdata            setupargs.obj
00489ff6 00000001 .rdata            setupargs.obj
00489ff7 00000001 .rdata            setupargs.obj
00489ff8 00000001 .rdata            setupargs.obj
00489ff9 00000001 .rdata            QTDispatcherW.obj
00489ffa 00000001 .rdata            QTDispatcherW.obj
00489ffb 00000001 .rdata            QTDispatcherW.obj
00489ffc 00000001 .rdata            CDataHandlerComponent.obj
00489ffd 00000001 .rdata            CDataHandlerComponent.obj
00489ffe 00000001 .rdata            CDataHandlerComponent.obj
00489fff 00000001 .rdata            CDataHandlerComponent.obj
0048a000 00000001 .rdata            CDataHandlerComponent.obj
0048a001 00000001 .rdata            CDataHandlerComponent.obj
0048a002 00000001 .rdata            CDataHandlerComponent.obj
0048a003 00000001 .rdata            CDataHandlerComponent.obj
0048a004 00000001 .rdata            CDataHandlerComponent.obj
0048a005 00000001 .rdata            CDataHandlerComponent.obj
0048a006 00000001 .rdata            CDataHandlerComponent.obj
0048a007 00000001 .rdata            CDataHandlerComponent.obj
0048a008 00000001 .rdata            CDataHandlerComponent.obj
0048a009 00000001 .rdata            CDataHandlerComponent.obj
0048a00a 00000001 .rdata            CDataHandlerComponent.obj
0048a00b 00000001 .rdata            CDataHandlerComponent.obj
0048a00c 00000001 .rdata            CDataHandlerComponent.obj
0048a00d 00000001 .rdata            CDataHandlerComponent.obj
0048a00e 00000001 .rdata            CDataHandlerComponent.obj
0048a00f 00000001 .rdata            CDataHandlerComponent.obj
0048a010 00000001 .rdata            CDataHandlerComponent.obj
0048a011 00000001 .rdata            CDataHandlerComponent.obj
0048a012 00000001 .rdata            CDataHandlerComponent.obj
0048a013 00000001 .rdata            CDataHandlerComponent.obj
0048a014 00000001 .rdata            CDataHandlerComponent.obj
0048a015 00000001 .rdata            CDataHandlerComponent.obj
0048a016 00000001 .rdata            CDataHandlerComponent.obj
0048a017 00000001 .rdata            CDataHandlerComponent.obj
0048a018 00000001 .rdata            CDataHandlerComponent.obj
0048a019 00000001 .rdata            CDataHandlerComponent.obj
0048a01a 00000001 .rdata            CDataHandlerComponent.obj
0048a01b 00000001 .rdata            CDataHandlerComponent.obj
0048a01c 00000001 .rdata            CDataHandlerComponent.obj
0048a01d 00000001 .rdata            CDataHandlerComponent.obj
0048a01e 00000001 .rdata            CDataHandlerComponent.obj
0048a01f 00000001 .rdata            CDataHandlerComponent.obj
0048a020 00000001 .rdata            CDataHandlerComponent.obj
0048a021 00000001 .rdata            CDataHandlerComponent.obj
0048a022 00000001 .rdata            CDataHandlerComponent.obj
0048a023 00000001 .rdata            CDataHandlerComponent.obj
0048a024 00000001 .rdata            CDataHandlerComponent.obj
0048a025 00000001 .rdata            CDataHandlerComponent.obj
0048a026 00000001 .rdata            CDataHandlerComponent.obj
0048a027 00000001 .rdata            CDataHandlerComponent.obj
0048a028 00000001 .rdata            CDataHandlerComponent.obj
0048a029 0000001d .rdata            CDataHandlerComponent.obj
0048a046 0000001d .rdata            CDataHandlerComponent.obj
0048a063 00000001 .rdata            CDataHandlerComponent.obj
0048a064 00000001 .rdata            CDataHandlerComponent.obj
0048a065 00000001 .rdata            CDataHandlerComponent.obj
0048a066 00000001 .rdata            CDataHandlerComponent.obj
0048a067 00000001 .rdata            CDataHandlerComponent.obj
0048a068 00000001 .rdata            CDataHandlerComponent.obj
0048a069 00000001 .rdata            CDataHandlerComponent.obj
0048a06a 00000001 .rdata            CDataHandlerComponent.obj
0048a06b 00000001 .rdata            CDataHandlerComponent.obj
0048a06c 00000001 .rdata            CDataHandlerComponent.obj
0048a06d 00000001 .rdata            CDataHandlerComponent.obj
0048a06e 00000001 .rdata            CDataHandlerComponent.obj
0048a06f 00000001 .rdata            CDataHandlerComponent.obj
0048a070 00000001 .rdata            CDataHandlerComponent.obj
0048a071 00000001 .rdata            CDataHandlerComponent.obj
0048a072 00000001 .rdata            CDataHandlerComponent.obj
0048a073 00000001 .rdata            CDataHandlerComponent.obj
0048a074 00000001 .rdata            CDataHandlerComponent.obj
0048a075 00000001 .rdata            CDataHandlerComponent.obj
0048a076 00000001 .rdata            CDataHandlerComponent.obj
0048a077 00000001 .rdata            CDataHandlerComponent.obj
0048a078 00000001 .rdata            CDataHandlerComponent.obj
0048a079 00000001 .rdata            CDataHandlerComponent.obj
0048a07a 00000001 .rdata            CDataHandlerComponent.obj
0048a07b 00000001 .rdata            CDataHandlerComponent.obj
0048a07c 00000001 .rdata            CDataHandlerComponent.obj
0048a07d 00000039 .rdata            CDataHandlerComponent.obj
0048a0b6 00000001 .rdata            CDataHandlerComponent.obj
0048a0b7 00000001 .rdata            CDataHandlerComponent.obj
0048a0b8 00000001 .rdata            CDataHandlerComponent.obj
0048a0b9 00000001 .rdata            CDataHandlerComponent.obj
0048a0ba 00000001 .rdata            CDataHandlerComponent.obj
0048a0bb 00000001 .rdata            CDataHandlerComponent.obj
0048a0bc 00000001 .rdata            CDataHandlerComponent.obj
0048a0bd 00000001 .rdata            CDataHandlerComponent.obj
0048a0be 00000001 .rdata            CDataHandlerComponent.obj
0048a0bf 00000001 .rdata            CDataHandlerComponent.obj
0048a0c0 00000001 .rdata            CDataHandlerComponent.obj
0048a0c1 00000001 .rdata            CDataHandlerComponent.obj
0048a0c2 00000001 .rdata            CDataHandlerComponent.obj
0048a0c3 00000001 .rdata            CDataHandlerComponent.obj
0048a0c4 00000015 .rdata            CDataHandlerComponent.obj
0048a0d9 00000001 .rdata            CDataHandlerComponent.obj
0048a0da 00000001 .rdata            CDataHandlerComponent.obj
0048a0db 00000001 .rdata            CDataHandlerComponent.obj
0048a0dc 00000001 .rdata            CDataHandlerComponent.obj
0048a0dd 00000001 .rdata            CDataHandlerComponent.obj
0048a0de 00000001 .rdata            CDataHandlerComponent.obj
0048a0df 00000001 .rdata            CDataHandlerComponent.obj
0048a0e0 00000001 .rdata            CDataHandlerComponent.obj
0048a0e1 00000001 .rdata            CDataHandlerComponent.obj
0048a0e2 00000001 .rdata            CDataHandlerComponent.obj
0048a0e3 00000001 .rdata            CDataHandlerComponent.obj
0048a0e4 00000001 .rdata            CDataHandlerComponent.obj
0048a0e5 00000001 .rdata            CDataHandlerComponent.obj
0048a0e6 00000001 .rdata            CDataHandlerComponent.obj
0048a0e7 00000001 .rdata            CDataHandlerComponent.obj
0048a0e8 00000001 .rdata            CDataHandlerComponent.obj
0048a0e9 00000001 .rdata            CDataHandlerComponent.obj
0048a0ea 00000001 .rdata            CDataHandlerComponent.obj
0048a0eb 00000001 .rdata            CDataHandlerComponent.obj
0048a0ec 00000001 .rdata            CDataHandlerComponent.obj
0048a0ed 00000001 .rdata            CDataHandlerComponent.obj
0048a0ee 00000001 .rdata            CDataHandlerComponent.obj
0048a0ef 00000001 .rdata            CDataHandlerComponent.obj
0048a0f0 00000001 .rdata            CDataHandlerComponent.obj
0048a0f1 00000001 .rdata            CDataHandlerComponent.obj
0048a0f2 00000001 .rdata            CDataHandlerComponent.obj
0048a0f3 00000001 .rdata            CDataHandlerComponent.obj
0048a0f4 00000001 .rdata            CDataHandlerComponent.obj
0048a0f5 00000001 .rdata            CDataHandlerComponent.obj
0048a0f6 0000002b .rdata            CDataHandlerComponent.obj
0048a121 00000001 .rdata            CDataHandlerComponent.obj
0048a122 00000001 .rdata            CDataHandlerComponent.obj
0048a123 00000001 .rdata            CDataHandlerComponent.obj
0048a124 00000001 .rdata            CDataHandlerComponent.obj
0048a125 00000001 .rdata            CDataHandlerComponent.obj
0048a126 00000001 .rdata            CDataHandlerComponent.obj
0048a127 00000001 .rdata            CDataHandlerComponent.obj
0048a128 00000001 .rdata            CDataHandlerComponent.obj
0048a129 00000001 .rdata            CDataHandlerComponent.obj
0048a12a 00000001 .rdata            CDataHandlerComponent.obj
0048a12b 00000001 .rdata            CDataHandlerComponent.obj
0048a12c 00000001 .rdata            CDataHandlerComponent.obj
0048a12d 00000001 .rdata            CDataHandlerComponent.obj
0048a12e 00000001 .rdata            CDataHandlerComponent.obj
0048a12f 00000001 .rdata            CDataHandlerComponent.obj
0048a130 00000001 .rdata            CDataHandlerComponent.obj
0048a131 00000001 .rdata            CDataHandlerComponent.obj
0048a132 00000001 .rdata            CDataHandlerComponent.obj
0048a133 00000001 .rdata            CDataHandlerComponent.obj
0048a134 00000001 .rdata            CDataHandlerComponent.obj
0048a135 00000001 .rdata            CDataHandlerComponent.obj
0048a136 00000001 .rdata            CDataHandlerComponent.obj
0048a137 00000001 .rdata            CDataHandlerComponent.obj
0048a138 00000010 .rdata            obj\i386\unknwn_i.obj(_IID_IClassFactory)
0048a148 00000010 .rdata            obj\i386\unknwn_i.obj(_IID_IUnknown)
0048a158 00000010 .rdata            obj\i386\oaidl_i.obj(_IID_IDispatch)
0048a168 00000001 .rdata            newarrop.obj
0048a170 00000010 .rdata            obj\i386\oleidl_i.obj(_IID_IDropTarget)
0048a180 00000001 .rdata            UScrollBar(W).obj
0048a181 00000001 .rdata            UScrollBar(W).obj
0048a182 00000001 .rdata            UScrollBar(W).obj
0048a183 00000001 .rdata            UScrollBar(W).obj
0048a184 00000001 .rdata            UScrollBar(W).obj
0048a185 00000001 .rdata            UScrollBar(W).obj
0048a186 00000001 .rdata            UScrollBar(W).obj
0048a187 00000001 .rdata            UScrollBar(W).obj
0048a188 00000001 .rdata            UScrollBar(W).obj
0048a189 00000001 .rdata            UButton(W).obj
0048a18a 00000001 .rdata            UButton(W).obj
0048a18b 00000001 .rdata            UButton(W).obj
0048a18c 00000001 .rdata            UButton(W).obj
0048a18d 00000001 .rdata            UButton(W).obj
0048a18e 00000001 .rdata            UButton(W).obj
0048a18f 00000001 .rdata            UButton(W).obj
0048a190 00000001 .rdata            UIconButton(W).obj
0048a191 00000001 .rdata            UIconButton(W).obj
0048a192 00000001 .rdata            UIconButton(W).obj
0048a193 00000001 .rdata            UIconButton(W).obj
0048a194 00000001 .rdata            UIconButton(W).obj
0048a195 00000001 .rdata            CMutex_W.obj
0048a196 00000001 .rdata            CMutex_W.obj
0048a197 00000001 .rdata            CMutex_W.obj
0048a198 00000001 .rdata            CMutex_W.obj
0048a199 00000001 .rdata            CMutex_W.obj
0048a19a 00000001 .rdata            CMutex_W.obj
0048a19b 00000001 .rdata            CMutex_W.obj
0048a19c 00000001 .rdata            CMutex_W.obj
0048a19d 00000019 .rdata            CThreadManager.obj
0048a1b6 00000001 .rdata            CThreadManager.obj
0048a1b7 00000001 .rdata            CThreadManager.obj
0048a1b8 00000001 .rdata            CThreadManager.obj
0048a1b9 00000001 .rdata            CThreadManager.obj
0048a1ba 00000001 .rdata            CThreadManager.obj
0048a1bb 00000001 .rdata            CThreadManager.obj
0048a1bc 00000033 .rdata            CThreadManager.obj
0048a1ef 00000001 .rdata            CThreadManager.obj
0048a1f0 00000001 .rdata            CThreadManager.obj
0048a1f1 00000001 .rdata            CThreadManager.obj
0048a1f2 00000001 .rdata            CThreadManager.obj
0048a1f3 00000001 .rdata            CThreadManager.obj
0048a1f4 00000001 .rdata            CThreadManager.obj
0048a1f5 00000001 .rdata            CThreadManager.obj
0048a1f6 00000001 .rdata            CThreadManager.obj
0048a1f7 00000001 .rdata            CThreadManager.obj
0048a1f8 00000029 .rdata            CThreadManager.obj
0048a221 00000001 .rdata            CThreadManager.obj
0048a222 00000001 .rdata            CThreadManager.obj
0048a223 00000001 .rdata            CThreadManager.obj
0048a224 00000001 .rdata            CThreadManager.obj
0048a225 00000001 .rdata            CThreadManager.obj
0048a226 00000001 .rdata            CThreadManager.obj
0048a227 00000001 .rdata            CThreadManager.obj
0048a228 00000001 .rdata            CThreadManager.obj
0048a229 00000001 .rdata            CThreadManager.obj
0048a22a 00000001 .rdata            CThreadManager.obj
0048a22b 00000001 .rdata            CThreadManager.obj
0048a22c 00000001 .rdata            CThreadManager.obj
0048a22d 00000001 .rdata            CThreadManager.obj
0048a22e 00000001 .rdata            CThreadManager.obj
0048a22f 00000001 .rdata            CThreadManager.obj
0048a230 00000001 .rdata            CThreadManager.obj
0048a231 00000001 .rdata            CThreadManager.obj
0048a232 00000001 .rdata            CThreadManager.obj
0048a233 00000001 .rdata            CThreadManager.obj
0048a234 00000001 .rdata            CThreadManager.obj
0048a235 00000001 .rdata            CThreadManager.obj
0048a236 00000001 .rdata            CThreadManager.obj
0048a237 00000001 .rdata            CThreadManager.obj
0048a238 00000015 .rdata            CThreadManager.obj
0048a24d 00000001 .rdata            CThreadManager.obj
0048a24e 00000001 .rdata            CThreadManager.obj
0048a24f 00000001 .rdata            CThreadManager.obj
0048a250 00000001 .rdata            CThreadManager.obj
0048a251 00000001 .rdata            CThreadManager.obj
0048a252 00000001 .rdata            CThreadManager.obj
0048a253 00000001 .rdata            CThreadManager.obj
0048a254 00000001 .rdata            CThreadManager.obj
0048a255 00000001 .rdata            CThreadManager.obj
0048a256 00000001 .rdata            CThreadManager.obj
0048a257 00000001 .rdata            CThreadManager.obj
0048a258 00000001 .rdata            CThreadManager.obj
0048a259 00000001 .rdata            CThreadManager.obj
0048a25a 00000001 .rdata            CThreadManager.obj
0048a25b 00000001 .rdata            CThreadManager.obj
0048a25c 00000001 .rdata            CThreadManager.obj
0048a25d 00000001 .rdata            CThreadManager.obj
0048a25e 00000001 .rdata            CThreadManager.obj
0048a25f 00000033 .rdata            CThreadManager.obj
0048a292 00000001 .rdata            CThreadManager.obj
0048a293 00000001 .rdata            CThreadManager.obj
0048a294 00000001 .rdata            CThreadManager.obj
0048a295 00000001 .rdata            CThreadManager.obj
0048a296 00000001 .rdata            CDataProvider.obj
0048a297 00000001 .rdata            CDataProvider.obj
0048a298 00000001 .rdata            CDataProvider.obj
0048a299 00000025 .rdata            CString_W.obj
0048a2be 00000019 .rdata            CString_W.obj
0048a2d7 00000001 .rdata            UStringConverter.obj
0048a2d8 00000021 .rdata            UStringConverter.obj
0048a2f9 00000001 .rdata            UStringConverter.obj
0048a2fa 00000001 .rdata            compiler_math.obj
0048a2fc 0000000c .rdata            file_io.win32.obj(@154)
0048a308 00000025 .rdata            CException.obj
0048a32d 00000001 .rdata            CException.obj
0048a32e 00000001 .rdata            CException.obj
0048a32f 00000019 .rdata            CException.obj
0048a348 00000039 .rdata            CException.obj
0048a381 00000001 .rdata            CException.obj
0048a382 00000001 .rdata            CException.obj
0048a383 00000001 .rdata            CException.obj
0048a384 00000001 .rdata            CException.obj
0048a385 00000001 .rdata            CException.obj
0048a386 00000001 .rdata            CException.obj
0048a387 00000001 .rdata            CException.obj
0048a388 00000019 .rdata            CException.obj
0048a3a1 00000001 .rdata            CException.obj
0048a3a2 00000001 .rdata            CException.obj
0048a3a3 00000001 .rdata            CException.obj
0048a3a4 00000001 .rdata            CException.obj
0048a3a5 00000001 .rdata            CThread_W.obj
0048a3a6 00000001 .rdata            CThread_W.obj
0048a3a7 000000db .rdata            CListener.obj
0048a482 00000001 .rdata            CListener.obj
0048a483 00000001 .rdata            CListener.obj
0048a484 00000001 .rdata            CListener.obj
0048a485 00000001 .rdata            CListener.obj
0048a486 00000001 .rdata            CListener.obj
0048a487 0000005f .rdata            CListener.obj
0048a4e6 00000001 .rdata            CListener.obj
0048a4e7 00000001 .rdata            CListener.obj
0048a4e8 00000001 .rdata            CListener.obj
0048a4e9 00000001 .rdata            CListener.obj
0048a4ea 00000001 .rdata            CListener.obj
0048a4eb 00000001 .rdata            CListener.obj
0048a4ec 00000001 .rdata            CListener.obj
0048a4ed 00000001 .rdata            CListener.obj
0048a4ee 00000001 .rdata            CListener.obj
0048a4ef 00000001 .rdata            CListener.obj
0048a4f0 0000002d .rdata            CListener.obj
0048a51d 00000001 .rdata            CListener.obj
0048a51e 00000001 .rdata            CListener.obj
0048a51f 00000001 .rdata            CListener.obj
0048a520 00000001 .rdata            CListener.obj
0048a521 00000001 .rdata            CListener.obj
0048a522 00000001 .rdata            CListener.obj
0048a523 00000001 .rdata            CListener.obj
0048a524 00000001 .rdata            CListener.obj
0048a525 00000091 .rdata            CListener.obj
0048a5b6 00000001 .rdata            CListener.obj
0048a5b7 00000001 .rdata            CListener.obj
0048a5b8 00000001 .rdata            CListener.obj
0048a5b9 00000001 .rdata            CListener.obj
0048a5ba 00000001 .rdata            CListener.obj
0048a5bb 00000001 .rdata            CListener.obj
0048a5bc 00000001 .rdata            CListener.obj
0048a5bd 00000001 .rdata            CListener.obj
0048a5be 00000001 .rdata            CListener.obj
0048a5bf 00000001 .rdata            CListener.obj
0048a5c0 00000001 .rdata            CListener.obj
0048a5c1 00000001 .rdata            CBroadcaster.obj
0048a5c2 00000001 .rdata            CBroadcaster.obj
0048a5c3 00000001 .rdata            CBroadcaster.obj
0048a5c4 00000001 .rdata            CBroadcaster.obj
0048a5c5 00000001 .rdata            CBroadcaster.obj
0048a5c6 00000001 .rdata            CBroadcaster.obj
0048a5c7 00000001 .rdata            CBroadcaster.obj
0048a5c8 00000001 .rdata            CBroadcaster.obj
0048a5c9 00000001 .rdata            CBroadcaster.obj
0048a5ca 00000001 .rdata            CBroadcaster.obj
0048a5cb 00000001 .rdata            CBroadcaster.obj
0048a5cc 00000001 .rdata            CBroadcaster.obj
0048a5cd 00000001 .rdata            CBroadcaster.obj
0048a5ce 000000bb .rdata            CBroadcaster.obj
0048a689 00000001 .rdata            CBroadcaster.obj
0048a68a 00000001 .rdata            CBroadcaster.obj
0048a68b 00000001 .rdata            CBroadcaster.obj
0048a68c 00000001 .rdata            CBroadcaster.obj
0048a68d 00000001 .rdata            CBroadcaster.obj
0048a68e 00000001 .rdata            CBroadcaster.obj
0048a68f 00000001 .rdata            CBroadcaster.obj
0048a690 00000001 .rdata            CBroadcaster.obj
0048a691 00000001 .rdata            CBroadcaster.obj
0048a692 00000001 .rdata            CBroadcaster.obj
0048a693 00000001 .rdata            CBroadcaster.obj
0048a694 00000001 .rdata            CBroadcaster.obj
0048a695 00000001 .rdata            CBroadcaster.obj
0048a696 00000001 .rdata            CBroadcaster.obj
0048a697 00000001 .rdata            CBroadcaster.obj
0048a698 00000001 .rdata            CBroadcaster.obj
0048a699 00000001 .rdata            CBroadcaster.obj
0048a69a 00000001 .rdata            CBroadcaster.obj
0048a69b 00000001 .rdata            CBroadcaster.obj
0048a69c 00000001 .rdata            CBroadcaster.obj
0048a69d 0000003b .rdata            CBroadcaster.obj
0048a6d8 00000001 .rdata            CBroadcaster.obj
0048a6d9 00000001 .rdata            CBroadcaster.obj
0048a6da 00000015 .rdata            CBroadcaster.obj
0048a6ef 00000001 .rdata            CBroadcaster.obj
0048a6f0 00000001 .rdata            CBroadcaster.obj
0048a6f1 00000001 .rdata            CBroadcaster.obj
0048a6f2 00000001 .rdata            CBroadcaster.obj
0048a6f3 00000001 .rdata            CBroadcaster.obj
0048a6f4 00000001 .rdata            CSyncTCPStreamBuffer.obj
0048a6f5 00000001 .rdata            CSyncTCPStreamBuffer.obj
0048a6f6 00000001 .rdata            CSyncTCPStreamBuffer.obj
0048a6f7 00000001 .rdata            CSyncTCPStreamBuffer.obj
0048a6f8 00000001 .rdata            CStreamBuffer.obj
0048a6f9 00000001 .rdata            CStreamBuffer.obj
0048a6fa 00000001 .rdata            CStreamBuffer.obj
0048a6fb 00000099 .rdata            CStreamBuffer.obj
0048a794 00000001 .rdata            CStreamBuffer.obj
0048a795 00000001 .rdata            UAWError_W.obj
0048a796 00000001 .rdata            CMessageWrangler.obj
0048a797 00000001 .rdata            CMessageWrangler.obj
0048a798 00000001 .rdata            CMessageWrangler.obj
0048a799 00000001 .rdata            CMessageWrangler.obj
0048a79a 00000001 .rdata            CMessageWrangler.obj
0048a79b 00000001 .rdata            CMessageWrangler.obj
0048a79c 000000d3 .rdata            CMessageWrangler.obj
0048a86f 00000001 .rdata            CMessageWrangler.obj
0048a870 00000001 .rdata            CMessageWrangler.obj
0048a871 000000eb .rdata            CMessageWrangler.obj
0048a95c 00000001 .rdata            CMessageWrangler.obj
0048a95d 00000001 .rdata            CMessageWrangler.obj
0048a95e 00000001 .rdata            CMessageWrangler.obj
0048a95f 00000001 .rdata            CMessageWrangler.obj
0048a960 00000001 .rdata            CMessageWrangler.obj
0048a961 00000001 .rdata            CMessageWrangler.obj
0048a962 00000001 .rdata            CMessageWrangler.obj
0048a963 00000001 .rdata            CMessageWrangler.obj
0048a964 00000001 .rdata            CMessageWrangler.obj
0048a965 00000001 .rdata            CMessageWrangler.obj
0048a966 00000001 .rdata            CMessageWrangler.obj
0048a967 00000001 .rdata            CMessageWrangler.obj
0048a968 00000001 .rdata            CMessageWrangler.obj
0048a969 00000001 .rdata            CMessageWrangler.obj
0048a96a 00000001 .rdata            CMessageWrangler.obj
0048a96b 00000001 .rdata            CMessageWrangler.obj
0048a96c 00000001 .rdata            CMessageWrangler.obj
0048a96d 00000001 .rdata            CMessageWrangler.obj
0048a96e 00000001 .rdata            CMessageWrangler.obj
0048a96f 00000001 .rdata            CFSLocalFileRefWin.obj
0048a970 00000001 .rdata            CFSLocalFileRefWin.obj
0048a971 00000001 .rdata            CFSLocalFileRefWin.obj
0048a972 00000001 .rdata            CFSLocalFileRefWin.obj
0048a973 00000001 .rdata            CFSLocalFileRefWin.obj
0048a974 00000001 .rdata            CFSLocalFileRefWin.obj
0048a975 00000001 .rdata            CFSLocalFileRefWin.obj
0048a976 00000001 .rdata            CMemoryObjectCache.obj
0048a977 00000001 .rdata            CMemoryObjectCache.obj
0048a978 00000001 .rdata            CMemoryObjectCache.obj
0048a979 00000001 .rdata            CMemoryObjectCache.obj
0048a97a 00000001 .rdata            CFlattenable.obj
0048a97b 00000001 .rdata            CFlattenable.obj
0048a97c 00000001 .rdata            CFlattenable.obj
0048a97d 00000001 .rdata            CFlattenable.obj
0048a97e 00000001 .rdata            CFlattenable.obj
0048a97f 00000001 .rdata            CFlattenable.obj
0048a980 00000001 .rdata            CFlattenable.obj
0048a984 00000004 .rdata            CFlattenable.obj(@9201)
0048a988 00000099 .rdata            CFlattenable.obj
0048aa21 00000001 .rdata            CFlattenable.obj
0048aa22 00000019 .rdata            CFlattenable.obj
0048aa3b 00000019 .rdata            CFlattenable.obj
0048aa54 00000001 .rdata            CGenericObject.obj
0048aa55 00000001 .rdata            CGenericObject.obj
0048aa56 00000001 .rdata            CGenericObject.obj
0048aa57 0000001d .rdata            CStringObject.obj
0048aa74 00000001 .rdata            CStringObject.obj
0048aa75 00000099 .rdata            CStringObject.obj
0048ab0e 00000099 .rdata            CStringObject.obj
0048aba7 00000001 .rdata            CStringObject.obj
0048aba8 00000001 .rdata            CStringObject.obj
0048aba9 0000001d .rdata            CResourceList.obj
0048abc6 00000001 .rdata            CResourceList.obj
0048abc7 00000001 .rdata            CResourceList.obj
0048abc8 00000001 .rdata            CResourceList.obj
0048abc9 00000001 .rdata            CResourceList.obj
0048abca 00000001 .rdata            CResourceList.obj
0048abcb 00000001 .rdata            CResourceList.obj
0048abcc 00000001 .rdata            CResourceList.obj
0048abcd 00000001 .rdata            CResourceList.obj
0048abce 00000001 .rdata            CResourceList.obj
0048abcf 00000099 .rdata            CResourceList.obj
0048ac68 00000099 .rdata            CResourceList.obj
0048ad01 00000001 .rdata            CResourceList.obj
0048ad02 00000001 .rdata            CResourceList.obj
0048ad03 00000001 .rdata            CResourceList.obj
0048ad04 00000001 .rdata            CResourceList.obj
0048ad05 00000001 .rdata            CResourceList.obj
0048ad06 00000001 .rdata            CResourceList.obj
0048ad07 00000001 .rdata            CResourceList.obj
0048ad08 00000001 .rdata            CResourceList.obj
0048ad09 00000001 .rdata            CResourceList.obj
0048ad0a 00000079 .rdata            CResourceList.obj
0048ad83 00000001 .rdata            CResourceList.obj
0048ad84 00000001 .rdata            CResourceList.obj
0048ad85 00000001 .rdata            CResourceList.obj
0048ad86 00000001 .rdata            CResourceList.obj
0048ad87 00000001 .rdata            CResourceList.obj
0048ad88 00000001 .rdata            CResourceList.obj
0048ad89 00000001 .rdata            CResourceList.obj
0048ad8a 00000001 .rdata            CResourceList.obj
0048ad8b 00000001 .rdata            CResourceList.obj
0048ad8c 00000001 .rdata            CResourceList.obj
0048ad8d 00000001 .rdata            CResourceList.obj
0048ad8e 00000001 .rdata            CResourceList.obj
0048ad8f 00000001 .rdata            CResourceList.obj
0048ad90 00000001 .rdata            CResourceList.obj
0048ad91 00000001 .rdata            CResourceList.obj
0048ad92 00000001 .rdata            CResourceList.obj
0048ad93 00000001 .rdata            CResourceList.obj
0048ad94 00000001 .rdata            CResourceList.obj
0048ad95 00000001 .rdata            CResourceList.obj
0048ad96 00000001 .rdata            CResourceList.obj
0048ad97 00000015 .rdata            CResourceList.obj
0048adac 00000001 .rdata            CResourceList.obj
0048adad 00000001 .rdata            CResourceList.obj
0048adae 00000001 .rdata            CResourceList.obj
0048adaf 00000001 .rdata            CResourceList.obj
0048adb0 00000001 .rdata            CResourceList.obj
0048adb1 00000001 .rdata            CResourceList.obj
0048adb2 00000001 .rdata            CResourceList.obj
0048adb3 00000001 .rdata            CResourceList.obj
0048adb4 00000001 .rdata            CResourceList.obj
0048adb5 00000049 .rdata            CResourceList.obj
0048adfe 00000001 .rdata            CResourceList.obj
0048adff 00000001 .rdata            CResourceList.obj
0048ae00 00000001 .rdata            CResourceList.obj
0048ae01 00000001 .rdata            CResourceList.obj
0048ae04 0000001c .rdata            
0048b000 00000000 .exc     $AAA     cexc.obj
0048b000 00000008 .exc     $BBB     HotlineServ.cp
0048b008 00000008 .exc     $BBB     HotlineServ.cp
0048b010 00000008 .exc     $BBB     HotlineServ.cp
0048b018 00000008 .exc     $BBB     HotlineServ.cp
0048b020 00000008 .exc     $BBB     HotlineServ.cp
0048b028 00000008 .exc     $BBB     HotlineServ.cp
0048b030 00000008 .exc     $BBB     HotlineServ.cp
0048b038 00000008 .exc     $BBB     HotlineServ.cp
0048b040 00000008 .exc     $BBB     HotlineServ.cp
0048b048 00000008 .exc     $BBB     HotlineServ.cp
0048b050 00000008 .exc     $BBB     HotlineServ.cp
0048b058 00000008 .exc     $BBB     HotlineServ.cp
0048b060 00000008 .exc     $BBB     HotlineServ.cp
0048b068 00000008 .exc     $BBB     HotlineServ.cp
0048b070 00000008 .exc     $BBB     HotlineServ.cp
0048b078 00000008 .exc     $BBB     HotlineServ.cp
0048b080 00000008 .exc     $BBB     HotlineServ.cp
0048b088 00000008 .exc     $BBB     HotlineServ.cp
0048b090 00000008 .exc     $BBB     HotlineServ.cp
0048b098 00000008 .exc     $BBB     HotlineServ.cp
0048b0a0 00000008 .exc     $BBB     HotlineServ.cp
0048b0a8 00000008 .exc     $BBB     HotlineServ.cp
0048b0b0 00000008 .exc     $BBB     HotlineServ.cp
0048b0b8 00000008 .exc     $BBB     HotlineServ.cp
0048b0c0 00000008 .exc     $BBB     HotlineServ.cp
0048b0c8 00000008 .exc     $BBB     HotlineServ.cp
0048b0d0 00000008 .exc     $BBB     HotlineServ.cp
0048b0d8 00000008 .exc     $BBB     HotlineServ.cp
0048b0e0 00000008 .exc     $BBB     HotlineServ.cp
0048b0e8 00000008 .exc     $BBB     HotlineServ.cp
0048b0f0 00000008 .exc     $BBB     HotlineServ.cp
0048b0f8 00000008 .exc     $BBB     HotlineServ.cp
0048b100 00000008 .exc     $BBB     HotlineServ.cp
0048b108 00000008 .exc     $BBB     HotlineServ.cp
0048b110 00000008 .exc     $BBB     HotlineServ.cp
0048b118 00000008 .exc     $BBB     HotlineServ.cp
0048b120 00000008 .exc     $BBB     HotlineServ.cp
0048b128 00000008 .exc     $BBB     HotlineServ.cp
0048b130 00000008 .exc     $BBB     HotlineServ.cp
0048b138 00000008 .exc     $BBB     HotlineServ.cp
0048b140 00000008 .exc     $BBB     HotlineServ.cp
0048b148 00000008 .exc     $BBB     HotlineServ.cp
0048b150 00000008 .exc     $BBB     HotlineServ.cp
0048b158 00000008 .exc     $BBB     HotlineServ.cp
0048b160 00000008 .exc     $BBB     HotlineServ.cp
0048b168 00000008 .exc     $BBB     HotlineServ.cp
0048b170 00000008 .exc     $BBB     HotlineServ.cp
0048b178 00000008 .exc     $BBB     HotlineServ.cp
0048b180 00000008 .exc     $BBB     HotlineServ.cp
0048b188 00000008 .exc     $BBB     HotlineServ.cp
0048b190 00000008 .exc     $BBB     HotlineServ.cp
0048b198 00000008 .exc     $BBB     HotlineServ.cp
0048b1a0 00000008 .exc     $BBB     HotlineServ.cp
0048b1a8 00000008 .exc     $BBB     HotlineServ.cp
0048b1b0 00000008 .exc     $BBB     HotlineServ.cp
0048b1b8 00000008 .exc     $BBB     HotlineServ.cp
0048b1c0 00000008 .exc     $BBB     HotlineServ.cp
0048b1c8 00000008 .exc     $BBB     HotlineServ.cp
0048b1d0 00000008 .exc     $BBB     HotlineServ.cp
0048b1d8 00000008 .exc     $BBB     HotlineServ.cp
0048b1e0 00000008 .exc     $BBB     HotlineServ.cp
0048b1e8 00000008 .exc     $BBB     HotlineServ.cp
0048b1f0 00000008 .exc     $BBB     HotlineServ.cp
0048b1f8 00000008 .exc     $BBB     HotlineServ.cp
0048b200 00000008 .exc     $BBB     HotlineServ.cp
0048b208 00000008 .exc     $BBB     HotlineServ.cp
0048b210 00000008 .exc     $BBB     HotlineServ.cp
0048b218 00000008 .exc     $BBB     HotlineServ.cp
0048b220 00000008 .exc     $BBB     HotlineServ.cp
0048b228 00000008 .exc     $BBB     HotlineServ.cp
0048b230 00000008 .exc     $BBB     HotlineServ.cp
0048b238 00000008 .exc     $BBB     HotlineServ.cp
0048b240 00000008 .exc     $BBB     HotlineServ.cp
0048b248 00000008 .exc     $BBB     HotlineServ.cp
0048b250 00000008 .exc     $BBB     HotlineServ.cp
0048b258 00000008 .exc     $BBB     HotlineServ.cp
0048b260 00000008 .exc     $BBB     HotlineServ.cp
0048b268 00000008 .exc     $BBB     HotlineServ.cp
0048b270 00000008 .exc     $BBB     HotlineServ.cp
0048b278 00000008 .exc     $BBB     HotlineServ.cp
0048b280 00000008 .exc     $BBB     HotlineServ.cp
0048b288 00000008 .exc     $BBB     HotlineServ.cp
0048b290 00000008 .exc     $BBB     HotlineServ.cp
0048b298 00000008 .exc     $BBB     HotlineServ.cp
0048b2a0 00000008 .exc     $BBB     HotlineServ.cp
0048b2a8 00000008 .exc     $BBB     HotlineServ.cp
0048b2b0 00000008 .exc     $BBB     HotlineServ.cp
0048b2b8 00000008 .exc     $BBB     HotlineServ.cp
0048b2c0 00000008 .exc     $BBB     HotlineServ.cp
0048b2c8 00000008 .exc     $BBB     HotlineServ.cp
0048b2d0 00000008 .exc     $BBB     HotlineServ.cp
0048b2d8 00000008 .exc     $BBB     HotlineServ.cp
0048b2e0 00000008 .exc     $BBB     HotlineServ.cp
0048b2e8 00000008 .exc     $BBB     HotlineServ.cp
0048b2f0 00000008 .exc     $BBB     HotlineServ.cp
0048b2f8 00000008 .exc     $BBB     HotlineServ.cp
0048b300 00000008 .exc     $BBB     HotlineServ.cp
0048b308 00000008 .exc     $BBB     HotlineServ.cp
0048b310 00000008 .exc     $BBB     HotlineServ.cp
0048b318 00000008 .exc     $BBB     HotlineServ.cp
0048b320 00000008 .exc     $BBB     HotlineServ.cp
0048b328 00000008 .exc     $BBB     HotlineServ.cp
0048b330 00000008 .exc     $BBB     HotlineServ.cp
0048b338 00000008 .exc     $BBB     HotlineServ.cp
0048b340 00000008 .exc     $BBB     HotlineServ.cp
0048b348 00000008 .exc     $BBB     HotlineServ.cp
0048b350 00000008 .exc     $BBB     HotlineServ.cp
0048b358 00000008 .exc     $BBB     HotlineServ.cp
0048b360 00000008 .exc     $BBB     HotlineServ.cp
0048b368 00000008 .exc     $BBB     HotlineServ.cp
0048b370 00000008 .exc     $BBB     HotlineServ.cp
0048b378 00000008 .exc     $BBB     HotlineServ.cp
0048b380 00000008 .exc     $BBB     HotlineServ.cp
0048b388 00000008 .exc     $BBB     HotlineServ.cp
0048b390 00000008 .exc     $BBB     HotlineServ.cp
0048b398 00000008 .exc     $BBB     HotlineServ.cp
0048b3a0 00000008 .exc     $BBB     HotlineServ.cp
0048b3a8 00000008 .exc     $BBB     HotlineServ.cp
0048b3b0 00000008 .exc     $BBB     HotlineServ.cp
0048b3b8 00000008 .exc     $BBB     HotlineServ.cp
0048b3c0 00000008 .exc     $BBB     HotlineServ.cp
0048b3c8 00000008 .exc     $BBB     HotlineServ.cp
0048b3d0 00000008 .exc     $BBB     HotlineServ.cp
0048b3d8 00000008 .exc     $BBB     HotlineServ.cp
0048b3e0 00000008 .exc     $BBB     HotlineServ.cp
0048b3e8 00000008 .exc     $BBB     HotlineServ.cp
0048b3f0 00000008 .exc     $BBB     HotlineServ.cp
0048b3f8 00000008 .exc     $BBB     HotlineServ.cp
0048b400 00000008 .exc     $BBB     HotlineServ.cp
0048b408 00000008 .exc     $BBB     HotlineServ.cp
0048b410 00000008 .exc     $BBB     HotlineServ.cp
0048b418 00000008 .exc     $BBB     HotlineServ.cp
0048b420 00000008 .exc     $BBB     HotlineServ.cp
0048b428 00000008 .exc     $BBB     HotlineServ.cp
0048b430 00000008 .exc     $BBB     HotlineServ.cp
0048b438 00000008 .exc     $BBB     HotlineServ.cp
0048b440 00000008 .exc     $BBB     HotlineServ.cp
0048b448 00000008 .exc     $BBB     HotlineServ.cp
0048b450 00000008 .exc     $BBB     HotlineServ.cp
0048b458 00000008 .exc     $BBB     HotlineServ.cp
0048b460 00000008 .exc     $BBB     HotlineServ.cp
0048b468 00000008 .exc     $BBB     HotlineServ.cp
0048b470 00000008 .exc     $BBB     HotlineServ.cp
0048b478 00000008 .exc     $BBB     HotlineServ.cp
0048b480 00000008 .exc     $BBB     HotlineServ.cp
0048b488 00000008 .exc     $BBB     HotlineServ.cp
0048b490 00000008 .exc     $BBB     HotlineServ.cp
0048b498 00000008 .exc     $BBB     HotlineServ.cp
0048b4a0 00000008 .exc     $BBB     HotlineServ.cp
0048b4a8 00000008 .exc     $BBB     HotlineServ.cp
0048b4b0 00000008 .exc     $BBB     HotlineServ.cp
0048b4b8 00000008 .exc     $BBB     HotlineServ.cp
0048b4c0 00000008 .exc     $BBB     HotlineServ.cp
0048b4c8 00000008 .exc     $BBB     HotlineServ.cp
0048b4d0 00000008 .exc     $BBB     HotlineServ.cp
0048b4d8 00000008 .exc     $BBB     HotlineServ.cp
0048b4e0 00000008 .exc     $BBB     HotlineServ.cp
0048b4e8 00000008 .exc     $BBB     HotlineServ.cp
0048b4f0 00000008 .exc     $BBB     HotlineServ.cp
0048b4f8 00000008 .exc     $BBB     HotlineServ.cp
0048b500 00000008 .exc     $BBB     HotlineServ.cp
0048b508 00000008 .exc     $BBB     HotlineServ.cp
0048b510 00000008 .exc     $BBB     HotlineServ.cp
0048b518 00000008 .exc     $BBB     HotlineServ.cp
0048b520 00000008 .exc     $BBB     HotlineServ.cp
0048b528 00000008 .exc     $BBB     HotlineServ.cp
0048b530 00000008 .exc     $BBB     HotlineServTrans.cp
0048b538 00000008 .exc     $BBB     HotlineServTrans.cp
0048b540 00000008 .exc     $BBB     HotlineServTrans.cp
0048b548 00000008 .exc     $BBB     HotlineServTrans.cp
0048b550 00000008 .exc     $BBB     HotlineServTrans.cp
0048b558 00000008 .exc     $BBB     HotlineServTrans.cp
0048b560 00000008 .exc     $BBB     HotlineServTrans.cp
0048b568 00000008 .exc     $BBB     HotlineServTrans.cp
0048b570 00000008 .exc     $BBB     HotlineServTrans.cp
0048b578 00000008 .exc     $BBB     HotlineServTrans.cp
0048b580 00000008 .exc     $BBB     HotlineServTrans.cp
0048b588 00000008 .exc     $BBB     HotlineServTrans.cp
0048b590 00000008 .exc     $BBB     HotlineServTrans.cp
0048b598 00000008 .exc     $BBB     HotlineServTrans.cp
0048b5a0 00000008 .exc     $BBB     HotlineServTrans.cp
0048b5a8 00000008 .exc     $BBB     HotlineServTrans.cp
0048b5b0 00000008 .exc     $BBB     HotlineServTrans.cp
0048b5b8 00000008 .exc     $BBB     HotlineServTrans.cp
0048b5c0 00000008 .exc     $BBB     HotlineServTrans.cp
0048b5c8 00000008 .exc     $BBB     HotlineServTrans.cp
0048b5d0 00000008 .exc     $BBB     HotlineServTrans.cp
0048b5d8 00000008 .exc     $BBB     HotlineServTrans.cp
0048b5e0 00000008 .exc     $BBB     HotlineServTrans.cp
0048b5e8 00000008 .exc     $BBB     HotlineServTrans.cp
0048b5f0 00000008 .exc     $BBB     HotlineServTrans.cp
0048b5f8 00000008 .exc     $BBB     HotlineServTrans.cp
0048b600 00000008 .exc     $BBB     HotlineServTrans.cp
0048b608 00000008 .exc     $BBB     HotlineServTrans.cp
0048b610 00000008 .exc     $BBB     HotlineServTrans.cp
0048b618 00000008 .exc     $BBB     HotlineServTrans.cp
0048b620 00000008 .exc     $BBB     HotlineServTrans.cp
0048b628 00000008 .exc     $BBB     HotlineServTrans.cp
0048b630 00000008 .exc     $BBB     HotlineServTrans.cp
0048b638 00000008 .exc     $BBB     HotlineServTrans.cp
0048b640 00000008 .exc     $BBB     HotlineServTrans.cp
0048b648 00000008 .exc     $BBB     HotlineServTrans.cp
0048b650 00000008 .exc     $BBB     HotlineServTrans.cp
0048b658 00000008 .exc     $BBB     HotlineServTrans.cp
0048b660 00000008 .exc     $BBB     HotlineServTrans.cp
0048b668 00000008 .exc     $BBB     HotlineServTrans.cp
0048b670 00000008 .exc     $BBB     HotlineServTrans.cp
0048b678 00000008 .exc     $BBB     HotlineServTrans.cp
0048b680 00000008 .exc     $BBB     HotlineServTrans.cp
0048b688 00000008 .exc     $BBB     HotlineServTrans.cp
0048b690 00000008 .exc     $BBB     HotlineServTrans.cp
0048b698 00000008 .exc     $BBB     HotlineServTrans.cp
0048b6a0 00000008 .exc     $BBB     HotlineServTrans.cp
0048b6a8 00000008 .exc     $BBB     HotlineServTrans.cp
0048b6b0 00000008 .exc     $BBB     HotlineServTrans.cp
0048b6b8 00000008 .exc     $BBB     HotlineServTrans.cp
0048b6c0 00000008 .exc     $BBB     HotlineServViews.cp
0048b6c8 00000008 .exc     $BBB     HotlineServViews.cp
0048b6d0 00000008 .exc     $BBB     HotlineServViews.cp
0048b6d8 00000008 .exc     $BBB     HotlineServViews.cp
0048b6e0 00000008 .exc     $BBB     HotlineServViews.cp
0048b6e8 00000008 .exc     $BBB     HotlineServViews.cp
0048b6f0 00000008 .exc     $BBB     HotlineServViews.cp
0048b6f8 00000008 .exc     $BBB     HotlineServViews.cp
0048b700 00000008 .exc     $BBB     HotlineServViews.cp
0048b708 00000008 .exc     $BBB     HotlineServViews.cp
0048b710 00000008 .exc     $BBB     HotlineServViews.cp
0048b718 00000008 .exc     $BBB     HotlineServViews.cp
0048b720 00000008 .exc     $BBB     HotlineServViews.cp
0048b728 00000008 .exc     $BBB     HotlineServViews.cp
0048b730 00000008 .exc     $BBB     HotlineServViews.cp
0048b738 00000008 .exc     $BBB     HotlineServViews.cp
0048b740 00000008 .exc     $BBB     HotlineServViews.cp
0048b748 00000008 .exc     $BBB     HotlineServViews.cp
0048b750 00000008 .exc     $BBB     HotlineServViews.cp
0048b758 00000008 .exc     $BBB     HotlineServViews.cp
0048b760 00000008 .exc     $BBB     HotlineServViews.cp
0048b768 00000008 .exc     $BBB     HotlineServViews.cp
0048b770 00000008 .exc     $BBB     HotlineServViews.cp
0048b778 00000008 .exc     $BBB     HotlineServViews.cp
0048b780 00000008 .exc     $BBB     HotlineServViews.cp
0048b788 00000008 .exc     $BBB     HotlineServViews.cp
0048b790 00000008 .exc     $BBB     HotlineServViews.cp
0048b798 00000008 .exc     $BBB     HotlineServViews.cp
0048b7a0 00000008 .exc     $BBB     HotlineServViews.cp
0048b7a8 00000008 .exc     $BBB     HotlineServViews.cp
0048b7b0 00000008 .exc     $BBB     HotlineServViews.cp
0048b7b8 00000008 .exc     $BBB     HotlineServViews.cp
0048b7c0 00000008 .exc     $BBB     HotlineServViews.cp
0048b7c8 00000008 .exc     $BBB     HotlineServViews.cp
0048b7d0 00000008 .exc     $BBB     HotlineServViews.cp
0048b7d8 00000008 .exc     $BBB     HotlineServViews.cp
0048b7e0 00000008 .exc     $BBB     HotlineServViews.cp
0048b7e8 00000008 .exc     $BBB     HotlineServViews.cp
0048b7f0 00000008 .exc     $BBB     HotlineServViews.cp
0048b7f8 00000008 .exc     $BBB     HotlineServViews.cp
0048b800 00000008 .exc     $BBB     HotlineServViews.cp
0048b808 00000008 .exc     $BBB     HotlineServViews.cp
0048b810 00000008 .exc     $BBB     HotlineServViews.cp
0048b818 00000008 .exc     $BBB     HotlineServViews.cp
0048b820 00000008 .exc     $BBB     HotlineServViews.cp
0048b828 00000008 .exc     $BBB     HotlineServViews.cp
0048b830 00000008 .exc     $BBB     HotlineServViews.cp
0048b838 00000008 .exc     $BBB     HotlineServViews.cp
0048b840 00000008 .exc     $BBB     HotlineServViews.cp
0048b848 00000008 .exc     $BBB     HotlineServViews.cp
0048b850 00000008 .exc     $BBB     HotlineServViews.cp
0048b858 00000008 .exc     $BBB     HotlineServViews.cp
0048b860 00000008 .exc     $BBB     HotlineServViews.cp
0048b868 00000008 .exc     $BBB     HotlineServViews.cp
0048b870 00000008 .exc     $BBB     HotlineServViews.cp
0048b878 00000008 .exc     $BBB     HotlineServViews.cp
0048b880 00000008 .exc     $BBB     HotlineServViews.cp
0048b888 00000008 .exc     $BBB     HotlineServWindows.cp
0048b890 00000008 .exc     $BBB     HotlineServWindows.cp
0048b898 00000008 .exc     $BBB     HotlineServWindows.cp
0048b8a0 00000008 .exc     $BBB     HotlineServWindows.cp
0048b8a8 00000008 .exc     $BBB     HotlineServWindows.cp
0048b8b0 00000008 .exc     $BBB     HotlineServWindows.cp
0048b8b8 00000008 .exc     $BBB     HotlineServWindows.cp
0048b8c0 00000008 .exc     $BBB     HotlineServWindows.cp
0048b8c8 00000008 .exc     $BBB     HotlineServWindows.cp
0048b8d0 00000008 .exc     $BBB     HotlineServWindows.cp
0048b8d8 00000008 .exc     $BBB     HotlineServWindows.cp
0048b8e0 00000008 .exc     $BBB     HotlineServWindows.cp
0048b8e8 00000008 .exc     $BBB     HotlineServWindows.cp
0048b8f0 00000008 .exc     $BBB     HotlineServWindows.cp
0048b8f8 00000008 .exc     $BBB     HotlineServWindows.cp
0048b900 00000008 .exc     $BBB     HotlineServWindows.cp
0048b908 00000008 .exc     $BBB     HotlineServWindows.cp
0048b910 00000008 .exc     $BBB     HotlineServWindows.cp
0048b918 00000008 .exc     $BBB     HotlineServWindows.cp
0048b920 00000008 .exc     $BBB     HotlineServWindows.cp
0048b928 00000008 .exc     $BBB     HotlineServWindows.cp
0048b930 00000008 .exc     $BBB     HotlineServWindows.cp
0048b938 00000008 .exc     $BBB     HotlineServWindows.cp
0048b940 00000008 .exc     $BBB     HotlineServWindows.cp
0048b948 00000008 .exc     $BBB     HotlineServWindows.cp
0048b950 00000008 .exc     $BBB     HotlineServWindows.cp
0048b958 00000008 .exc     $BBB     HotlineServWindows.cp
0048b960 00000008 .exc     $BBB     HotlineServWindows.cp
0048b968 00000008 .exc     $BBB     HotlineServWindows.cp
0048b970 00000008 .exc     $BBB     HotlineServWindows.cp
0048b978 00000008 .exc     $BBB     HotlineServWindows.cp
0048b980 00000008 .exc     $BBB     HotlineServWindows.cp
0048b988 00000008 .exc     $BBB     HotlineServWindows.cp
0048b990 00000008 .exc     $BBB     HotlineServWindows.cp
0048b998 00000008 .exc     $BBB     HotlineServWindows.cp
0048b9a0 00000008 .exc     $BBB     HotlineServWindows.cp
0048b9a8 00000008 .exc     $BBB     HotlineServWindows.cp
0048b9b0 00000008 .exc     $BBB     HotlineServWindows.cp
0048b9b8 00000008 .exc     $BBB     HotlineServWindows.cp
0048b9c0 00000008 .exc     $BBB     HotlineServWindows.cp
0048b9c8 00000008 .exc     $BBB     HotlineServWindows.cp
0048b9d0 00000008 .exc     $BBB     HotlineServWindows.cp
0048b9d8 00000008 .exc     $BBB     HotlineServWindows.cp
0048b9e0 00000008 .exc     $BBB     HotlineServWindows.cp
0048b9e8 00000008 .exc     $BBB     HotlineServWindows.cp
0048b9f0 00000008 .exc     $BBB     HotlineServMisc.cp
0048b9f8 00000008 .exc     $BBB     HotlineServNewsDatabase.cp
0048ba00 00000008 .exc     $BBB     HotlineServNewsDatabase.cp
0048ba08 00000008 .exc     $BBB     HotlineServNewsDatabase.cp
0048ba10 00000008 .exc     $BBB     HotlineServNewsDatabase.cp
0048ba18 00000008 .exc     $BBB     HotlineServNewsDatabase.cp
0048ba20 00000008 .exc     $BBB     HotlineServNewsDatabase.cp
0048ba28 00000008 .exc     $BBB     HotlineServNewsDatabase.cp
0048ba30 00000008 .exc     $BBB     HotlineServNewsDatabase.cp
0048ba38 00000008 .exc     $BBB     HotlineServNewsDatabase.cp
0048ba40 00000008 .exc     $BBB     HotlineServNewsDatabase.cp
0048ba48 00000008 .exc     $BBB     HotlineServNewsDatabase.cp
0048ba50 00000008 .exc     $BBB     HotlineServNewsDatabase.cp
0048ba58 00000008 .exc     $BBB     HotlineServNewsDatabase.cp
0048ba60 00000008 .exc     $BBB     HotlineServNewsDatabase.cp
0048ba68 00000008 .exc     $BBB     HotlineServNewsDatabase.cp
0048ba70 00000008 .exc     $BBB     HotlineServNewsDatabase.cp
0048ba78 00000008 .exc     $BBB     HotlineServNewsDatabase.cp
0048ba80 00000008 .exc     $BBB     HotlineServNewsDatabase.cp
0048ba88 00000008 .exc     $BBB     HotlineServNewsDatabase.cp
0048ba90 00000008 .exc     $BBB     HotlineServNewsDatabase.cp
0048ba98 00000008 .exc     $BBB     HotlineServNewsDatabase.cp
0048baa0 00000008 .exc     $BBB     HotlineServNewsDatabase.cp
0048baa8 00000008 .exc     $BBB     HotlineServNewsDatabase.cp
0048bab0 00000008 .exc     $BBB     HotlineServNewsDatabase.cp
0048bab8 00000008 .exc     $BBB     HotlineServNewsDatabase.cp
0048bac0 00000008 .exc     $BBB     HotlineServNewsDatabase.cp
0048bac8 00000008 .exc     $BBB     HotlineServNewsDatabase.cp
0048bad0 00000008 .exc     $BBB     HotlineServNewsDatabase.cp
0048bad8 00000008 .exc     $BBB     HotlineServNewsDatabase.cp
0048bae0 00000008 .exc     $BBB     HotlineFolderDownload.cp
0048bae8 00000008 .exc     $BBB     HotlineFolderDownload.cp
0048baf0 00000008 .exc     $BBB     HotlineFolderDownload.cp
0048baf8 00000008 .exc     $BBB     HotlineFolderDownload.cp
0048bb00 00000008 .exc     $BBB     HotlineFolderDownload.cp
0048bb08 00000008 .exc     $BBB     HotlineFolderDownload.cp
0048bb10 00000008 .exc     $BBB     HotlineFolderDownload.cp
0048bb18 00000008 .exc     $BBB     HotlineFolderDownload.cp
0048bb20 00000008 .exc     $BBB     HotlineFolderDownload.cp
0048bb28 00000008 .exc     $BBB     HotlineFolderDownload.cp
0048bb30 00000008 .exc     $BBB     HotlineFolderDownload.cp
0048bb38 00000008 .exc     $BBB     HotlineFolderDownload.cp
0048bb40 00000008 .exc     $BBB     UOperatingSystem(W).obj
0048bb48 00000008 .exc     $BBB     UOperatingSystem(W).obj
0048bb50 00000008 .exc     $BBB     UOperatingSystem(W).obj
0048bb58 00000008 .exc     $BBB     UOperatingSystem(W).obj
0048bb60 00000008 .exc     $BBB     UTransport.obj
0048bb68 00000008 .exc     $BBB     UTransport.obj
0048bb70 00000008 .exc     $BBB     UTransport.obj
0048bb78 00000008 .exc     $BBB     UTransport.obj
0048bb80 00000008 .exc     $BBB     UTransport.obj
0048bb88 00000008 .exc     $BBB     UTransport.obj
0048bb90 00000008 .exc     $BBB     UTransport.obj
0048bb98 00000008 .exc     $BBB     UTransport.obj
0048bba0 00000008 .exc     $BBB     UTransport.obj
0048bba8 00000008 .exc     $BBB     UTransport.obj
0048bbb0 00000008 .exc     $BBB     UTransport.obj
0048bbb8 00000008 .exc     $BBB     UTransport.obj
0048bbc0 00000008 .exc     $BBB     UTransport.obj
0048bbc8 00000008 .exc     $BBB     UTransport.obj
0048bbd0 00000008 .exc     $BBB     UTransport.obj
0048bbd8 00000008 .exc     $BBB     UTransport.obj
0048bbe0 00000008 .exc     $BBB     UTransport.obj
0048bbe8 00000008 .exc     $BBB     UTransport.obj
0048bbf0 00000008 .exc     $BBB     UTransport.obj
0048bbf8 00000008 .exc     $BBB     UTransport.obj
0048bc00 00000008 .exc     $BBB     UTransport.obj
0048bc08 00000008 .exc     $BBB     UTransport.obj
0048bc10 00000008 .exc     $BBB     UTransport.obj
0048bc18 00000008 .exc     $BBB     UTransport.obj
0048bc20 00000008 .exc     $BBB     UTransport.obj
0048bc28 00000008 .exc     $BBB     UTransport.obj
0048bc30 00000008 .exc     $BBB     UTransport.obj
0048bc38 00000008 .exc     $BBB     UTransport.obj
0048bc40 00000008 .exc     $BBB     UTransport.obj
0048bc48 00000008 .exc     $BBB     UTransport.obj
0048bc50 00000008 .exc     $BBB     UTransport.obj
0048bc58 00000008 .exc     $BBB     UTransport.obj
0048bc60 00000008 .exc     $BBB     UTransport.obj
0048bc68 00000008 .exc     $BBB     UError.obj
0048bc70 00000008 .exc     $BBB     UError.obj
0048bc78 00000008 .exc     $BBB     UError.obj
0048bc80 00000008 .exc     $BBB     UError.obj
0048bc88 00000008 .exc     $BBB     URez.obj
0048bc90 00000008 .exc     $BBB     URez.obj
0048bc98 00000008 .exc     $BBB     URez.obj
0048bca0 00000008 .exc     $BBB     URez.obj
0048bca8 00000008 .exc     $BBB     URez.obj
0048bcb0 00000008 .exc     $BBB     URez.obj
0048bcb8 00000008 .exc     $BBB     URez.obj
0048bcc0 00000008 .exc     $BBB     URez.obj
0048bcc8 00000008 .exc     $BBB     URez.obj
0048bcd0 00000008 .exc     $BBB     URez.obj
0048bcd8 00000008 .exc     $BBB     URez.obj
0048bce0 00000008 .exc     $BBB     URez.obj
0048bce8 00000008 .exc     $BBB     URez.obj
0048bcf0 00000008 .exc     $BBB     URez.obj
0048bcf8 00000008 .exc     $BBB     URez.obj
0048bd00 00000008 .exc     $BBB     URez.obj
0048bd08 00000008 .exc     $BBB     URez.obj
0048bd10 00000008 .exc     $BBB     URez.obj
0048bd18 00000008 .exc     $BBB     UMemory.obj
0048bd20 00000008 .exc     $BBB     UMemory.obj
0048bd28 00000008 .exc     $BBB     UMemory.obj
0048bd30 00000008 .exc     $BBB     UMemory.obj
0048bd38 00000008 .exc     $BBB     UMemory.obj
0048bd40 00000008 .exc     $BBB     UMemory.obj
0048bd48 00000008 .exc     $BBB     UMemory.obj
0048bd50 00000008 .exc     $BBB     UMemory.obj
0048bd58 00000008 .exc     $BBB     UMemory.obj
0048bd60 00000008 .exc     $BBB     UMemory.obj
0048bd68 00000008 .exc     $BBB     UMemory.obj
0048bd70 00000008 .exc     $BBB     UMemory.obj
0048bd78 00000008 .exc     $BBB     UMemory.obj
0048bd80 00000008 .exc     $BBB     UMemory.obj
0048bd88 00000008 .exc     $BBB     UMemory.obj
0048bd90 00000008 .exc     $BBB     UMemory.obj
0048bd98 00000008 .exc     $BBB     UMemory.obj
0048bda0 00000008 .exc     $BBB     UError(W).obj
0048bda8 00000008 .exc     $BBB     UError(W).obj
0048bdb0 00000008 .exc     $BBB     UError(W).obj
0048bdb8 00000008 .exc     $BBB     UError(W).obj
0048bdc0 00000008 .exc     $BBB     UError(W).obj
0048bdc8 00000008 .exc     $BBB     UError(W).obj
0048bdd0 00000008 .exc     $BBB     UError(W).obj
0048bdd8 00000008 .exc     $BBB     destroy.obj
0048bde0 00000008 .exc     $BBB     CApplication.obj
0048bde8 00000008 .exc     $BBB     CApplication.obj
0048bdf0 00000008 .exc     $BBB     CApplication.obj
0048bdf8 00000008 .exc     $BBB     CApplication.obj
0048be00 00000008 .exc     $BBB     CApplication.obj
0048be08 00000008 .exc     $BBB     CApplication.obj
0048be10 00000008 .exc     $BBB     CApplication.obj
0048be18 00000008 .exc     $BBB     CApplication.obj
0048be20 00000008 .exc     $BBB     CApplication.obj
0048be28 00000008 .exc     $BBB     CApplication.obj
0048be30 00000008 .exc     $BBB     CApplication.obj
0048be38 00000008 .exc     $BBB     CApplication.obj
0048be40 00000008 .exc     $BBB     CApplication.obj
0048be48 00000008 .exc     $BBB     CApplication.obj
0048be50 00000008 .exc     $BBB     CApplication.obj
0048be58 00000008 .exc     $BBB     CApplication.obj
0048be60 00000008 .exc     $BBB     CPtrList.obj
0048be68 00000008 .exc     $BBB     CPtrList.obj
0048be70 00000008 .exc     $BBB     CPtrList.obj
0048be78 00000008 .exc     $BBB     CPtrList.obj
0048be80 00000008 .exc     $BBB     CPtrList.obj
0048be88 00000008 .exc     $BBB     CPtrList.obj
0048be90 00000008 .exc     $BBB     CPtrList.obj
0048be98 00000008 .exc     $BBB     CPtrList.obj
0048bea0 00000008 .exc     $BBB     CPtrList.obj
0048bea8 00000008 .exc     $BBB     USound(W).obj
0048beb0 00000008 .exc     $BBB     USound(W).obj
0048beb8 00000008 .exc     $BBB     USound(W).obj
0048bec0 00000008 .exc     $BBB     USound(W).obj
0048bec8 00000008 .exc     $BBB     USound(W).obj
0048bed0 00000008 .exc     $BBB     USound(W).obj
0048bed8 00000008 .exc     $BBB     USound(W).obj
0048bee0 00000008 .exc     $BBB     USound(W).obj
0048bee8 00000008 .exc     $BBB     USound.obj
0048bef0 00000008 .exc     $BBB     USound.obj
0048bef8 00000008 .exc     $BBB     USound.obj
0048bf00 00000008 .exc     $BBB     USound.obj
0048bf08 00000008 .exc     $BBB     UWindow(W).obj
0048bf10 00000008 .exc     $BBB     UWindow(W).obj
0048bf18 00000008 .exc     $BBB     UWindow(W).obj
0048bf20 00000008 .exc     $BBB     UWindow(W).obj
0048bf28 00000008 .exc     $BBB     UWindow(W).obj
0048bf30 00000008 .exc     $BBB     UWindow(W).obj
0048bf38 00000008 .exc     $BBB     UWindow(W).obj
0048bf40 00000008 .exc     $BBB     UWindow(W).obj
0048bf48 00000008 .exc     $BBB     UWindow(W).obj
0048bf50 00000008 .exc     $BBB     UWindow(W).obj
0048bf58 00000008 .exc     $BBB     UWindow(W).obj
0048bf60 00000008 .exc     $BBB     UWindow(W).obj
0048bf68 00000008 .exc     $BBB     UWindow(W).obj
0048bf70 00000008 .exc     $BBB     UWindow(W).obj
0048bf78 00000008 .exc     $BBB     UWindow(W).obj
0048bf80 00000008 .exc     $BBB     UWindow(W).obj
0048bf88 00000008 .exc     $BBB     UWindow(W).obj
0048bf90 00000008 .exc     $BBB     UWindow(W).obj
0048bf98 00000008 .exc     $BBB     UWindow(W).obj
0048bfa0 00000008 .exc     $BBB     UWindow(W).obj
0048bfa8 00000008 .exc     $BBB     UWindow(W).obj
0048bfb0 00000008 .exc     $BBB     UWindow(W).obj
0048bfb8 00000008 .exc     $BBB     UWindow(W).obj
0048bfc0 00000008 .exc     $BBB     UWindow(W).obj
0048bfc8 00000008 .exc     $BBB     UWindow(W).obj
0048bfd0 00000008 .exc     $BBB     UWindow(W).obj
0048bfd8 00000008 .exc     $BBB     UWindow(W).obj
0048bfe0 00000008 .exc     $BBB     UWindow(W).obj
0048bfe8 00000008 .exc     $BBB     UWindow(W).obj
0048bff0 00000008 .exc     $BBB     UWindow(W).obj
0048bff8 00000008 .exc     $BBB     UWindow(W).obj
0048c000 00000008 .exc     $BBB     UWindow(W).obj
0048c008 00000008 .exc     $BBB     UWindow(W).obj
0048c010 00000008 .exc     $BBB     UWindow(W).obj
0048c018 00000008 .exc     $BBB     UWindow(W).obj
0048c020 00000008 .exc     $BBB     UWindow(W).obj
0048c028 00000008 .exc     $BBB     UWindow(W).obj
0048c030 00000008 .exc     $BBB     UWindow(W).obj
0048c038 00000008 .exc     $BBB     UWindow(W).obj
0048c040 00000008 .exc     $BBB     UWindow(W).obj
0048c048 00000008 .exc     $BBB     UWindow(W).obj
0048c050 00000008 .exc     $BBB     UWindow(W).obj
0048c058 00000008 .exc     $BBB     UWindow(W).obj
0048c060 00000008 .exc     $BBB     UWindow(W).obj
0048c068 00000008 .exc     $BBB     UWindow(W).obj
0048c070 00000008 .exc     $BBB     UWindow(W).obj
0048c078 00000008 .exc     $BBB     UWindow(W).obj
0048c080 00000008 .exc     $BBB     UWindow(W).obj
0048c088 00000008 .exc     $BBB     UWindow(W).obj
0048c090 00000008 .exc     $BBB     UWindow(W).obj
0048c098 00000008 .exc     $BBB     UWindow(W).obj
0048c0a0 00000008 .exc     $BBB     UWindow(W).obj
0048c0a8 00000008 .exc     $BBB     UWindow(W).obj
0048c0b0 00000008 .exc     $BBB     UWindow(W).obj
0048c0b8 00000008 .exc     $BBB     UWindow(W).obj
0048c0c0 00000008 .exc     $BBB     UWindow(W).obj
0048c0c8 00000008 .exc     $BBB     UWindow(W).obj
0048c0d0 00000008 .exc     $BBB     UWindow(W).obj
0048c0d8 00000008 .exc     $BBB     UWindow(W).obj
0048c0e0 00000008 .exc     $BBB     UWindow(W).obj
0048c0e8 00000008 .exc     $BBB     UWindow(W).obj
0048c0f0 00000008 .exc     $BBB     UWindow(W).obj
0048c0f8 00000008 .exc     $BBB     UWindow(W).obj
0048c100 00000008 .exc     $BBB     UWindow(W).obj
0048c108 00000008 .exc     $BBB     UWindow(W).obj
0048c110 00000008 .exc     $BBB     UTransact.obj
0048c118 00000008 .exc     $BBB     UTransact.obj
0048c120 00000008 .exc     $BBB     UTransact.obj
0048c128 00000008 .exc     $BBB     UTransact.obj
0048c130 00000008 .exc     $BBB     UTransact.obj
0048c138 00000008 .exc     $BBB     UTransact.obj
0048c140 00000008 .exc     $BBB     UTransact.obj
0048c148 00000008 .exc     $BBB     UTransact.obj
0048c150 00000008 .exc     $BBB     UTransact.obj
0048c158 00000008 .exc     $BBB     UTransact.obj
0048c160 00000008 .exc     $BBB     UTransact.obj
0048c168 00000008 .exc     $BBB     UTransact.obj
0048c170 00000008 .exc     $BBB     UTransact.obj
0048c178 00000008 .exc     $BBB     UTransact.obj
0048c180 00000008 .exc     $BBB     UTransact.obj
0048c188 00000008 .exc     $BBB     UTransact.obj
0048c190 00000008 .exc     $BBB     UTransact.obj
0048c198 00000008 .exc     $BBB     UTransact.obj
0048c1a0 00000008 .exc     $BBB     UTransact.obj
0048c1a8 00000008 .exc     $BBB     UTransact.obj
0048c1b0 00000008 .exc     $BBB     UTransact.obj
0048c1b8 00000008 .exc     $BBB     UTransact.obj
0048c1c0 00000008 .exc     $BBB     UTransact.obj
0048c1c8 00000008 .exc     $BBB     UTransact.obj
0048c1d0 00000008 .exc     $BBB     UTransact.obj
0048c1d8 00000008 .exc     $BBB     UTransact.obj
0048c1e0 00000008 .exc     $BBB     UTransact.obj
0048c1e8 00000008 .exc     $BBB     UTransact.obj
0048c1f0 00000008 .exc     $BBB     UTransact.obj
0048c1f8 00000008 .exc     $BBB     UTransact.obj
0048c200 00000008 .exc     $BBB     UTransact.obj
0048c208 00000008 .exc     $BBB     UTransact.obj
0048c210 00000008 .exc     $BBB     UTransact.obj
0048c218 00000008 .exc     $BBB     UTransact.obj
0048c220 00000008 .exc     $BBB     UFileSys(W).obj
0048c228 00000008 .exc     $BBB     UFileSys(W).obj
0048c230 00000008 .exc     $BBB     UFileSys(W).obj
0048c238 00000008 .exc     $BBB     UFileSys(W).obj
0048c240 00000008 .exc     $BBB     UFileSys(W).obj
0048c248 00000008 .exc     $BBB     UFileSys(W).obj
0048c250 00000008 .exc     $BBB     UFileSys(W).obj
0048c258 00000008 .exc     $BBB     UFileSys(W).obj
0048c260 00000008 .exc     $BBB     UFileSys(W).obj
0048c268 00000008 .exc     $BBB     UFileSys(W).obj
0048c270 00000008 .exc     $BBB     UFileSys(W).obj
0048c278 00000008 .exc     $BBB     UFileSys(W).obj
0048c280 00000008 .exc     $BBB     UFileSys(W).obj
0048c288 00000008 .exc     $BBB     UFileSys(W).obj
0048c290 00000008 .exc     $BBB     UFileSys(W).obj
0048c298 00000008 .exc     $BBB     UFileSys(W).obj
0048c2a0 00000008 .exc     $BBB     UFileSys(W).obj
0048c2a8 00000008 .exc     $BBB     UFileSys(W).obj
0048c2b0 00000008 .exc     $BBB     UFileSys(W).obj
0048c2b8 00000008 .exc     $BBB     UFileSys(W).obj
0048c2c0 00000008 .exc     $BBB     UFileSys(W).obj
0048c2c8 00000008 .exc     $BBB     UFileSys(W).obj
0048c2d0 00000008 .exc     $BBB     UFileSys(W).obj
0048c2d8 00000008 .exc     $BBB     UFileSys(W).obj
0048c2e0 00000008 .exc     $BBB     UFileSys(W).obj
0048c2e8 00000008 .exc     $BBB     UFileSys(W).obj
0048c2f0 00000008 .exc     $BBB     UFileSys(W).obj
0048c2f8 00000008 .exc     $BBB     UFileSys(W).obj
0048c300 00000008 .exc     $BBB     UFileSys(W).obj
0048c308 00000008 .exc     $BBB     UFileSys(W).obj
0048c310 00000008 .exc     $BBB     UFileSys(W).obj
0048c318 00000008 .exc     $BBB     UFileSys(W).obj
0048c320 00000008 .exc     $BBB     UFileSys(W).obj
0048c328 00000008 .exc     $BBB     UFileSys(W).obj
0048c330 00000008 .exc     $BBB     UFileSys(W).obj
0048c338 00000008 .exc     $BBB     UFileSys(W).obj
0048c340 00000008 .exc     $BBB     UFileSys(W).obj
0048c348 00000008 .exc     $BBB     UFileSys(W).obj
0048c350 00000008 .exc     $BBB     UFileSys(W).obj
0048c358 00000008 .exc     $BBB     UFileSys(W).obj
0048c360 00000008 .exc     $BBB     UFileSys(W).obj
0048c368 00000008 .exc     $BBB     UFileSys(W).obj
0048c370 00000008 .exc     $BBB     UFileSys(W).obj
0048c378 00000008 .exc     $BBB     UFileSys(W).obj
0048c380 00000008 .exc     $BBB     UFileSys(W).obj
0048c388 00000008 .exc     $BBB     UFileSys(W).obj
0048c390 00000008 .exc     $BBB     UFileSys(W).obj
0048c398 00000008 .exc     $BBB     UFileSys(W).obj
0048c3a0 00000008 .exc     $BBB     UFileSys(W).obj
0048c3a8 00000008 .exc     $BBB     UFileSys(W).obj
0048c3b0 00000008 .exc     $BBB     UFileSys(W).obj
0048c3b8 00000008 .exc     $BBB     UFileSys(W).obj
0048c3c0 00000008 .exc     $BBB     UFileSys(W).obj
0048c3c8 00000008 .exc     $BBB     UFileSys(W).obj
0048c3d0 00000008 .exc     $BBB     UFileSys(W).obj
0048c3d8 00000008 .exc     $BBB     UFileSys(W).obj
0048c3e0 00000008 .exc     $BBB     UFileSys(W).obj
0048c3e8 00000008 .exc     $BBB     UFileSys(W).obj
0048c3f0 00000008 .exc     $BBB     UFileSys(W).obj
0048c3f8 00000008 .exc     $BBB     UFileSys(W).obj
0048c400 00000008 .exc     $BBB     UFileSys(W).obj
0048c408 00000008 .exc     $BBB     UFileSys(W).obj
0048c410 00000008 .exc     $BBB     UFileSys(W).obj
0048c418 00000008 .exc     $BBB     UFileSys(W).obj
0048c420 00000008 .exc     $BBB     UFileSys(W).obj
0048c428 00000008 .exc     $BBB     UFileSys(W).obj
0048c430 00000008 .exc     $BBB     UFileSys(W).obj
0048c438 00000008 .exc     $BBB     UFileSys(W).obj
0048c440 00000008 .exc     $BBB     UFileSys(W).obj
0048c448 00000008 .exc     $BBB     UFileSys(W).obj
0048c450 00000008 .exc     $BBB     UFileSys(W).obj
0048c458 00000008 .exc     $BBB     UFileSys(W).obj
0048c460 00000008 .exc     $BBB     CWindow.obj
0048c468 00000008 .exc     $BBB     CWindow.obj
0048c470 00000008 .exc     $BBB     CWindow.obj
0048c478 00000008 .exc     $BBB     CWindow.obj
0048c480 00000008 .exc     $BBB     CWindow.obj
0048c488 00000008 .exc     $BBB     CWindow.obj
0048c490 00000008 .exc     $BBB     CWindow.obj
0048c498 00000008 .exc     $BBB     CWindow.obj
0048c4a0 00000008 .exc     $BBB     CWindow.obj
0048c4a8 00000008 .exc     $BBB     CWindow.obj
0048c4b0 00000008 .exc     $BBB     CWindow.obj
0048c4b8 00000008 .exc     $BBB     CWindow.obj
0048c4c0 00000008 .exc     $BBB     CWindow.obj
0048c4c8 00000008 .exc     $BBB     CWindow.obj
0048c4d0 00000008 .exc     $BBB     CWindow.obj
0048c4d8 00000008 .exc     $BBB     CWindow.obj
0048c4e0 00000008 .exc     $BBB     CWindow.obj
0048c4e8 00000008 .exc     $BBB     CWindow.obj
0048c4f0 00000008 .exc     $BBB     CWindow.obj
0048c4f8 00000008 .exc     $BBB     CWindow.obj
0048c500 00000008 .exc     $BBB     CWindow.obj
0048c508 00000008 .exc     $BBB     CWindow.obj
0048c510 00000008 .exc     $BBB     CWindow.obj
0048c518 00000008 .exc     $BBB     CWindow.obj
0048c520 00000008 .exc     $BBB     CWindow.obj
0048c528 00000008 .exc     $BBB     CWindow.obj
0048c530 00000008 .exc     $BBB     CWindow.obj
0048c538 00000008 .exc     $BBB     CWindow.obj
0048c540 00000008 .exc     $BBB     CWindow.obj
0048c548 00000008 .exc     $BBB     CWindow.obj
0048c550 00000008 .exc     $BBB     CWindow.obj
0048c558 00000008 .exc     $BBB     CWindow.obj
0048c560 00000008 .exc     $BBB     CWindow.obj
0048c568 00000008 .exc     $BBB     CWindow.obj
0048c570 00000008 .exc     $BBB     CWindow.obj
0048c578 00000008 .exc     $BBB     CWindow.obj
0048c580 00000008 .exc     $BBB     CWindow.obj
0048c588 00000008 .exc     $BBB     CWindow.obj
0048c590 00000008 .exc     $BBB     CWindow.obj
0048c598 00000008 .exc     $BBB     CWindow.obj
0048c5a0 00000008 .exc     $BBB     CWindow.obj
0048c5a8 00000008 .exc     $BBB     CWindow.obj
0048c5b0 00000008 .exc     $BBB     CWindow.obj
0048c5b8 00000008 .exc     $BBB     CWindow.obj
0048c5c0 00000008 .exc     $BBB     CWindow.obj
0048c5c8 00000008 .exc     $BBB     CWindow.obj
0048c5d0 00000008 .exc     $BBB     CWindow.obj
0048c5d8 00000008 .exc     $BBB     CWindow.obj
0048c5e0 00000008 .exc     $BBB     CWindow.obj
0048c5e8 00000008 .exc     $BBB     CWindow.obj
0048c5f0 00000008 .exc     $BBB     CWindow.obj
0048c5f8 00000008 .exc     $BBB     CWindow.obj
0048c600 00000008 .exc     $BBB     CWindow.obj
0048c608 00000008 .exc     $BBB     CWindow.obj
0048c610 00000008 .exc     $BBB     CWindow.obj
0048c618 00000008 .exc     $BBB     CWindow.obj
0048c620 00000008 .exc     $BBB     CWindow.obj
0048c628 00000008 .exc     $BBB     CWindow.obj
0048c630 00000008 .exc     $BBB     CWindow.obj
0048c638 00000008 .exc     $BBB     CWindow.obj
0048c640 00000008 .exc     $BBB     CWindow.obj
0048c648 00000008 .exc     $BBB     CWindow.obj
0048c650 00000008 .exc     $BBB     CWindow.obj
0048c658 00000008 .exc     $BBB     CWindow.obj
0048c660 00000008 .exc     $BBB     CWindow.obj
0048c668 00000008 .exc     $BBB     UKeyboard(W).obj
0048c670 00000008 .exc     $BBB     UKeyboard(W).obj
0048c678 00000008 .exc     $BBB     UKeyboard(W).obj
0048c680 00000008 .exc     $BBB     UText.obj
0048c688 00000008 .exc     $BBB     UText.obj
0048c690 00000008 .exc     $BBB     UText.obj
0048c698 00000008 .exc     $BBB     UText.obj
0048c6a0 00000008 .exc     $BBB     UText.obj
0048c6a8 00000008 .exc     $BBB     UText.obj
0048c6b0 00000008 .exc     $BBB     UText.obj
0048c6b8 00000008 .exc     $BBB     UText.obj
0048c6c0 00000008 .exc     $BBB     UText.obj
0048c6c8 00000008 .exc     $BBB     UText.obj
0048c6d0 00000008 .exc     $BBB     UText.obj
0048c6d8 00000008 .exc     $BBB     UText.obj
0048c6e0 00000008 .exc     $BBB     UText.obj
0048c6e8 00000008 .exc     $BBB     UText.obj
0048c6f0 00000008 .exc     $BBB     UText.obj
0048c6f8 00000008 .exc     $BBB     UText.obj
0048c700 00000008 .exc     $BBB     UText.obj
0048c708 00000008 .exc     $BBB     UText.obj
0048c710 00000008 .exc     $BBB     UTimer(W).obj
0048c718 00000008 .exc     $BBB     UTimer(W).obj
0048c720 00000008 .exc     $BBB     UTimer(W).obj
0048c728 00000008 .exc     $BBB     UTimer(W).obj
0048c730 00000008 .exc     $BBB     UTimer(W).obj
0048c738 00000008 .exc     $BBB     UTimer(W).obj
0048c740 00000008 .exc     $BBB     UTimer(W).obj
0048c748 00000008 .exc     $BBB     UTimer(W).obj
0048c750 00000008 .exc     $BBB     UTimer(W).obj
0048c758 00000008 .exc     $BBB     UApplication(W).obj
0048c760 00000008 .exc     $BBB     UApplication(W).obj
0048c768 00000008 .exc     $BBB     UApplication(W).obj
0048c770 00000008 .exc     $BBB     UApplication(W).obj
0048c778 00000008 .exc     $BBB     UApplication(W).obj
0048c780 00000008 .exc     $BBB     UApplication(W).obj
0048c788 00000008 .exc     $BBB     UApplication(W).obj
0048c790 00000008 .exc     $BBB     UApplication(W).obj
0048c798 00000008 .exc     $BBB     UApplication(W).obj
0048c7a0 00000008 .exc     $BBB     UApplication(W).obj
0048c7a8 00000008 .exc     $BBB     UApplication(W).obj
0048c7b0 00000008 .exc     $BBB     UApplication(W).obj
0048c7b8 00000008 .exc     $BBB     UApplication(W).obj
0048c7c0 00000008 .exc     $BBB     UApplication(W).obj
0048c7c8 00000008 .exc     $BBB     UApplication(W).obj
0048c7d0 00000008 .exc     $BBB     UApplication(W).obj
0048c7d8 00000008 .exc     $BBB     UApplication(W).obj
0048c7e0 00000008 .exc     $BBB     UMouse(W).obj
0048c7e8 00000008 .exc     $BBB     UMouse(W).obj
0048c7f0 00000008 .exc     $BBB     UMouse(W).obj
0048c7f8 00000008 .exc     $BBB     UMouse(W).obj
0048c800 00000008 .exc     $BBB     UMemory(W).obj
0048c808 00000008 .exc     $BBB     UMemory(W).obj
0048c810 00000008 .exc     $BBB     UMemory(W).obj
0048c818 00000008 .exc     $BBB     UMemory(W).obj
0048c820 00000008 .exc     $BBB     UMemory(W).obj
0048c828 00000008 .exc     $BBB     UMemory(W).obj
0048c830 00000008 .exc     $BBB     UMemory(W).obj
0048c838 00000008 .exc     $BBB     UMemory(W).obj
0048c840 00000008 .exc     $BBB     UMemory(W).obj
0048c848 00000008 .exc     $BBB     UMemory(W).obj
0048c850 00000008 .exc     $BBB     UMemory(W).obj
0048c858 00000008 .exc     $BBB     UMemory(W).obj
0048c860 00000008 .exc     $BBB     UMemory(W).obj
0048c868 00000008 .exc     $BBB     UMemory(W).obj
0048c870 00000008 .exc     $BBB     UMemory(W).obj
0048c878 00000008 .exc     $BBB     UMemory(W).obj
0048c880 00000008 .exc     $BBB     UMemory(W).obj
0048c888 00000008 .exc     $BBB     UMemory(W).obj
0048c890 00000008 .exc     $BBB     UMemory(W).obj
0048c898 00000008 .exc     $BBB     UMemory(W).obj
0048c8a0 00000008 .exc     $BBB     UMemory(W).obj
0048c8a8 00000008 .exc     $BBB     UMemory(W).obj
0048c8b0 00000008 .exc     $BBB     UMemory(W).obj
0048c8b8 00000008 .exc     $BBB     UMemory(W).obj
0048c8c0 00000008 .exc     $BBB     UMemory(W).obj
0048c8c8 00000008 .exc     $BBB     UMemory(W).obj
0048c8d0 00000008 .exc     $BBB     UMemory(W).obj
0048c8d8 00000008 .exc     $BBB     UMemory(W).obj
0048c8e0 00000008 .exc     $BBB     UMemory(W).obj
0048c8e8 00000008 .exc     $BBB     MsgBox.obj
0048c8f0 00000008 .exc     $BBB     MsgBox.obj
0048c8f8 00000008 .exc     $BBB     MsgBox.obj
0048c900 00000008 .exc     $BBB     MsgBox.obj
0048c908 00000008 .exc     $BBB     MsgBox.obj
0048c910 00000008 .exc     $BBB     MsgBox.obj
0048c918 00000008 .exc     $BBB     UDateTime(W).obj
0048c920 00000008 .exc     $BBB     UDateTime(W).obj
0048c928 00000008 .exc     $BBB     UDateTime(W).obj
0048c930 00000008 .exc     $BBB     UDateTime(W).obj
0048c938 00000008 .exc     $BBB     UDateTime(W).obj
0048c940 00000008 .exc     $BBB     UDateTime(W).obj
0048c948 00000008 .exc     $BBB     UDateTime(W).obj
0048c950 00000008 .exc     $BBB     UDateTime(W).obj
0048c958 00000008 .exc     $BBB     UDebug(W).obj
0048c960 00000008 .exc     $BBB     UDebug(W).obj
0048c968 00000008 .exc     $BBB     UDebug(W).obj
0048c970 00000008 .exc     $BBB     UEditText.obj
0048c978 00000008 .exc     $BBB     UEditText.obj
0048c980 00000008 .exc     $BBB     UEditText.obj
0048c988 00000008 .exc     $BBB     UEditText.obj
0048c990 00000008 .exc     $BBB     UEditText.obj
0048c998 00000008 .exc     $BBB     UEditText.obj
0048c9a0 00000008 .exc     $BBB     UEditText.obj
0048c9a8 00000008 .exc     $BBB     UEditText.obj
0048c9b0 00000008 .exc     $BBB     UEditText.obj
0048c9b8 00000008 .exc     $BBB     UEditText.obj
0048c9c0 00000008 .exc     $BBB     UEditText.obj
0048c9c8 00000008 .exc     $BBB     UEditText.obj
0048c9d0 00000008 .exc     $BBB     UEditText.obj
0048c9d8 00000008 .exc     $BBB     UEditText.obj
0048c9e0 00000008 .exc     $BBB     UEditText.obj
0048c9e8 00000008 .exc     $BBB     UEditText.obj
0048c9f0 00000008 .exc     $BBB     UEditText.obj
0048c9f8 00000008 .exc     $BBB     UEditText.obj
0048ca00 00000008 .exc     $BBB     UEditText.obj
0048ca08 00000008 .exc     $BBB     UEditText.obj
0048ca10 00000008 .exc     $BBB     UEditText.obj
0048ca18 00000008 .exc     $BBB     UEditText.obj
0048ca20 00000008 .exc     $BBB     UEditText.obj
0048ca28 00000008 .exc     $BBB     UEditText.obj
0048ca30 00000008 .exc     $BBB     UEditText.obj
0048ca38 00000008 .exc     $BBB     UEditText.obj
0048ca40 00000008 .exc     $BBB     UEditText.obj
0048ca48 00000008 .exc     $BBB     UEditText.obj
0048ca50 00000008 .exc     $BBB     UEditText.obj
0048ca58 00000008 .exc     $BBB     UEditText.obj
0048ca60 00000008 .exc     $BBB     UEditText.obj
0048ca68 00000008 .exc     $BBB     UEditText.obj
0048ca70 00000008 .exc     $BBB     UEditText.obj
0048ca78 00000008 .exc     $BBB     UEditText.obj
0048ca80 00000008 .exc     $BBB     UEditText.obj
0048ca88 00000008 .exc     $BBB     UEditText.obj
0048ca90 00000008 .exc     $BBB     UEditText.obj
0048ca98 00000008 .exc     $BBB     UEditText.obj
0048caa0 00000008 .exc     $BBB     UEditText.obj
0048caa8 00000008 .exc     $BBB     UEditText.obj
0048cab0 00000008 .exc     $BBB     UEditText.obj
0048cab8 00000008 .exc     $BBB     UEditText.obj
0048cac0 00000008 .exc     $BBB     UEditText.obj
0048cac8 00000008 .exc     $BBB     UEditText.obj
0048cad0 00000008 .exc     $BBB     UEditText.obj
0048cad8 00000008 .exc     $BBB     UEditText.obj
0048cae0 00000008 .exc     $BBB     UEditText.obj
0048cae8 00000008 .exc     $BBB     UEditText.obj
0048caf0 00000008 .exc     $BBB     UEditText.obj
0048caf8 00000008 .exc     $BBB     UEditText.obj
0048cb00 00000008 .exc     $BBB     UEditText.obj
0048cb08 00000008 .exc     $BBB     UEditText.obj
0048cb10 00000008 .exc     $BBB     UEditText.obj
0048cb18 00000008 .exc     $BBB     UEditText.obj
0048cb20 00000008 .exc     $BBB     UEditText.obj
0048cb28 00000008 .exc     $BBB     UEditText.obj
0048cb30 00000008 .exc     $BBB     UEditText.obj
0048cb38 00000008 .exc     $BBB     UEditText.obj
0048cb40 00000008 .exc     $BBB     UEditText.obj
0048cb48 00000008 .exc     $BBB     UEditText.obj
0048cb50 00000008 .exc     $BBB     UEditText.obj
0048cb58 00000008 .exc     $BBB     UEditText.obj
0048cb60 00000008 .exc     $BBB     UEditText.obj
0048cb68 00000008 .exc     $BBB     UEditText.obj
0048cb70 00000008 .exc     $BBB     UEditText.obj
0048cb78 00000008 .exc     $BBB     UFieldData.obj
0048cb80 00000008 .exc     $BBB     UFieldData.obj
0048cb88 00000008 .exc     $BBB     UFieldData.obj
0048cb90 00000008 .exc     $BBB     UFieldData.obj
0048cb98 00000008 .exc     $BBB     UFieldData.obj
0048cba0 00000008 .exc     $BBB     UFieldData.obj
0048cba8 00000008 .exc     $BBB     UFieldData.obj
0048cbb0 00000008 .exc     $BBB     UFieldData.obj
0048cbb8 00000008 .exc     $BBB     UFieldData.obj
0048cbc0 00000008 .exc     $BBB     UFieldData.obj
0048cbc8 00000008 .exc     $BBB     UFieldData.obj
0048cbd0 00000008 .exc     $BBB     UFieldData.obj
0048cbd8 00000008 .exc     $BBB     UFieldData.obj
0048cbe0 00000008 .exc     $BBB     UFieldData.obj
0048cbe8 00000008 .exc     $BBB     UFieldData.obj
0048cbf0 00000008 .exc     $BBB     UFieldData.obj
0048cbf8 00000008 .exc     $BBB     UFieldData.obj
0048cc00 00000008 .exc     $BBB     UFieldData.obj
0048cc08 00000008 .exc     $BBB     UFieldData.obj
0048cc10 00000008 .exc     $BBB     UFieldData.obj
0048cc18 00000008 .exc     $BBB     UFieldData.obj
0048cc20 00000008 .exc     $BBB     UFieldData.obj
0048cc28 00000008 .exc     $BBB     UFieldData.obj
0048cc30 00000008 .exc     $BBB     UFieldData.obj
0048cc38 00000008 .exc     $BBB     UFieldData.obj
0048cc40 00000008 .exc     $BBB     CTextView.obj
0048cc48 00000008 .exc     $BBB     CTextView.obj
0048cc50 00000008 .exc     $BBB     CTextView.obj
0048cc58 00000008 .exc     $BBB     CTextView.obj
0048cc60 00000008 .exc     $BBB     CTextView.obj
0048cc68 00000008 .exc     $BBB     CTextView.obj
0048cc70 00000008 .exc     $BBB     CTextView.obj
0048cc78 00000008 .exc     $BBB     CTextView.obj
0048cc80 00000008 .exc     $BBB     CTextView.obj
0048cc88 00000008 .exc     $BBB     CTextView.obj
0048cc90 00000008 .exc     $BBB     CTextView.obj
0048cc98 00000008 .exc     $BBB     CTextView.obj
0048cca0 00000008 .exc     $BBB     CTextView.obj
0048cca8 00000008 .exc     $BBB     CTextView.obj
0048ccb0 00000008 .exc     $BBB     CTextView.obj
0048ccb8 00000008 .exc     $BBB     CTextView.obj
0048ccc0 00000008 .exc     $BBB     CTextView.obj
0048ccc8 00000008 .exc     $BBB     CTextView.obj
0048ccd0 00000008 .exc     $BBB     CTextView.obj
0048ccd8 00000008 .exc     $BBB     CTextView.obj
0048cce0 00000008 .exc     $BBB     CTextView.obj
0048cce8 00000008 .exc     $BBB     CTextView.obj
0048ccf0 00000008 .exc     $BBB     CTextView.obj
0048ccf8 00000008 .exc     $BBB     CTextView.obj
0048cd00 00000008 .exc     $BBB     CTextView.obj
0048cd08 00000008 .exc     $BBB     CTextView.obj
0048cd10 00000008 .exc     $BBB     CTextView.obj
0048cd18 00000008 .exc     $BBB     CTextView.obj
0048cd20 00000008 .exc     $BBB     CTextView.obj
0048cd28 00000008 .exc     $BBB     CTextView.obj
0048cd30 00000008 .exc     $BBB     CTextView.obj
0048cd38 00000008 .exc     $BBB     CTextView.obj
0048cd40 00000008 .exc     $BBB     CTextView.obj
0048cd48 00000008 .exc     $BBB     CTextView.obj
0048cd50 00000008 .exc     $BBB     CTextView.obj
0048cd58 00000008 .exc     $BBB     CPasswordTextView.obj
0048cd60 00000008 .exc     $BBB     CPasswordTextView.obj
0048cd68 00000008 .exc     $BBB     CPasswordTextView.obj
0048cd70 00000008 .exc     $BBB     CPasswordTextView.obj
0048cd78 00000008 .exc     $BBB     CPasswordTextView.obj
0048cd80 00000008 .exc     $BBB     CPasswordTextView.obj
0048cd88 00000008 .exc     $BBB     CPasswordTextView.obj
0048cd90 00000008 .exc     $BBB     CPasswordTextView.obj
0048cd98 00000008 .exc     $BBB     CPasswordTextView.obj
0048cda0 00000008 .exc     $BBB     CPasswordTextView.obj
0048cda8 00000008 .exc     $BBB     CPasswordTextView.obj
0048cdb0 00000008 .exc     $BBB     CPasswordTextView.obj
0048cdb8 00000008 .exc     $BBB     CPasswordTextView.obj
0048cdc0 00000008 .exc     $BBB     CPasswordTextView.obj
0048cdc8 00000008 .exc     $BBB     CPasswordTextView.obj
0048cdd0 00000008 .exc     $BBB     CPasswordTextView.obj
0048cdd8 00000008 .exc     $BBB     CPasswordTextView.obj
0048cde0 00000008 .exc     $BBB     CPasswordTextView.obj
0048cde8 00000008 .exc     $BBB     CPasswordTextView.obj
0048cdf0 00000008 .exc     $BBB     CPasswordTextView.obj
0048cdf8 00000008 .exc     $BBB     CPasswordTextView.obj
0048ce00 00000008 .exc     $BBB     CPasswordTextView.obj
0048ce08 00000008 .exc     $BBB     CPasswordTextView.obj
0048ce10 00000008 .exc     $BBB     ExceptionX86.obj
0048ce18 00000008 .exc     $BBB     ExceptionX86.obj
0048ce20 00000008 .exc     $BBB     ExceptionX86.obj
0048ce28 00000008 .exc     $BBB     ExceptionX86.obj
0048ce30 00000008 .exc     $BBB     ExceptionX86.obj
0048ce38 00000008 .exc     $BBB     ExceptionX86.obj
0048ce40 00000008 .exc     $BBB     ExceptionX86.obj
0048ce48 00000008 .exc     $BBB     ExceptionX86.obj
0048ce50 00000008 .exc     $BBB     ExceptionX86.obj
0048ce58 00000008 .exc     $BBB     ExceptionX86.obj
0048ce60 00000008 .exc     $BBB     ExceptionX86.obj
0048ce68 00000008 .exc     $BBB     ExceptionX86.obj
0048ce70 00000008 .exc     $BBB     ExceptionX86.obj
0048ce78 00000008 .exc     $BBB     ExceptionX86.obj
0048ce80 00000008 .exc     $BBB     ExceptionX86.obj
0048ce88 00000008 .exc     $BBB     ExceptionX86.obj
0048ce90 00000008 .exc     $BBB     ExceptionX86.obj
0048ce98 00000008 .exc     $BBB     ExceptionX86.obj
0048cea0 00000008 .exc     $BBB     ExceptionX86.obj
0048cea8 00000008 .exc     $BBB     ExceptionX86.obj
0048ceb0 00000008 .exc     $BBB     ExceptionX86.obj
0048ceb8 00000008 .exc     $BBB     ExceptionX86.obj
0048cec0 00000008 .exc     $BBB     ExceptionX86.obj
0048cec8 00000008 .exc     $BBB     ExceptionX86.obj
0048ced0 00000008 .exc     $BBB     ExceptionX86.obj
0048ced8 00000008 .exc     $BBB     ExceptionX86.obj
0048cee0 00000008 .exc     $BBB     ExceptionX86.obj
0048cee8 00000008 .exc     $BBB     ExceptionX86.obj
0048cef0 00000008 .exc     $BBB     ExceptionX86.obj
0048cef8 00000008 .exc     $BBB     ExceptionX86.obj
0048cf00 00000008 .exc     $BBB     ExceptionX86.obj
0048cf08 00000008 .exc     $BBB     ExceptionX86.obj
0048cf10 00000008 .exc     $BBB     ExceptionX86.obj
0048cf18 00000008 .exc     $BBB     ExceptionX86.obj
0048cf20 00000008 .exc     $BBB     ExceptionX86.obj
0048cf28 00000008 .exc     $BBB     ExceptionX86.obj
0048cf30 00000008 .exc     $BBB     UMath.obj
0048cf38 00000008 .exc     $BBB     CLinkedList.obj
0048cf40 00000008 .exc     $BBB     CLinkedList.obj
0048cf48 00000008 .exc     $BBB     CLinkedList.obj
0048cf50 00000008 .exc     $BBB     CLinkedList.obj
0048cf58 00000008 .exc     $BBB     CLinkedList.obj
0048cf60 00000008 .exc     $BBB     UGUID(W).obj
0048cf68 00000008 .exc     $BBB     UGUID(W).obj
0048cf70 00000008 .exc     $BBB     UGUID(W).obj
0048cf78 00000008 .exc     $BBB     UGUID(W).obj
0048cf80 00000008 .exc     $BBB     CView.obj
0048cf88 00000008 .exc     $BBB     CView.obj
0048cf90 00000008 .exc     $BBB     CView.obj
0048cf98 00000008 .exc     $BBB     CView.obj
0048cfa0 00000008 .exc     $BBB     CView.obj
0048cfa8 00000008 .exc     $BBB     CView.obj
0048cfb0 00000008 .exc     $BBB     CView.obj
0048cfb8 00000008 .exc     $BBB     CView.obj
0048cfc0 00000008 .exc     $BBB     CView.obj
0048cfc8 00000008 .exc     $BBB     CView.obj
0048cfd0 00000008 .exc     $BBB     CView.obj
0048cfd8 00000008 .exc     $BBB     CView.obj
0048cfe0 00000008 .exc     $BBB     CView.obj
0048cfe8 00000008 .exc     $BBB     CView.obj
0048cff0 00000008 .exc     $BBB     CView.obj
0048cff8 00000008 .exc     $BBB     CView.obj
0048d000 00000008 .exc     $BBB     CView.obj
0048d008 00000008 .exc     $BBB     CView.obj
0048d010 00000008 .exc     $BBB     CView.obj
0048d018 00000008 .exc     $BBB     CView.obj
0048d020 00000008 .exc     $BBB     CView.obj
0048d028 00000008 .exc     $BBB     CView.obj
0048d030 00000008 .exc     $BBB     CView.obj
0048d038 00000008 .exc     $BBB     CView.obj
0048d040 00000008 .exc     $BBB     CView.obj
0048d048 00000008 .exc     $BBB     CView.obj
0048d050 00000008 .exc     $BBB     CView.obj
0048d058 00000008 .exc     $BBB     CView.obj
0048d060 00000008 .exc     $BBB     CView.obj
0048d068 00000008 .exc     $BBB     CView.obj
0048d070 00000008 .exc     $BBB     CView.obj
0048d078 00000008 .exc     $BBB     CView.obj
0048d080 00000008 .exc     $BBB     CView.obj
0048d088 00000008 .exc     $BBB     CView.obj
0048d090 00000008 .exc     $BBB     CView.obj
0048d098 00000008 .exc     $BBB     CView.obj
0048d0a0 00000008 .exc     $BBB     CView.obj
0048d0a8 00000008 .exc     $BBB     CView.obj
0048d0b0 00000008 .exc     $BBB     CView.obj
0048d0b8 00000008 .exc     $BBB     CView.obj
0048d0c0 00000008 .exc     $BBB     CView.obj
0048d0c8 00000008 .exc     $BBB     CView.obj
0048d0d0 00000008 .exc     $BBB     CView.obj
0048d0d8 00000008 .exc     $BBB     CView.obj
0048d0e0 00000008 .exc     $BBB     CView.obj
0048d0e8 00000008 .exc     $BBB     CView.obj
0048d0f0 00000008 .exc     $BBB     CView.obj
0048d0f8 00000008 .exc     $BBB     CView.obj
0048d100 00000008 .exc     $BBB     CView.obj
0048d108 00000008 .exc     $BBB     CView.obj
0048d110 00000008 .exc     $BBB     CView.obj
0048d118 00000008 .exc     $BBB     CView.obj
0048d120 00000008 .exc     $BBB     CView.obj
0048d128 00000008 .exc     $BBB     CView.obj
0048d130 00000008 .exc     $BBB     CView.obj
0048d138 00000008 .exc     $BBB     CView.obj
0048d140 00000008 .exc     $BBB     CView.obj
0048d148 00000008 .exc     $BBB     CView.obj
0048d150 00000008 .exc     $BBB     CView.obj
0048d158 00000008 .exc     $BBB     CView.obj
0048d160 00000008 .exc     $BBB     CView.obj
0048d168 00000008 .exc     $BBB     CScrollerView.obj
0048d170 00000008 .exc     $BBB     CScrollerView.obj
0048d178 00000008 .exc     $BBB     CScrollerView.obj
0048d180 00000008 .exc     $BBB     CScrollerView.obj
0048d188 00000008 .exc     $BBB     CScrollerView.obj
0048d190 00000008 .exc     $BBB     CScrollerView.obj
0048d198 00000008 .exc     $BBB     CScrollerView.obj
0048d1a0 00000008 .exc     $BBB     CScrollerView.obj
0048d1a8 00000008 .exc     $BBB     CScrollerView.obj
0048d1b0 00000008 .exc     $BBB     CScrollerView.obj
0048d1b8 00000008 .exc     $BBB     CScrollerView.obj
0048d1c0 00000008 .exc     $BBB     CScrollerView.obj
0048d1c8 00000008 .exc     $BBB     CScrollerView.obj
0048d1d0 00000008 .exc     $BBB     CScrollerView.obj
0048d1d8 00000008 .exc     $BBB     CScrollerView.obj
0048d1e0 00000008 .exc     $BBB     CScrollerView.obj
0048d1e8 00000008 .exc     $BBB     CScrollerView.obj
0048d1f0 00000008 .exc     $BBB     CScrollerView.obj
0048d1f8 00000008 .exc     $BBB     CScrollerView.obj
0048d200 00000008 .exc     $BBB     CScrollerView.obj
0048d208 00000008 .exc     $BBB     CScrollerView.obj
0048d210 00000008 .exc     $BBB     CScrollerView.obj
0048d218 00000008 .exc     $BBB     CScrollerView.obj
0048d220 00000008 .exc     $BBB     CScrollerView.obj
0048d228 00000008 .exc     $BBB     CScrollerView.obj
0048d230 00000008 .exc     $BBB     CScrollerView.obj
0048d238 00000008 .exc     $BBB     CScrollerView.obj
0048d240 00000008 .exc     $BBB     CScrollerView.obj
0048d248 00000008 .exc     $BBB     CScrollerView.obj
0048d250 00000008 .exc     $BBB     CScrollerView.obj
0048d258 00000008 .exc     $BBB     CScrollerView.obj
0048d260 00000008 .exc     $BBB     CScrollerView.obj
0048d268 00000008 .exc     $BBB     CScrollerView.obj
0048d270 00000008 .exc     $BBB     CScrollerView.obj
0048d278 00000008 .exc     $BBB     CScrollerView.obj
0048d280 00000008 .exc     $BBB     CScrollerView.obj
0048d288 00000008 .exc     $BBB     CScrollerView.obj
0048d290 00000008 .exc     $BBB     CScrollerView.obj
0048d298 00000008 .exc     $BBB     CScrollerView.obj
0048d2a0 00000008 .exc     $BBB     CScrollerView.obj
0048d2a8 00000008 .exc     $BBB     CScrollerView.obj
0048d2b0 00000008 .exc     $BBB     CScrollerView.obj
0048d2b8 00000008 .exc     $BBB     CScrollerView.obj
0048d2c0 00000008 .exc     $BBB     CScrollerView.obj
0048d2c8 00000008 .exc     $BBB     CScrollerView.obj
0048d2d0 00000008 .exc     $BBB     CScrollerView.obj
0048d2d8 00000008 .exc     $BBB     CScrollerView.obj
0048d2e0 00000008 .exc     $BBB     CScrollerView.obj
0048d2e8 00000008 .exc     $BBB     CScrollerView.obj
0048d2f0 00000008 .exc     $BBB     CScrollerView.obj
0048d2f8 00000008 .exc     $BBB     CScrollerView.obj
0048d300 00000008 .exc     $BBB     CScrollerView.obj
0048d308 00000008 .exc     $BBB     CScrollerView.obj
0048d310 00000008 .exc     $BBB     CScrollerView.obj
0048d318 00000008 .exc     $BBB     CScrollerView.obj
0048d320 00000008 .exc     $BBB     CScrollerView.obj
0048d328 00000008 .exc     $BBB     CScrollerView.obj
0048d330 00000008 .exc     $BBB     CScrollerView.obj
0048d338 00000008 .exc     $BBB     CScrollerView.obj
0048d340 00000008 .exc     $BBB     CScrollerView.obj
0048d348 00000008 .exc     $BBB     ANSI.obj
0048d350 00000008 .exc     $BBB     ANSI.obj
0048d358 00000008 .exc     $BBB     ANSI.obj
0048d360 00000008 .exc     $BBB     ANSI.obj
0048d368 00000008 .exc     $BBB     ANSI.obj
0048d370 00000008 .exc     $BBB     ANSI.obj
0048d378 00000008 .exc     $BBB     ANSI.obj
0048d380 00000008 .exc     $BBB     ANSI.obj
0048d388 00000008 .exc     $BBB     ANSI.obj
0048d390 00000008 .exc     $BBB     ANSI.obj
0048d398 00000008 .exc     $BBB     ANSI.obj
0048d3a0 00000008 .exc     $BBB     ANSI.obj
0048d3a8 00000008 .exc     $BBB     ANSI.obj
0048d3b0 00000008 .exc     $BBB     ANSI.obj
0048d3b8 00000008 .exc     $BBB     ANSI.obj
0048d3c0 00000008 .exc     $BBB     ANSI.obj
0048d3c8 00000008 .exc     $BBB     ANSI.obj
0048d3d0 00000008 .exc     $BBB     ANSI.obj
0048d3d8 00000008 .exc     $BBB     stackall.obj
0048d3e0 00000008 .exc     $BBB     stackall.obj
0048d3e8 00000008 .exc     $BBB     UFileSys.obj
0048d3f0 00000008 .exc     $BBB     UFileSys.obj
0048d3f8 00000008 .exc     $BBB     CViewContainer.obj
0048d400 00000008 .exc     $BBB     CViewContainer.obj
0048d408 00000008 .exc     $BBB     CViewContainer.obj
0048d410 00000008 .exc     $BBB     CViewContainer.obj
0048d418 00000008 .exc     $BBB     CViewContainer.obj
0048d420 00000008 .exc     $BBB     CViewContainer.obj
0048d428 00000008 .exc     $BBB     CViewContainer.obj
0048d430 00000008 .exc     $BBB     CViewContainer.obj
0048d438 00000008 .exc     $BBB     CViewContainer.obj
0048d440 00000008 .exc     $BBB     CViewContainer.obj
0048d448 00000008 .exc     $BBB     CViewContainer.obj
0048d450 00000008 .exc     $BBB     CViewContainer.obj
0048d458 00000008 .exc     $BBB     CViewContainer.obj
0048d460 00000008 .exc     $BBB     CViewContainer.obj
0048d468 00000008 .exc     $BBB     MWRTTI.obj
0048d470 00000008 .exc     $BBB     MWRTTI.obj
0048d478 00000008 .exc     $BBB     MWRTTI.obj
0048d480 00000008 .exc     $BBB     MWRTTI.obj
0048d488 00000008 .exc     $BBB     MWRTTI.obj
0048d490 00000008 .exc     $BBB     MWRTTI.obj
0048d498 00000008 .exc     $BBB     CLabelView.obj
0048d4a0 00000008 .exc     $BBB     CLabelView.obj
0048d4a8 00000008 .exc     $BBB     CLabelView.obj
0048d4b0 00000008 .exc     $BBB     CLabelView.obj
0048d4b8 00000008 .exc     $BBB     CLabelView.obj
0048d4c0 00000008 .exc     $BBB     CLabelView.obj
0048d4c8 00000008 .exc     $BBB     CLabelView.obj
0048d4d0 00000008 .exc     $BBB     CLabelView.obj
0048d4d8 00000008 .exc     $BBB     CItemsView.obj
0048d4e0 00000008 .exc     $BBB     CItemsView.obj
0048d4e8 00000008 .exc     $BBB     CItemsView.obj
0048d4f0 00000008 .exc     $BBB     CItemsView.obj
0048d4f8 00000008 .exc     $BBB     CItemsView.obj
0048d500 00000008 .exc     $BBB     CItemsView.obj
0048d508 00000008 .exc     $BBB     CItemsView.obj
0048d510 00000008 .exc     $BBB     CItemsView.obj
0048d518 00000008 .exc     $BBB     CItemsView.obj
0048d520 00000008 .exc     $BBB     CItemsView.obj
0048d528 00000008 .exc     $BBB     CItemsView.obj
0048d530 00000008 .exc     $BBB     CItemsView.obj
0048d538 00000008 .exc     $BBB     CItemsView.obj
0048d540 00000008 .exc     $BBB     CItemsView.obj
0048d548 00000008 .exc     $BBB     CItemsView.obj
0048d550 00000008 .exc     $BBB     CItemsView.obj
0048d558 00000008 .exc     $BBB     CItemsView.obj
0048d560 00000008 .exc     $BBB     CItemsView.obj
0048d568 00000008 .exc     $BBB     CItemsView.obj
0048d570 00000008 .exc     $BBB     CItemsView.obj
0048d578 00000008 .exc     $BBB     CItemsView.obj
0048d580 00000008 .exc     $BBB     CItemsView.obj
0048d588 00000008 .exc     $BBB     CItemsView.obj
0048d590 00000008 .exc     $BBB     CItemsView.obj
0048d598 00000008 .exc     $BBB     CItemsView.obj
0048d5a0 00000008 .exc     $BBB     CItemsView.obj
0048d5a8 00000008 .exc     $BBB     CItemsView.obj
0048d5b0 00000008 .exc     $BBB     CItemsView.obj
0048d5b8 00000008 .exc     $BBB     CItemsView.obj
0048d5c0 00000008 .exc     $BBB     CItemsView.obj
0048d5c8 00000008 .exc     $BBB     CItemsView.obj
0048d5d0 00000008 .exc     $BBB     CItemsView.obj
0048d5d8 00000008 .exc     $BBB     CItemsView.obj
0048d5e0 00000008 .exc     $BBB     CItemsView.obj
0048d5e8 00000008 .exc     $BBB     CItemsView.obj
0048d5f0 00000008 .exc     $BBB     CItemsView.obj
0048d5f8 00000008 .exc     $BBB     CItemsView.obj
0048d600 00000008 .exc     $BBB     CItemsView.obj
0048d608 00000008 .exc     $BBB     CItemsView.obj
0048d610 00000008 .exc     $BBB     CItemsView.obj
0048d618 00000008 .exc     $BBB     CItemsView.obj
0048d620 00000008 .exc     $BBB     CItemsView.obj
0048d628 00000008 .exc     $BBB     CItemsView.obj
0048d630 00000008 .exc     $BBB     CItemsView.obj
0048d638 00000008 .exc     $BBB     CItemsView.obj
0048d640 00000008 .exc     $BBB     CListView.obj
0048d648 00000008 .exc     $BBB     CListView.obj
0048d650 00000008 .exc     $BBB     CListView.obj
0048d658 00000008 .exc     $BBB     CListView.obj
0048d660 00000008 .exc     $BBB     CListView.obj
0048d668 00000008 .exc     $BBB     CListView.obj
0048d670 00000008 .exc     $BBB     CListView.obj
0048d678 00000008 .exc     $BBB     CListView.obj
0048d680 00000008 .exc     $BBB     CListView.obj
0048d688 00000008 .exc     $BBB     CListView.obj
0048d690 00000008 .exc     $BBB     CListView.obj
0048d698 00000008 .exc     $BBB     CListView.obj
0048d6a0 00000008 .exc     $BBB     CListView.obj
0048d6a8 00000008 .exc     $BBB     CListView.obj
0048d6b0 00000008 .exc     $BBB     CListView.obj
0048d6b8 00000008 .exc     $BBB     CListView.obj
0048d6c0 00000008 .exc     $BBB     CListView.obj
0048d6c8 00000008 .exc     $BBB     CListView.obj
0048d6d0 00000008 .exc     $BBB     CListView.obj
0048d6d8 00000008 .exc     $BBB     CListView.obj
0048d6e0 00000008 .exc     $BBB     CListView.obj
0048d6e8 00000008 .exc     $BBB     CListView.obj
0048d6f0 00000008 .exc     $BBB     CBoolArray.obj
0048d6f8 00000008 .exc     $BBB     CBoolArray.obj
0048d700 00000008 .exc     $BBB     CBoolArray.obj
0048d708 00000008 .exc     $BBB     CBoolArray.obj
0048d710 00000008 .exc     $BBB     CBoolArray.obj
0048d718 00000008 .exc     $BBB     CBoolArray.obj
0048d720 00000008 .exc     $BBB     CBoolArray.obj
0048d728 00000008 .exc     $BBB     CBoolArray.obj
0048d730 00000008 .exc     $BBB     CBoolArray.obj
0048d738 00000008 .exc     $BBB     CBoolArray.obj
0048d740 00000008 .exc     $BBB     CBoolArray.obj
0048d748 00000008 .exc     $BBB     CBoolArray.obj
0048d750 00000008 .exc     $BBB     CBoolArray.obj
0048d758 00000008 .exc     $BBB     CBoolArray.obj
0048d760 00000008 .exc     $BBB     UUserInterface(W).obj
0048d768 00000008 .exc     $BBB     UUserInterface(W).obj
0048d770 00000008 .exc     $BBB     UUserInterface(W).obj
0048d778 00000008 .exc     $BBB     UUserInterface(W).obj
0048d780 00000008 .exc     $BBB     UUserInterface(W).obj
0048d788 00000008 .exc     $BBB     UUserInterface(W).obj
0048d790 00000008 .exc     $BBB     UUserInterface(W).obj
0048d798 00000008 .exc     $BBB     UGraphics(W).obj
0048d7a0 00000008 .exc     $BBB     UGraphics(W).obj
0048d7a8 00000008 .exc     $BBB     UGraphics(W).obj
0048d7b0 00000008 .exc     $BBB     UGraphics(W).obj
0048d7b8 00000008 .exc     $BBB     UGraphics(W).obj
0048d7c0 00000008 .exc     $BBB     UGraphics(W).obj
0048d7c8 00000008 .exc     $BBB     UGraphics(W).obj
0048d7d0 00000008 .exc     $BBB     UGraphics(W).obj
0048d7d8 00000008 .exc     $BBB     UGraphics(W).obj
0048d7e0 00000008 .exc     $BBB     UGraphics(W).obj
0048d7e8 00000008 .exc     $BBB     UGraphics(W).obj
0048d7f0 00000008 .exc     $BBB     UGraphics(W).obj
0048d7f8 00000008 .exc     $BBB     UGraphics(W).obj
0048d800 00000008 .exc     $BBB     UGraphics(W).obj
0048d808 00000008 .exc     $BBB     UGraphics(W).obj
0048d810 00000008 .exc     $BBB     UGraphics(W).obj
0048d818 00000008 .exc     $BBB     UGraphics(W).obj
0048d820 00000008 .exc     $BBB     UGraphics(W).obj
0048d828 00000008 .exc     $BBB     UGraphics(W).obj
0048d830 00000008 .exc     $BBB     UGraphics(W).obj
0048d838 00000008 .exc     $BBB     UGraphics(W).obj
0048d840 00000008 .exc     $BBB     UGraphics(W).obj
0048d848 00000008 .exc     $BBB     UGraphics(W).obj
0048d850 00000008 .exc     $BBB     UGraphics(W).obj
0048d858 00000008 .exc     $BBB     UGraphics(W).obj
0048d860 00000008 .exc     $BBB     UGraphics(W).obj
0048d868 00000008 .exc     $BBB     UGraphics(W).obj
0048d870 00000008 .exc     $BBB     UGraphics(W).obj
0048d878 00000008 .exc     $BBB     UGraphics(W).obj
0048d880 00000008 .exc     $BBB     UGraphics(W).obj
0048d888 00000008 .exc     $BBB     UGraphics(W).obj
0048d890 00000008 .exc     $BBB     UGraphics(W).obj
0048d898 00000008 .exc     $BBB     UGraphics(W).obj
0048d8a0 00000008 .exc     $BBB     UGraphics(W).obj
0048d8a8 00000008 .exc     $BBB     UGraphics(W).obj
0048d8b0 00000008 .exc     $BBB     UGraphics(W).obj
0048d8b8 00000008 .exc     $BBB     UGraphics(W).obj
0048d8c0 00000008 .exc     $BBB     UGraphics(W).obj
0048d8c8 00000008 .exc     $BBB     UGraphics(W).obj
0048d8d0 00000008 .exc     $BBB     UGraphics(W).obj
0048d8d8 00000008 .exc     $BBB     UGraphics(W).obj
0048d8e0 00000008 .exc     $BBB     UGraphics(W).obj
0048d8e8 00000008 .exc     $BBB     UGraphics(W).obj
0048d8f0 00000008 .exc     $BBB     UGraphics(W).obj
0048d8f8 00000008 .exc     $BBB     UGraphics(W).obj
0048d900 00000008 .exc     $BBB     UGraphics(W).obj
0048d908 00000008 .exc     $BBB     UGraphics(W).obj
0048d910 00000008 .exc     $BBB     UGraphics(W).obj
0048d918 00000008 .exc     $BBB     UGraphics(W).obj
0048d920 00000008 .exc     $BBB     UGraphics(W).obj
0048d928 00000008 .exc     $BBB     UGraphics(W).obj
0048d930 00000008 .exc     $BBB     UGraphics(W).obj
0048d938 00000008 .exc     $BBB     UGraphics(W).obj
0048d940 00000008 .exc     $BBB     UGraphics(W).obj
0048d948 00000008 .exc     $BBB     UGraphics.obj
0048d950 00000008 .exc     $BBB     UGraphics.obj
0048d958 00000008 .exc     $BBB     UGraphics.obj
0048d960 00000008 .exc     $BBB     UGraphics.obj
0048d968 00000008 .exc     $BBB     UGraphics.obj
0048d970 00000008 .exc     $BBB     UGraphics.obj
0048d978 00000008 .exc     $BBB     UGraphics.obj
0048d980 00000008 .exc     $BBB     UGraphics.obj
0048d988 00000008 .exc     $BBB     UGraphics.obj
0048d990 00000008 .exc     $BBB     UGraphics.obj
0048d998 00000008 .exc     $BBB     UGraphics.obj
0048d9a0 00000008 .exc     $BBB     UGraphics.obj
0048d9a8 00000008 .exc     $BBB     UGraphics.obj
0048d9b0 00000008 .exc     $BBB     UGraphics.obj
0048d9b8 00000008 .exc     $BBB     UGraphics.obj
0048d9c0 00000008 .exc     $BBB     UGraphics.obj
0048d9c8 00000008 .exc     $BBB     UGraphics.obj
0048d9d0 00000008 .exc     $BBB     UIcon(W).obj
0048d9d8 00000008 .exc     $BBB     UIcon(W).obj
0048d9e0 00000008 .exc     $BBB     UIcon(W).obj
0048d9e8 00000008 .exc     $BBB     UIcon.obj
0048d9f0 00000008 .exc     $BBB     CDragAndDroppable.obj
0048d9f8 00000008 .exc     $BBB     CDragAndDroppable.obj
0048da00 00000008 .exc     $BBB     UCheckBox.obj
0048da08 00000008 .exc     $BBB     UCheckBox.obj
0048da10 00000008 .exc     $BBB     UCheckBox.obj
0048da18 00000008 .exc     $BBB     UCheckBox.obj
0048da20 00000008 .exc     $BBB     CContainerView.obj
0048da28 00000008 .exc     $BBB     CContainerView.obj
0048da30 00000008 .exc     $BBB     CContainerView.obj
0048da38 00000008 .exc     $BBB     CContainerView.obj
0048da40 00000008 .exc     $BBB     CContainerView.obj
0048da48 00000008 .exc     $BBB     CContainerView.obj
0048da50 00000008 .exc     $BBB     CContainerView.obj
0048da58 00000008 .exc     $BBB     CContainerView.obj
0048da60 00000008 .exc     $BBB     CContainerView.obj
0048da68 00000008 .exc     $BBB     CContainerView.obj
0048da70 00000008 .exc     $BBB     CContainerView.obj
0048da78 00000008 .exc     $BBB     CContainerView.obj
0048da80 00000008 .exc     $BBB     CContainerView.obj
0048da88 00000008 .exc     $BBB     CContainerView.obj
0048da90 00000008 .exc     $BBB     CContainerView.obj
0048da98 00000008 .exc     $BBB     CContainerView.obj
0048daa0 00000008 .exc     $BBB     CContainerView.obj
0048daa8 00000008 .exc     $BBB     CContainerView.obj
0048dab0 00000008 .exc     $BBB     CContainerView.obj
0048dab8 00000008 .exc     $BBB     CContainerView.obj
0048dac0 00000008 .exc     $BBB     CContainerView.obj
0048dac8 00000008 .exc     $BBB     CContainerView.obj
0048dad0 00000008 .exc     $BBB     CContainerView.obj
0048dad8 00000008 .exc     $BBB     CContainerView.obj
0048dae0 00000008 .exc     $BBB     CContainerView.obj
0048dae8 00000008 .exc     $BBB     CContainerView.obj
0048daf0 00000008 .exc     $BBB     CContainerView.obj
0048daf8 00000008 .exc     $BBB     CContainerView.obj
0048db00 00000008 .exc     $BBB     CContainerView.obj
0048db08 00000008 .exc     $BBB     CContainerView.obj
0048db10 00000008 .exc     $BBB     CContainerView.obj
0048db18 00000008 .exc     $BBB     CContainerView.obj
0048db20 00000008 .exc     $BBB     CContainerView.obj
0048db28 00000008 .exc     $BBB     CContainerView.obj
0048db30 00000008 .exc     $BBB     CContainerView.obj
0048db38 00000008 .exc     $BBB     CContainerView.obj
0048db40 00000008 .exc     $BBB     CContainerView.obj
0048db48 00000008 .exc     $BBB     CTabbedView.obj
0048db50 00000008 .exc     $BBB     CTabbedView.obj
0048db58 00000008 .exc     $BBB     CTabbedView.obj
0048db60 00000008 .exc     $BBB     CTabbedView.obj
0048db68 00000008 .exc     $BBB     CTabbedView.obj
0048db70 00000008 .exc     $BBB     CTabbedView.obj
0048db78 00000008 .exc     $BBB     CTabbedView.obj
0048db80 00000008 .exc     $BBB     CTabbedView.obj
0048db88 00000008 .exc     $BBB     CTabbedView.obj
0048db90 00000008 .exc     $BBB     CTabbedView.obj
0048db98 00000008 .exc     $BBB     CTabbedView.obj
0048dba0 00000008 .exc     $BBB     CTabbedView.obj
0048dba8 00000008 .exc     $BBB     CTabbedView.obj
0048dbb0 00000008 .exc     $BBB     CTabbedView.obj
0048dbb8 00000008 .exc     $BBB     CTabbedView.obj
0048dbc0 00000008 .exc     $BBB     CTabbedView.obj
0048dbc8 00000008 .exc     $BBB     CTabbedView.obj
0048dbd0 00000008 .exc     $BBB     CTabbedView.obj
0048dbd8 00000008 .exc     $BBB     CTabbedView.obj
0048dbe0 00000008 .exc     $BBB     CTabbedView.obj
0048dbe8 00000008 .exc     $BBB     CTabbedView.obj
0048dbf0 00000008 .exc     $BBB     CTabbedView.obj
0048dbf8 00000008 .exc     $BBB     CTabbedView.obj
0048dc00 00000008 .exc     $BBB     CTabbedView.obj
0048dc08 00000008 .exc     $BBB     CTabbedView.obj
0048dc10 00000008 .exc     $BBB     CTabbedView.obj
0048dc18 00000008 .exc     $BBB     CTabbedView.obj
0048dc20 00000008 .exc     $BBB     CTabbedView.obj
0048dc28 00000008 .exc     $BBB     CTabbedView.obj
0048dc30 00000008 .exc     $BBB     CTabbedView.obj
0048dc38 00000008 .exc     $BBB     CTabbedView.obj
0048dc40 00000008 .exc     $BBB     CTabbedView.obj
0048dc48 00000008 .exc     $BBB     CTabbedView.obj
0048dc50 00000008 .exc     $BBB     CTabbedView.obj
0048dc58 00000008 .exc     $BBB     CTabbedView.obj
0048dc60 00000008 .exc     $BBB     CTabbedView.obj
0048dc68 00000008 .exc     $BBB     CTabbedView.obj
0048dc70 00000008 .exc     $BBB     CTabbedView.obj
0048dc78 00000008 .exc     $BBB     CTabbedView.obj
0048dc80 00000008 .exc     $BBB     CTabbedView.obj
0048dc88 00000008 .exc     $BBB     CTabbedView.obj
0048dc90 00000008 .exc     $BBB     CTabbedView.obj
0048dc98 00000008 .exc     $BBB     CTabbedView.obj
0048dca0 00000008 .exc     $BBB     CTabbedView.obj
0048dca8 00000008 .exc     $BBB     CTabbedView.obj
0048dcb0 00000008 .exc     $BBB     CTabbedView.obj
0048dcb8 00000008 .exc     $BBB     CTabbedView.obj
0048dcc0 00000008 .exc     $BBB     CTabbedView.obj
0048dcc8 00000008 .exc     $BBB     CTabbedView.obj
0048dcd0 00000008 .exc     $BBB     CTabbedView.obj
0048dcd8 00000008 .exc     $BBB     CTabbedView.obj
0048dce0 00000008 .exc     $BBB     CTabbedView.obj
0048dce8 00000008 .exc     $BBB     CTabbedView.obj
0048dcf0 00000008 .exc     $BBB     CTabbedView.obj
0048dcf8 00000008 .exc     $BBB     CButtonView.obj
0048dd00 00000008 .exc     $BBB     CButtonView.obj
0048dd08 00000008 .exc     $BBB     CButtonView.obj
0048dd10 00000008 .exc     $BBB     CButtonView.obj
0048dd18 00000008 .exc     $BBB     CButtonView.obj
0048dd20 00000008 .exc     $BBB     CButtonView.obj
0048dd28 00000008 .exc     $BBB     CButtonView.obj
0048dd30 00000008 .exc     $BBB     CButtonView.obj
0048dd38 00000008 .exc     $BBB     CButtonView.obj
0048dd40 00000008 .exc     $BBB     CButtonView.obj
0048dd48 00000008 .exc     $BBB     CButtonView.obj
0048dd50 00000008 .exc     $BBB     CButtonView.obj
0048dd58 00000008 .exc     $BBB     CButtonView.obj
0048dd60 00000008 .exc     $BBB     CButtonView.obj
0048dd68 00000008 .exc     $BBB     CButtonView.obj
0048dd70 00000008 .exc     $BBB     CButtonView.obj
0048dd78 00000008 .exc     $BBB     CButtonView.obj
0048dd80 00000008 .exc     $BBB     CButtonView.obj
0048dd88 00000008 .exc     $BBB     CBoxView.obj
0048dd90 00000008 .exc     $BBB     CBoxView.obj
0048dd98 00000008 .exc     $BBB     CBoxView.obj
0048dda0 00000008 .exc     $BBB     CBoxView.obj
0048dda8 00000008 .exc     $BBB     CBoxView.obj
0048ddb0 00000008 .exc     $BBB     CBoxView.obj
0048ddb8 00000008 .exc     $BBB     CBoxView.obj
0048ddc0 00000008 .exc     $BBB     CBoxView.obj
0048ddc8 00000008 .exc     $BBB     CBoxView.obj
0048ddd0 00000008 .exc     $BBB     CCheckBoxView.obj
0048ddd8 00000008 .exc     $BBB     CCheckBoxView.obj
0048dde0 00000008 .exc     $BBB     CCheckBoxView.obj
0048dde8 00000008 .exc     $BBB     CCheckBoxView.obj
0048ddf0 00000008 .exc     $BBB     CCheckBoxView.obj
0048ddf8 00000008 .exc     $BBB     CCheckBoxView.obj
0048de00 00000008 .exc     $BBB     CCheckBoxView.obj
0048de08 00000008 .exc     $BBB     CCheckBoxView.obj
0048de10 00000008 .exc     $BBB     CCheckBoxView.obj
0048de18 00000008 .exc     $BBB     CCheckBoxView.obj
0048de20 00000008 .exc     $BBB     CCheckBoxView.obj
0048de28 00000008 .exc     $BBB     CCheckBoxView.obj
0048de30 00000008 .exc     $BBB     CCheckBoxView.obj
0048de38 00000008 .exc     $BBB     CCheckBoxView.obj
0048de40 00000008 .exc     $BBB     CCheckBoxView.obj
0048de48 00000008 .exc     $BBB     CCheckBoxView.obj
0048de50 00000008 .exc     $BBB     CCheckBoxView.obj
0048de58 00000008 .exc     $BBB     CIconButtonView.obj
0048de60 00000008 .exc     $BBB     CIconButtonView.obj
0048de68 00000008 .exc     $BBB     CIconButtonView.obj
0048de70 00000008 .exc     $BBB     CIconButtonView.obj
0048de78 00000008 .exc     $BBB     CIconButtonView.obj
0048de80 00000008 .exc     $BBB     CIconButtonView.obj
0048de88 00000008 .exc     $BBB     CIconButtonView.obj
0048de90 00000008 .exc     $BBB     CIconButtonView.obj
0048de98 00000008 .exc     $BBB     CIconButtonView.obj
0048dea0 00000008 .exc     $BBB     CIconButtonView.obj
0048dea8 00000008 .exc     $BBB     CIconButtonView.obj
0048deb0 00000008 .exc     $BBB     CIconButtonView.obj
0048deb8 00000008 .exc     $BBB     CIconButtonView.obj
0048dec0 00000008 .exc     $BBB     CIconButtonView.obj
0048dec8 00000008 .exc     $BBB     CIconButtonView.obj
0048ded0 00000008 .exc     $BBB     CIconButtonView.obj
0048ded8 00000008 .exc     $BBB     CIconButtonView.obj
0048dee0 00000008 .exc     $BBB     CIconView.obj
0048dee8 00000008 .exc     $BBB     CIconView.obj
0048def0 00000008 .exc     $BBB     CIconView.obj
0048def8 00000008 .exc     $BBB     CIconView.obj
0048df00 00000008 .exc     $BBB     CIconView.obj
0048df08 00000008 .exc     $BBB     CIconView.obj
0048df10 00000008 .exc     $BBB     UGUID.obj
0048df18 00000008 .exc     $BBB     UGUID.obj
0048df20 00000008 .exc     $BBB     UProgramCleanup.obj
0048df28 00000008 .exc     $BBB     UProgramCleanup.obj
0048df30 00000008 .exc     $BBB     UProgramCleanup.obj
0048df38 00000008 .exc     $BBB     UProgramCleanup.obj
0048df40 00000008 .exc     $BBB     UProgramCleanup.obj
0048df48 00000008 .exc     $BBB     UProgramCleanup.obj
0048df50 00000008 .exc     $BBB     UProgramCleanup.obj
0048df58 00000008 .exc     $BBB     UProgramCleanup.obj
0048df60 00000008 .exc     $BBB     UProgramCleanup.obj
0048df68 00000008 .exc     $BBB     UService(W).obj
0048df70 00000008 .exc     $BBB     UService(W).obj
0048df78 00000008 .exc     $BBB     UService(W).obj
0048df80 00000008 .exc     $BBB     UService(W).obj
0048df88 00000008 .exc     $BBB     UService(W).obj
0048df90 00000008 .exc     $BBB     UService(W).obj
0048df98 00000008 .exc     $BBB     UService(W).obj
0048dfa0 00000008 .exc     $BBB     UService(W).obj
0048dfa8 00000008 .exc     $BBB     UService(W).obj
0048dfb0 00000008 .exc     $BBB     UService(W).obj
0048dfb8 00000008 .exc     $BBB     UService(W).obj
0048dfc0 00000008 .exc     $BBB     UService(W).obj
0048dfc8 00000008 .exc     $BBB     UOleAutomation(W).obj
0048dfd0 00000008 .exc     $BBB     UOleAutomation(W).obj
0048dfd8 00000008 .exc     $BBB     UOleAutomation(W).obj
0048dfe0 00000008 .exc     $BBB     UOleAutomation(W).obj
0048dfe8 00000008 .exc     $BBB     UOleAutomation(W).obj
0048dff0 00000008 .exc     $BBB     UOleAutomation(W).obj
0048dff8 00000008 .exc     $BBB     UOleAutomation(W).obj
0048e000 00000008 .exc     $BBB     UOleAutomation(W).obj
0048e008 00000008 .exc     $BBB     UOleAutomation(W).obj
0048e010 00000008 .exc     $BBB     UOleAutomation(W).obj
0048e018 00000008 .exc     $BBB     UOleAutomation(W).obj
0048e020 00000008 .exc     $BBB     UOleAutomation(W).obj
0048e028 00000008 .exc     $BBB     UOleAutomation(W).obj
0048e030 00000008 .exc     $BBB     UOleAutomation(W).obj
0048e038 00000008 .exc     $BBB     UOleAutomation(W).obj
0048e040 00000008 .exc     $BBB     UOleAutomation(W).obj
0048e048 00000008 .exc     $BBB     UOleAutomation(W).obj
0048e050 00000008 .exc     $BBB     UOleAutomation(W).obj
0048e058 00000008 .exc     $BBB     UOleAutomation(W).obj
0048e060 00000008 .exc     $BBB     UOleAutomation(W).obj
0048e068 00000008 .exc     $BBB     UOleAutomation(W).obj
0048e070 00000008 .exc     $BBB     URegularTransport(W).obj
0048e078 00000008 .exc     $BBB     URegularTransport(W).obj
0048e080 00000008 .exc     $BBB     URegularTransport(W).obj
0048e088 00000008 .exc     $BBB     URegularTransport(W).obj
0048e090 00000008 .exc     $BBB     URegularTransport(W).obj
0048e098 00000008 .exc     $BBB     URegularTransport(W).obj
0048e0a0 00000008 .exc     $BBB     URegularTransport(W).obj
0048e0a8 00000008 .exc     $BBB     URegularTransport(W).obj
0048e0b0 00000008 .exc     $BBB     URegularTransport(W).obj
0048e0b8 00000008 .exc     $BBB     URegularTransport(W).obj
0048e0c0 00000008 .exc     $BBB     URegularTransport(W).obj
0048e0c8 00000008 .exc     $BBB     URegularTransport(W).obj
0048e0d0 00000008 .exc     $BBB     URegularTransport(W).obj
0048e0d8 00000008 .exc     $BBB     URegularTransport(W).obj
0048e0e0 00000008 .exc     $BBB     URegularTransport(W).obj
0048e0e8 00000008 .exc     $BBB     URegularTransport(W).obj
0048e0f0 00000008 .exc     $BBB     URegularTransport(W).obj
0048e0f8 00000008 .exc     $BBB     URegularTransport(W).obj
0048e100 00000008 .exc     $BBB     URegularTransport(W).obj
0048e108 00000008 .exc     $BBB     URegularTransport(W).obj
0048e110 00000008 .exc     $BBB     URegularTransport(W).obj
0048e118 00000008 .exc     $BBB     URegularTransport(W).obj
0048e120 00000008 .exc     $BBB     URegularTransport(W).obj
0048e128 00000008 .exc     $BBB     URegularTransport(W).obj
0048e130 00000008 .exc     $BBB     URegularTransport(W).obj
0048e138 00000008 .exc     $BBB     URegularTransport(W).obj
0048e140 00000008 .exc     $BBB     URegularTransport(W).obj
0048e148 00000008 .exc     $BBB     URegularTransport(W).obj
0048e150 00000008 .exc     $BBB     URegularTransport(W).obj
0048e158 00000008 .exc     $BBB     URegularTransport(W).obj
0048e160 00000008 .exc     $BBB     URegularTransport(W).obj
0048e168 00000008 .exc     $BBB     URegularTransport(W).obj
0048e170 00000008 .exc     $BBB     URegularTransport(W).obj
0048e178 00000008 .exc     $BBB     URegularTransport(W).obj
0048e180 00000008 .exc     $BBB     URegularTransport(W).obj
0048e188 00000008 .exc     $BBB     URegularTransport(W).obj
0048e190 00000008 .exc     $BBB     URegularTransport(W).obj
0048e198 00000008 .exc     $BBB     URegularTransport(W).obj
0048e1a0 00000008 .exc     $BBB     URegularTransport(W).obj
0048e1a8 00000008 .exc     $BBB     URegularTransport(W).obj
0048e1b0 00000008 .exc     $BBB     URegularTransport(W).obj
0048e1b8 00000008 .exc     $BBB     URegularTransport(W).obj
0048e1c0 00000008 .exc     $BBB     URegularTransport(W).obj
0048e1c8 00000008 .exc     $BBB     URegularTransport(W).obj
0048e1d0 00000008 .exc     $BBB     URegularTransport(W).obj
0048e1d8 00000008 .exc     $BBB     URegularTransport(W).obj
0048e1e0 00000008 .exc     $BBB     URegularTransport(W).obj
0048e1e8 00000008 .exc     $BBB     URegularTransport(W).obj
0048e1f0 00000008 .exc     $BBB     URegularTransport(W).obj
0048e1f8 00000008 .exc     $BBB     URegularTransport(W).obj
0048e200 00000008 .exc     $BBB     URegularTransport(W).obj
0048e208 00000008 .exc     $BBB     URegularTransport(W).obj
0048e210 00000008 .exc     $BBB     UHttpTransport.obj
0048e218 00000008 .exc     $BBB     UHttpTransport.obj
0048e220 00000008 .exc     $BBB     UHttpTransport.obj
0048e228 00000008 .exc     $BBB     UHttpTransport.obj
0048e230 00000008 .exc     $BBB     UHttpTransport.obj
0048e238 00000008 .exc     $BBB     UHttpTransport.obj
0048e240 00000008 .exc     $BBB     UHttpTransport.obj
0048e248 00000008 .exc     $BBB     UHttpTransport.obj
0048e250 00000008 .exc     $BBB     UHttpTransport.obj
0048e258 00000008 .exc     $BBB     UHttpTransport.obj
0048e260 00000008 .exc     $BBB     UHttpTransport.obj
0048e268 00000008 .exc     $BBB     UHttpTransport.obj
0048e270 00000008 .exc     $BBB     UHttpTransport.obj
0048e278 00000008 .exc     $BBB     UHttpTransport.obj
0048e280 00000008 .exc     $BBB     UHttpTransport.obj
0048e288 00000008 .exc     $BBB     UHttpTransport.obj
0048e290 00000008 .exc     $BBB     UHttpTransport.obj
0048e298 00000008 .exc     $BBB     UHttpTransport.obj
0048e2a0 00000008 .exc     $BBB     UHttpTransport.obj
0048e2a8 00000008 .exc     $BBB     UHttpTransport.obj
0048e2b0 00000008 .exc     $BBB     UHttpTransport.obj
0048e2b8 00000008 .exc     $BBB     UHttpTransport.obj
0048e2c0 00000008 .exc     $BBB     UHttpTransport.obj
0048e2c8 00000008 .exc     $BBB     UHttpTransport.obj
0048e2d0 00000008 .exc     $BBB     UHttpTransport.obj
0048e2d8 00000008 .exc     $BBB     UHttpTransport.obj
0048e2e0 00000008 .exc     $BBB     UHttpTransport.obj
0048e2e8 00000008 .exc     $BBB     UHttpTransport.obj
0048e2f0 00000008 .exc     $BBB     UHttpTransport.obj
0048e2f8 00000008 .exc     $BBB     UHttpTransport.obj
0048e300 00000008 .exc     $BBB     UHttpTransport.obj
0048e308 00000008 .exc     $BBB     UHttpTransport.obj
0048e310 00000008 .exc     $BBB     UHttpTransport.obj
0048e318 00000008 .exc     $BBB     UHttpTransport.obj
0048e320 00000008 .exc     $BBB     UHttpTransport.obj
0048e328 00000008 .exc     $BBB     UHttpTransport.obj
0048e330 00000008 .exc     $BBB     UHttpTransport.obj
0048e338 00000008 .exc     $BBB     UHttpTransport.obj
0048e340 00000008 .exc     $BBB     UHttpTransport.obj
0048e348 00000008 .exc     $BBB     UHttpTransport.obj
0048e350 00000008 .exc     $BBB     UHttpTransport.obj
0048e358 00000008 .exc     $BBB     UHttpTransport.obj
0048e360 00000008 .exc     $BBB     UHttpTransport.obj
0048e368 00000008 .exc     $BBB     UHttpTransport.obj
0048e370 00000008 .exc     $BBB     UHttpTransport.obj
0048e378 00000008 .exc     $BBB     UHttpTransport.obj
0048e380 00000008 .exc     $BBB     UHttpTransport.obj
0048e388 00000008 .exc     $BBB     UHttpTransport.obj
0048e390 00000008 .exc     $BBB     UHttpTransport.obj
0048e398 00000008 .exc     $BBB     UHttpTransport.obj
0048e3a0 00000008 .exc     $BBB     UHttpTransport.obj
0048e3a8 00000008 .exc     $BBB     UHttpTransport.obj
0048e3b0 00000008 .exc     $BBB     UHttpTransport.obj
0048e3b8 00000008 .exc     $BBB     UHttpTransport.obj
0048e3c0 00000008 .exc     $BBB     UHttpTransport.obj
0048e3c8 00000008 .exc     $BBB     UHttpTransport.obj
0048e3d0 00000008 .exc     $BBB     UHttpTransport.obj
0048e3d8 00000008 .exc     $BBB     UHttpTransport.obj
0048e3e0 00000008 .exc     $BBB     UHttpTransport.obj
0048e3e8 00000008 .exc     $BBB     UHttpTransport.obj
0048e3f0 00000008 .exc     $BBB     UHttpTransport.obj
0048e3f8 00000008 .exc     $BBB     UHttpTransport.obj
0048e400 00000008 .exc     $BBB     UHttpTransport.obj
0048e408 00000008 .exc     $BBB     UHttpTransport.obj
0048e410 00000008 .exc     $BBB     UHttpTransport.obj
0048e418 00000008 .exc     $BBB     UHttpTransport.obj
0048e420 00000008 .exc     $BBB     UIDVarArray.obj
0048e428 00000008 .exc     $BBB     delarrop.obj
0048e430 00000008 .exc     $BBB     URegion(W).obj
0048e438 00000008 .exc     $BBB     URegion(W).obj
0048e440 00000008 .exc     $BBB     URegion(W).obj
0048e448 00000008 .exc     $BBB     URegion(W).obj
0048e450 00000008 .exc     $BBB     URegion(W).obj
0048e458 00000008 .exc     $BBB     URegion(W).obj
0048e460 00000008 .exc     $BBB     URegion(W).obj
0048e468 00000008 .exc     $BBB     URegion(W).obj
0048e470 00000008 .exc     $BBB     URegion(W).obj
0048e478 00000008 .exc     $BBB     URegion(W).obj
0048e480 00000008 .exc     $BBB     URegion(W).obj
0048e488 00000008 .exc     $BBB     URegion(W).obj
0048e490 00000008 .exc     $BBB     URegion(W).obj
0048e498 00000008 .exc     $BBB     UDragAndDrop(W).obj
0048e4a0 00000008 .exc     $BBB     UDragAndDrop(W).obj
0048e4a8 00000008 .exc     $BBB     UDragAndDrop(W).obj
0048e4b0 00000008 .exc     $BBB     UDragAndDrop(W).obj
0048e4b8 00000008 .exc     $BBB     UDragAndDrop(W).obj
0048e4c0 00000008 .exc     $BBB     UDragAndDrop(W).obj
0048e4c8 00000008 .exc     $BBB     UDragAndDrop(W).obj
0048e4d0 00000008 .exc     $BBB     UDragAndDrop(W).obj
0048e4d8 00000008 .exc     $BBB     UDragAndDrop(W).obj
0048e4e0 00000008 .exc     $BBB     UDragAndDrop(W).obj
0048e4e8 00000008 .exc     $BBB     UDragAndDrop(W).obj
0048e4f0 00000008 .exc     $BBB     UDragAndDrop(W).obj
0048e4f8 00000008 .exc     $BBB     UDragAndDrop(W).obj
0048e500 00000008 .exc     $BBB     UDragAndDrop(W).obj
0048e508 00000008 .exc     $BBB     UDragAndDrop(W).obj
0048e510 00000008 .exc     $BBB     UDragAndDrop(W).obj
0048e518 00000008 .exc     $BBB     UDragAndDrop(W).obj
0048e520 00000008 .exc     $BBB     UDragAndDrop(W).obj
0048e528 00000008 .exc     $BBB     UDragAndDrop(W).obj
0048e530 00000008 .exc     $BBB     UDragAndDrop(W).obj
0048e538 00000008 .exc     $BBB     UDragAndDrop(W).obj
0048e540 00000008 .exc     $BBB     UDragAndDrop(W).obj
0048e548 00000008 .exc     $BBB     UDragAndDrop(W).obj
0048e550 00000008 .exc     $BBB     UDragAndDrop(W).obj
0048e558 00000008 .exc     $BBB     UDragAndDrop(W).obj
0048e560 00000008 .exc     $BBB     UDragAndDrop(W).obj
0048e568 00000008 .exc     $BBB     UDragAndDrop(W).obj
0048e570 00000008 .exc     $BBB     UDragAndDrop(W).obj
0048e578 00000008 .exc     $BBB     UDragAndDrop(W).obj
0048e580 00000008 .exc     $BBB     UDragAndDrop(W).obj
0048e588 00000008 .exc     $BBB     UDragAndDrop(W).obj
0048e590 00000008 .exc     $BBB     UDragAndDrop(W).obj
0048e598 00000008 .exc     $BBB     UDragAndDrop(W).obj
0048e5a0 00000008 .exc     $BBB     UDragAndDrop(W).obj
0048e5a8 00000008 .exc     $BBB     UDragAndDrop(W).obj
0048e5b0 00000008 .exc     $BBB     UDragAndDrop(W).obj
0048e5b8 00000008 .exc     $BBB     UDragAndDrop(W).obj
0048e5c0 00000008 .exc     $BBB     UDragAndDrop(W).obj
0048e5c8 00000008 .exc     $BBB     UDragAndDrop(W).obj
0048e5d0 00000008 .exc     $BBB     UDragAndDrop(W).obj
0048e5d8 00000008 .exc     $BBB     UDragAndDrop(W).obj
0048e5e0 00000008 .exc     $BBB     UDragAndDrop(W).obj
0048e5e8 00000008 .exc     $BBB     UDragAndDrop(W).obj
0048e5f0 00000008 .exc     $BBB     UDragAndDrop(W).obj
0048e5f8 00000008 .exc     $BBB     UDragAndDrop(W).obj
0048e600 00000008 .exc     $BBB     UDragAndDrop(W).obj
0048e608 00000008 .exc     $BBB     UDragAndDrop(W).obj
0048e610 00000008 .exc     $BBB     UDragAndDrop(W).obj
0048e618 00000008 .exc     $BBB     UDragAndDrop(W).obj
0048e620 00000008 .exc     $BBB     UDragAndDrop(W).obj
0048e628 00000008 .exc     $BBB     UDragAndDrop(W).obj
0048e630 00000008 .exc     $BBB     UDragAndDrop(W).obj
0048e638 00000008 .exc     $BBB     UDragAndDrop(W).obj
0048e640 00000008 .exc     $BBB     UDragAndDrop(W).obj
0048e648 00000008 .exc     $BBB     UDragAndDrop(W).obj
0048e650 00000008 .exc     $BBB     UDragAndDrop(W).obj
0048e658 00000008 .exc     $BBB     UDragAndDrop(W).obj
0048e660 00000008 .exc     $BBB     UDragAndDrop(W).obj
0048e668 00000008 .exc     $BBB     UTooltip.obj
0048e670 00000008 .exc     $BBB     UTooltip.obj
0048e678 00000008 .exc     $BBB     UTooltip.obj
0048e680 00000008 .exc     $BBB     UTooltip.obj
0048e688 00000008 .exc     $BBB     UTooltip.obj
0048e690 00000008 .exc     $BBB     UTooltip.obj
0048e698 00000008 .exc     $BBB     UTooltip.obj
0048e6a0 00000008 .exc     $BBB     UTooltip.obj
0048e6a8 00000008 .exc     $BBB     UTooltip.obj
0048e6b0 00000008 .exc     $BBB     UTooltip.obj
0048e6b8 00000008 .exc     $BBB     UTooltip.obj
0048e6c0 00000008 .exc     $BBB     UTooltip.obj
0048e6c8 00000008 .exc     $BBB     UTooltip.obj
0048e6d0 00000008 .exc     $BBB     UTooltip.obj
0048e6d8 00000008 .exc     $BBB     UTooltip.obj
0048e6e0 00000008 .exc     $BBB     UTooltip.obj
0048e6e8 00000008 .exc     $BBB     GrafTypes.obj
0048e6f0 00000008 .exc     $BBB     GrafTypes.obj
0048e6f8 00000008 .exc     $BBB     GrafTypes.obj
0048e700 00000008 .exc     $BBB     GrafTypes.obj
0048e708 00000008 .exc     $BBB     GrafTypes.obj
0048e710 00000008 .exc     $BBB     GrafTypes.obj
0048e718 00000008 .exc     $BBB     GrafTypes.obj
0048e720 00000008 .exc     $BBB     GrafTypes.obj
0048e728 00000008 .exc     $BBB     GrafTypes.obj
0048e730 00000008 .exc     $BBB     GrafTypes.obj
0048e738 00000008 .exc     $BBB     GrafTypes.obj
0048e740 00000008 .exc     $BBB     GrafTypes.obj
0048e748 00000008 .exc     $BBB     GrafTypes.obj
0048e750 00000008 .exc     $BBB     UKeyboard.obj
0048e758 00000008 .exc     $BBB     UDateTime.obj
0048e760 00000008 .exc     $BBB     globdest.obj
0048e768 00000008 .exc     $BBB     UMessageSys.obj
0048e770 00000008 .exc     $BBB     UMessageSys.obj
0048e778 00000008 .exc     $BBB     UMessageSys.obj
0048e780 00000008 .exc     $BBB     UMessageSys.obj
0048e788 00000008 .exc     $BBB     UMessageSys.obj
0048e790 00000008 .exc     $BBB     UMessageSys.obj
0048e798 00000008 .exc     $BBB     UMessageSys.obj
0048e7a0 00000008 .exc     $BBB     CPictureView.obj
0048e7a8 00000008 .exc     $BBB     CPictureView.obj
0048e7b0 00000008 .exc     $BBB     CPictureView.obj
0048e7b8 00000008 .exc     $BBB     CPictureView.obj
0048e7c0 00000008 .exc     $BBB     UClipboard(W).obj
0048e7c8 00000008 .exc     $BBB     UClipboard(W).obj
0048e7d0 00000008 .exc     $BBB     UClipboard(W).obj
0048e7d8 00000008 .exc     $BBB     UText(W).obj
0048e7e0 00000008 .exc     $BBB     NMWException.obj
0048e7e8 00000008 .exc     $BBB     NMWException.obj
0048e7f0 00000008 .exc     $BBB     NMWException.obj
0048e7f8 00000008 .exc     $BBB     NMWException.obj
0048e800 00000008 .exc     $BBB     NMWException.obj
0048e808 00000008 .exc     $BBB     NMWException.obj
0048e810 00000008 .exc     $BBB     NMWException.obj
0048e818 00000008 .exc     $BBB     runinit.obj
0048e820 00000008 .exc     $BBB     runinit.obj
0048e828 00000008 .exc     $BBB     UMath(W).obj
0048e830 00000008 .exc     $BBB     UMath(W).obj
0048e838 00000008 .exc     $BBB     UMath(W).obj
0048e840 00000008 .exc     $BBB     UMath(W).obj
0048e848 00000008 .exc     $BBB     UMath(W).obj
0048e850 00000008 .exc     $BBB     UUserInterface.obj
0048e858 00000008 .exc     $BBB     UUserInterface.obj
0048e860 00000008 .exc     $BBB     UUserInterface.obj
0048e868 00000008 .exc     $BBB     UUserInterface.obj
0048e870 00000008 .exc     $BBB     UUserInterface.obj
0048e878 00000008 .exc     $BBB     UScrollBar.obj
0048e880 00000008 .exc     $BBB     UScrollBar.obj
0048e888 00000008 .exc     $BBB     UScrollBar.obj
0048e890 00000008 .exc     $BBB     UScrollBar.obj
0048e898 00000008 .exc     $BBB     UScrollBar.obj
0048e8a0 00000008 .exc     $BBB     UScrollBar.obj
0048e8a8 00000008 .exc     $BBB     UScrollBar.obj
0048e8b0 00000008 .exc     $BBB     UScrollBar.obj
0048e8b8 00000008 .exc     $BBB     UBitString.obj
0048e8c0 00000008 .exc     $BBB     UBitString.obj
0048e8c8 00000008 .exc     $BBB     UBitString.obj
0048e8d0 00000008 .exc     $BBB     UBitString.obj
0048e8d8 00000008 .exc     $BBB     UBitString.obj
0048e8e0 00000008 .exc     $BBB     UPixmap.obj
0048e8e8 00000008 .exc     $BBB     UPixmap.obj
0048e8f0 00000008 .exc     $BBB     UPixmap.obj
0048e8f8 00000008 .exc     $BBB     UPixmap.obj
0048e900 00000008 .exc     $BBB     UPixmap.obj
0048e908 00000008 .exc     $BBB     UPixmap.obj
0048e910 00000008 .exc     $BBB     UCheckBox(W).obj
0048e918 00000008 .exc     $BBB     UCheckBox(W).obj
0048e920 00000008 .exc     $BBB     UCheckBox(W).obj
0048e928 00000008 .exc     $BBB     UCheckBox(W).obj
0048e930 00000008 .exc     $BBB     UButton.obj
0048e938 00000008 .exc     $BBB     UButton.obj
0048e940 00000008 .exc     $BBB     UButton.obj
0048e948 00000008 .exc     $BBB     UButton.obj
0048e950 00000008 .exc     $BBB     UIconButton.obj
0048e958 00000008 .exc     $BBB     UIconButton.obj
0048e960 00000008 .exc     $BBB     UIconButton.obj
0048e968 00000008 .exc     $BBB     UIconButton.obj
0048e970 00000008 .exc     $BBB     UIconButton.obj
0048e978 00000008 .exc     $BBB     excrtl.obj
0048e980 00000008 .exc     $BBB     excrtl.obj
0048e988 00000008 .exc     $BBB     excrtl.obj
0048e990 00000008 .exc     $BBB     excrtl.obj
0048e998 00000008 .exc     $BBB     exchand.obj
0048e9a0 00000008 .exc     $BBB     exchand.obj
0048e9a8 00000008 .exc     $BBB     setupargs.obj
0048e9b0 00000008 .exc     $BBB     setupargs.obj
0048e9b8 00000008 .exc     $BBB     setupargs.obj
0048e9c0 00000008 .exc     $BBB     setupargs.obj
0048e9c8 00000008 .exc     $BBB     setupargs.obj
0048e9d0 00000008 .exc     $BBB     QTDispatcherW.obj
0048e9d8 00000008 .exc     $BBB     QTDispatcherW.obj
0048e9e0 00000008 .exc     $BBB     QTDispatcherW.obj
0048e9e8 00000008 .exc     $BBB     CDataHandlerComponent.obj
0048e9f0 00000008 .exc     $BBB     CDataHandlerComponent.obj
0048e9f8 00000008 .exc     $BBB     CDataHandlerComponent.obj
0048ea00 00000008 .exc     $BBB     CDataHandlerComponent.obj
0048ea08 00000008 .exc     $BBB     CDataHandlerComponent.obj
0048ea10 00000008 .exc     $BBB     CDataHandlerComponent.obj
0048ea18 00000008 .exc     $BBB     CDataHandlerComponent.obj
0048ea20 00000008 .exc     $BBB     CDataHandlerComponent.obj
0048ea28 00000008 .exc     $BBB     CDataHandlerComponent.obj
0048ea30 00000008 .exc     $BBB     CDataHandlerComponent.obj
0048ea38 00000008 .exc     $BBB     CDataHandlerComponent.obj
0048ea40 00000008 .exc     $BBB     CDataHandlerComponent.obj
0048ea48 00000008 .exc     $BBB     CDataHandlerComponent.obj
0048ea50 00000008 .exc     $BBB     CDataHandlerComponent.obj
0048ea58 00000008 .exc     $BBB     CDataHandlerComponent.obj
0048ea60 00000008 .exc     $BBB     CDataHandlerComponent.obj
0048ea68 00000008 .exc     $BBB     CDataHandlerComponent.obj
0048ea70 00000008 .exc     $BBB     CDataHandlerComponent.obj
0048ea78 00000008 .exc     $BBB     CDataHandlerComponent.obj
0048ea80 00000008 .exc     $BBB     CDataHandlerComponent.obj
0048ea88 00000008 .exc     $BBB     CDataHandlerComponent.obj
0048ea90 00000008 .exc     $BBB     CDataHandlerComponent.obj
0048ea98 00000008 .exc     $BBB     CDataHandlerComponent.obj
0048eaa0 00000008 .exc     $BBB     CDataHandlerComponent.obj
0048eaa8 00000008 .exc     $BBB     CDataHandlerComponent.obj
0048eab0 00000008 .exc     $BBB     CDataHandlerComponent.obj
0048eab8 00000008 .exc     $BBB     CDataHandlerComponent.obj
0048eac0 00000008 .exc     $BBB     CDataHandlerComponent.obj
0048eac8 00000008 .exc     $BBB     CDataHandlerComponent.obj
0048ead0 00000008 .exc     $BBB     CDataHandlerComponent.obj
0048ead8 00000008 .exc     $BBB     CDataHandlerComponent.obj
0048eae0 00000008 .exc     $BBB     CDataHandlerComponent.obj
0048eae8 00000008 .exc     $BBB     CDataHandlerComponent.obj
0048eaf0 00000008 .exc     $BBB     CDataHandlerComponent.obj
0048eaf8 00000008 .exc     $BBB     CDataHandlerComponent.obj
0048eb00 00000008 .exc     $BBB     CDataHandlerComponent.obj
0048eb08 00000008 .exc     $BBB     CDataHandlerComponent.obj
0048eb10 00000008 .exc     $BBB     CDataHandlerComponent.obj
0048eb18 00000008 .exc     $BBB     CDataHandlerComponent.obj
0048eb20 00000008 .exc     $BBB     CDataHandlerComponent.obj
0048eb28 00000008 .exc     $BBB     CDataHandlerComponent.obj
0048eb30 00000008 .exc     $BBB     CDataHandlerComponent.obj
0048eb38 00000008 .exc     $BBB     CDataHandlerComponent.obj
0048eb40 00000008 .exc     $BBB     CDataHandlerComponent.obj
0048eb48 00000008 .exc     $BBB     CDataHandlerComponent.obj
0048eb50 00000008 .exc     $BBB     CDataHandlerComponent.obj
0048eb58 00000008 .exc     $BBB     CDataHandlerComponent.obj
0048eb60 00000008 .exc     $BBB     CDataHandlerComponent.obj
0048eb68 00000008 .exc     $BBB     CDataHandlerComponent.obj
0048eb70 00000008 .exc     $BBB     CDataHandlerComponent.obj
0048eb78 00000008 .exc     $BBB     CDataHandlerComponent.obj
0048eb80 00000008 .exc     $BBB     CDataHandlerComponent.obj
0048eb88 00000008 .exc     $BBB     CDataHandlerComponent.obj
0048eb90 00000008 .exc     $BBB     CDataHandlerComponent.obj
0048eb98 00000008 .exc     $BBB     CDataHandlerComponent.obj
0048eba0 00000008 .exc     $BBB     CDataHandlerComponent.obj
0048eba8 00000008 .exc     $BBB     CDataHandlerComponent.obj
0048ebb0 00000008 .exc     $BBB     CDataHandlerComponent.obj
0048ebb8 00000008 .exc     $BBB     CDataHandlerComponent.obj
0048ebc0 00000008 .exc     $BBB     CDataHandlerComponent.obj
0048ebc8 00000008 .exc     $BBB     CDataHandlerComponent.obj
0048ebd0 00000008 .exc     $BBB     CDataHandlerComponent.obj
0048ebd8 00000008 .exc     $BBB     CDataHandlerComponent.obj
0048ebe0 00000008 .exc     $BBB     CDataHandlerComponent.obj
0048ebe8 00000008 .exc     $BBB     CDataHandlerComponent.obj
0048ebf0 00000008 .exc     $BBB     CDataHandlerComponent.obj
0048ebf8 00000008 .exc     $BBB     CDataHandlerComponent.obj
0048ec00 00000008 .exc     $BBB     CDataHandlerComponent.obj
0048ec08 00000008 .exc     $BBB     CDataHandlerComponent.obj
0048ec10 00000008 .exc     $BBB     CDataHandlerComponent.obj
0048ec18 00000008 .exc     $BBB     CDataHandlerComponent.obj
0048ec20 00000008 .exc     $BBB     CDataHandlerComponent.obj
0048ec28 00000008 .exc     $BBB     CDataHandlerComponent.obj
0048ec30 00000008 .exc     $BBB     CDataHandlerComponent.obj
0048ec38 00000008 .exc     $BBB     CDataHandlerComponent.obj
0048ec40 00000008 .exc     $BBB     CDataHandlerComponent.obj
0048ec48 00000008 .exc     $BBB     CDataHandlerComponent.obj
0048ec50 00000008 .exc     $BBB     CDataHandlerComponent.obj
0048ec58 00000008 .exc     $BBB     CDataHandlerComponent.obj
0048ec60 00000008 .exc     $BBB     CDataHandlerComponent.obj
0048ec68 00000008 .exc     $BBB     CDataHandlerComponent.obj
0048ec70 00000008 .exc     $BBB     CDataHandlerComponent.obj
0048ec78 00000008 .exc     $BBB     CDataHandlerComponent.obj
0048ec80 00000008 .exc     $BBB     CDataHandlerComponent.obj
0048ec88 00000008 .exc     $BBB     CDataHandlerComponent.obj
0048ec90 00000008 .exc     $BBB     CDataHandlerComponent.obj
0048ec98 00000008 .exc     $BBB     CDataHandlerComponent.obj
